ARM GAS  C:\Users\Ala\AppData\Local\Temp\cchB5osk.s 			page 1


   1              		.syntax unified
   2              		.cpu cortex-m0
   3              		.fpu softvfp
   4              		.eabi_attribute 20, 1
   5              		.eabi_attribute 21, 1
   6              		.eabi_attribute 23, 3
   7              		.eabi_attribute 24, 1
   8              		.eabi_attribute 25, 1
   9              		.eabi_attribute 26, 1
  10              		.eabi_attribute 30, 4
  11              		.eabi_attribute 34, 0
  12              		.eabi_attribute 18, 4
  13              		.thumb
  14              		.syntax unified
  15              		.file	"DATALINK_Timer.c"
  16              		.text
  17              	.Ltext0:
  18              		.cfi_sections	.debug_frame
  19              		.section	.text.DATALINK_Timer_Enable,"ax",%progbits
  20              		.align	1
  21              		.global	DATALINK_Timer_Enable
  22              		.code	16
  23              		.thumb_func
  24              		.type	DATALINK_Timer_Enable, %function
  25              	DATALINK_Timer_Enable:
  26              	.LFB20:
  27              		.cfi_startproc
  28              		@ args = 0, pretend = 0, frame = 0
  29              		@ frame_needed = 0, uses_anonymous_args = 0
  30              		@ link register save eliminated.
  31              		@ sp needed
  32 0000 7047     		bx	lr
  33              		.cfi_endproc
  34              	.LFE20:
  35              		.size	DATALINK_Timer_Enable, .-DATALINK_Timer_Enable
  36              		.section	.text.DATALINK_Timer_Stop,"ax",%progbits
  37              		.align	1
  38              		.global	DATALINK_Timer_Stop
  39              		.code	16
  40              		.thumb_func
  41              		.type	DATALINK_Timer_Stop, %function
  42              	DATALINK_Timer_Stop:
  43              	.LFB18:
  44              		.cfi_startproc
  45              		@ args = 0, pretend = 0, frame = 0
  46              		@ frame_needed = 0, uses_anonymous_args = 0
  47              		@ link register save eliminated.
  48              		@ sp needed
  49 0000 7047     		bx	lr
  50              		.cfi_endproc
  51              	.LFE18:
  52              		.size	DATALINK_Timer_Stop, .-DATALINK_Timer_Stop
  53              		.section	.text.DATALINK_Timer_SetInterruptMode,"ax",%progbits
  54              		.align	1
  55              		.global	DATALINK_Timer_SetInterruptMode
  56              		.code	16
  57              		.thumb_func
ARM GAS  C:\Users\Ala\AppData\Local\Temp\cchB5osk.s 			page 2


  58              		.type	DATALINK_Timer_SetInterruptMode, %function
  59              	DATALINK_Timer_SetInterruptMode:
  60              	.LFB4:
  61              		.file 1 "Generated_Source\\PSoC4\\DATALINK_Timer.c"
   1:Generated_Source\PSoC4/DATALINK_Timer.c **** /*******************************************************************************
   2:Generated_Source\PSoC4/DATALINK_Timer.c **** * File Name: DATALINK_Timer.c
   3:Generated_Source\PSoC4/DATALINK_Timer.c **** * Version 2.80
   4:Generated_Source\PSoC4/DATALINK_Timer.c **** *
   5:Generated_Source\PSoC4/DATALINK_Timer.c **** * Description:
   6:Generated_Source\PSoC4/DATALINK_Timer.c **** *  The Timer component consists of a 8, 16, 24 or 32-bit timer with
   7:Generated_Source\PSoC4/DATALINK_Timer.c **** *  a selectable period between 2 and 2^Width - 1.  The timer may free run
   8:Generated_Source\PSoC4/DATALINK_Timer.c **** *  or be used as a capture timer as well.  The capture can be initiated
   9:Generated_Source\PSoC4/DATALINK_Timer.c **** *  by a positive or negative edge signal as well as via software.
  10:Generated_Source\PSoC4/DATALINK_Timer.c **** *  A trigger input can be programmed to enable the timer on rising edge
  11:Generated_Source\PSoC4/DATALINK_Timer.c **** *  falling edge, either edge or continous run.
  12:Generated_Source\PSoC4/DATALINK_Timer.c **** *  Interrupts may be generated due to a terminal count condition
  13:Generated_Source\PSoC4/DATALINK_Timer.c **** *  or a capture event.
  14:Generated_Source\PSoC4/DATALINK_Timer.c **** *
  15:Generated_Source\PSoC4/DATALINK_Timer.c **** * Note:
  16:Generated_Source\PSoC4/DATALINK_Timer.c **** *
  17:Generated_Source\PSoC4/DATALINK_Timer.c **** ********************************************************************************
  18:Generated_Source\PSoC4/DATALINK_Timer.c **** * Copyright 2008-2017, Cypress Semiconductor Corporation.  All rights reserved.
  19:Generated_Source\PSoC4/DATALINK_Timer.c **** * You may use this file only in accordance with the license, terms, conditions,
  20:Generated_Source\PSoC4/DATALINK_Timer.c **** * disclaimers, and limitations in the end user license agreement accompanying
  21:Generated_Source\PSoC4/DATALINK_Timer.c **** * the software package with which this file was provided.
  22:Generated_Source\PSoC4/DATALINK_Timer.c **** ********************************************************************************/
  23:Generated_Source\PSoC4/DATALINK_Timer.c **** 
  24:Generated_Source\PSoC4/DATALINK_Timer.c **** #include "DATALINK_Timer.h"
  25:Generated_Source\PSoC4/DATALINK_Timer.c **** 
  26:Generated_Source\PSoC4/DATALINK_Timer.c **** uint8 DATALINK_Timer_initVar = 0u;
  27:Generated_Source\PSoC4/DATALINK_Timer.c **** 
  28:Generated_Source\PSoC4/DATALINK_Timer.c **** 
  29:Generated_Source\PSoC4/DATALINK_Timer.c **** /*******************************************************************************
  30:Generated_Source\PSoC4/DATALINK_Timer.c **** * Function Name: DATALINK_Timer_Init
  31:Generated_Source\PSoC4/DATALINK_Timer.c **** ********************************************************************************
  32:Generated_Source\PSoC4/DATALINK_Timer.c **** *
  33:Generated_Source\PSoC4/DATALINK_Timer.c **** * Summary:
  34:Generated_Source\PSoC4/DATALINK_Timer.c **** *  Initialize to the schematic state
  35:Generated_Source\PSoC4/DATALINK_Timer.c **** *
  36:Generated_Source\PSoC4/DATALINK_Timer.c **** * Parameters:
  37:Generated_Source\PSoC4/DATALINK_Timer.c **** *  void
  38:Generated_Source\PSoC4/DATALINK_Timer.c **** *
  39:Generated_Source\PSoC4/DATALINK_Timer.c **** * Return:
  40:Generated_Source\PSoC4/DATALINK_Timer.c **** *  void
  41:Generated_Source\PSoC4/DATALINK_Timer.c **** *
  42:Generated_Source\PSoC4/DATALINK_Timer.c **** *******************************************************************************/
  43:Generated_Source\PSoC4/DATALINK_Timer.c **** void DATALINK_Timer_Init(void) 
  44:Generated_Source\PSoC4/DATALINK_Timer.c **** {
  45:Generated_Source\PSoC4/DATALINK_Timer.c ****     #if(!DATALINK_Timer_UsingFixedFunction)
  46:Generated_Source\PSoC4/DATALINK_Timer.c ****             /* Interrupt State Backup for Critical Region*/
  47:Generated_Source\PSoC4/DATALINK_Timer.c ****             uint8 DATALINK_Timer_interruptState;
  48:Generated_Source\PSoC4/DATALINK_Timer.c ****     #endif /* Interrupt state back up for Fixed Function only */
  49:Generated_Source\PSoC4/DATALINK_Timer.c **** 
  50:Generated_Source\PSoC4/DATALINK_Timer.c ****     #if (DATALINK_Timer_UsingFixedFunction)
  51:Generated_Source\PSoC4/DATALINK_Timer.c ****         /* Clear all bits but the enable bit (if it's already set) for Timer operation */
  52:Generated_Source\PSoC4/DATALINK_Timer.c ****         DATALINK_Timer_CONTROL &= DATALINK_Timer_CTRL_ENABLE;
  53:Generated_Source\PSoC4/DATALINK_Timer.c **** 
ARM GAS  C:\Users\Ala\AppData\Local\Temp\cchB5osk.s 			page 3


  54:Generated_Source\PSoC4/DATALINK_Timer.c ****         /* Clear the mode bits for continuous run mode */
  55:Generated_Source\PSoC4/DATALINK_Timer.c ****         #if (CY_PSOC5A)
  56:Generated_Source\PSoC4/DATALINK_Timer.c ****             DATALINK_Timer_CONTROL2 &= ((uint8)(~DATALINK_Timer_CTRL_MODE_MASK));
  57:Generated_Source\PSoC4/DATALINK_Timer.c ****         #endif /* Clear bits in CONTROL2 only in PSOC5A */
  58:Generated_Source\PSoC4/DATALINK_Timer.c **** 
  59:Generated_Source\PSoC4/DATALINK_Timer.c ****         #if (CY_PSOC3 || CY_PSOC5LP)
  60:Generated_Source\PSoC4/DATALINK_Timer.c ****             DATALINK_Timer_CONTROL3 &= ((uint8)(~DATALINK_Timer_CTRL_MODE_MASK));
  61:Generated_Source\PSoC4/DATALINK_Timer.c ****         #endif /* CONTROL3 register exists only in PSoC3 OR PSoC5LP */
  62:Generated_Source\PSoC4/DATALINK_Timer.c **** 
  63:Generated_Source\PSoC4/DATALINK_Timer.c ****         /* Check if One Shot mode is enabled i.e. RunMode !=0*/
  64:Generated_Source\PSoC4/DATALINK_Timer.c ****         #if (DATALINK_Timer_RunModeUsed != 0x0u)
  65:Generated_Source\PSoC4/DATALINK_Timer.c ****             /* Set 3rd bit of Control register to enable one shot mode */
  66:Generated_Source\PSoC4/DATALINK_Timer.c ****             DATALINK_Timer_CONTROL |= 0x04u;
  67:Generated_Source\PSoC4/DATALINK_Timer.c ****         #endif /* One Shot enabled only when RunModeUsed is not Continuous*/
  68:Generated_Source\PSoC4/DATALINK_Timer.c **** 
  69:Generated_Source\PSoC4/DATALINK_Timer.c ****         #if (DATALINK_Timer_RunModeUsed == 2)
  70:Generated_Source\PSoC4/DATALINK_Timer.c ****             #if (CY_PSOC5A)
  71:Generated_Source\PSoC4/DATALINK_Timer.c ****                 /* Set last 2 bits of control2 register if one shot(halt on
  72:Generated_Source\PSoC4/DATALINK_Timer.c ****                 interrupt) is enabled*/
  73:Generated_Source\PSoC4/DATALINK_Timer.c ****                 DATALINK_Timer_CONTROL2 |= 0x03u;
  74:Generated_Source\PSoC4/DATALINK_Timer.c ****             #endif /* Set One-Shot Halt on Interrupt bit in CONTROL2 for PSoC5A */
  75:Generated_Source\PSoC4/DATALINK_Timer.c **** 
  76:Generated_Source\PSoC4/DATALINK_Timer.c ****             #if (CY_PSOC3 || CY_PSOC5LP)
  77:Generated_Source\PSoC4/DATALINK_Timer.c ****                 /* Set last 2 bits of control3 register if one shot(halt on
  78:Generated_Source\PSoC4/DATALINK_Timer.c ****                 interrupt) is enabled*/
  79:Generated_Source\PSoC4/DATALINK_Timer.c ****                 DATALINK_Timer_CONTROL3 |= 0x03u;
  80:Generated_Source\PSoC4/DATALINK_Timer.c ****             #endif /* Set One-Shot Halt on Interrupt bit in CONTROL3 for PSoC3 or PSoC5LP */
  81:Generated_Source\PSoC4/DATALINK_Timer.c **** 
  82:Generated_Source\PSoC4/DATALINK_Timer.c ****         #endif /* Remove section if One Shot Halt on Interrupt is not enabled */
  83:Generated_Source\PSoC4/DATALINK_Timer.c **** 
  84:Generated_Source\PSoC4/DATALINK_Timer.c ****         #if (DATALINK_Timer_UsingHWEnable != 0)
  85:Generated_Source\PSoC4/DATALINK_Timer.c ****             #if (CY_PSOC5A)
  86:Generated_Source\PSoC4/DATALINK_Timer.c ****                 /* Set the default Run Mode of the Timer to Continuous */
  87:Generated_Source\PSoC4/DATALINK_Timer.c ****                 DATALINK_Timer_CONTROL2 |= DATALINK_Timer_CTRL_MODE_PULSEWIDTH;
  88:Generated_Source\PSoC4/DATALINK_Timer.c ****             #endif /* Set Continuous Run Mode in CONTROL2 for PSoC5A */
  89:Generated_Source\PSoC4/DATALINK_Timer.c **** 
  90:Generated_Source\PSoC4/DATALINK_Timer.c ****             #if (CY_PSOC3 || CY_PSOC5LP)
  91:Generated_Source\PSoC4/DATALINK_Timer.c ****                 /* Clear and Set ROD and COD bits of CFG2 register */
  92:Generated_Source\PSoC4/DATALINK_Timer.c ****                 DATALINK_Timer_CONTROL3 &= ((uint8)(~DATALINK_Timer_CTRL_RCOD_MASK));
  93:Generated_Source\PSoC4/DATALINK_Timer.c ****                 DATALINK_Timer_CONTROL3 |= DATALINK_Timer_CTRL_RCOD;
  94:Generated_Source\PSoC4/DATALINK_Timer.c **** 
  95:Generated_Source\PSoC4/DATALINK_Timer.c ****                 /* Clear and Enable the HW enable bit in CFG2 register */
  96:Generated_Source\PSoC4/DATALINK_Timer.c ****                 DATALINK_Timer_CONTROL3 &= ((uint8)(~DATALINK_Timer_CTRL_ENBL_MASK));
  97:Generated_Source\PSoC4/DATALINK_Timer.c ****                 DATALINK_Timer_CONTROL3 |= DATALINK_Timer_CTRL_ENBL;
  98:Generated_Source\PSoC4/DATALINK_Timer.c **** 
  99:Generated_Source\PSoC4/DATALINK_Timer.c ****                 /* Set the default Run Mode of the Timer to Continuous */
 100:Generated_Source\PSoC4/DATALINK_Timer.c ****                 DATALINK_Timer_CONTROL3 |= DATALINK_Timer_CTRL_MODE_CONTINUOUS;
 101:Generated_Source\PSoC4/DATALINK_Timer.c ****             #endif /* Set Continuous Run Mode in CONTROL3 for PSoC3ES3 or PSoC5A */
 102:Generated_Source\PSoC4/DATALINK_Timer.c **** 
 103:Generated_Source\PSoC4/DATALINK_Timer.c ****         #endif /* Configure Run Mode with hardware enable */
 104:Generated_Source\PSoC4/DATALINK_Timer.c **** 
 105:Generated_Source\PSoC4/DATALINK_Timer.c ****         /* Clear and Set SYNCTC and SYNCCMP bits of RT1 register */
 106:Generated_Source\PSoC4/DATALINK_Timer.c ****         DATALINK_Timer_RT1 &= ((uint8)(~DATALINK_Timer_RT1_MASK));
 107:Generated_Source\PSoC4/DATALINK_Timer.c ****         DATALINK_Timer_RT1 |= DATALINK_Timer_SYNC;
 108:Generated_Source\PSoC4/DATALINK_Timer.c **** 
 109:Generated_Source\PSoC4/DATALINK_Timer.c ****         /*Enable DSI Sync all all inputs of the Timer*/
 110:Generated_Source\PSoC4/DATALINK_Timer.c ****         DATALINK_Timer_RT1 &= ((uint8)(~DATALINK_Timer_SYNCDSI_MASK));
ARM GAS  C:\Users\Ala\AppData\Local\Temp\cchB5osk.s 			page 4


 111:Generated_Source\PSoC4/DATALINK_Timer.c ****         DATALINK_Timer_RT1 |= DATALINK_Timer_SYNCDSI_EN;
 112:Generated_Source\PSoC4/DATALINK_Timer.c **** 
 113:Generated_Source\PSoC4/DATALINK_Timer.c ****         /* Set the IRQ to use the status register interrupts */
 114:Generated_Source\PSoC4/DATALINK_Timer.c ****         DATALINK_Timer_CONTROL2 |= DATALINK_Timer_CTRL2_IRQ_SEL;
 115:Generated_Source\PSoC4/DATALINK_Timer.c ****     #endif /* Configuring registers of fixed function implementation */
 116:Generated_Source\PSoC4/DATALINK_Timer.c **** 
 117:Generated_Source\PSoC4/DATALINK_Timer.c ****     /* Set Initial values from Configuration */
 118:Generated_Source\PSoC4/DATALINK_Timer.c ****     DATALINK_Timer_WritePeriod(DATALINK_Timer_INIT_PERIOD);
 119:Generated_Source\PSoC4/DATALINK_Timer.c ****     DATALINK_Timer_WriteCounter(DATALINK_Timer_INIT_PERIOD);
 120:Generated_Source\PSoC4/DATALINK_Timer.c **** 
 121:Generated_Source\PSoC4/DATALINK_Timer.c ****     #if (DATALINK_Timer_UsingHWCaptureCounter)/* Capture counter is enabled */
 122:Generated_Source\PSoC4/DATALINK_Timer.c ****         DATALINK_Timer_CAPTURE_COUNT_CTRL |= DATALINK_Timer_CNTR_ENABLE;
 123:Generated_Source\PSoC4/DATALINK_Timer.c ****         DATALINK_Timer_SetCaptureCount(DATALINK_Timer_INIT_CAPTURE_COUNT);
 124:Generated_Source\PSoC4/DATALINK_Timer.c ****     #endif /* Configure capture counter value */
 125:Generated_Source\PSoC4/DATALINK_Timer.c **** 
 126:Generated_Source\PSoC4/DATALINK_Timer.c ****     #if (!DATALINK_Timer_UsingFixedFunction)
 127:Generated_Source\PSoC4/DATALINK_Timer.c ****         #if (DATALINK_Timer_SoftwareCaptureMode)
 128:Generated_Source\PSoC4/DATALINK_Timer.c ****             DATALINK_Timer_SetCaptureMode(DATALINK_Timer_INIT_CAPTURE_MODE);
 129:Generated_Source\PSoC4/DATALINK_Timer.c ****         #endif /* Set Capture Mode for UDB implementation if capture mode is software controlled */
 130:Generated_Source\PSoC4/DATALINK_Timer.c **** 
 131:Generated_Source\PSoC4/DATALINK_Timer.c ****         #if (DATALINK_Timer_SoftwareTriggerMode)
 132:Generated_Source\PSoC4/DATALINK_Timer.c ****             #if (!DATALINK_Timer_UDB_CONTROL_REG_REMOVED)
 133:Generated_Source\PSoC4/DATALINK_Timer.c ****                 if (0u == (DATALINK_Timer_CONTROL & DATALINK_Timer__B_TIMER__TM_SOFTWARE))
 134:Generated_Source\PSoC4/DATALINK_Timer.c ****                 {
 135:Generated_Source\PSoC4/DATALINK_Timer.c ****                     DATALINK_Timer_SetTriggerMode(DATALINK_Timer_INIT_TRIGGER_MODE);
 136:Generated_Source\PSoC4/DATALINK_Timer.c ****                 }
 137:Generated_Source\PSoC4/DATALINK_Timer.c ****             #endif /* (!DATALINK_Timer_UDB_CONTROL_REG_REMOVED) */
 138:Generated_Source\PSoC4/DATALINK_Timer.c ****         #endif /* Set trigger mode for UDB Implementation if trigger mode is software controlled */
 139:Generated_Source\PSoC4/DATALINK_Timer.c **** 
 140:Generated_Source\PSoC4/DATALINK_Timer.c ****         /* CyEnterCriticalRegion and CyExitCriticalRegion are used to mark following region critica
 141:Generated_Source\PSoC4/DATALINK_Timer.c ****         /* Enter Critical Region*/
 142:Generated_Source\PSoC4/DATALINK_Timer.c ****         DATALINK_Timer_interruptState = CyEnterCriticalSection();
 143:Generated_Source\PSoC4/DATALINK_Timer.c **** 
 144:Generated_Source\PSoC4/DATALINK_Timer.c ****         /* Use the interrupt output of the status register for IRQ output */
 145:Generated_Source\PSoC4/DATALINK_Timer.c ****         DATALINK_Timer_STATUS_AUX_CTRL |= DATALINK_Timer_STATUS_ACTL_INT_EN_MASK;
 146:Generated_Source\PSoC4/DATALINK_Timer.c **** 
 147:Generated_Source\PSoC4/DATALINK_Timer.c ****         /* Exit Critical Region*/
 148:Generated_Source\PSoC4/DATALINK_Timer.c ****         CyExitCriticalSection(DATALINK_Timer_interruptState);
 149:Generated_Source\PSoC4/DATALINK_Timer.c **** 
 150:Generated_Source\PSoC4/DATALINK_Timer.c ****         #if (DATALINK_Timer_EnableTriggerMode)
 151:Generated_Source\PSoC4/DATALINK_Timer.c ****             DATALINK_Timer_EnableTrigger();
 152:Generated_Source\PSoC4/DATALINK_Timer.c ****         #endif /* Set Trigger enable bit for UDB implementation in the control register*/
 153:Generated_Source\PSoC4/DATALINK_Timer.c **** 		
 154:Generated_Source\PSoC4/DATALINK_Timer.c **** 		
 155:Generated_Source\PSoC4/DATALINK_Timer.c ****         #if (DATALINK_Timer_InterruptOnCaptureCount && !DATALINK_Timer_UDB_CONTROL_REG_REMOVED)
 156:Generated_Source\PSoC4/DATALINK_Timer.c ****             DATALINK_Timer_SetInterruptCount(DATALINK_Timer_INIT_INT_CAPTURE_COUNT);
 157:Generated_Source\PSoC4/DATALINK_Timer.c ****         #endif /* Set interrupt count in UDB implementation if interrupt count feature is checked.*
 158:Generated_Source\PSoC4/DATALINK_Timer.c **** 
 159:Generated_Source\PSoC4/DATALINK_Timer.c ****         DATALINK_Timer_ClearFIFO();
 160:Generated_Source\PSoC4/DATALINK_Timer.c ****     #endif /* Configure additional features of UDB implementation */
 161:Generated_Source\PSoC4/DATALINK_Timer.c **** 
 162:Generated_Source\PSoC4/DATALINK_Timer.c ****     DATALINK_Timer_SetInterruptMode(DATALINK_Timer_INIT_INTERRUPT_MODE);
 163:Generated_Source\PSoC4/DATALINK_Timer.c **** }
 164:Generated_Source\PSoC4/DATALINK_Timer.c **** 
 165:Generated_Source\PSoC4/DATALINK_Timer.c **** 
 166:Generated_Source\PSoC4/DATALINK_Timer.c **** /*******************************************************************************
 167:Generated_Source\PSoC4/DATALINK_Timer.c **** * Function Name: DATALINK_Timer_Enable
ARM GAS  C:\Users\Ala\AppData\Local\Temp\cchB5osk.s 			page 5


 168:Generated_Source\PSoC4/DATALINK_Timer.c **** ********************************************************************************
 169:Generated_Source\PSoC4/DATALINK_Timer.c **** *
 170:Generated_Source\PSoC4/DATALINK_Timer.c **** * Summary:
 171:Generated_Source\PSoC4/DATALINK_Timer.c **** *  Enable the Timer
 172:Generated_Source\PSoC4/DATALINK_Timer.c **** *
 173:Generated_Source\PSoC4/DATALINK_Timer.c **** * Parameters:
 174:Generated_Source\PSoC4/DATALINK_Timer.c **** *  void
 175:Generated_Source\PSoC4/DATALINK_Timer.c **** *
 176:Generated_Source\PSoC4/DATALINK_Timer.c **** * Return:
 177:Generated_Source\PSoC4/DATALINK_Timer.c **** *  void
 178:Generated_Source\PSoC4/DATALINK_Timer.c **** *
 179:Generated_Source\PSoC4/DATALINK_Timer.c **** *******************************************************************************/
 180:Generated_Source\PSoC4/DATALINK_Timer.c **** void DATALINK_Timer_Enable(void) 
 181:Generated_Source\PSoC4/DATALINK_Timer.c **** {
 182:Generated_Source\PSoC4/DATALINK_Timer.c ****     /* Globally Enable the Fixed Function Block chosen */
 183:Generated_Source\PSoC4/DATALINK_Timer.c ****     #if (DATALINK_Timer_UsingFixedFunction)
 184:Generated_Source\PSoC4/DATALINK_Timer.c ****         DATALINK_Timer_GLOBAL_ENABLE |= DATALINK_Timer_BLOCK_EN_MASK;
 185:Generated_Source\PSoC4/DATALINK_Timer.c ****         DATALINK_Timer_GLOBAL_STBY_ENABLE |= DATALINK_Timer_BLOCK_STBY_EN_MASK;
 186:Generated_Source\PSoC4/DATALINK_Timer.c ****     #endif /* Set Enable bit for enabling Fixed function timer*/
 187:Generated_Source\PSoC4/DATALINK_Timer.c **** 
 188:Generated_Source\PSoC4/DATALINK_Timer.c ****     /* Remove assignment if control register is removed */
 189:Generated_Source\PSoC4/DATALINK_Timer.c ****     #if (!DATALINK_Timer_UDB_CONTROL_REG_REMOVED || DATALINK_Timer_UsingFixedFunction)
 190:Generated_Source\PSoC4/DATALINK_Timer.c ****         DATALINK_Timer_CONTROL |= DATALINK_Timer_CTRL_ENABLE;
 191:Generated_Source\PSoC4/DATALINK_Timer.c ****     #endif /* Remove assignment if control register is removed */
 192:Generated_Source\PSoC4/DATALINK_Timer.c **** }
 193:Generated_Source\PSoC4/DATALINK_Timer.c **** 
 194:Generated_Source\PSoC4/DATALINK_Timer.c **** 
 195:Generated_Source\PSoC4/DATALINK_Timer.c **** /*******************************************************************************
 196:Generated_Source\PSoC4/DATALINK_Timer.c **** * Function Name: DATALINK_Timer_Start
 197:Generated_Source\PSoC4/DATALINK_Timer.c **** ********************************************************************************
 198:Generated_Source\PSoC4/DATALINK_Timer.c **** *
 199:Generated_Source\PSoC4/DATALINK_Timer.c **** * Summary:
 200:Generated_Source\PSoC4/DATALINK_Timer.c **** *  The start function initializes the timer with the default values, the
 201:Generated_Source\PSoC4/DATALINK_Timer.c **** *  enables the timerto begin counting.  It does not enable interrupts,
 202:Generated_Source\PSoC4/DATALINK_Timer.c **** *  the EnableInt command should be called if interrupt generation is required.
 203:Generated_Source\PSoC4/DATALINK_Timer.c **** *
 204:Generated_Source\PSoC4/DATALINK_Timer.c **** * Parameters:
 205:Generated_Source\PSoC4/DATALINK_Timer.c **** *  void
 206:Generated_Source\PSoC4/DATALINK_Timer.c **** *
 207:Generated_Source\PSoC4/DATALINK_Timer.c **** * Return:
 208:Generated_Source\PSoC4/DATALINK_Timer.c **** *  void
 209:Generated_Source\PSoC4/DATALINK_Timer.c **** *
 210:Generated_Source\PSoC4/DATALINK_Timer.c **** * Global variables:
 211:Generated_Source\PSoC4/DATALINK_Timer.c **** *  DATALINK_Timer_initVar: Is modified when this function is called for the
 212:Generated_Source\PSoC4/DATALINK_Timer.c **** *   first time. Is used to ensure that initialization happens only once.
 213:Generated_Source\PSoC4/DATALINK_Timer.c **** *
 214:Generated_Source\PSoC4/DATALINK_Timer.c **** *******************************************************************************/
 215:Generated_Source\PSoC4/DATALINK_Timer.c **** void DATALINK_Timer_Start(void) 
 216:Generated_Source\PSoC4/DATALINK_Timer.c **** {
 217:Generated_Source\PSoC4/DATALINK_Timer.c ****     if(DATALINK_Timer_initVar == 0u)
 218:Generated_Source\PSoC4/DATALINK_Timer.c ****     {
 219:Generated_Source\PSoC4/DATALINK_Timer.c ****         DATALINK_Timer_Init();
 220:Generated_Source\PSoC4/DATALINK_Timer.c **** 
 221:Generated_Source\PSoC4/DATALINK_Timer.c ****         DATALINK_Timer_initVar = 1u;   /* Clear this bit for Initialization */
 222:Generated_Source\PSoC4/DATALINK_Timer.c ****     }
 223:Generated_Source\PSoC4/DATALINK_Timer.c **** 
 224:Generated_Source\PSoC4/DATALINK_Timer.c ****     /* Enable the Timer */
ARM GAS  C:\Users\Ala\AppData\Local\Temp\cchB5osk.s 			page 6


 225:Generated_Source\PSoC4/DATALINK_Timer.c ****     DATALINK_Timer_Enable();
 226:Generated_Source\PSoC4/DATALINK_Timer.c **** }
 227:Generated_Source\PSoC4/DATALINK_Timer.c **** 
 228:Generated_Source\PSoC4/DATALINK_Timer.c **** 
 229:Generated_Source\PSoC4/DATALINK_Timer.c **** /*******************************************************************************
 230:Generated_Source\PSoC4/DATALINK_Timer.c **** * Function Name: DATALINK_Timer_Stop
 231:Generated_Source\PSoC4/DATALINK_Timer.c **** ********************************************************************************
 232:Generated_Source\PSoC4/DATALINK_Timer.c **** *
 233:Generated_Source\PSoC4/DATALINK_Timer.c **** * Summary:
 234:Generated_Source\PSoC4/DATALINK_Timer.c **** *  The stop function halts the timer, but does not change any modes or disable
 235:Generated_Source\PSoC4/DATALINK_Timer.c **** *  interrupts.
 236:Generated_Source\PSoC4/DATALINK_Timer.c **** *
 237:Generated_Source\PSoC4/DATALINK_Timer.c **** * Parameters:
 238:Generated_Source\PSoC4/DATALINK_Timer.c **** *  void
 239:Generated_Source\PSoC4/DATALINK_Timer.c **** *
 240:Generated_Source\PSoC4/DATALINK_Timer.c **** * Return:
 241:Generated_Source\PSoC4/DATALINK_Timer.c **** *  void
 242:Generated_Source\PSoC4/DATALINK_Timer.c **** *
 243:Generated_Source\PSoC4/DATALINK_Timer.c **** * Side Effects: If the Enable mode is set to Hardware only then this function
 244:Generated_Source\PSoC4/DATALINK_Timer.c **** *               has no effect on the operation of the timer.
 245:Generated_Source\PSoC4/DATALINK_Timer.c **** *
 246:Generated_Source\PSoC4/DATALINK_Timer.c **** *******************************************************************************/
 247:Generated_Source\PSoC4/DATALINK_Timer.c **** void DATALINK_Timer_Stop(void) 
 248:Generated_Source\PSoC4/DATALINK_Timer.c **** {
 249:Generated_Source\PSoC4/DATALINK_Timer.c ****     /* Disable Timer */
 250:Generated_Source\PSoC4/DATALINK_Timer.c ****     #if(!DATALINK_Timer_UDB_CONTROL_REG_REMOVED || DATALINK_Timer_UsingFixedFunction)
 251:Generated_Source\PSoC4/DATALINK_Timer.c ****         DATALINK_Timer_CONTROL &= ((uint8)(~DATALINK_Timer_CTRL_ENABLE));
 252:Generated_Source\PSoC4/DATALINK_Timer.c ****     #endif /* Remove assignment if control register is removed */
 253:Generated_Source\PSoC4/DATALINK_Timer.c **** 
 254:Generated_Source\PSoC4/DATALINK_Timer.c ****     /* Globally disable the Fixed Function Block chosen */
 255:Generated_Source\PSoC4/DATALINK_Timer.c ****     #if (DATALINK_Timer_UsingFixedFunction)
 256:Generated_Source\PSoC4/DATALINK_Timer.c ****         DATALINK_Timer_GLOBAL_ENABLE &= ((uint8)(~DATALINK_Timer_BLOCK_EN_MASK));
 257:Generated_Source\PSoC4/DATALINK_Timer.c ****         DATALINK_Timer_GLOBAL_STBY_ENABLE &= ((uint8)(~DATALINK_Timer_BLOCK_STBY_EN_MASK));
 258:Generated_Source\PSoC4/DATALINK_Timer.c ****     #endif /* Disable global enable for the Timer Fixed function block to stop the Timer*/
 259:Generated_Source\PSoC4/DATALINK_Timer.c **** }
 260:Generated_Source\PSoC4/DATALINK_Timer.c **** 
 261:Generated_Source\PSoC4/DATALINK_Timer.c **** 
 262:Generated_Source\PSoC4/DATALINK_Timer.c **** /*******************************************************************************
 263:Generated_Source\PSoC4/DATALINK_Timer.c **** * Function Name: DATALINK_Timer_SetInterruptMode
 264:Generated_Source\PSoC4/DATALINK_Timer.c **** ********************************************************************************
 265:Generated_Source\PSoC4/DATALINK_Timer.c **** *
 266:Generated_Source\PSoC4/DATALINK_Timer.c **** * Summary:
 267:Generated_Source\PSoC4/DATALINK_Timer.c **** *  This function selects which of the interrupt inputs may cause an interrupt.
 268:Generated_Source\PSoC4/DATALINK_Timer.c **** *  The twosources are caputure and terminal.  One, both or neither may
 269:Generated_Source\PSoC4/DATALINK_Timer.c **** *  be selected.
 270:Generated_Source\PSoC4/DATALINK_Timer.c **** *
 271:Generated_Source\PSoC4/DATALINK_Timer.c **** * Parameters:
 272:Generated_Source\PSoC4/DATALINK_Timer.c **** *  interruptMode:   This parameter is used to enable interrups on either/or
 273:Generated_Source\PSoC4/DATALINK_Timer.c **** *                   terminal count or capture.
 274:Generated_Source\PSoC4/DATALINK_Timer.c **** *
 275:Generated_Source\PSoC4/DATALINK_Timer.c **** * Return:
 276:Generated_Source\PSoC4/DATALINK_Timer.c **** *  void
 277:Generated_Source\PSoC4/DATALINK_Timer.c **** *
 278:Generated_Source\PSoC4/DATALINK_Timer.c **** *******************************************************************************/
 279:Generated_Source\PSoC4/DATALINK_Timer.c **** void DATALINK_Timer_SetInterruptMode(uint8 interruptMode) 
 280:Generated_Source\PSoC4/DATALINK_Timer.c **** {
  62              		.loc 1 280 0
ARM GAS  C:\Users\Ala\AppData\Local\Temp\cchB5osk.s 			page 7


  63              		.cfi_startproc
  64              		@ args = 0, pretend = 0, frame = 0
  65              		@ frame_needed = 0, uses_anonymous_args = 0
  66              		@ link register save eliminated.
  67              	.LVL0:
 281:Generated_Source\PSoC4/DATALINK_Timer.c ****     DATALINK_Timer_STATUS_MASK = interruptMode;
  68              		.loc 1 281 0
  69 0000 014B     		ldr	r3, .L4
 282:Generated_Source\PSoC4/DATALINK_Timer.c **** }
  70              		.loc 1 282 0
  71              		@ sp needed
 281:Generated_Source\PSoC4/DATALINK_Timer.c ****     DATALINK_Timer_STATUS_MASK = interruptMode;
  72              		.loc 1 281 0
  73 0002 1870     		strb	r0, [r3]
  74              		.loc 1 282 0
  75 0004 7047     		bx	lr
  76              	.L5:
  77 0006 C046     		.align	2
  78              	.L4:
  79 0008 81000F40 		.word	1074724993
  80              		.cfi_endproc
  81              	.LFE4:
  82              		.size	DATALINK_Timer_SetInterruptMode, .-DATALINK_Timer_SetInterruptMode
  83              		.section	.text.DATALINK_Timer_SoftwareCapture,"ax",%progbits
  84              		.align	1
  85              		.global	DATALINK_Timer_SoftwareCapture
  86              		.code	16
  87              		.thumb_func
  88              		.type	DATALINK_Timer_SoftwareCapture, %function
  89              	DATALINK_Timer_SoftwareCapture:
  90              	.LFB5:
 283:Generated_Source\PSoC4/DATALINK_Timer.c **** 
 284:Generated_Source\PSoC4/DATALINK_Timer.c **** 
 285:Generated_Source\PSoC4/DATALINK_Timer.c **** /*******************************************************************************
 286:Generated_Source\PSoC4/DATALINK_Timer.c **** * Function Name: DATALINK_Timer_SoftwareCapture
 287:Generated_Source\PSoC4/DATALINK_Timer.c **** ********************************************************************************
 288:Generated_Source\PSoC4/DATALINK_Timer.c **** *
 289:Generated_Source\PSoC4/DATALINK_Timer.c **** * Summary:
 290:Generated_Source\PSoC4/DATALINK_Timer.c **** *  This function forces a capture independent of the capture signal.
 291:Generated_Source\PSoC4/DATALINK_Timer.c **** *
 292:Generated_Source\PSoC4/DATALINK_Timer.c **** * Parameters:
 293:Generated_Source\PSoC4/DATALINK_Timer.c **** *  void
 294:Generated_Source\PSoC4/DATALINK_Timer.c **** *
 295:Generated_Source\PSoC4/DATALINK_Timer.c **** * Return:
 296:Generated_Source\PSoC4/DATALINK_Timer.c **** *  void
 297:Generated_Source\PSoC4/DATALINK_Timer.c **** *
 298:Generated_Source\PSoC4/DATALINK_Timer.c **** * Side Effects:
 299:Generated_Source\PSoC4/DATALINK_Timer.c **** *  An existing hardware capture could be overwritten.
 300:Generated_Source\PSoC4/DATALINK_Timer.c **** *
 301:Generated_Source\PSoC4/DATALINK_Timer.c **** *******************************************************************************/
 302:Generated_Source\PSoC4/DATALINK_Timer.c **** void DATALINK_Timer_SoftwareCapture(void) 
 303:Generated_Source\PSoC4/DATALINK_Timer.c **** {
  91              		.loc 1 303 0
  92              		.cfi_startproc
  93              		@ args = 0, pretend = 0, frame = 0
  94              		@ frame_needed = 0, uses_anonymous_args = 0
  95              		@ link register save eliminated.
ARM GAS  C:\Users\Ala\AppData\Local\Temp\cchB5osk.s 			page 8


 304:Generated_Source\PSoC4/DATALINK_Timer.c ****     /* Generate a software capture by reading the counter register */
 305:Generated_Source\PSoC4/DATALINK_Timer.c ****     #if(DATALINK_Timer_UsingFixedFunction)
 306:Generated_Source\PSoC4/DATALINK_Timer.c ****         (void)CY_GET_REG16(DATALINK_Timer_COUNTER_LSB_PTR);
 307:Generated_Source\PSoC4/DATALINK_Timer.c ****     #else
 308:Generated_Source\PSoC4/DATALINK_Timer.c ****         (void)CY_GET_REG8(DATALINK_Timer_COUNTER_LSB_PTR_8BIT);
  96              		.loc 1 308 0
  97 0000 014B     		ldr	r3, .L7
 309:Generated_Source\PSoC4/DATALINK_Timer.c ****     #endif/* (DATALINK_Timer_UsingFixedFunction) */
 310:Generated_Source\PSoC4/DATALINK_Timer.c ****     /* Capture Data is now in the FIFO */
 311:Generated_Source\PSoC4/DATALINK_Timer.c **** }
  98              		.loc 1 311 0
  99              		@ sp needed
 308:Generated_Source\PSoC4/DATALINK_Timer.c ****     #endif/* (DATALINK_Timer_UsingFixedFunction) */
 100              		.loc 1 308 0
 101 0002 1B78     		ldrb	r3, [r3]
 102              		.loc 1 311 0
 103 0004 7047     		bx	lr
 104              	.L8:
 105 0006 C046     		.align	2
 106              	.L7:
 107 0008 01000F40 		.word	1074724865
 108              		.cfi_endproc
 109              	.LFE5:
 110              		.size	DATALINK_Timer_SoftwareCapture, .-DATALINK_Timer_SoftwareCapture
 111              		.section	.text.DATALINK_Timer_ReadStatusRegister,"ax",%progbits
 112              		.align	1
 113              		.global	DATALINK_Timer_ReadStatusRegister
 114              		.code	16
 115              		.thumb_func
 116              		.type	DATALINK_Timer_ReadStatusRegister, %function
 117              	DATALINK_Timer_ReadStatusRegister:
 118              	.LFB6:
 312:Generated_Source\PSoC4/DATALINK_Timer.c **** 
 313:Generated_Source\PSoC4/DATALINK_Timer.c **** 
 314:Generated_Source\PSoC4/DATALINK_Timer.c **** /*******************************************************************************
 315:Generated_Source\PSoC4/DATALINK_Timer.c **** * Function Name: DATALINK_Timer_ReadStatusRegister
 316:Generated_Source\PSoC4/DATALINK_Timer.c **** ********************************************************************************
 317:Generated_Source\PSoC4/DATALINK_Timer.c **** *
 318:Generated_Source\PSoC4/DATALINK_Timer.c **** * Summary:
 319:Generated_Source\PSoC4/DATALINK_Timer.c **** *  Reads the status register and returns it's state. This function should use
 320:Generated_Source\PSoC4/DATALINK_Timer.c **** *  defined types for the bit-field information as the bits in this register may
 321:Generated_Source\PSoC4/DATALINK_Timer.c **** *  be permuteable.
 322:Generated_Source\PSoC4/DATALINK_Timer.c **** *
 323:Generated_Source\PSoC4/DATALINK_Timer.c **** * Parameters:
 324:Generated_Source\PSoC4/DATALINK_Timer.c **** *  void
 325:Generated_Source\PSoC4/DATALINK_Timer.c **** *
 326:Generated_Source\PSoC4/DATALINK_Timer.c **** * Return:
 327:Generated_Source\PSoC4/DATALINK_Timer.c **** *  The contents of the status register
 328:Generated_Source\PSoC4/DATALINK_Timer.c **** *
 329:Generated_Source\PSoC4/DATALINK_Timer.c **** * Side Effects:
 330:Generated_Source\PSoC4/DATALINK_Timer.c **** *  Status register bits may be clear on read.
 331:Generated_Source\PSoC4/DATALINK_Timer.c **** *
 332:Generated_Source\PSoC4/DATALINK_Timer.c **** *******************************************************************************/
 333:Generated_Source\PSoC4/DATALINK_Timer.c **** uint8   DATALINK_Timer_ReadStatusRegister(void) 
 334:Generated_Source\PSoC4/DATALINK_Timer.c **** {
 119              		.loc 1 334 0
 120              		.cfi_startproc
ARM GAS  C:\Users\Ala\AppData\Local\Temp\cchB5osk.s 			page 9


 121              		@ args = 0, pretend = 0, frame = 0
 122              		@ frame_needed = 0, uses_anonymous_args = 0
 123              		@ link register save eliminated.
 335:Generated_Source\PSoC4/DATALINK_Timer.c ****     return (DATALINK_Timer_STATUS);
 124              		.loc 1 335 0
 125 0000 014B     		ldr	r3, .L10
 336:Generated_Source\PSoC4/DATALINK_Timer.c **** }
 126              		.loc 1 336 0
 127              		@ sp needed
 335:Generated_Source\PSoC4/DATALINK_Timer.c ****     return (DATALINK_Timer_STATUS);
 128              		.loc 1 335 0
 129 0002 1878     		ldrb	r0, [r3]
 130 0004 C0B2     		uxtb	r0, r0
 131              		.loc 1 336 0
 132 0006 7047     		bx	lr
 133              	.L11:
 134              		.align	2
 135              	.L10:
 136 0008 61000F40 		.word	1074724961
 137              		.cfi_endproc
 138              	.LFE6:
 139              		.size	DATALINK_Timer_ReadStatusRegister, .-DATALINK_Timer_ReadStatusRegister
 140              		.section	.text.DATALINK_Timer_ReadPeriod,"ax",%progbits
 141              		.align	1
 142              		.global	DATALINK_Timer_ReadPeriod
 143              		.code	16
 144              		.thumb_func
 145              		.type	DATALINK_Timer_ReadPeriod, %function
 146              	DATALINK_Timer_ReadPeriod:
 147              	.LFB7:
 337:Generated_Source\PSoC4/DATALINK_Timer.c **** 
 338:Generated_Source\PSoC4/DATALINK_Timer.c **** 
 339:Generated_Source\PSoC4/DATALINK_Timer.c **** #if (!DATALINK_Timer_UDB_CONTROL_REG_REMOVED) /* Remove API if control register is unused */
 340:Generated_Source\PSoC4/DATALINK_Timer.c **** 
 341:Generated_Source\PSoC4/DATALINK_Timer.c **** 
 342:Generated_Source\PSoC4/DATALINK_Timer.c **** /*******************************************************************************
 343:Generated_Source\PSoC4/DATALINK_Timer.c **** * Function Name: DATALINK_Timer_ReadControlRegister
 344:Generated_Source\PSoC4/DATALINK_Timer.c **** ********************************************************************************
 345:Generated_Source\PSoC4/DATALINK_Timer.c **** *
 346:Generated_Source\PSoC4/DATALINK_Timer.c **** * Summary:
 347:Generated_Source\PSoC4/DATALINK_Timer.c **** *  Reads the control register and returns it's value.
 348:Generated_Source\PSoC4/DATALINK_Timer.c **** *
 349:Generated_Source\PSoC4/DATALINK_Timer.c **** * Parameters:
 350:Generated_Source\PSoC4/DATALINK_Timer.c **** *  void
 351:Generated_Source\PSoC4/DATALINK_Timer.c **** *
 352:Generated_Source\PSoC4/DATALINK_Timer.c **** * Return:
 353:Generated_Source\PSoC4/DATALINK_Timer.c **** *  The contents of the control register
 354:Generated_Source\PSoC4/DATALINK_Timer.c **** *
 355:Generated_Source\PSoC4/DATALINK_Timer.c **** *******************************************************************************/
 356:Generated_Source\PSoC4/DATALINK_Timer.c **** uint8 DATALINK_Timer_ReadControlRegister(void) 
 357:Generated_Source\PSoC4/DATALINK_Timer.c **** {
 358:Generated_Source\PSoC4/DATALINK_Timer.c ****     #if (!DATALINK_Timer_UDB_CONTROL_REG_REMOVED) 
 359:Generated_Source\PSoC4/DATALINK_Timer.c ****         return ((uint8)DATALINK_Timer_CONTROL);
 360:Generated_Source\PSoC4/DATALINK_Timer.c ****     #else
 361:Generated_Source\PSoC4/DATALINK_Timer.c ****         return (0);
 362:Generated_Source\PSoC4/DATALINK_Timer.c ****     #endif /* (!DATALINK_Timer_UDB_CONTROL_REG_REMOVED) */
 363:Generated_Source\PSoC4/DATALINK_Timer.c **** }
ARM GAS  C:\Users\Ala\AppData\Local\Temp\cchB5osk.s 			page 10


 364:Generated_Source\PSoC4/DATALINK_Timer.c **** 
 365:Generated_Source\PSoC4/DATALINK_Timer.c **** 
 366:Generated_Source\PSoC4/DATALINK_Timer.c **** /*******************************************************************************
 367:Generated_Source\PSoC4/DATALINK_Timer.c **** * Function Name: DATALINK_Timer_WriteControlRegister
 368:Generated_Source\PSoC4/DATALINK_Timer.c **** ********************************************************************************
 369:Generated_Source\PSoC4/DATALINK_Timer.c **** *
 370:Generated_Source\PSoC4/DATALINK_Timer.c **** * Summary:
 371:Generated_Source\PSoC4/DATALINK_Timer.c **** *  Sets the bit-field of the control register.
 372:Generated_Source\PSoC4/DATALINK_Timer.c **** *
 373:Generated_Source\PSoC4/DATALINK_Timer.c **** * Parameters:
 374:Generated_Source\PSoC4/DATALINK_Timer.c **** *  control: The contents of the control register
 375:Generated_Source\PSoC4/DATALINK_Timer.c **** *
 376:Generated_Source\PSoC4/DATALINK_Timer.c **** * Return:
 377:Generated_Source\PSoC4/DATALINK_Timer.c **** *
 378:Generated_Source\PSoC4/DATALINK_Timer.c **** *******************************************************************************/
 379:Generated_Source\PSoC4/DATALINK_Timer.c **** void DATALINK_Timer_WriteControlRegister(uint8 control) 
 380:Generated_Source\PSoC4/DATALINK_Timer.c **** {
 381:Generated_Source\PSoC4/DATALINK_Timer.c ****     #if (!DATALINK_Timer_UDB_CONTROL_REG_REMOVED) 
 382:Generated_Source\PSoC4/DATALINK_Timer.c ****         DATALINK_Timer_CONTROL = control;
 383:Generated_Source\PSoC4/DATALINK_Timer.c ****     #else
 384:Generated_Source\PSoC4/DATALINK_Timer.c ****         control = 0u;
 385:Generated_Source\PSoC4/DATALINK_Timer.c ****     #endif /* (!DATALINK_Timer_UDB_CONTROL_REG_REMOVED) */
 386:Generated_Source\PSoC4/DATALINK_Timer.c **** }
 387:Generated_Source\PSoC4/DATALINK_Timer.c **** 
 388:Generated_Source\PSoC4/DATALINK_Timer.c **** #endif /* Remove API if control register is unused */
 389:Generated_Source\PSoC4/DATALINK_Timer.c **** 
 390:Generated_Source\PSoC4/DATALINK_Timer.c **** 
 391:Generated_Source\PSoC4/DATALINK_Timer.c **** /*******************************************************************************
 392:Generated_Source\PSoC4/DATALINK_Timer.c **** * Function Name: DATALINK_Timer_ReadPeriod
 393:Generated_Source\PSoC4/DATALINK_Timer.c **** ********************************************************************************
 394:Generated_Source\PSoC4/DATALINK_Timer.c **** *
 395:Generated_Source\PSoC4/DATALINK_Timer.c **** * Summary:
 396:Generated_Source\PSoC4/DATALINK_Timer.c **** *  This function returns the current value of the Period.
 397:Generated_Source\PSoC4/DATALINK_Timer.c **** *
 398:Generated_Source\PSoC4/DATALINK_Timer.c **** * Parameters:
 399:Generated_Source\PSoC4/DATALINK_Timer.c **** *  void
 400:Generated_Source\PSoC4/DATALINK_Timer.c **** *
 401:Generated_Source\PSoC4/DATALINK_Timer.c **** * Return:
 402:Generated_Source\PSoC4/DATALINK_Timer.c **** *  The present value of the counter.
 403:Generated_Source\PSoC4/DATALINK_Timer.c **** *
 404:Generated_Source\PSoC4/DATALINK_Timer.c **** *******************************************************************************/
 405:Generated_Source\PSoC4/DATALINK_Timer.c **** uint8 DATALINK_Timer_ReadPeriod(void) 
 406:Generated_Source\PSoC4/DATALINK_Timer.c **** {
 148              		.loc 1 406 0
 149              		.cfi_startproc
 150              		@ args = 0, pretend = 0, frame = 0
 151              		@ frame_needed = 0, uses_anonymous_args = 0
 152              		@ link register save eliminated.
 407:Generated_Source\PSoC4/DATALINK_Timer.c ****    #if(DATALINK_Timer_UsingFixedFunction)
 408:Generated_Source\PSoC4/DATALINK_Timer.c ****        return ((uint8)CY_GET_REG16(DATALINK_Timer_PERIOD_LSB_PTR));
 409:Generated_Source\PSoC4/DATALINK_Timer.c ****    #else
 410:Generated_Source\PSoC4/DATALINK_Timer.c ****        return (CY_GET_REG8(DATALINK_Timer_PERIOD_LSB_PTR));
 153              		.loc 1 410 0
 154 0000 014B     		ldr	r3, .L13
 411:Generated_Source\PSoC4/DATALINK_Timer.c ****    #endif /* (DATALINK_Timer_UsingFixedFunction) */
 412:Generated_Source\PSoC4/DATALINK_Timer.c **** }
 155              		.loc 1 412 0
ARM GAS  C:\Users\Ala\AppData\Local\Temp\cchB5osk.s 			page 11


 156              		@ sp needed
 410:Generated_Source\PSoC4/DATALINK_Timer.c ****    #endif /* (DATALINK_Timer_UsingFixedFunction) */
 157              		.loc 1 410 0
 158 0002 1878     		ldrb	r0, [r3]
 159 0004 C0B2     		uxtb	r0, r0
 160              		.loc 1 412 0
 161 0006 7047     		bx	lr
 162              	.L14:
 163              		.align	2
 164              	.L13:
 165 0008 21000F40 		.word	1074724897
 166              		.cfi_endproc
 167              	.LFE7:
 168              		.size	DATALINK_Timer_ReadPeriod, .-DATALINK_Timer_ReadPeriod
 169              		.section	.text.DATALINK_Timer_WritePeriod,"ax",%progbits
 170              		.align	1
 171              		.global	DATALINK_Timer_WritePeriod
 172              		.code	16
 173              		.thumb_func
 174              		.type	DATALINK_Timer_WritePeriod, %function
 175              	DATALINK_Timer_WritePeriod:
 176              	.LFB8:
 413:Generated_Source\PSoC4/DATALINK_Timer.c **** 
 414:Generated_Source\PSoC4/DATALINK_Timer.c **** 
 415:Generated_Source\PSoC4/DATALINK_Timer.c **** /*******************************************************************************
 416:Generated_Source\PSoC4/DATALINK_Timer.c **** * Function Name: DATALINK_Timer_WritePeriod
 417:Generated_Source\PSoC4/DATALINK_Timer.c **** ********************************************************************************
 418:Generated_Source\PSoC4/DATALINK_Timer.c **** *
 419:Generated_Source\PSoC4/DATALINK_Timer.c **** * Summary:
 420:Generated_Source\PSoC4/DATALINK_Timer.c **** *  This function is used to change the period of the counter.  The new period
 421:Generated_Source\PSoC4/DATALINK_Timer.c **** *  will be loaded the next time terminal count is detected.
 422:Generated_Source\PSoC4/DATALINK_Timer.c **** *
 423:Generated_Source\PSoC4/DATALINK_Timer.c **** * Parameters:
 424:Generated_Source\PSoC4/DATALINK_Timer.c **** *  period: This value may be between 1 and (2^Resolution)-1.  A value of 0 will
 425:Generated_Source\PSoC4/DATALINK_Timer.c **** *          result in the counter remaining at zero.
 426:Generated_Source\PSoC4/DATALINK_Timer.c **** *
 427:Generated_Source\PSoC4/DATALINK_Timer.c **** * Return:
 428:Generated_Source\PSoC4/DATALINK_Timer.c **** *  void
 429:Generated_Source\PSoC4/DATALINK_Timer.c **** *
 430:Generated_Source\PSoC4/DATALINK_Timer.c **** *******************************************************************************/
 431:Generated_Source\PSoC4/DATALINK_Timer.c **** void DATALINK_Timer_WritePeriod(uint8 period) 
 432:Generated_Source\PSoC4/DATALINK_Timer.c **** {
 177              		.loc 1 432 0
 178              		.cfi_startproc
 179              		@ args = 0, pretend = 0, frame = 0
 180              		@ frame_needed = 0, uses_anonymous_args = 0
 181              		@ link register save eliminated.
 182              	.LVL1:
 433:Generated_Source\PSoC4/DATALINK_Timer.c ****     #if(DATALINK_Timer_UsingFixedFunction)
 434:Generated_Source\PSoC4/DATALINK_Timer.c ****         uint16 period_temp = (uint16)period;
 435:Generated_Source\PSoC4/DATALINK_Timer.c ****         CY_SET_REG16(DATALINK_Timer_PERIOD_LSB_PTR, period_temp);
 436:Generated_Source\PSoC4/DATALINK_Timer.c ****     #else
 437:Generated_Source\PSoC4/DATALINK_Timer.c ****         CY_SET_REG8(DATALINK_Timer_PERIOD_LSB_PTR, period);
 183              		.loc 1 437 0
 184 0000 014B     		ldr	r3, .L16
 438:Generated_Source\PSoC4/DATALINK_Timer.c ****     #endif /*Write Period value with appropriate resolution suffix depending on UDB or fixed functi
 439:Generated_Source\PSoC4/DATALINK_Timer.c **** }
ARM GAS  C:\Users\Ala\AppData\Local\Temp\cchB5osk.s 			page 12


 185              		.loc 1 439 0
 186              		@ sp needed
 437:Generated_Source\PSoC4/DATALINK_Timer.c ****     #endif /*Write Period value with appropriate resolution suffix depending on UDB or fixed functi
 187              		.loc 1 437 0
 188 0002 1870     		strb	r0, [r3]
 189              		.loc 1 439 0
 190 0004 7047     		bx	lr
 191              	.L17:
 192 0006 C046     		.align	2
 193              	.L16:
 194 0008 21000F40 		.word	1074724897
 195              		.cfi_endproc
 196              	.LFE8:
 197              		.size	DATALINK_Timer_WritePeriod, .-DATALINK_Timer_WritePeriod
 198              		.section	.text.DATALINK_Timer_ReadCapture,"ax",%progbits
 199              		.align	1
 200              		.global	DATALINK_Timer_ReadCapture
 201              		.code	16
 202              		.thumb_func
 203              		.type	DATALINK_Timer_ReadCapture, %function
 204              	DATALINK_Timer_ReadCapture:
 205              	.LFB9:
 440:Generated_Source\PSoC4/DATALINK_Timer.c **** 
 441:Generated_Source\PSoC4/DATALINK_Timer.c **** 
 442:Generated_Source\PSoC4/DATALINK_Timer.c **** /*******************************************************************************
 443:Generated_Source\PSoC4/DATALINK_Timer.c **** * Function Name: DATALINK_Timer_ReadCapture
 444:Generated_Source\PSoC4/DATALINK_Timer.c **** ********************************************************************************
 445:Generated_Source\PSoC4/DATALINK_Timer.c **** *
 446:Generated_Source\PSoC4/DATALINK_Timer.c **** * Summary:
 447:Generated_Source\PSoC4/DATALINK_Timer.c **** *  This function returns the last value captured.
 448:Generated_Source\PSoC4/DATALINK_Timer.c **** *
 449:Generated_Source\PSoC4/DATALINK_Timer.c **** * Parameters:
 450:Generated_Source\PSoC4/DATALINK_Timer.c **** *  void
 451:Generated_Source\PSoC4/DATALINK_Timer.c **** *
 452:Generated_Source\PSoC4/DATALINK_Timer.c **** * Return:
 453:Generated_Source\PSoC4/DATALINK_Timer.c **** *  Present Capture value.
 454:Generated_Source\PSoC4/DATALINK_Timer.c **** *
 455:Generated_Source\PSoC4/DATALINK_Timer.c **** *******************************************************************************/
 456:Generated_Source\PSoC4/DATALINK_Timer.c **** uint8 DATALINK_Timer_ReadCapture(void) 
 457:Generated_Source\PSoC4/DATALINK_Timer.c **** {
 206              		.loc 1 457 0
 207              		.cfi_startproc
 208              		@ args = 0, pretend = 0, frame = 0
 209              		@ frame_needed = 0, uses_anonymous_args = 0
 210              		@ link register save eliminated.
 458:Generated_Source\PSoC4/DATALINK_Timer.c ****    #if(DATALINK_Timer_UsingFixedFunction)
 459:Generated_Source\PSoC4/DATALINK_Timer.c ****        return ((uint8)CY_GET_REG16(DATALINK_Timer_CAPTURE_LSB_PTR));
 460:Generated_Source\PSoC4/DATALINK_Timer.c ****    #else
 461:Generated_Source\PSoC4/DATALINK_Timer.c ****        return (CY_GET_REG8(DATALINK_Timer_CAPTURE_LSB_PTR));
 211              		.loc 1 461 0
 212 0000 014B     		ldr	r3, .L19
 462:Generated_Source\PSoC4/DATALINK_Timer.c ****    #endif /* (DATALINK_Timer_UsingFixedFunction) */
 463:Generated_Source\PSoC4/DATALINK_Timer.c **** }
 213              		.loc 1 463 0
 214              		@ sp needed
 461:Generated_Source\PSoC4/DATALINK_Timer.c ****    #endif /* (DATALINK_Timer_UsingFixedFunction) */
 215              		.loc 1 461 0
ARM GAS  C:\Users\Ala\AppData\Local\Temp\cchB5osk.s 			page 13


 216 0002 1878     		ldrb	r0, [r3]
 217 0004 C0B2     		uxtb	r0, r0
 218              		.loc 1 463 0
 219 0006 7047     		bx	lr
 220              	.L20:
 221              		.align	2
 222              	.L19:
 223 0008 41000F40 		.word	1074724929
 224              		.cfi_endproc
 225              	.LFE9:
 226              		.size	DATALINK_Timer_ReadCapture, .-DATALINK_Timer_ReadCapture
 227              		.section	.text.DATALINK_Timer_WriteCounter,"ax",%progbits
 228              		.align	1
 229              		.global	DATALINK_Timer_WriteCounter
 230              		.code	16
 231              		.thumb_func
 232              		.type	DATALINK_Timer_WriteCounter, %function
 233              	DATALINK_Timer_WriteCounter:
 234              	.LFB10:
 464:Generated_Source\PSoC4/DATALINK_Timer.c **** 
 465:Generated_Source\PSoC4/DATALINK_Timer.c **** 
 466:Generated_Source\PSoC4/DATALINK_Timer.c **** /*******************************************************************************
 467:Generated_Source\PSoC4/DATALINK_Timer.c **** * Function Name: DATALINK_Timer_WriteCounter
 468:Generated_Source\PSoC4/DATALINK_Timer.c **** ********************************************************************************
 469:Generated_Source\PSoC4/DATALINK_Timer.c **** *
 470:Generated_Source\PSoC4/DATALINK_Timer.c **** * Summary:
 471:Generated_Source\PSoC4/DATALINK_Timer.c **** *  This funtion is used to set the counter to a specific value
 472:Generated_Source\PSoC4/DATALINK_Timer.c **** *
 473:Generated_Source\PSoC4/DATALINK_Timer.c **** * Parameters:
 474:Generated_Source\PSoC4/DATALINK_Timer.c **** *  counter:  New counter value.
 475:Generated_Source\PSoC4/DATALINK_Timer.c **** *
 476:Generated_Source\PSoC4/DATALINK_Timer.c **** * Return:
 477:Generated_Source\PSoC4/DATALINK_Timer.c **** *  void
 478:Generated_Source\PSoC4/DATALINK_Timer.c **** *
 479:Generated_Source\PSoC4/DATALINK_Timer.c **** *******************************************************************************/
 480:Generated_Source\PSoC4/DATALINK_Timer.c **** void DATALINK_Timer_WriteCounter(uint8 counter) 
 481:Generated_Source\PSoC4/DATALINK_Timer.c **** {
 235              		.loc 1 481 0
 236              		.cfi_startproc
 237              		@ args = 0, pretend = 0, frame = 0
 238              		@ frame_needed = 0, uses_anonymous_args = 0
 239              		@ link register save eliminated.
 240              	.LVL2:
 482:Generated_Source\PSoC4/DATALINK_Timer.c ****    #if(DATALINK_Timer_UsingFixedFunction)
 483:Generated_Source\PSoC4/DATALINK_Timer.c ****         /* This functionality is removed until a FixedFunction HW update to
 484:Generated_Source\PSoC4/DATALINK_Timer.c ****          * allow this register to be written
 485:Generated_Source\PSoC4/DATALINK_Timer.c ****          */
 486:Generated_Source\PSoC4/DATALINK_Timer.c ****         CY_SET_REG16(DATALINK_Timer_COUNTER_LSB_PTR, (uint16)counter);
 487:Generated_Source\PSoC4/DATALINK_Timer.c ****         
 488:Generated_Source\PSoC4/DATALINK_Timer.c ****     #else
 489:Generated_Source\PSoC4/DATALINK_Timer.c ****         CY_SET_REG8(DATALINK_Timer_COUNTER_LSB_PTR, counter);
 241              		.loc 1 489 0
 242 0000 014B     		ldr	r3, .L22
 490:Generated_Source\PSoC4/DATALINK_Timer.c ****     #endif /* Set Write Counter only for the UDB implementation (Write Counter not available in fix
 491:Generated_Source\PSoC4/DATALINK_Timer.c **** }
 243              		.loc 1 491 0
 244              		@ sp needed
ARM GAS  C:\Users\Ala\AppData\Local\Temp\cchB5osk.s 			page 14


 489:Generated_Source\PSoC4/DATALINK_Timer.c ****     #endif /* Set Write Counter only for the UDB implementation (Write Counter not available in fix
 245              		.loc 1 489 0
 246 0002 1870     		strb	r0, [r3]
 247              		.loc 1 491 0
 248 0004 7047     		bx	lr
 249              	.L23:
 250 0006 C046     		.align	2
 251              	.L22:
 252 0008 01000F40 		.word	1074724865
 253              		.cfi_endproc
 254              	.LFE10:
 255              		.size	DATALINK_Timer_WriteCounter, .-DATALINK_Timer_WriteCounter
 256              		.section	.text.DATALINK_Timer_ReadCounter,"ax",%progbits
 257              		.align	1
 258              		.global	DATALINK_Timer_ReadCounter
 259              		.code	16
 260              		.thumb_func
 261              		.type	DATALINK_Timer_ReadCounter, %function
 262              	DATALINK_Timer_ReadCounter:
 263              	.LFB11:
 492:Generated_Source\PSoC4/DATALINK_Timer.c **** 
 493:Generated_Source\PSoC4/DATALINK_Timer.c **** 
 494:Generated_Source\PSoC4/DATALINK_Timer.c **** /*******************************************************************************
 495:Generated_Source\PSoC4/DATALINK_Timer.c **** * Function Name: DATALINK_Timer_ReadCounter
 496:Generated_Source\PSoC4/DATALINK_Timer.c **** ********************************************************************************
 497:Generated_Source\PSoC4/DATALINK_Timer.c **** *
 498:Generated_Source\PSoC4/DATALINK_Timer.c **** * Summary:
 499:Generated_Source\PSoC4/DATALINK_Timer.c **** *  This function returns the current counter value.
 500:Generated_Source\PSoC4/DATALINK_Timer.c **** *
 501:Generated_Source\PSoC4/DATALINK_Timer.c **** * Parameters:
 502:Generated_Source\PSoC4/DATALINK_Timer.c **** *  void
 503:Generated_Source\PSoC4/DATALINK_Timer.c **** *
 504:Generated_Source\PSoC4/DATALINK_Timer.c **** * Return:
 505:Generated_Source\PSoC4/DATALINK_Timer.c **** *  Present compare value.
 506:Generated_Source\PSoC4/DATALINK_Timer.c **** *
 507:Generated_Source\PSoC4/DATALINK_Timer.c **** *******************************************************************************/
 508:Generated_Source\PSoC4/DATALINK_Timer.c **** uint8 DATALINK_Timer_ReadCounter(void) 
 509:Generated_Source\PSoC4/DATALINK_Timer.c **** {
 264              		.loc 1 509 0
 265              		.cfi_startproc
 266              		@ args = 0, pretend = 0, frame = 0
 267              		@ frame_needed = 0, uses_anonymous_args = 0
 268              		@ link register save eliminated.
 510:Generated_Source\PSoC4/DATALINK_Timer.c ****     /* Force capture by reading Accumulator */
 511:Generated_Source\PSoC4/DATALINK_Timer.c ****     /* Must first do a software capture to be able to read the counter */
 512:Generated_Source\PSoC4/DATALINK_Timer.c ****     /* It is up to the user code to make sure there isn't already captured data in the FIFO */
 513:Generated_Source\PSoC4/DATALINK_Timer.c ****     #if(DATALINK_Timer_UsingFixedFunction)
 514:Generated_Source\PSoC4/DATALINK_Timer.c ****         (void)CY_GET_REG16(DATALINK_Timer_COUNTER_LSB_PTR);
 515:Generated_Source\PSoC4/DATALINK_Timer.c ****     #else
 516:Generated_Source\PSoC4/DATALINK_Timer.c ****         (void)CY_GET_REG8(DATALINK_Timer_COUNTER_LSB_PTR_8BIT);
 269              		.loc 1 516 0
 270 0000 024B     		ldr	r3, .L25
 517:Generated_Source\PSoC4/DATALINK_Timer.c ****     #endif/* (DATALINK_Timer_UsingFixedFunction) */
 518:Generated_Source\PSoC4/DATALINK_Timer.c **** 
 519:Generated_Source\PSoC4/DATALINK_Timer.c ****     /* Read the data from the FIFO (or capture register for Fixed Function)*/
 520:Generated_Source\PSoC4/DATALINK_Timer.c ****     #if(DATALINK_Timer_UsingFixedFunction)
 521:Generated_Source\PSoC4/DATALINK_Timer.c ****         return ((uint8)CY_GET_REG16(DATALINK_Timer_CAPTURE_LSB_PTR));
ARM GAS  C:\Users\Ala\AppData\Local\Temp\cchB5osk.s 			page 15


 522:Generated_Source\PSoC4/DATALINK_Timer.c ****     #else
 523:Generated_Source\PSoC4/DATALINK_Timer.c ****         return (CY_GET_REG8(DATALINK_Timer_CAPTURE_LSB_PTR));
 524:Generated_Source\PSoC4/DATALINK_Timer.c ****     #endif /* (DATALINK_Timer_UsingFixedFunction) */
 525:Generated_Source\PSoC4/DATALINK_Timer.c **** }
 271              		.loc 1 525 0
 272              		@ sp needed
 516:Generated_Source\PSoC4/DATALINK_Timer.c ****     #endif/* (DATALINK_Timer_UsingFixedFunction) */
 273              		.loc 1 516 0
 274 0002 1B78     		ldrb	r3, [r3]
 523:Generated_Source\PSoC4/DATALINK_Timer.c ****     #endif /* (DATALINK_Timer_UsingFixedFunction) */
 275              		.loc 1 523 0
 276 0004 024B     		ldr	r3, .L25+4
 277 0006 1878     		ldrb	r0, [r3]
 278 0008 C0B2     		uxtb	r0, r0
 279              		.loc 1 525 0
 280 000a 7047     		bx	lr
 281              	.L26:
 282              		.align	2
 283              	.L25:
 284 000c 01000F40 		.word	1074724865
 285 0010 41000F40 		.word	1074724929
 286              		.cfi_endproc
 287              	.LFE11:
 288              		.size	DATALINK_Timer_ReadCounter, .-DATALINK_Timer_ReadCounter
 289              		.section	.text.DATALINK_Timer_EnableTrigger,"ax",%progbits
 290              		.align	1
 291              		.global	DATALINK_Timer_EnableTrigger
 292              		.code	16
 293              		.thumb_func
 294              		.type	DATALINK_Timer_EnableTrigger, %function
 295              	DATALINK_Timer_EnableTrigger:
 296              	.LFB16:
 297              		.cfi_startproc
 298              		@ args = 0, pretend = 0, frame = 0
 299              		@ frame_needed = 0, uses_anonymous_args = 0
 300              		@ link register save eliminated.
 301              		@ sp needed
 302 0000 7047     		bx	lr
 303              		.cfi_endproc
 304              	.LFE16:
 305              		.size	DATALINK_Timer_EnableTrigger, .-DATALINK_Timer_EnableTrigger
 306              		.section	.text.DATALINK_Timer_DisableTrigger,"ax",%progbits
 307              		.align	1
 308              		.global	DATALINK_Timer_DisableTrigger
 309              		.code	16
 310              		.thumb_func
 311              		.type	DATALINK_Timer_DisableTrigger, %function
 312              	DATALINK_Timer_DisableTrigger:
 313              	.LFB13:
 526:Generated_Source\PSoC4/DATALINK_Timer.c **** 
 527:Generated_Source\PSoC4/DATALINK_Timer.c **** 
 528:Generated_Source\PSoC4/DATALINK_Timer.c **** #if(!DATALINK_Timer_UsingFixedFunction) /* UDB Specific Functions */
 529:Generated_Source\PSoC4/DATALINK_Timer.c **** 
 530:Generated_Source\PSoC4/DATALINK_Timer.c ****     
 531:Generated_Source\PSoC4/DATALINK_Timer.c **** /*******************************************************************************
 532:Generated_Source\PSoC4/DATALINK_Timer.c ****  * The functions below this point are only available using the UDB
 533:Generated_Source\PSoC4/DATALINK_Timer.c ****  * implementation.  If a feature is selected, then the API is enabled.
ARM GAS  C:\Users\Ala\AppData\Local\Temp\cchB5osk.s 			page 16


 534:Generated_Source\PSoC4/DATALINK_Timer.c ****  ******************************************************************************/
 535:Generated_Source\PSoC4/DATALINK_Timer.c **** 
 536:Generated_Source\PSoC4/DATALINK_Timer.c **** 
 537:Generated_Source\PSoC4/DATALINK_Timer.c **** #if (DATALINK_Timer_SoftwareCaptureMode)
 538:Generated_Source\PSoC4/DATALINK_Timer.c **** 
 539:Generated_Source\PSoC4/DATALINK_Timer.c **** 
 540:Generated_Source\PSoC4/DATALINK_Timer.c **** /*******************************************************************************
 541:Generated_Source\PSoC4/DATALINK_Timer.c **** * Function Name: DATALINK_Timer_SetCaptureMode
 542:Generated_Source\PSoC4/DATALINK_Timer.c **** ********************************************************************************
 543:Generated_Source\PSoC4/DATALINK_Timer.c **** *
 544:Generated_Source\PSoC4/DATALINK_Timer.c **** * Summary:
 545:Generated_Source\PSoC4/DATALINK_Timer.c **** *  This function sets the capture mode to either rising or falling edge.
 546:Generated_Source\PSoC4/DATALINK_Timer.c **** *
 547:Generated_Source\PSoC4/DATALINK_Timer.c **** * Parameters:
 548:Generated_Source\PSoC4/DATALINK_Timer.c **** *  captureMode: This parameter sets the capture mode of the UDB capture feature
 549:Generated_Source\PSoC4/DATALINK_Timer.c **** *  The parameter values are defined using the
 550:Generated_Source\PSoC4/DATALINK_Timer.c **** *  #define DATALINK_Timer__B_TIMER__CM_NONE 0
 551:Generated_Source\PSoC4/DATALINK_Timer.c **** #define DATALINK_Timer__B_TIMER__CM_RISINGEDGE 1
 552:Generated_Source\PSoC4/DATALINK_Timer.c **** #define DATALINK_Timer__B_TIMER__CM_FALLINGEDGE 2
 553:Generated_Source\PSoC4/DATALINK_Timer.c **** #define DATALINK_Timer__B_TIMER__CM_EITHEREDGE 3
 554:Generated_Source\PSoC4/DATALINK_Timer.c **** #define DATALINK_Timer__B_TIMER__CM_SOFTWARE 4
 555:Generated_Source\PSoC4/DATALINK_Timer.c ****  identifiers
 556:Generated_Source\PSoC4/DATALINK_Timer.c **** *  The following are the possible values of the parameter
 557:Generated_Source\PSoC4/DATALINK_Timer.c **** *  DATALINK_Timer__B_TIMER__CM_NONE        - Set Capture mode to None
 558:Generated_Source\PSoC4/DATALINK_Timer.c **** *  DATALINK_Timer__B_TIMER__CM_RISINGEDGE  - Rising edge of Capture input
 559:Generated_Source\PSoC4/DATALINK_Timer.c **** *  DATALINK_Timer__B_TIMER__CM_FALLINGEDGE - Falling edge of Capture input
 560:Generated_Source\PSoC4/DATALINK_Timer.c **** *  DATALINK_Timer__B_TIMER__CM_EITHEREDGE  - Either edge of Capture input
 561:Generated_Source\PSoC4/DATALINK_Timer.c **** *
 562:Generated_Source\PSoC4/DATALINK_Timer.c **** * Return:
 563:Generated_Source\PSoC4/DATALINK_Timer.c **** *  void
 564:Generated_Source\PSoC4/DATALINK_Timer.c **** *
 565:Generated_Source\PSoC4/DATALINK_Timer.c **** *******************************************************************************/
 566:Generated_Source\PSoC4/DATALINK_Timer.c **** void DATALINK_Timer_SetCaptureMode(uint8 captureMode) 
 567:Generated_Source\PSoC4/DATALINK_Timer.c **** {
 568:Generated_Source\PSoC4/DATALINK_Timer.c ****     /* This must only set to two bits of the control register associated */
 569:Generated_Source\PSoC4/DATALINK_Timer.c ****     captureMode = ((uint8)((uint8)captureMode << DATALINK_Timer_CTRL_CAP_MODE_SHIFT));
 570:Generated_Source\PSoC4/DATALINK_Timer.c ****     captureMode &= (DATALINK_Timer_CTRL_CAP_MODE_MASK);
 571:Generated_Source\PSoC4/DATALINK_Timer.c **** 
 572:Generated_Source\PSoC4/DATALINK_Timer.c ****     #if (!DATALINK_Timer_UDB_CONTROL_REG_REMOVED)
 573:Generated_Source\PSoC4/DATALINK_Timer.c ****         /* Clear the Current Setting */
 574:Generated_Source\PSoC4/DATALINK_Timer.c ****         DATALINK_Timer_CONTROL &= ((uint8)(~DATALINK_Timer_CTRL_CAP_MODE_MASK));
 575:Generated_Source\PSoC4/DATALINK_Timer.c **** 
 576:Generated_Source\PSoC4/DATALINK_Timer.c ****         /* Write The New Setting */
 577:Generated_Source\PSoC4/DATALINK_Timer.c ****         DATALINK_Timer_CONTROL |= captureMode;
 578:Generated_Source\PSoC4/DATALINK_Timer.c ****     #endif /* (!DATALINK_Timer_UDB_CONTROL_REG_REMOVED) */
 579:Generated_Source\PSoC4/DATALINK_Timer.c **** }
 580:Generated_Source\PSoC4/DATALINK_Timer.c **** #endif /* Remove API if Capture Mode is not Software Controlled */
 581:Generated_Source\PSoC4/DATALINK_Timer.c **** 
 582:Generated_Source\PSoC4/DATALINK_Timer.c **** 
 583:Generated_Source\PSoC4/DATALINK_Timer.c **** #if (DATALINK_Timer_SoftwareTriggerMode)
 584:Generated_Source\PSoC4/DATALINK_Timer.c **** 
 585:Generated_Source\PSoC4/DATALINK_Timer.c **** 
 586:Generated_Source\PSoC4/DATALINK_Timer.c **** /*******************************************************************************
 587:Generated_Source\PSoC4/DATALINK_Timer.c **** * Function Name: DATALINK_Timer_SetTriggerMode
 588:Generated_Source\PSoC4/DATALINK_Timer.c **** ********************************************************************************
 589:Generated_Source\PSoC4/DATALINK_Timer.c **** *
 590:Generated_Source\PSoC4/DATALINK_Timer.c **** * Summary:
ARM GAS  C:\Users\Ala\AppData\Local\Temp\cchB5osk.s 			page 17


 591:Generated_Source\PSoC4/DATALINK_Timer.c **** *  This function sets the trigger input mode
 592:Generated_Source\PSoC4/DATALINK_Timer.c **** *
 593:Generated_Source\PSoC4/DATALINK_Timer.c **** * Parameters:
 594:Generated_Source\PSoC4/DATALINK_Timer.c **** *  triggerMode: Pass one of the pre-defined Trigger Modes (except Software)
 595:Generated_Source\PSoC4/DATALINK_Timer.c ****     #define DATALINK_Timer__B_TIMER__TM_NONE 0x00u
 596:Generated_Source\PSoC4/DATALINK_Timer.c ****     #define DATALINK_Timer__B_TIMER__TM_RISINGEDGE 0x04u
 597:Generated_Source\PSoC4/DATALINK_Timer.c ****     #define DATALINK_Timer__B_TIMER__TM_FALLINGEDGE 0x08u
 598:Generated_Source\PSoC4/DATALINK_Timer.c ****     #define DATALINK_Timer__B_TIMER__TM_EITHEREDGE 0x0Cu
 599:Generated_Source\PSoC4/DATALINK_Timer.c ****     #define DATALINK_Timer__B_TIMER__TM_SOFTWARE 0x10u
 600:Generated_Source\PSoC4/DATALINK_Timer.c **** *
 601:Generated_Source\PSoC4/DATALINK_Timer.c **** * Return:
 602:Generated_Source\PSoC4/DATALINK_Timer.c **** *  void
 603:Generated_Source\PSoC4/DATALINK_Timer.c **** *
 604:Generated_Source\PSoC4/DATALINK_Timer.c **** *******************************************************************************/
 605:Generated_Source\PSoC4/DATALINK_Timer.c **** void DATALINK_Timer_SetTriggerMode(uint8 triggerMode) 
 606:Generated_Source\PSoC4/DATALINK_Timer.c **** {
 607:Generated_Source\PSoC4/DATALINK_Timer.c ****     /* This must only set to two bits of the control register associated */
 608:Generated_Source\PSoC4/DATALINK_Timer.c ****     triggerMode &= DATALINK_Timer_CTRL_TRIG_MODE_MASK;
 609:Generated_Source\PSoC4/DATALINK_Timer.c **** 
 610:Generated_Source\PSoC4/DATALINK_Timer.c ****     #if (!DATALINK_Timer_UDB_CONTROL_REG_REMOVED)   /* Remove assignment if control register is rem
 611:Generated_Source\PSoC4/DATALINK_Timer.c ****     
 612:Generated_Source\PSoC4/DATALINK_Timer.c ****         /* Clear the Current Setting */
 613:Generated_Source\PSoC4/DATALINK_Timer.c ****         DATALINK_Timer_CONTROL &= ((uint8)(~DATALINK_Timer_CTRL_TRIG_MODE_MASK));
 614:Generated_Source\PSoC4/DATALINK_Timer.c **** 
 615:Generated_Source\PSoC4/DATALINK_Timer.c ****         /* Write The New Setting */
 616:Generated_Source\PSoC4/DATALINK_Timer.c ****         DATALINK_Timer_CONTROL |= (triggerMode | DATALINK_Timer__B_TIMER__TM_SOFTWARE);
 617:Generated_Source\PSoC4/DATALINK_Timer.c ****     #endif /* Remove code section if control register is not used */
 618:Generated_Source\PSoC4/DATALINK_Timer.c **** }
 619:Generated_Source\PSoC4/DATALINK_Timer.c **** #endif /* Remove API if Trigger Mode is not Software Controlled */
 620:Generated_Source\PSoC4/DATALINK_Timer.c **** 
 621:Generated_Source\PSoC4/DATALINK_Timer.c **** #if (DATALINK_Timer_EnableTriggerMode)
 622:Generated_Source\PSoC4/DATALINK_Timer.c **** 
 623:Generated_Source\PSoC4/DATALINK_Timer.c **** 
 624:Generated_Source\PSoC4/DATALINK_Timer.c **** /*******************************************************************************
 625:Generated_Source\PSoC4/DATALINK_Timer.c **** * Function Name: DATALINK_Timer_EnableTrigger
 626:Generated_Source\PSoC4/DATALINK_Timer.c **** ********************************************************************************
 627:Generated_Source\PSoC4/DATALINK_Timer.c **** *
 628:Generated_Source\PSoC4/DATALINK_Timer.c **** * Summary:
 629:Generated_Source\PSoC4/DATALINK_Timer.c **** *  Sets the control bit enabling Hardware Trigger mode
 630:Generated_Source\PSoC4/DATALINK_Timer.c **** *
 631:Generated_Source\PSoC4/DATALINK_Timer.c **** * Parameters:
 632:Generated_Source\PSoC4/DATALINK_Timer.c **** *  void
 633:Generated_Source\PSoC4/DATALINK_Timer.c **** *
 634:Generated_Source\PSoC4/DATALINK_Timer.c **** * Return:
 635:Generated_Source\PSoC4/DATALINK_Timer.c **** *  void
 636:Generated_Source\PSoC4/DATALINK_Timer.c **** *
 637:Generated_Source\PSoC4/DATALINK_Timer.c **** *******************************************************************************/
 638:Generated_Source\PSoC4/DATALINK_Timer.c **** void DATALINK_Timer_EnableTrigger(void) 
 639:Generated_Source\PSoC4/DATALINK_Timer.c **** {
 640:Generated_Source\PSoC4/DATALINK_Timer.c ****     #if (!DATALINK_Timer_UDB_CONTROL_REG_REMOVED)   /* Remove assignment if control register is rem
 641:Generated_Source\PSoC4/DATALINK_Timer.c ****         DATALINK_Timer_CONTROL |= DATALINK_Timer_CTRL_TRIG_EN;
 642:Generated_Source\PSoC4/DATALINK_Timer.c ****     #endif /* Remove code section if control register is not used */
 643:Generated_Source\PSoC4/DATALINK_Timer.c **** }
 644:Generated_Source\PSoC4/DATALINK_Timer.c **** 
 645:Generated_Source\PSoC4/DATALINK_Timer.c **** 
 646:Generated_Source\PSoC4/DATALINK_Timer.c **** /*******************************************************************************
 647:Generated_Source\PSoC4/DATALINK_Timer.c **** * Function Name: DATALINK_Timer_DisableTrigger
ARM GAS  C:\Users\Ala\AppData\Local\Temp\cchB5osk.s 			page 18


 648:Generated_Source\PSoC4/DATALINK_Timer.c **** ********************************************************************************
 649:Generated_Source\PSoC4/DATALINK_Timer.c **** *
 650:Generated_Source\PSoC4/DATALINK_Timer.c **** * Summary:
 651:Generated_Source\PSoC4/DATALINK_Timer.c **** *  Clears the control bit enabling Hardware Trigger mode
 652:Generated_Source\PSoC4/DATALINK_Timer.c **** *
 653:Generated_Source\PSoC4/DATALINK_Timer.c **** * Parameters:
 654:Generated_Source\PSoC4/DATALINK_Timer.c **** *  void
 655:Generated_Source\PSoC4/DATALINK_Timer.c **** *
 656:Generated_Source\PSoC4/DATALINK_Timer.c **** * Return:
 657:Generated_Source\PSoC4/DATALINK_Timer.c **** *  void
 658:Generated_Source\PSoC4/DATALINK_Timer.c **** *
 659:Generated_Source\PSoC4/DATALINK_Timer.c **** *******************************************************************************/
 660:Generated_Source\PSoC4/DATALINK_Timer.c **** void DATALINK_Timer_DisableTrigger(void) 
 661:Generated_Source\PSoC4/DATALINK_Timer.c **** {
 314              		.loc 1 661 0
 315              		.cfi_startproc
 316              		@ args = 0, pretend = 0, frame = 0
 317              		@ frame_needed = 0, uses_anonymous_args = 0
 318              		@ link register save eliminated.
 662:Generated_Source\PSoC4/DATALINK_Timer.c ****     #if (!DATALINK_Timer_UDB_CONTROL_REG_REMOVED )   /* Remove assignment if control register is re
 663:Generated_Source\PSoC4/DATALINK_Timer.c ****         DATALINK_Timer_CONTROL &= ((uint8)(~DATALINK_Timer_CTRL_TRIG_EN));
 664:Generated_Source\PSoC4/DATALINK_Timer.c ****     #endif /* Remove code section if control register is not used */
 665:Generated_Source\PSoC4/DATALINK_Timer.c **** }
 319              		.loc 1 665 0
 320              		@ sp needed
 321 0000 7047     		bx	lr
 322              		.cfi_endproc
 323              	.LFE13:
 324              		.size	DATALINK_Timer_DisableTrigger, .-DATALINK_Timer_DisableTrigger
 325              		.section	.text.DATALINK_Timer_ClearFIFO,"ax",%progbits
 326              		.align	1
 327              		.global	DATALINK_Timer_ClearFIFO
 328              		.code	16
 329              		.thumb_func
 330              		.type	DATALINK_Timer_ClearFIFO, %function
 331              	DATALINK_Timer_ClearFIFO:
 332              	.LFB14:
 666:Generated_Source\PSoC4/DATALINK_Timer.c **** #endif /* Remove API is Trigger Mode is set to None */
 667:Generated_Source\PSoC4/DATALINK_Timer.c **** 
 668:Generated_Source\PSoC4/DATALINK_Timer.c **** #if(DATALINK_Timer_InterruptOnCaptureCount)
 669:Generated_Source\PSoC4/DATALINK_Timer.c **** 
 670:Generated_Source\PSoC4/DATALINK_Timer.c **** 
 671:Generated_Source\PSoC4/DATALINK_Timer.c **** /*******************************************************************************
 672:Generated_Source\PSoC4/DATALINK_Timer.c **** * Function Name: DATALINK_Timer_SetInterruptCount
 673:Generated_Source\PSoC4/DATALINK_Timer.c **** ********************************************************************************
 674:Generated_Source\PSoC4/DATALINK_Timer.c **** *
 675:Generated_Source\PSoC4/DATALINK_Timer.c **** * Summary:
 676:Generated_Source\PSoC4/DATALINK_Timer.c **** *  This function sets the capture count before an interrupt is triggered.
 677:Generated_Source\PSoC4/DATALINK_Timer.c **** *
 678:Generated_Source\PSoC4/DATALINK_Timer.c **** * Parameters:
 679:Generated_Source\PSoC4/DATALINK_Timer.c **** *  interruptCount:  A value between 0 and 3 is valid.  If the value is 0, then
 680:Generated_Source\PSoC4/DATALINK_Timer.c **** *                   an interrupt will occur each time a capture occurs.
 681:Generated_Source\PSoC4/DATALINK_Timer.c **** *                   A value of 1 to 3 will cause the interrupt
 682:Generated_Source\PSoC4/DATALINK_Timer.c **** *                   to delay by the same number of captures.
 683:Generated_Source\PSoC4/DATALINK_Timer.c **** *
 684:Generated_Source\PSoC4/DATALINK_Timer.c **** * Return:
 685:Generated_Source\PSoC4/DATALINK_Timer.c **** *  void
ARM GAS  C:\Users\Ala\AppData\Local\Temp\cchB5osk.s 			page 19


 686:Generated_Source\PSoC4/DATALINK_Timer.c **** *
 687:Generated_Source\PSoC4/DATALINK_Timer.c **** *******************************************************************************/
 688:Generated_Source\PSoC4/DATALINK_Timer.c **** void DATALINK_Timer_SetInterruptCount(uint8 interruptCount) 
 689:Generated_Source\PSoC4/DATALINK_Timer.c **** {
 690:Generated_Source\PSoC4/DATALINK_Timer.c ****     /* This must only set to two bits of the control register associated */
 691:Generated_Source\PSoC4/DATALINK_Timer.c ****     interruptCount &= DATALINK_Timer_CTRL_INTCNT_MASK;
 692:Generated_Source\PSoC4/DATALINK_Timer.c **** 
 693:Generated_Source\PSoC4/DATALINK_Timer.c ****     #if (!DATALINK_Timer_UDB_CONTROL_REG_REMOVED)
 694:Generated_Source\PSoC4/DATALINK_Timer.c ****         /* Clear the Current Setting */
 695:Generated_Source\PSoC4/DATALINK_Timer.c ****         DATALINK_Timer_CONTROL &= ((uint8)(~DATALINK_Timer_CTRL_INTCNT_MASK));
 696:Generated_Source\PSoC4/DATALINK_Timer.c ****         /* Write The New Setting */
 697:Generated_Source\PSoC4/DATALINK_Timer.c ****         DATALINK_Timer_CONTROL |= interruptCount;
 698:Generated_Source\PSoC4/DATALINK_Timer.c ****     #endif /* (!DATALINK_Timer_UDB_CONTROL_REG_REMOVED) */
 699:Generated_Source\PSoC4/DATALINK_Timer.c **** }
 700:Generated_Source\PSoC4/DATALINK_Timer.c **** #endif /* DATALINK_Timer_InterruptOnCaptureCount */
 701:Generated_Source\PSoC4/DATALINK_Timer.c **** 
 702:Generated_Source\PSoC4/DATALINK_Timer.c **** 
 703:Generated_Source\PSoC4/DATALINK_Timer.c **** #if (DATALINK_Timer_UsingHWCaptureCounter)
 704:Generated_Source\PSoC4/DATALINK_Timer.c **** 
 705:Generated_Source\PSoC4/DATALINK_Timer.c **** 
 706:Generated_Source\PSoC4/DATALINK_Timer.c **** /*******************************************************************************
 707:Generated_Source\PSoC4/DATALINK_Timer.c **** * Function Name: DATALINK_Timer_SetCaptureCount
 708:Generated_Source\PSoC4/DATALINK_Timer.c **** ********************************************************************************
 709:Generated_Source\PSoC4/DATALINK_Timer.c **** *
 710:Generated_Source\PSoC4/DATALINK_Timer.c **** * Summary:
 711:Generated_Source\PSoC4/DATALINK_Timer.c **** *  This function sets the capture count
 712:Generated_Source\PSoC4/DATALINK_Timer.c **** *
 713:Generated_Source\PSoC4/DATALINK_Timer.c **** * Parameters:
 714:Generated_Source\PSoC4/DATALINK_Timer.c **** *  captureCount: A value between 2 and 127 inclusive is valid.  A value of 1
 715:Generated_Source\PSoC4/DATALINK_Timer.c **** *                to 127 will cause the interrupt to delay by the same number of
 716:Generated_Source\PSoC4/DATALINK_Timer.c **** *                captures.
 717:Generated_Source\PSoC4/DATALINK_Timer.c **** *
 718:Generated_Source\PSoC4/DATALINK_Timer.c **** * Return:
 719:Generated_Source\PSoC4/DATALINK_Timer.c **** *  void
 720:Generated_Source\PSoC4/DATALINK_Timer.c **** *
 721:Generated_Source\PSoC4/DATALINK_Timer.c **** *******************************************************************************/
 722:Generated_Source\PSoC4/DATALINK_Timer.c **** void DATALINK_Timer_SetCaptureCount(uint8 captureCount) 
 723:Generated_Source\PSoC4/DATALINK_Timer.c **** {
 724:Generated_Source\PSoC4/DATALINK_Timer.c ****     DATALINK_Timer_CAP_COUNT = captureCount;
 725:Generated_Source\PSoC4/DATALINK_Timer.c **** }
 726:Generated_Source\PSoC4/DATALINK_Timer.c **** 
 727:Generated_Source\PSoC4/DATALINK_Timer.c **** 
 728:Generated_Source\PSoC4/DATALINK_Timer.c **** /*******************************************************************************
 729:Generated_Source\PSoC4/DATALINK_Timer.c **** * Function Name: DATALINK_Timer_ReadCaptureCount
 730:Generated_Source\PSoC4/DATALINK_Timer.c **** ********************************************************************************
 731:Generated_Source\PSoC4/DATALINK_Timer.c **** *
 732:Generated_Source\PSoC4/DATALINK_Timer.c **** * Summary:
 733:Generated_Source\PSoC4/DATALINK_Timer.c **** *  This function reads the capture count setting
 734:Generated_Source\PSoC4/DATALINK_Timer.c **** *
 735:Generated_Source\PSoC4/DATALINK_Timer.c **** * Parameters:
 736:Generated_Source\PSoC4/DATALINK_Timer.c **** *  void
 737:Generated_Source\PSoC4/DATALINK_Timer.c **** *
 738:Generated_Source\PSoC4/DATALINK_Timer.c **** * Return:
 739:Generated_Source\PSoC4/DATALINK_Timer.c **** *  Returns the Capture Count Setting
 740:Generated_Source\PSoC4/DATALINK_Timer.c **** *
 741:Generated_Source\PSoC4/DATALINK_Timer.c **** *******************************************************************************/
 742:Generated_Source\PSoC4/DATALINK_Timer.c **** uint8 DATALINK_Timer_ReadCaptureCount(void) 
ARM GAS  C:\Users\Ala\AppData\Local\Temp\cchB5osk.s 			page 20


 743:Generated_Source\PSoC4/DATALINK_Timer.c **** {
 744:Generated_Source\PSoC4/DATALINK_Timer.c ****     return ((uint8)DATALINK_Timer_CAP_COUNT);
 745:Generated_Source\PSoC4/DATALINK_Timer.c **** }
 746:Generated_Source\PSoC4/DATALINK_Timer.c **** #endif /* DATALINK_Timer_UsingHWCaptureCounter */
 747:Generated_Source\PSoC4/DATALINK_Timer.c **** 
 748:Generated_Source\PSoC4/DATALINK_Timer.c **** 
 749:Generated_Source\PSoC4/DATALINK_Timer.c **** /*******************************************************************************
 750:Generated_Source\PSoC4/DATALINK_Timer.c **** * Function Name: DATALINK_Timer_ClearFIFO
 751:Generated_Source\PSoC4/DATALINK_Timer.c **** ********************************************************************************
 752:Generated_Source\PSoC4/DATALINK_Timer.c **** *
 753:Generated_Source\PSoC4/DATALINK_Timer.c **** * Summary:
 754:Generated_Source\PSoC4/DATALINK_Timer.c **** *  This function clears all capture data from the capture FIFO
 755:Generated_Source\PSoC4/DATALINK_Timer.c **** *
 756:Generated_Source\PSoC4/DATALINK_Timer.c **** * Parameters:
 757:Generated_Source\PSoC4/DATALINK_Timer.c **** *  void
 758:Generated_Source\PSoC4/DATALINK_Timer.c **** *
 759:Generated_Source\PSoC4/DATALINK_Timer.c **** * Return:
 760:Generated_Source\PSoC4/DATALINK_Timer.c **** *  void
 761:Generated_Source\PSoC4/DATALINK_Timer.c **** *
 762:Generated_Source\PSoC4/DATALINK_Timer.c **** *******************************************************************************/
 763:Generated_Source\PSoC4/DATALINK_Timer.c **** void DATALINK_Timer_ClearFIFO(void) 
 764:Generated_Source\PSoC4/DATALINK_Timer.c **** {
 333              		.loc 1 764 0
 334              		.cfi_startproc
 335              		@ args = 0, pretend = 0, frame = 0
 336              		@ frame_needed = 0, uses_anonymous_args = 0
 337              		@ link register save eliminated.
 765:Generated_Source\PSoC4/DATALINK_Timer.c ****     while(0u != (DATALINK_Timer_ReadStatusRegister() & DATALINK_Timer_STATUS_FIFONEMP))
 338              		.loc 1 765 0
 339 0000 0823     		movs	r3, #8
 340              	.LBB16:
 341              	.LBB17:
 335:Generated_Source\PSoC4/DATALINK_Timer.c **** }
 342              		.loc 1 335 0
 343 0002 0449     		ldr	r1, .L34
 344              	.LBE17:
 345              	.LBE16:
 346              	.LBB19:
 347              	.LBB20:
 461:Generated_Source\PSoC4/DATALINK_Timer.c ****    #endif /* (DATALINK_Timer_UsingFixedFunction) */
 348              		.loc 1 461 0
 349 0004 0448     		ldr	r0, .L34+4
 350              	.L30:
 351              	.LBE20:
 352              	.LBE19:
 353              	.LBB22:
 354              	.LBB18:
 335:Generated_Source\PSoC4/DATALINK_Timer.c **** }
 355              		.loc 1 335 0
 356 0006 0A78     		ldrb	r2, [r1]
 357              	.LBE18:
 358              	.LBE22:
 359              		.loc 1 765 0
 360 0008 1A42     		tst	r2, r3
 361 000a 01D0     		beq	.L33
 362              	.LBB23:
 363              	.LBB21:
ARM GAS  C:\Users\Ala\AppData\Local\Temp\cchB5osk.s 			page 21


 461:Generated_Source\PSoC4/DATALINK_Timer.c ****    #endif /* (DATALINK_Timer_UsingFixedFunction) */
 364              		.loc 1 461 0
 365 000c 0278     		ldrb	r2, [r0]
 366 000e FAE7     		b	.L30
 367              	.L33:
 368              	.LBE21:
 369              	.LBE23:
 766:Generated_Source\PSoC4/DATALINK_Timer.c ****     {
 767:Generated_Source\PSoC4/DATALINK_Timer.c ****         (void)DATALINK_Timer_ReadCapture();
 768:Generated_Source\PSoC4/DATALINK_Timer.c ****     }
 769:Generated_Source\PSoC4/DATALINK_Timer.c **** }
 370              		.loc 1 769 0
 371              		@ sp needed
 372 0010 7047     		bx	lr
 373              	.L35:
 374 0012 C046     		.align	2
 375              	.L34:
 376 0014 61000F40 		.word	1074724961
 377 0018 41000F40 		.word	1074724929
 378              		.cfi_endproc
 379              	.LFE14:
 380              		.size	DATALINK_Timer_ClearFIFO, .-DATALINK_Timer_ClearFIFO
 381              		.section	.text.DATALINK_Timer_Init,"ax",%progbits
 382              		.align	1
 383              		.global	DATALINK_Timer_Init
 384              		.code	16
 385              		.thumb_func
 386              		.type	DATALINK_Timer_Init, %function
 387              	DATALINK_Timer_Init:
 388              	.LFB0:
  44:Generated_Source\PSoC4/DATALINK_Timer.c ****     #if(!DATALINK_Timer_UsingFixedFunction)
 389              		.loc 1 44 0
 390              		.cfi_startproc
 391              		@ args = 0, pretend = 0, frame = 0
 392              		@ frame_needed = 0, uses_anonymous_args = 0
 393              	.LVL3:
 394              	.LBB24:
 395              	.LBB25:
 437:Generated_Source\PSoC4/DATALINK_Timer.c ****     #endif /*Write Period value with appropriate resolution suffix depending on UDB or fixed functi
 396              		.loc 1 437 0
 397 0000 4F23     		movs	r3, #79
 398 0002 0A4A     		ldr	r2, .L37
 399              	.LBE25:
 400              	.LBE24:
  44:Generated_Source\PSoC4/DATALINK_Timer.c ****     #if(!DATALINK_Timer_UsingFixedFunction)
 401              		.loc 1 44 0
 402 0004 10B5     		push	{r4, lr}
 403              		.cfi_def_cfa_offset 8
 404              		.cfi_offset 4, -8
 405              		.cfi_offset 14, -4
 406              	.LBB27:
 407              	.LBB26:
 437:Generated_Source\PSoC4/DATALINK_Timer.c ****     #endif /*Write Period value with appropriate resolution suffix depending on UDB or fixed functi
 408              		.loc 1 437 0
 409 0006 1370     		strb	r3, [r2]
 410              	.LVL4:
 411              	.LBE26:
ARM GAS  C:\Users\Ala\AppData\Local\Temp\cchB5osk.s 			page 22


 412              	.LBE27:
 413              	.LBB28:
 414              	.LBB29:
 489:Generated_Source\PSoC4/DATALINK_Timer.c ****     #endif /* Set Write Counter only for the UDB implementation (Write Counter not available in fix
 415              		.loc 1 489 0
 416 0008 094A     		ldr	r2, .L37+4
 417              	.LBE29:
 418              	.LBE28:
 163:Generated_Source\PSoC4/DATALINK_Timer.c **** 
 419              		.loc 1 163 0
 420              		@ sp needed
 421              	.LBB31:
 422              	.LBB30:
 489:Generated_Source\PSoC4/DATALINK_Timer.c ****     #endif /* Set Write Counter only for the UDB implementation (Write Counter not available in fix
 423              		.loc 1 489 0
 424 000a 1370     		strb	r3, [r2]
 425              	.LVL5:
 426              	.LBE30:
 427              	.LBE31:
 142:Generated_Source\PSoC4/DATALINK_Timer.c **** 
 428              		.loc 1 142 0
 429 000c FFF7FEFF 		bl	CyEnterCriticalSection
 430              	.LVL6:
 145:Generated_Source\PSoC4/DATALINK_Timer.c **** 
 431              		.loc 1 145 0
 432 0010 1021     		movs	r1, #16
 433 0012 084A     		ldr	r2, .L37+8
 434 0014 1378     		ldrb	r3, [r2]
 435 0016 0B43     		orrs	r3, r1
 436 0018 1370     		strb	r3, [r2]
 148:Generated_Source\PSoC4/DATALINK_Timer.c **** 
 437              		.loc 1 148 0
 438 001a FFF7FEFF 		bl	CyExitCriticalSection
 439              	.LVL7:
 159:Generated_Source\PSoC4/DATALINK_Timer.c ****     #endif /* Configure additional features of UDB implementation */
 440              		.loc 1 159 0
 441 001e FFF7FEFF 		bl	DATALINK_Timer_ClearFIFO
 442              	.LVL8:
 443              	.LBB32:
 444              	.LBB33:
 281:Generated_Source\PSoC4/DATALINK_Timer.c **** }
 445              		.loc 1 281 0
 446 0022 0522     		movs	r2, #5
 447 0024 044B     		ldr	r3, .L37+12
 448 0026 1A70     		strb	r2, [r3]
 449              	.LVL9:
 450              	.LBE33:
 451              	.LBE32:
 163:Generated_Source\PSoC4/DATALINK_Timer.c **** 
 452              		.loc 1 163 0
 453 0028 10BD     		pop	{r4, pc}
 454              	.L38:
 455 002a C046     		.align	2
 456              	.L37:
 457 002c 21000F40 		.word	1074724897
 458 0030 01000F40 		.word	1074724865
 459 0034 91000F40 		.word	1074725009
ARM GAS  C:\Users\Ala\AppData\Local\Temp\cchB5osk.s 			page 23


 460 0038 81000F40 		.word	1074724993
 461              		.cfi_endproc
 462              	.LFE0:
 463              		.size	DATALINK_Timer_Init, .-DATALINK_Timer_Init
 464              		.section	.text.DATALINK_Timer_Start,"ax",%progbits
 465              		.align	1
 466              		.global	DATALINK_Timer_Start
 467              		.code	16
 468              		.thumb_func
 469              		.type	DATALINK_Timer_Start, %function
 470              	DATALINK_Timer_Start:
 471              	.LFB2:
 216:Generated_Source\PSoC4/DATALINK_Timer.c ****     if(DATALINK_Timer_initVar == 0u)
 472              		.loc 1 216 0
 473              		.cfi_startproc
 474              		@ args = 0, pretend = 0, frame = 0
 475              		@ frame_needed = 0, uses_anonymous_args = 0
 476 0000 10B5     		push	{r4, lr}
 477              		.cfi_def_cfa_offset 8
 478              		.cfi_offset 4, -8
 479              		.cfi_offset 14, -4
 217:Generated_Source\PSoC4/DATALINK_Timer.c ****     {
 480              		.loc 1 217 0
 481 0002 044C     		ldr	r4, .L41
 482 0004 2378     		ldrb	r3, [r4]
 483 0006 002B     		cmp	r3, #0
 484 0008 03D1     		bne	.L39
 219:Generated_Source\PSoC4/DATALINK_Timer.c **** 
 485              		.loc 1 219 0
 486 000a FFF7FEFF 		bl	DATALINK_Timer_Init
 487              	.LVL10:
 221:Generated_Source\PSoC4/DATALINK_Timer.c ****     }
 488              		.loc 1 221 0
 489 000e 0123     		movs	r3, #1
 490 0010 2370     		strb	r3, [r4]
 491              	.L39:
 226:Generated_Source\PSoC4/DATALINK_Timer.c **** 
 492              		.loc 1 226 0
 493              		@ sp needed
 494 0012 10BD     		pop	{r4, pc}
 495              	.L42:
 496              		.align	2
 497              	.L41:
 498 0014 00000000 		.word	.LANCHOR0
 499              		.cfi_endproc
 500              	.LFE2:
 501              		.size	DATALINK_Timer_Start, .-DATALINK_Timer_Start
 502              		.global	DATALINK_Timer_initVar
 503              		.bss
 504              		.set	.LANCHOR0,. + 0
 505              		.type	DATALINK_Timer_initVar, %object
 506              		.size	DATALINK_Timer_initVar, 1
 507              	DATALINK_Timer_initVar:
 508 0000 00       		.space	1
 509              		.text
 510              	.Letext0:
 511              		.file 2 "Generated_Source\\PSoC4\\cytypes.h"
ARM GAS  C:\Users\Ala\AppData\Local\Temp\cchB5osk.s 			page 24


 512              		.file 3 "Generated_Source\\PSoC4\\CyLib.h"