ARM GAS  C:\Users\Ala\AppData\Local\Temp\ccjVvkIK.s 			page 1


   1              		.syntax unified
   2              		.cpu cortex-m0
   3              		.fpu softvfp
   4              		.eabi_attribute 20, 1
   5              		.eabi_attribute 21, 1
   6              		.eabi_attribute 23, 3
   7              		.eabi_attribute 24, 1
   8              		.eabi_attribute 25, 1
   9              		.eabi_attribute 26, 1
  10              		.eabi_attribute 30, 4
  11              		.eabi_attribute 34, 0
  12              		.eabi_attribute 18, 4
  13              		.thumb
  14              		.syntax unified
  15              		.file	"DISPLAY_Timer.c"
  16              		.text
  17              	.Ltext0:
  18              		.cfi_sections	.debug_frame
  19              		.section	.text.DISPLAY_Timer_Enable,"ax",%progbits
  20              		.align	1
  21              		.global	DISPLAY_Timer_Enable
  22              		.code	16
  23              		.thumb_func
  24              		.type	DISPLAY_Timer_Enable, %function
  25              	DISPLAY_Timer_Enable:
  26              	.LFB1:
  27              		.file 1 "Generated_Source\\PSoC4\\DISPLAY_Timer.c"
   1:Generated_Source\PSoC4/DISPLAY_Timer.c **** /*******************************************************************************
   2:Generated_Source\PSoC4/DISPLAY_Timer.c **** * File Name: DISPLAY_Timer.c
   3:Generated_Source\PSoC4/DISPLAY_Timer.c **** * Version 2.80
   4:Generated_Source\PSoC4/DISPLAY_Timer.c **** *
   5:Generated_Source\PSoC4/DISPLAY_Timer.c **** * Description:
   6:Generated_Source\PSoC4/DISPLAY_Timer.c **** *  The Timer component consists of a 8, 16, 24 or 32-bit timer with
   7:Generated_Source\PSoC4/DISPLAY_Timer.c **** *  a selectable period between 2 and 2^Width - 1.  The timer may free run
   8:Generated_Source\PSoC4/DISPLAY_Timer.c **** *  or be used as a capture timer as well.  The capture can be initiated
   9:Generated_Source\PSoC4/DISPLAY_Timer.c **** *  by a positive or negative edge signal as well as via software.
  10:Generated_Source\PSoC4/DISPLAY_Timer.c **** *  A trigger input can be programmed to enable the timer on rising edge
  11:Generated_Source\PSoC4/DISPLAY_Timer.c **** *  falling edge, either edge or continous run.
  12:Generated_Source\PSoC4/DISPLAY_Timer.c **** *  Interrupts may be generated due to a terminal count condition
  13:Generated_Source\PSoC4/DISPLAY_Timer.c **** *  or a capture event.
  14:Generated_Source\PSoC4/DISPLAY_Timer.c **** *
  15:Generated_Source\PSoC4/DISPLAY_Timer.c **** * Note:
  16:Generated_Source\PSoC4/DISPLAY_Timer.c **** *
  17:Generated_Source\PSoC4/DISPLAY_Timer.c **** ********************************************************************************
  18:Generated_Source\PSoC4/DISPLAY_Timer.c **** * Copyright 2008-2017, Cypress Semiconductor Corporation.  All rights reserved.
  19:Generated_Source\PSoC4/DISPLAY_Timer.c **** * You may use this file only in accordance with the license, terms, conditions,
  20:Generated_Source\PSoC4/DISPLAY_Timer.c **** * disclaimers, and limitations in the end user license agreement accompanying
  21:Generated_Source\PSoC4/DISPLAY_Timer.c **** * the software package with which this file was provided.
  22:Generated_Source\PSoC4/DISPLAY_Timer.c **** ********************************************************************************/
  23:Generated_Source\PSoC4/DISPLAY_Timer.c **** 
  24:Generated_Source\PSoC4/DISPLAY_Timer.c **** #include "DISPLAY_Timer.h"
  25:Generated_Source\PSoC4/DISPLAY_Timer.c **** 
  26:Generated_Source\PSoC4/DISPLAY_Timer.c **** uint8 DISPLAY_Timer_initVar = 0u;
  27:Generated_Source\PSoC4/DISPLAY_Timer.c **** 
  28:Generated_Source\PSoC4/DISPLAY_Timer.c **** 
  29:Generated_Source\PSoC4/DISPLAY_Timer.c **** /*******************************************************************************
  30:Generated_Source\PSoC4/DISPLAY_Timer.c **** * Function Name: DISPLAY_Timer_Init
ARM GAS  C:\Users\Ala\AppData\Local\Temp\ccjVvkIK.s 			page 2


  31:Generated_Source\PSoC4/DISPLAY_Timer.c **** ********************************************************************************
  32:Generated_Source\PSoC4/DISPLAY_Timer.c **** *
  33:Generated_Source\PSoC4/DISPLAY_Timer.c **** * Summary:
  34:Generated_Source\PSoC4/DISPLAY_Timer.c **** *  Initialize to the schematic state
  35:Generated_Source\PSoC4/DISPLAY_Timer.c **** *
  36:Generated_Source\PSoC4/DISPLAY_Timer.c **** * Parameters:
  37:Generated_Source\PSoC4/DISPLAY_Timer.c **** *  void
  38:Generated_Source\PSoC4/DISPLAY_Timer.c **** *
  39:Generated_Source\PSoC4/DISPLAY_Timer.c **** * Return:
  40:Generated_Source\PSoC4/DISPLAY_Timer.c **** *  void
  41:Generated_Source\PSoC4/DISPLAY_Timer.c **** *
  42:Generated_Source\PSoC4/DISPLAY_Timer.c **** *******************************************************************************/
  43:Generated_Source\PSoC4/DISPLAY_Timer.c **** void DISPLAY_Timer_Init(void) 
  44:Generated_Source\PSoC4/DISPLAY_Timer.c **** {
  45:Generated_Source\PSoC4/DISPLAY_Timer.c ****     #if(!DISPLAY_Timer_UsingFixedFunction)
  46:Generated_Source\PSoC4/DISPLAY_Timer.c ****             /* Interrupt State Backup for Critical Region*/
  47:Generated_Source\PSoC4/DISPLAY_Timer.c ****             uint8 DISPLAY_Timer_interruptState;
  48:Generated_Source\PSoC4/DISPLAY_Timer.c ****     #endif /* Interrupt state back up for Fixed Function only */
  49:Generated_Source\PSoC4/DISPLAY_Timer.c **** 
  50:Generated_Source\PSoC4/DISPLAY_Timer.c ****     #if (DISPLAY_Timer_UsingFixedFunction)
  51:Generated_Source\PSoC4/DISPLAY_Timer.c ****         /* Clear all bits but the enable bit (if it's already set) for Timer operation */
  52:Generated_Source\PSoC4/DISPLAY_Timer.c ****         DISPLAY_Timer_CONTROL &= DISPLAY_Timer_CTRL_ENABLE;
  53:Generated_Source\PSoC4/DISPLAY_Timer.c **** 
  54:Generated_Source\PSoC4/DISPLAY_Timer.c ****         /* Clear the mode bits for continuous run mode */
  55:Generated_Source\PSoC4/DISPLAY_Timer.c ****         #if (CY_PSOC5A)
  56:Generated_Source\PSoC4/DISPLAY_Timer.c ****             DISPLAY_Timer_CONTROL2 &= ((uint8)(~DISPLAY_Timer_CTRL_MODE_MASK));
  57:Generated_Source\PSoC4/DISPLAY_Timer.c ****         #endif /* Clear bits in CONTROL2 only in PSOC5A */
  58:Generated_Source\PSoC4/DISPLAY_Timer.c **** 
  59:Generated_Source\PSoC4/DISPLAY_Timer.c ****         #if (CY_PSOC3 || CY_PSOC5LP)
  60:Generated_Source\PSoC4/DISPLAY_Timer.c ****             DISPLAY_Timer_CONTROL3 &= ((uint8)(~DISPLAY_Timer_CTRL_MODE_MASK));
  61:Generated_Source\PSoC4/DISPLAY_Timer.c ****         #endif /* CONTROL3 register exists only in PSoC3 OR PSoC5LP */
  62:Generated_Source\PSoC4/DISPLAY_Timer.c **** 
  63:Generated_Source\PSoC4/DISPLAY_Timer.c ****         /* Check if One Shot mode is enabled i.e. RunMode !=0*/
  64:Generated_Source\PSoC4/DISPLAY_Timer.c ****         #if (DISPLAY_Timer_RunModeUsed != 0x0u)
  65:Generated_Source\PSoC4/DISPLAY_Timer.c ****             /* Set 3rd bit of Control register to enable one shot mode */
  66:Generated_Source\PSoC4/DISPLAY_Timer.c ****             DISPLAY_Timer_CONTROL |= 0x04u;
  67:Generated_Source\PSoC4/DISPLAY_Timer.c ****         #endif /* One Shot enabled only when RunModeUsed is not Continuous*/
  68:Generated_Source\PSoC4/DISPLAY_Timer.c **** 
  69:Generated_Source\PSoC4/DISPLAY_Timer.c ****         #if (DISPLAY_Timer_RunModeUsed == 2)
  70:Generated_Source\PSoC4/DISPLAY_Timer.c ****             #if (CY_PSOC5A)
  71:Generated_Source\PSoC4/DISPLAY_Timer.c ****                 /* Set last 2 bits of control2 register if one shot(halt on
  72:Generated_Source\PSoC4/DISPLAY_Timer.c ****                 interrupt) is enabled*/
  73:Generated_Source\PSoC4/DISPLAY_Timer.c ****                 DISPLAY_Timer_CONTROL2 |= 0x03u;
  74:Generated_Source\PSoC4/DISPLAY_Timer.c ****             #endif /* Set One-Shot Halt on Interrupt bit in CONTROL2 for PSoC5A */
  75:Generated_Source\PSoC4/DISPLAY_Timer.c **** 
  76:Generated_Source\PSoC4/DISPLAY_Timer.c ****             #if (CY_PSOC3 || CY_PSOC5LP)
  77:Generated_Source\PSoC4/DISPLAY_Timer.c ****                 /* Set last 2 bits of control3 register if one shot(halt on
  78:Generated_Source\PSoC4/DISPLAY_Timer.c ****                 interrupt) is enabled*/
  79:Generated_Source\PSoC4/DISPLAY_Timer.c ****                 DISPLAY_Timer_CONTROL3 |= 0x03u;
  80:Generated_Source\PSoC4/DISPLAY_Timer.c ****             #endif /* Set One-Shot Halt on Interrupt bit in CONTROL3 for PSoC3 or PSoC5LP */
  81:Generated_Source\PSoC4/DISPLAY_Timer.c **** 
  82:Generated_Source\PSoC4/DISPLAY_Timer.c ****         #endif /* Remove section if One Shot Halt on Interrupt is not enabled */
  83:Generated_Source\PSoC4/DISPLAY_Timer.c **** 
  84:Generated_Source\PSoC4/DISPLAY_Timer.c ****         #if (DISPLAY_Timer_UsingHWEnable != 0)
  85:Generated_Source\PSoC4/DISPLAY_Timer.c ****             #if (CY_PSOC5A)
  86:Generated_Source\PSoC4/DISPLAY_Timer.c ****                 /* Set the default Run Mode of the Timer to Continuous */
  87:Generated_Source\PSoC4/DISPLAY_Timer.c ****                 DISPLAY_Timer_CONTROL2 |= DISPLAY_Timer_CTRL_MODE_PULSEWIDTH;
ARM GAS  C:\Users\Ala\AppData\Local\Temp\ccjVvkIK.s 			page 3


  88:Generated_Source\PSoC4/DISPLAY_Timer.c ****             #endif /* Set Continuous Run Mode in CONTROL2 for PSoC5A */
  89:Generated_Source\PSoC4/DISPLAY_Timer.c **** 
  90:Generated_Source\PSoC4/DISPLAY_Timer.c ****             #if (CY_PSOC3 || CY_PSOC5LP)
  91:Generated_Source\PSoC4/DISPLAY_Timer.c ****                 /* Clear and Set ROD and COD bits of CFG2 register */
  92:Generated_Source\PSoC4/DISPLAY_Timer.c ****                 DISPLAY_Timer_CONTROL3 &= ((uint8)(~DISPLAY_Timer_CTRL_RCOD_MASK));
  93:Generated_Source\PSoC4/DISPLAY_Timer.c ****                 DISPLAY_Timer_CONTROL3 |= DISPLAY_Timer_CTRL_RCOD;
  94:Generated_Source\PSoC4/DISPLAY_Timer.c **** 
  95:Generated_Source\PSoC4/DISPLAY_Timer.c ****                 /* Clear and Enable the HW enable bit in CFG2 register */
  96:Generated_Source\PSoC4/DISPLAY_Timer.c ****                 DISPLAY_Timer_CONTROL3 &= ((uint8)(~DISPLAY_Timer_CTRL_ENBL_MASK));
  97:Generated_Source\PSoC4/DISPLAY_Timer.c ****                 DISPLAY_Timer_CONTROL3 |= DISPLAY_Timer_CTRL_ENBL;
  98:Generated_Source\PSoC4/DISPLAY_Timer.c **** 
  99:Generated_Source\PSoC4/DISPLAY_Timer.c ****                 /* Set the default Run Mode of the Timer to Continuous */
 100:Generated_Source\PSoC4/DISPLAY_Timer.c ****                 DISPLAY_Timer_CONTROL3 |= DISPLAY_Timer_CTRL_MODE_CONTINUOUS;
 101:Generated_Source\PSoC4/DISPLAY_Timer.c ****             #endif /* Set Continuous Run Mode in CONTROL3 for PSoC3ES3 or PSoC5A */
 102:Generated_Source\PSoC4/DISPLAY_Timer.c **** 
 103:Generated_Source\PSoC4/DISPLAY_Timer.c ****         #endif /* Configure Run Mode with hardware enable */
 104:Generated_Source\PSoC4/DISPLAY_Timer.c **** 
 105:Generated_Source\PSoC4/DISPLAY_Timer.c ****         /* Clear and Set SYNCTC and SYNCCMP bits of RT1 register */
 106:Generated_Source\PSoC4/DISPLAY_Timer.c ****         DISPLAY_Timer_RT1 &= ((uint8)(~DISPLAY_Timer_RT1_MASK));
 107:Generated_Source\PSoC4/DISPLAY_Timer.c ****         DISPLAY_Timer_RT1 |= DISPLAY_Timer_SYNC;
 108:Generated_Source\PSoC4/DISPLAY_Timer.c **** 
 109:Generated_Source\PSoC4/DISPLAY_Timer.c ****         /*Enable DSI Sync all all inputs of the Timer*/
 110:Generated_Source\PSoC4/DISPLAY_Timer.c ****         DISPLAY_Timer_RT1 &= ((uint8)(~DISPLAY_Timer_SYNCDSI_MASK));
 111:Generated_Source\PSoC4/DISPLAY_Timer.c ****         DISPLAY_Timer_RT1 |= DISPLAY_Timer_SYNCDSI_EN;
 112:Generated_Source\PSoC4/DISPLAY_Timer.c **** 
 113:Generated_Source\PSoC4/DISPLAY_Timer.c ****         /* Set the IRQ to use the status register interrupts */
 114:Generated_Source\PSoC4/DISPLAY_Timer.c ****         DISPLAY_Timer_CONTROL2 |= DISPLAY_Timer_CTRL2_IRQ_SEL;
 115:Generated_Source\PSoC4/DISPLAY_Timer.c ****     #endif /* Configuring registers of fixed function implementation */
 116:Generated_Source\PSoC4/DISPLAY_Timer.c **** 
 117:Generated_Source\PSoC4/DISPLAY_Timer.c ****     /* Set Initial values from Configuration */
 118:Generated_Source\PSoC4/DISPLAY_Timer.c ****     DISPLAY_Timer_WritePeriod(DISPLAY_Timer_INIT_PERIOD);
 119:Generated_Source\PSoC4/DISPLAY_Timer.c ****     DISPLAY_Timer_WriteCounter(DISPLAY_Timer_INIT_PERIOD);
 120:Generated_Source\PSoC4/DISPLAY_Timer.c **** 
 121:Generated_Source\PSoC4/DISPLAY_Timer.c ****     #if (DISPLAY_Timer_UsingHWCaptureCounter)/* Capture counter is enabled */
 122:Generated_Source\PSoC4/DISPLAY_Timer.c ****         DISPLAY_Timer_CAPTURE_COUNT_CTRL |= DISPLAY_Timer_CNTR_ENABLE;
 123:Generated_Source\PSoC4/DISPLAY_Timer.c ****         DISPLAY_Timer_SetCaptureCount(DISPLAY_Timer_INIT_CAPTURE_COUNT);
 124:Generated_Source\PSoC4/DISPLAY_Timer.c ****     #endif /* Configure capture counter value */
 125:Generated_Source\PSoC4/DISPLAY_Timer.c **** 
 126:Generated_Source\PSoC4/DISPLAY_Timer.c ****     #if (!DISPLAY_Timer_UsingFixedFunction)
 127:Generated_Source\PSoC4/DISPLAY_Timer.c ****         #if (DISPLAY_Timer_SoftwareCaptureMode)
 128:Generated_Source\PSoC4/DISPLAY_Timer.c ****             DISPLAY_Timer_SetCaptureMode(DISPLAY_Timer_INIT_CAPTURE_MODE);
 129:Generated_Source\PSoC4/DISPLAY_Timer.c ****         #endif /* Set Capture Mode for UDB implementation if capture mode is software controlled */
 130:Generated_Source\PSoC4/DISPLAY_Timer.c **** 
 131:Generated_Source\PSoC4/DISPLAY_Timer.c ****         #if (DISPLAY_Timer_SoftwareTriggerMode)
 132:Generated_Source\PSoC4/DISPLAY_Timer.c ****             #if (!DISPLAY_Timer_UDB_CONTROL_REG_REMOVED)
 133:Generated_Source\PSoC4/DISPLAY_Timer.c ****                 if (0u == (DISPLAY_Timer_CONTROL & DISPLAY_Timer__B_TIMER__TM_SOFTWARE))
 134:Generated_Source\PSoC4/DISPLAY_Timer.c ****                 {
 135:Generated_Source\PSoC4/DISPLAY_Timer.c ****                     DISPLAY_Timer_SetTriggerMode(DISPLAY_Timer_INIT_TRIGGER_MODE);
 136:Generated_Source\PSoC4/DISPLAY_Timer.c ****                 }
 137:Generated_Source\PSoC4/DISPLAY_Timer.c ****             #endif /* (!DISPLAY_Timer_UDB_CONTROL_REG_REMOVED) */
 138:Generated_Source\PSoC4/DISPLAY_Timer.c ****         #endif /* Set trigger mode for UDB Implementation if trigger mode is software controlled */
 139:Generated_Source\PSoC4/DISPLAY_Timer.c **** 
 140:Generated_Source\PSoC4/DISPLAY_Timer.c ****         /* CyEnterCriticalRegion and CyExitCriticalRegion are used to mark following region critica
 141:Generated_Source\PSoC4/DISPLAY_Timer.c ****         /* Enter Critical Region*/
 142:Generated_Source\PSoC4/DISPLAY_Timer.c ****         DISPLAY_Timer_interruptState = CyEnterCriticalSection();
 143:Generated_Source\PSoC4/DISPLAY_Timer.c **** 
 144:Generated_Source\PSoC4/DISPLAY_Timer.c ****         /* Use the interrupt output of the status register for IRQ output */
ARM GAS  C:\Users\Ala\AppData\Local\Temp\ccjVvkIK.s 			page 4


 145:Generated_Source\PSoC4/DISPLAY_Timer.c ****         DISPLAY_Timer_STATUS_AUX_CTRL |= DISPLAY_Timer_STATUS_ACTL_INT_EN_MASK;
 146:Generated_Source\PSoC4/DISPLAY_Timer.c **** 
 147:Generated_Source\PSoC4/DISPLAY_Timer.c ****         /* Exit Critical Region*/
 148:Generated_Source\PSoC4/DISPLAY_Timer.c ****         CyExitCriticalSection(DISPLAY_Timer_interruptState);
 149:Generated_Source\PSoC4/DISPLAY_Timer.c **** 
 150:Generated_Source\PSoC4/DISPLAY_Timer.c ****         #if (DISPLAY_Timer_EnableTriggerMode)
 151:Generated_Source\PSoC4/DISPLAY_Timer.c ****             DISPLAY_Timer_EnableTrigger();
 152:Generated_Source\PSoC4/DISPLAY_Timer.c ****         #endif /* Set Trigger enable bit for UDB implementation in the control register*/
 153:Generated_Source\PSoC4/DISPLAY_Timer.c **** 		
 154:Generated_Source\PSoC4/DISPLAY_Timer.c **** 		
 155:Generated_Source\PSoC4/DISPLAY_Timer.c ****         #if (DISPLAY_Timer_InterruptOnCaptureCount && !DISPLAY_Timer_UDB_CONTROL_REG_REMOVED)
 156:Generated_Source\PSoC4/DISPLAY_Timer.c ****             DISPLAY_Timer_SetInterruptCount(DISPLAY_Timer_INIT_INT_CAPTURE_COUNT);
 157:Generated_Source\PSoC4/DISPLAY_Timer.c ****         #endif /* Set interrupt count in UDB implementation if interrupt count feature is checked.*
 158:Generated_Source\PSoC4/DISPLAY_Timer.c **** 
 159:Generated_Source\PSoC4/DISPLAY_Timer.c ****         DISPLAY_Timer_ClearFIFO();
 160:Generated_Source\PSoC4/DISPLAY_Timer.c ****     #endif /* Configure additional features of UDB implementation */
 161:Generated_Source\PSoC4/DISPLAY_Timer.c **** 
 162:Generated_Source\PSoC4/DISPLAY_Timer.c ****     DISPLAY_Timer_SetInterruptMode(DISPLAY_Timer_INIT_INTERRUPT_MODE);
 163:Generated_Source\PSoC4/DISPLAY_Timer.c **** }
 164:Generated_Source\PSoC4/DISPLAY_Timer.c **** 
 165:Generated_Source\PSoC4/DISPLAY_Timer.c **** 
 166:Generated_Source\PSoC4/DISPLAY_Timer.c **** /*******************************************************************************
 167:Generated_Source\PSoC4/DISPLAY_Timer.c **** * Function Name: DISPLAY_Timer_Enable
 168:Generated_Source\PSoC4/DISPLAY_Timer.c **** ********************************************************************************
 169:Generated_Source\PSoC4/DISPLAY_Timer.c **** *
 170:Generated_Source\PSoC4/DISPLAY_Timer.c **** * Summary:
 171:Generated_Source\PSoC4/DISPLAY_Timer.c **** *  Enable the Timer
 172:Generated_Source\PSoC4/DISPLAY_Timer.c **** *
 173:Generated_Source\PSoC4/DISPLAY_Timer.c **** * Parameters:
 174:Generated_Source\PSoC4/DISPLAY_Timer.c **** *  void
 175:Generated_Source\PSoC4/DISPLAY_Timer.c **** *
 176:Generated_Source\PSoC4/DISPLAY_Timer.c **** * Return:
 177:Generated_Source\PSoC4/DISPLAY_Timer.c **** *  void
 178:Generated_Source\PSoC4/DISPLAY_Timer.c **** *
 179:Generated_Source\PSoC4/DISPLAY_Timer.c **** *******************************************************************************/
 180:Generated_Source\PSoC4/DISPLAY_Timer.c **** void DISPLAY_Timer_Enable(void) 
 181:Generated_Source\PSoC4/DISPLAY_Timer.c **** {
  28              		.loc 1 181 0
  29              		.cfi_startproc
  30              		@ args = 0, pretend = 0, frame = 0
  31              		@ frame_needed = 0, uses_anonymous_args = 0
  32              		@ link register save eliminated.
 182:Generated_Source\PSoC4/DISPLAY_Timer.c ****     /* Globally Enable the Fixed Function Block chosen */
 183:Generated_Source\PSoC4/DISPLAY_Timer.c ****     #if (DISPLAY_Timer_UsingFixedFunction)
 184:Generated_Source\PSoC4/DISPLAY_Timer.c ****         DISPLAY_Timer_GLOBAL_ENABLE |= DISPLAY_Timer_BLOCK_EN_MASK;
 185:Generated_Source\PSoC4/DISPLAY_Timer.c ****         DISPLAY_Timer_GLOBAL_STBY_ENABLE |= DISPLAY_Timer_BLOCK_STBY_EN_MASK;
 186:Generated_Source\PSoC4/DISPLAY_Timer.c ****     #endif /* Set Enable bit for enabling Fixed function timer*/
 187:Generated_Source\PSoC4/DISPLAY_Timer.c **** 
 188:Generated_Source\PSoC4/DISPLAY_Timer.c ****     /* Remove assignment if control register is removed */
 189:Generated_Source\PSoC4/DISPLAY_Timer.c ****     #if (!DISPLAY_Timer_UDB_CONTROL_REG_REMOVED || DISPLAY_Timer_UsingFixedFunction)
 190:Generated_Source\PSoC4/DISPLAY_Timer.c ****         DISPLAY_Timer_CONTROL |= DISPLAY_Timer_CTRL_ENABLE;
  33              		.loc 1 190 0
  34 0000 8023     		movs	r3, #128
  35 0002 024A     		ldr	r2, .L2
 191:Generated_Source\PSoC4/DISPLAY_Timer.c ****     #endif /* Remove assignment if control register is removed */
 192:Generated_Source\PSoC4/DISPLAY_Timer.c **** }
  36              		.loc 1 192 0
ARM GAS  C:\Users\Ala\AppData\Local\Temp\ccjVvkIK.s 			page 5


  37              		@ sp needed
 190:Generated_Source\PSoC4/DISPLAY_Timer.c ****     #endif /* Remove assignment if control register is removed */
  38              		.loc 1 190 0
  39 0004 1178     		ldrb	r1, [r2]
  40 0006 0B43     		orrs	r3, r1
  41 0008 1370     		strb	r3, [r2]
  42              		.loc 1 192 0
  43 000a 7047     		bx	lr
  44              	.L3:
  45              		.align	2
  46              	.L2:
  47 000c 73000F40 		.word	1074724979
  48              		.cfi_endproc
  49              	.LFE1:
  50              		.size	DISPLAY_Timer_Enable, .-DISPLAY_Timer_Enable
  51              		.section	.text.DISPLAY_Timer_Stop,"ax",%progbits
  52              		.align	1
  53              		.global	DISPLAY_Timer_Stop
  54              		.code	16
  55              		.thumb_func
  56              		.type	DISPLAY_Timer_Stop, %function
  57              	DISPLAY_Timer_Stop:
  58              	.LFB3:
 193:Generated_Source\PSoC4/DISPLAY_Timer.c **** 
 194:Generated_Source\PSoC4/DISPLAY_Timer.c **** 
 195:Generated_Source\PSoC4/DISPLAY_Timer.c **** /*******************************************************************************
 196:Generated_Source\PSoC4/DISPLAY_Timer.c **** * Function Name: DISPLAY_Timer_Start
 197:Generated_Source\PSoC4/DISPLAY_Timer.c **** ********************************************************************************
 198:Generated_Source\PSoC4/DISPLAY_Timer.c **** *
 199:Generated_Source\PSoC4/DISPLAY_Timer.c **** * Summary:
 200:Generated_Source\PSoC4/DISPLAY_Timer.c **** *  The start function initializes the timer with the default values, the
 201:Generated_Source\PSoC4/DISPLAY_Timer.c **** *  enables the timerto begin counting.  It does not enable interrupts,
 202:Generated_Source\PSoC4/DISPLAY_Timer.c **** *  the EnableInt command should be called if interrupt generation is required.
 203:Generated_Source\PSoC4/DISPLAY_Timer.c **** *
 204:Generated_Source\PSoC4/DISPLAY_Timer.c **** * Parameters:
 205:Generated_Source\PSoC4/DISPLAY_Timer.c **** *  void
 206:Generated_Source\PSoC4/DISPLAY_Timer.c **** *
 207:Generated_Source\PSoC4/DISPLAY_Timer.c **** * Return:
 208:Generated_Source\PSoC4/DISPLAY_Timer.c **** *  void
 209:Generated_Source\PSoC4/DISPLAY_Timer.c **** *
 210:Generated_Source\PSoC4/DISPLAY_Timer.c **** * Global variables:
 211:Generated_Source\PSoC4/DISPLAY_Timer.c **** *  DISPLAY_Timer_initVar: Is modified when this function is called for the
 212:Generated_Source\PSoC4/DISPLAY_Timer.c **** *   first time. Is used to ensure that initialization happens only once.
 213:Generated_Source\PSoC4/DISPLAY_Timer.c **** *
 214:Generated_Source\PSoC4/DISPLAY_Timer.c **** *******************************************************************************/
 215:Generated_Source\PSoC4/DISPLAY_Timer.c **** void DISPLAY_Timer_Start(void) 
 216:Generated_Source\PSoC4/DISPLAY_Timer.c **** {
 217:Generated_Source\PSoC4/DISPLAY_Timer.c ****     if(DISPLAY_Timer_initVar == 0u)
 218:Generated_Source\PSoC4/DISPLAY_Timer.c ****     {
 219:Generated_Source\PSoC4/DISPLAY_Timer.c ****         DISPLAY_Timer_Init();
 220:Generated_Source\PSoC4/DISPLAY_Timer.c **** 
 221:Generated_Source\PSoC4/DISPLAY_Timer.c ****         DISPLAY_Timer_initVar = 1u;   /* Clear this bit for Initialization */
 222:Generated_Source\PSoC4/DISPLAY_Timer.c ****     }
 223:Generated_Source\PSoC4/DISPLAY_Timer.c **** 
 224:Generated_Source\PSoC4/DISPLAY_Timer.c ****     /* Enable the Timer */
 225:Generated_Source\PSoC4/DISPLAY_Timer.c ****     DISPLAY_Timer_Enable();
 226:Generated_Source\PSoC4/DISPLAY_Timer.c **** }
ARM GAS  C:\Users\Ala\AppData\Local\Temp\ccjVvkIK.s 			page 6


 227:Generated_Source\PSoC4/DISPLAY_Timer.c **** 
 228:Generated_Source\PSoC4/DISPLAY_Timer.c **** 
 229:Generated_Source\PSoC4/DISPLAY_Timer.c **** /*******************************************************************************
 230:Generated_Source\PSoC4/DISPLAY_Timer.c **** * Function Name: DISPLAY_Timer_Stop
 231:Generated_Source\PSoC4/DISPLAY_Timer.c **** ********************************************************************************
 232:Generated_Source\PSoC4/DISPLAY_Timer.c **** *
 233:Generated_Source\PSoC4/DISPLAY_Timer.c **** * Summary:
 234:Generated_Source\PSoC4/DISPLAY_Timer.c **** *  The stop function halts the timer, but does not change any modes or disable
 235:Generated_Source\PSoC4/DISPLAY_Timer.c **** *  interrupts.
 236:Generated_Source\PSoC4/DISPLAY_Timer.c **** *
 237:Generated_Source\PSoC4/DISPLAY_Timer.c **** * Parameters:
 238:Generated_Source\PSoC4/DISPLAY_Timer.c **** *  void
 239:Generated_Source\PSoC4/DISPLAY_Timer.c **** *
 240:Generated_Source\PSoC4/DISPLAY_Timer.c **** * Return:
 241:Generated_Source\PSoC4/DISPLAY_Timer.c **** *  void
 242:Generated_Source\PSoC4/DISPLAY_Timer.c **** *
 243:Generated_Source\PSoC4/DISPLAY_Timer.c **** * Side Effects: If the Enable mode is set to Hardware only then this function
 244:Generated_Source\PSoC4/DISPLAY_Timer.c **** *               has no effect on the operation of the timer.
 245:Generated_Source\PSoC4/DISPLAY_Timer.c **** *
 246:Generated_Source\PSoC4/DISPLAY_Timer.c **** *******************************************************************************/
 247:Generated_Source\PSoC4/DISPLAY_Timer.c **** void DISPLAY_Timer_Stop(void) 
 248:Generated_Source\PSoC4/DISPLAY_Timer.c **** {
  59              		.loc 1 248 0
  60              		.cfi_startproc
  61              		@ args = 0, pretend = 0, frame = 0
  62              		@ frame_needed = 0, uses_anonymous_args = 0
  63              		@ link register save eliminated.
 249:Generated_Source\PSoC4/DISPLAY_Timer.c ****     /* Disable Timer */
 250:Generated_Source\PSoC4/DISPLAY_Timer.c ****     #if(!DISPLAY_Timer_UDB_CONTROL_REG_REMOVED || DISPLAY_Timer_UsingFixedFunction)
 251:Generated_Source\PSoC4/DISPLAY_Timer.c ****         DISPLAY_Timer_CONTROL &= ((uint8)(~DISPLAY_Timer_CTRL_ENABLE));
  64              		.loc 1 251 0
  65 0000 7F23     		movs	r3, #127
  66 0002 024A     		ldr	r2, .L5
 252:Generated_Source\PSoC4/DISPLAY_Timer.c ****     #endif /* Remove assignment if control register is removed */
 253:Generated_Source\PSoC4/DISPLAY_Timer.c **** 
 254:Generated_Source\PSoC4/DISPLAY_Timer.c ****     /* Globally disable the Fixed Function Block chosen */
 255:Generated_Source\PSoC4/DISPLAY_Timer.c ****     #if (DISPLAY_Timer_UsingFixedFunction)
 256:Generated_Source\PSoC4/DISPLAY_Timer.c ****         DISPLAY_Timer_GLOBAL_ENABLE &= ((uint8)(~DISPLAY_Timer_BLOCK_EN_MASK));
 257:Generated_Source\PSoC4/DISPLAY_Timer.c ****         DISPLAY_Timer_GLOBAL_STBY_ENABLE &= ((uint8)(~DISPLAY_Timer_BLOCK_STBY_EN_MASK));
 258:Generated_Source\PSoC4/DISPLAY_Timer.c ****     #endif /* Disable global enable for the Timer Fixed function block to stop the Timer*/
 259:Generated_Source\PSoC4/DISPLAY_Timer.c **** }
  67              		.loc 1 259 0
  68              		@ sp needed
 251:Generated_Source\PSoC4/DISPLAY_Timer.c ****     #endif /* Remove assignment if control register is removed */
  69              		.loc 1 251 0
  70 0004 1178     		ldrb	r1, [r2]
  71 0006 0B40     		ands	r3, r1
  72 0008 1370     		strb	r3, [r2]
  73              		.loc 1 259 0
  74 000a 7047     		bx	lr
  75              	.L6:
  76              		.align	2
  77              	.L5:
  78 000c 73000F40 		.word	1074724979
  79              		.cfi_endproc
  80              	.LFE3:
  81              		.size	DISPLAY_Timer_Stop, .-DISPLAY_Timer_Stop
ARM GAS  C:\Users\Ala\AppData\Local\Temp\ccjVvkIK.s 			page 7


  82              		.section	.text.DISPLAY_Timer_SetInterruptMode,"ax",%progbits
  83              		.align	1
  84              		.global	DISPLAY_Timer_SetInterruptMode
  85              		.code	16
  86              		.thumb_func
  87              		.type	DISPLAY_Timer_SetInterruptMode, %function
  88              	DISPLAY_Timer_SetInterruptMode:
  89              	.LFB4:
 260:Generated_Source\PSoC4/DISPLAY_Timer.c **** 
 261:Generated_Source\PSoC4/DISPLAY_Timer.c **** 
 262:Generated_Source\PSoC4/DISPLAY_Timer.c **** /*******************************************************************************
 263:Generated_Source\PSoC4/DISPLAY_Timer.c **** * Function Name: DISPLAY_Timer_SetInterruptMode
 264:Generated_Source\PSoC4/DISPLAY_Timer.c **** ********************************************************************************
 265:Generated_Source\PSoC4/DISPLAY_Timer.c **** *
 266:Generated_Source\PSoC4/DISPLAY_Timer.c **** * Summary:
 267:Generated_Source\PSoC4/DISPLAY_Timer.c **** *  This function selects which of the interrupt inputs may cause an interrupt.
 268:Generated_Source\PSoC4/DISPLAY_Timer.c **** *  The twosources are caputure and terminal.  One, both or neither may
 269:Generated_Source\PSoC4/DISPLAY_Timer.c **** *  be selected.
 270:Generated_Source\PSoC4/DISPLAY_Timer.c **** *
 271:Generated_Source\PSoC4/DISPLAY_Timer.c **** * Parameters:
 272:Generated_Source\PSoC4/DISPLAY_Timer.c **** *  interruptMode:   This parameter is used to enable interrups on either/or
 273:Generated_Source\PSoC4/DISPLAY_Timer.c **** *                   terminal count or capture.
 274:Generated_Source\PSoC4/DISPLAY_Timer.c **** *
 275:Generated_Source\PSoC4/DISPLAY_Timer.c **** * Return:
 276:Generated_Source\PSoC4/DISPLAY_Timer.c **** *  void
 277:Generated_Source\PSoC4/DISPLAY_Timer.c **** *
 278:Generated_Source\PSoC4/DISPLAY_Timer.c **** *******************************************************************************/
 279:Generated_Source\PSoC4/DISPLAY_Timer.c **** void DISPLAY_Timer_SetInterruptMode(uint8 interruptMode) 
 280:Generated_Source\PSoC4/DISPLAY_Timer.c **** {
  90              		.loc 1 280 0
  91              		.cfi_startproc
  92              		@ args = 0, pretend = 0, frame = 0
  93              		@ frame_needed = 0, uses_anonymous_args = 0
  94              		@ link register save eliminated.
  95              	.LVL0:
 281:Generated_Source\PSoC4/DISPLAY_Timer.c ****     DISPLAY_Timer_STATUS_MASK = interruptMode;
  96              		.loc 1 281 0
  97 0000 014B     		ldr	r3, .L8
 282:Generated_Source\PSoC4/DISPLAY_Timer.c **** }
  98              		.loc 1 282 0
  99              		@ sp needed
 281:Generated_Source\PSoC4/DISPLAY_Timer.c ****     DISPLAY_Timer_STATUS_MASK = interruptMode;
 100              		.loc 1 281 0
 101 0002 1870     		strb	r0, [r3]
 102              		.loc 1 282 0
 103 0004 7047     		bx	lr
 104              	.L9:
 105 0006 C046     		.align	2
 106              	.L8:
 107 0008 83000F40 		.word	1074724995
 108              		.cfi_endproc
 109              	.LFE4:
 110              		.size	DISPLAY_Timer_SetInterruptMode, .-DISPLAY_Timer_SetInterruptMode
 111              		.section	.text.DISPLAY_Timer_SoftwareCapture,"ax",%progbits
 112              		.align	1
 113              		.global	DISPLAY_Timer_SoftwareCapture
 114              		.code	16
ARM GAS  C:\Users\Ala\AppData\Local\Temp\ccjVvkIK.s 			page 8


 115              		.thumb_func
 116              		.type	DISPLAY_Timer_SoftwareCapture, %function
 117              	DISPLAY_Timer_SoftwareCapture:
 118              	.LFB5:
 283:Generated_Source\PSoC4/DISPLAY_Timer.c **** 
 284:Generated_Source\PSoC4/DISPLAY_Timer.c **** 
 285:Generated_Source\PSoC4/DISPLAY_Timer.c **** /*******************************************************************************
 286:Generated_Source\PSoC4/DISPLAY_Timer.c **** * Function Name: DISPLAY_Timer_SoftwareCapture
 287:Generated_Source\PSoC4/DISPLAY_Timer.c **** ********************************************************************************
 288:Generated_Source\PSoC4/DISPLAY_Timer.c **** *
 289:Generated_Source\PSoC4/DISPLAY_Timer.c **** * Summary:
 290:Generated_Source\PSoC4/DISPLAY_Timer.c **** *  This function forces a capture independent of the capture signal.
 291:Generated_Source\PSoC4/DISPLAY_Timer.c **** *
 292:Generated_Source\PSoC4/DISPLAY_Timer.c **** * Parameters:
 293:Generated_Source\PSoC4/DISPLAY_Timer.c **** *  void
 294:Generated_Source\PSoC4/DISPLAY_Timer.c **** *
 295:Generated_Source\PSoC4/DISPLAY_Timer.c **** * Return:
 296:Generated_Source\PSoC4/DISPLAY_Timer.c **** *  void
 297:Generated_Source\PSoC4/DISPLAY_Timer.c **** *
 298:Generated_Source\PSoC4/DISPLAY_Timer.c **** * Side Effects:
 299:Generated_Source\PSoC4/DISPLAY_Timer.c **** *  An existing hardware capture could be overwritten.
 300:Generated_Source\PSoC4/DISPLAY_Timer.c **** *
 301:Generated_Source\PSoC4/DISPLAY_Timer.c **** *******************************************************************************/
 302:Generated_Source\PSoC4/DISPLAY_Timer.c **** void DISPLAY_Timer_SoftwareCapture(void) 
 303:Generated_Source\PSoC4/DISPLAY_Timer.c **** {
 119              		.loc 1 303 0
 120              		.cfi_startproc
 121              		@ args = 0, pretend = 0, frame = 0
 122              		@ frame_needed = 0, uses_anonymous_args = 0
 123              		@ link register save eliminated.
 304:Generated_Source\PSoC4/DISPLAY_Timer.c ****     /* Generate a software capture by reading the counter register */
 305:Generated_Source\PSoC4/DISPLAY_Timer.c ****     #if(DISPLAY_Timer_UsingFixedFunction)
 306:Generated_Source\PSoC4/DISPLAY_Timer.c ****         (void)CY_GET_REG16(DISPLAY_Timer_COUNTER_LSB_PTR);
 307:Generated_Source\PSoC4/DISPLAY_Timer.c ****     #else
 308:Generated_Source\PSoC4/DISPLAY_Timer.c ****         (void)CY_GET_REG8(DISPLAY_Timer_COUNTER_LSB_PTR_8BIT);
 124              		.loc 1 308 0
 125 0000 014B     		ldr	r3, .L11
 309:Generated_Source\PSoC4/DISPLAY_Timer.c ****     #endif/* (DISPLAY_Timer_UsingFixedFunction) */
 310:Generated_Source\PSoC4/DISPLAY_Timer.c ****     /* Capture Data is now in the FIFO */
 311:Generated_Source\PSoC4/DISPLAY_Timer.c **** }
 126              		.loc 1 311 0
 127              		@ sp needed
 308:Generated_Source\PSoC4/DISPLAY_Timer.c ****     #endif/* (DISPLAY_Timer_UsingFixedFunction) */
 128              		.loc 1 308 0
 129 0002 1B78     		ldrb	r3, [r3]
 130              		.loc 1 311 0
 131 0004 7047     		bx	lr
 132              	.L12:
 133 0006 C046     		.align	2
 134              	.L11:
 135 0008 02000F40 		.word	1074724866
 136              		.cfi_endproc
 137              	.LFE5:
 138              		.size	DISPLAY_Timer_SoftwareCapture, .-DISPLAY_Timer_SoftwareCapture
 139              		.section	.text.DISPLAY_Timer_ReadStatusRegister,"ax",%progbits
 140              		.align	1
 141              		.global	DISPLAY_Timer_ReadStatusRegister
ARM GAS  C:\Users\Ala\AppData\Local\Temp\ccjVvkIK.s 			page 9


 142              		.code	16
 143              		.thumb_func
 144              		.type	DISPLAY_Timer_ReadStatusRegister, %function
 145              	DISPLAY_Timer_ReadStatusRegister:
 146              	.LFB6:
 312:Generated_Source\PSoC4/DISPLAY_Timer.c **** 
 313:Generated_Source\PSoC4/DISPLAY_Timer.c **** 
 314:Generated_Source\PSoC4/DISPLAY_Timer.c **** /*******************************************************************************
 315:Generated_Source\PSoC4/DISPLAY_Timer.c **** * Function Name: DISPLAY_Timer_ReadStatusRegister
 316:Generated_Source\PSoC4/DISPLAY_Timer.c **** ********************************************************************************
 317:Generated_Source\PSoC4/DISPLAY_Timer.c **** *
 318:Generated_Source\PSoC4/DISPLAY_Timer.c **** * Summary:
 319:Generated_Source\PSoC4/DISPLAY_Timer.c **** *  Reads the status register and returns it's state. This function should use
 320:Generated_Source\PSoC4/DISPLAY_Timer.c **** *  defined types for the bit-field information as the bits in this register may
 321:Generated_Source\PSoC4/DISPLAY_Timer.c **** *  be permuteable.
 322:Generated_Source\PSoC4/DISPLAY_Timer.c **** *
 323:Generated_Source\PSoC4/DISPLAY_Timer.c **** * Parameters:
 324:Generated_Source\PSoC4/DISPLAY_Timer.c **** *  void
 325:Generated_Source\PSoC4/DISPLAY_Timer.c **** *
 326:Generated_Source\PSoC4/DISPLAY_Timer.c **** * Return:
 327:Generated_Source\PSoC4/DISPLAY_Timer.c **** *  The contents of the status register
 328:Generated_Source\PSoC4/DISPLAY_Timer.c **** *
 329:Generated_Source\PSoC4/DISPLAY_Timer.c **** * Side Effects:
 330:Generated_Source\PSoC4/DISPLAY_Timer.c **** *  Status register bits may be clear on read.
 331:Generated_Source\PSoC4/DISPLAY_Timer.c **** *
 332:Generated_Source\PSoC4/DISPLAY_Timer.c **** *******************************************************************************/
 333:Generated_Source\PSoC4/DISPLAY_Timer.c **** uint8   DISPLAY_Timer_ReadStatusRegister(void) 
 334:Generated_Source\PSoC4/DISPLAY_Timer.c **** {
 147              		.loc 1 334 0
 148              		.cfi_startproc
 149              		@ args = 0, pretend = 0, frame = 0
 150              		@ frame_needed = 0, uses_anonymous_args = 0
 151              		@ link register save eliminated.
 335:Generated_Source\PSoC4/DISPLAY_Timer.c ****     return (DISPLAY_Timer_STATUS);
 152              		.loc 1 335 0
 153 0000 014B     		ldr	r3, .L14
 336:Generated_Source\PSoC4/DISPLAY_Timer.c **** }
 154              		.loc 1 336 0
 155              		@ sp needed
 335:Generated_Source\PSoC4/DISPLAY_Timer.c ****     return (DISPLAY_Timer_STATUS);
 156              		.loc 1 335 0
 157 0002 1878     		ldrb	r0, [r3]
 158 0004 C0B2     		uxtb	r0, r0
 159              		.loc 1 336 0
 160 0006 7047     		bx	lr
 161              	.L15:
 162              		.align	2
 163              	.L14:
 164 0008 63000F40 		.word	1074724963
 165              		.cfi_endproc
 166              	.LFE6:
 167              		.size	DISPLAY_Timer_ReadStatusRegister, .-DISPLAY_Timer_ReadStatusRegister
 168              		.section	.text.DISPLAY_Timer_ReadControlRegister,"ax",%progbits
 169              		.align	1
 170              		.global	DISPLAY_Timer_ReadControlRegister
 171              		.code	16
 172              		.thumb_func
ARM GAS  C:\Users\Ala\AppData\Local\Temp\ccjVvkIK.s 			page 10


 173              		.type	DISPLAY_Timer_ReadControlRegister, %function
 174              	DISPLAY_Timer_ReadControlRegister:
 175              	.LFB7:
 337:Generated_Source\PSoC4/DISPLAY_Timer.c **** 
 338:Generated_Source\PSoC4/DISPLAY_Timer.c **** 
 339:Generated_Source\PSoC4/DISPLAY_Timer.c **** #if (!DISPLAY_Timer_UDB_CONTROL_REG_REMOVED) /* Remove API if control register is unused */
 340:Generated_Source\PSoC4/DISPLAY_Timer.c **** 
 341:Generated_Source\PSoC4/DISPLAY_Timer.c **** 
 342:Generated_Source\PSoC4/DISPLAY_Timer.c **** /*******************************************************************************
 343:Generated_Source\PSoC4/DISPLAY_Timer.c **** * Function Name: DISPLAY_Timer_ReadControlRegister
 344:Generated_Source\PSoC4/DISPLAY_Timer.c **** ********************************************************************************
 345:Generated_Source\PSoC4/DISPLAY_Timer.c **** *
 346:Generated_Source\PSoC4/DISPLAY_Timer.c **** * Summary:
 347:Generated_Source\PSoC4/DISPLAY_Timer.c **** *  Reads the control register and returns it's value.
 348:Generated_Source\PSoC4/DISPLAY_Timer.c **** *
 349:Generated_Source\PSoC4/DISPLAY_Timer.c **** * Parameters:
 350:Generated_Source\PSoC4/DISPLAY_Timer.c **** *  void
 351:Generated_Source\PSoC4/DISPLAY_Timer.c **** *
 352:Generated_Source\PSoC4/DISPLAY_Timer.c **** * Return:
 353:Generated_Source\PSoC4/DISPLAY_Timer.c **** *  The contents of the control register
 354:Generated_Source\PSoC4/DISPLAY_Timer.c **** *
 355:Generated_Source\PSoC4/DISPLAY_Timer.c **** *******************************************************************************/
 356:Generated_Source\PSoC4/DISPLAY_Timer.c **** uint8 DISPLAY_Timer_ReadControlRegister(void) 
 357:Generated_Source\PSoC4/DISPLAY_Timer.c **** {
 176              		.loc 1 357 0
 177              		.cfi_startproc
 178              		@ args = 0, pretend = 0, frame = 0
 179              		@ frame_needed = 0, uses_anonymous_args = 0
 180              		@ link register save eliminated.
 358:Generated_Source\PSoC4/DISPLAY_Timer.c ****     #if (!DISPLAY_Timer_UDB_CONTROL_REG_REMOVED) 
 359:Generated_Source\PSoC4/DISPLAY_Timer.c ****         return ((uint8)DISPLAY_Timer_CONTROL);
 181              		.loc 1 359 0
 182 0000 014B     		ldr	r3, .L17
 360:Generated_Source\PSoC4/DISPLAY_Timer.c ****     #else
 361:Generated_Source\PSoC4/DISPLAY_Timer.c ****         return (0);
 362:Generated_Source\PSoC4/DISPLAY_Timer.c ****     #endif /* (!DISPLAY_Timer_UDB_CONTROL_REG_REMOVED) */
 363:Generated_Source\PSoC4/DISPLAY_Timer.c **** }
 183              		.loc 1 363 0
 184              		@ sp needed
 359:Generated_Source\PSoC4/DISPLAY_Timer.c ****     #else
 185              		.loc 1 359 0
 186 0002 1878     		ldrb	r0, [r3]
 187 0004 C0B2     		uxtb	r0, r0
 188              		.loc 1 363 0
 189 0006 7047     		bx	lr
 190              	.L18:
 191              		.align	2
 192              	.L17:
 193 0008 73000F40 		.word	1074724979
 194              		.cfi_endproc
 195              	.LFE7:
 196              		.size	DISPLAY_Timer_ReadControlRegister, .-DISPLAY_Timer_ReadControlRegister
 197              		.section	.text.DISPLAY_Timer_WriteControlRegister,"ax",%progbits
 198              		.align	1
 199              		.global	DISPLAY_Timer_WriteControlRegister
 200              		.code	16
 201              		.thumb_func
ARM GAS  C:\Users\Ala\AppData\Local\Temp\ccjVvkIK.s 			page 11


 202              		.type	DISPLAY_Timer_WriteControlRegister, %function
 203              	DISPLAY_Timer_WriteControlRegister:
 204              	.LFB8:
 364:Generated_Source\PSoC4/DISPLAY_Timer.c **** 
 365:Generated_Source\PSoC4/DISPLAY_Timer.c **** 
 366:Generated_Source\PSoC4/DISPLAY_Timer.c **** /*******************************************************************************
 367:Generated_Source\PSoC4/DISPLAY_Timer.c **** * Function Name: DISPLAY_Timer_WriteControlRegister
 368:Generated_Source\PSoC4/DISPLAY_Timer.c **** ********************************************************************************
 369:Generated_Source\PSoC4/DISPLAY_Timer.c **** *
 370:Generated_Source\PSoC4/DISPLAY_Timer.c **** * Summary:
 371:Generated_Source\PSoC4/DISPLAY_Timer.c **** *  Sets the bit-field of the control register.
 372:Generated_Source\PSoC4/DISPLAY_Timer.c **** *
 373:Generated_Source\PSoC4/DISPLAY_Timer.c **** * Parameters:
 374:Generated_Source\PSoC4/DISPLAY_Timer.c **** *  control: The contents of the control register
 375:Generated_Source\PSoC4/DISPLAY_Timer.c **** *
 376:Generated_Source\PSoC4/DISPLAY_Timer.c **** * Return:
 377:Generated_Source\PSoC4/DISPLAY_Timer.c **** *
 378:Generated_Source\PSoC4/DISPLAY_Timer.c **** *******************************************************************************/
 379:Generated_Source\PSoC4/DISPLAY_Timer.c **** void DISPLAY_Timer_WriteControlRegister(uint8 control) 
 380:Generated_Source\PSoC4/DISPLAY_Timer.c **** {
 205              		.loc 1 380 0
 206              		.cfi_startproc
 207              		@ args = 0, pretend = 0, frame = 0
 208              		@ frame_needed = 0, uses_anonymous_args = 0
 209              		@ link register save eliminated.
 210              	.LVL1:
 381:Generated_Source\PSoC4/DISPLAY_Timer.c ****     #if (!DISPLAY_Timer_UDB_CONTROL_REG_REMOVED) 
 382:Generated_Source\PSoC4/DISPLAY_Timer.c ****         DISPLAY_Timer_CONTROL = control;
 211              		.loc 1 382 0
 212 0000 014B     		ldr	r3, .L20
 383:Generated_Source\PSoC4/DISPLAY_Timer.c ****     #else
 384:Generated_Source\PSoC4/DISPLAY_Timer.c ****         control = 0u;
 385:Generated_Source\PSoC4/DISPLAY_Timer.c ****     #endif /* (!DISPLAY_Timer_UDB_CONTROL_REG_REMOVED) */
 386:Generated_Source\PSoC4/DISPLAY_Timer.c **** }
 213              		.loc 1 386 0
 214              		@ sp needed
 382:Generated_Source\PSoC4/DISPLAY_Timer.c ****     #else
 215              		.loc 1 382 0
 216 0002 1870     		strb	r0, [r3]
 217              		.loc 1 386 0
 218 0004 7047     		bx	lr
 219              	.L21:
 220 0006 C046     		.align	2
 221              	.L20:
 222 0008 73000F40 		.word	1074724979
 223              		.cfi_endproc
 224              	.LFE8:
 225              		.size	DISPLAY_Timer_WriteControlRegister, .-DISPLAY_Timer_WriteControlRegister
 226              		.section	.text.DISPLAY_Timer_ReadPeriod,"ax",%progbits
 227              		.align	1
 228              		.global	DISPLAY_Timer_ReadPeriod
 229              		.code	16
 230              		.thumb_func
 231              		.type	DISPLAY_Timer_ReadPeriod, %function
 232              	DISPLAY_Timer_ReadPeriod:
 233              	.LFB9:
 387:Generated_Source\PSoC4/DISPLAY_Timer.c **** 
ARM GAS  C:\Users\Ala\AppData\Local\Temp\ccjVvkIK.s 			page 12


 388:Generated_Source\PSoC4/DISPLAY_Timer.c **** #endif /* Remove API if control register is unused */
 389:Generated_Source\PSoC4/DISPLAY_Timer.c **** 
 390:Generated_Source\PSoC4/DISPLAY_Timer.c **** 
 391:Generated_Source\PSoC4/DISPLAY_Timer.c **** /*******************************************************************************
 392:Generated_Source\PSoC4/DISPLAY_Timer.c **** * Function Name: DISPLAY_Timer_ReadPeriod
 393:Generated_Source\PSoC4/DISPLAY_Timer.c **** ********************************************************************************
 394:Generated_Source\PSoC4/DISPLAY_Timer.c **** *
 395:Generated_Source\PSoC4/DISPLAY_Timer.c **** * Summary:
 396:Generated_Source\PSoC4/DISPLAY_Timer.c **** *  This function returns the current value of the Period.
 397:Generated_Source\PSoC4/DISPLAY_Timer.c **** *
 398:Generated_Source\PSoC4/DISPLAY_Timer.c **** * Parameters:
 399:Generated_Source\PSoC4/DISPLAY_Timer.c **** *  void
 400:Generated_Source\PSoC4/DISPLAY_Timer.c **** *
 401:Generated_Source\PSoC4/DISPLAY_Timer.c **** * Return:
 402:Generated_Source\PSoC4/DISPLAY_Timer.c **** *  The present value of the counter.
 403:Generated_Source\PSoC4/DISPLAY_Timer.c **** *
 404:Generated_Source\PSoC4/DISPLAY_Timer.c **** *******************************************************************************/
 405:Generated_Source\PSoC4/DISPLAY_Timer.c **** uint16 DISPLAY_Timer_ReadPeriod(void) 
 406:Generated_Source\PSoC4/DISPLAY_Timer.c **** {
 234              		.loc 1 406 0
 235              		.cfi_startproc
 236              		@ args = 0, pretend = 0, frame = 0
 237              		@ frame_needed = 0, uses_anonymous_args = 0
 238              		@ link register save eliminated.
 407:Generated_Source\PSoC4/DISPLAY_Timer.c ****    #if(DISPLAY_Timer_UsingFixedFunction)
 408:Generated_Source\PSoC4/DISPLAY_Timer.c ****        return ((uint16)CY_GET_REG16(DISPLAY_Timer_PERIOD_LSB_PTR));
 409:Generated_Source\PSoC4/DISPLAY_Timer.c ****    #else
 410:Generated_Source\PSoC4/DISPLAY_Timer.c ****        return (CY_GET_REG16(DISPLAY_Timer_PERIOD_LSB_PTR));
 239              		.loc 1 410 0
 240 0000 014B     		ldr	r3, .L23
 411:Generated_Source\PSoC4/DISPLAY_Timer.c ****    #endif /* (DISPLAY_Timer_UsingFixedFunction) */
 412:Generated_Source\PSoC4/DISPLAY_Timer.c **** }
 241              		.loc 1 412 0
 242              		@ sp needed
 410:Generated_Source\PSoC4/DISPLAY_Timer.c ****    #endif /* (DISPLAY_Timer_UsingFixedFunction) */
 243              		.loc 1 410 0
 244 0002 1888     		ldrh	r0, [r3]
 245 0004 80B2     		uxth	r0, r0
 246              		.loc 1 412 0
 247 0006 7047     		bx	lr
 248              	.L24:
 249              		.align	2
 250              	.L23:
 251 0008 44100F40 		.word	1074729028
 252              		.cfi_endproc
 253              	.LFE9:
 254              		.size	DISPLAY_Timer_ReadPeriod, .-DISPLAY_Timer_ReadPeriod
 255              		.section	.text.DISPLAY_Timer_WritePeriod,"ax",%progbits
 256              		.align	1
 257              		.global	DISPLAY_Timer_WritePeriod
 258              		.code	16
 259              		.thumb_func
 260              		.type	DISPLAY_Timer_WritePeriod, %function
 261              	DISPLAY_Timer_WritePeriod:
 262              	.LFB10:
 413:Generated_Source\PSoC4/DISPLAY_Timer.c **** 
 414:Generated_Source\PSoC4/DISPLAY_Timer.c **** 
ARM GAS  C:\Users\Ala\AppData\Local\Temp\ccjVvkIK.s 			page 13


 415:Generated_Source\PSoC4/DISPLAY_Timer.c **** /*******************************************************************************
 416:Generated_Source\PSoC4/DISPLAY_Timer.c **** * Function Name: DISPLAY_Timer_WritePeriod
 417:Generated_Source\PSoC4/DISPLAY_Timer.c **** ********************************************************************************
 418:Generated_Source\PSoC4/DISPLAY_Timer.c **** *
 419:Generated_Source\PSoC4/DISPLAY_Timer.c **** * Summary:
 420:Generated_Source\PSoC4/DISPLAY_Timer.c **** *  This function is used to change the period of the counter.  The new period
 421:Generated_Source\PSoC4/DISPLAY_Timer.c **** *  will be loaded the next time terminal count is detected.
 422:Generated_Source\PSoC4/DISPLAY_Timer.c **** *
 423:Generated_Source\PSoC4/DISPLAY_Timer.c **** * Parameters:
 424:Generated_Source\PSoC4/DISPLAY_Timer.c **** *  period: This value may be between 1 and (2^Resolution)-1.  A value of 0 will
 425:Generated_Source\PSoC4/DISPLAY_Timer.c **** *          result in the counter remaining at zero.
 426:Generated_Source\PSoC4/DISPLAY_Timer.c **** *
 427:Generated_Source\PSoC4/DISPLAY_Timer.c **** * Return:
 428:Generated_Source\PSoC4/DISPLAY_Timer.c **** *  void
 429:Generated_Source\PSoC4/DISPLAY_Timer.c **** *
 430:Generated_Source\PSoC4/DISPLAY_Timer.c **** *******************************************************************************/
 431:Generated_Source\PSoC4/DISPLAY_Timer.c **** void DISPLAY_Timer_WritePeriod(uint16 period) 
 432:Generated_Source\PSoC4/DISPLAY_Timer.c **** {
 263              		.loc 1 432 0
 264              		.cfi_startproc
 265              		@ args = 0, pretend = 0, frame = 0
 266              		@ frame_needed = 0, uses_anonymous_args = 0
 267              		@ link register save eliminated.
 268              	.LVL2:
 433:Generated_Source\PSoC4/DISPLAY_Timer.c ****     #if(DISPLAY_Timer_UsingFixedFunction)
 434:Generated_Source\PSoC4/DISPLAY_Timer.c ****         uint16 period_temp = (uint16)period;
 435:Generated_Source\PSoC4/DISPLAY_Timer.c ****         CY_SET_REG16(DISPLAY_Timer_PERIOD_LSB_PTR, period_temp);
 436:Generated_Source\PSoC4/DISPLAY_Timer.c ****     #else
 437:Generated_Source\PSoC4/DISPLAY_Timer.c ****         CY_SET_REG16(DISPLAY_Timer_PERIOD_LSB_PTR, period);
 269              		.loc 1 437 0
 270 0000 014B     		ldr	r3, .L26
 438:Generated_Source\PSoC4/DISPLAY_Timer.c ****     #endif /*Write Period value with appropriate resolution suffix depending on UDB or fixed functi
 439:Generated_Source\PSoC4/DISPLAY_Timer.c **** }
 271              		.loc 1 439 0
 272              		@ sp needed
 437:Generated_Source\PSoC4/DISPLAY_Timer.c ****     #endif /*Write Period value with appropriate resolution suffix depending on UDB or fixed functi
 273              		.loc 1 437 0
 274 0002 1880     		strh	r0, [r3]
 275              		.loc 1 439 0
 276 0004 7047     		bx	lr
 277              	.L27:
 278 0006 C046     		.align	2
 279              	.L26:
 280 0008 44100F40 		.word	1074729028
 281              		.cfi_endproc
 282              	.LFE10:
 283              		.size	DISPLAY_Timer_WritePeriod, .-DISPLAY_Timer_WritePeriod
 284              		.section	.text.DISPLAY_Timer_ReadCapture,"ax",%progbits
 285              		.align	1
 286              		.global	DISPLAY_Timer_ReadCapture
 287              		.code	16
 288              		.thumb_func
 289              		.type	DISPLAY_Timer_ReadCapture, %function
 290              	DISPLAY_Timer_ReadCapture:
 291              	.LFB11:
 440:Generated_Source\PSoC4/DISPLAY_Timer.c **** 
 441:Generated_Source\PSoC4/DISPLAY_Timer.c **** 
ARM GAS  C:\Users\Ala\AppData\Local\Temp\ccjVvkIK.s 			page 14


 442:Generated_Source\PSoC4/DISPLAY_Timer.c **** /*******************************************************************************
 443:Generated_Source\PSoC4/DISPLAY_Timer.c **** * Function Name: DISPLAY_Timer_ReadCapture
 444:Generated_Source\PSoC4/DISPLAY_Timer.c **** ********************************************************************************
 445:Generated_Source\PSoC4/DISPLAY_Timer.c **** *
 446:Generated_Source\PSoC4/DISPLAY_Timer.c **** * Summary:
 447:Generated_Source\PSoC4/DISPLAY_Timer.c **** *  This function returns the last value captured.
 448:Generated_Source\PSoC4/DISPLAY_Timer.c **** *
 449:Generated_Source\PSoC4/DISPLAY_Timer.c **** * Parameters:
 450:Generated_Source\PSoC4/DISPLAY_Timer.c **** *  void
 451:Generated_Source\PSoC4/DISPLAY_Timer.c **** *
 452:Generated_Source\PSoC4/DISPLAY_Timer.c **** * Return:
 453:Generated_Source\PSoC4/DISPLAY_Timer.c **** *  Present Capture value.
 454:Generated_Source\PSoC4/DISPLAY_Timer.c **** *
 455:Generated_Source\PSoC4/DISPLAY_Timer.c **** *******************************************************************************/
 456:Generated_Source\PSoC4/DISPLAY_Timer.c **** uint16 DISPLAY_Timer_ReadCapture(void) 
 457:Generated_Source\PSoC4/DISPLAY_Timer.c **** {
 292              		.loc 1 457 0
 293              		.cfi_startproc
 294              		@ args = 0, pretend = 0, frame = 0
 295              		@ frame_needed = 0, uses_anonymous_args = 0
 296              		@ link register save eliminated.
 458:Generated_Source\PSoC4/DISPLAY_Timer.c ****    #if(DISPLAY_Timer_UsingFixedFunction)
 459:Generated_Source\PSoC4/DISPLAY_Timer.c ****        return ((uint16)CY_GET_REG16(DISPLAY_Timer_CAPTURE_LSB_PTR));
 460:Generated_Source\PSoC4/DISPLAY_Timer.c ****    #else
 461:Generated_Source\PSoC4/DISPLAY_Timer.c ****        return (CY_GET_REG16(DISPLAY_Timer_CAPTURE_LSB_PTR));
 297              		.loc 1 461 0
 298 0000 014B     		ldr	r3, .L29
 462:Generated_Source\PSoC4/DISPLAY_Timer.c ****    #endif /* (DISPLAY_Timer_UsingFixedFunction) */
 463:Generated_Source\PSoC4/DISPLAY_Timer.c **** }
 299              		.loc 1 463 0
 300              		@ sp needed
 461:Generated_Source\PSoC4/DISPLAY_Timer.c ****    #endif /* (DISPLAY_Timer_UsingFixedFunction) */
 301              		.loc 1 461 0
 302 0002 1888     		ldrh	r0, [r3]
 303 0004 80B2     		uxth	r0, r0
 304              		.loc 1 463 0
 305 0006 7047     		bx	lr
 306              	.L30:
 307              		.align	2
 308              	.L29:
 309 0008 84100F40 		.word	1074729092
 310              		.cfi_endproc
 311              	.LFE11:
 312              		.size	DISPLAY_Timer_ReadCapture, .-DISPLAY_Timer_ReadCapture
 313              		.section	.text.DISPLAY_Timer_WriteCounter,"ax",%progbits
 314              		.align	1
 315              		.global	DISPLAY_Timer_WriteCounter
 316              		.code	16
 317              		.thumb_func
 318              		.type	DISPLAY_Timer_WriteCounter, %function
 319              	DISPLAY_Timer_WriteCounter:
 320              	.LFB12:
 464:Generated_Source\PSoC4/DISPLAY_Timer.c **** 
 465:Generated_Source\PSoC4/DISPLAY_Timer.c **** 
 466:Generated_Source\PSoC4/DISPLAY_Timer.c **** /*******************************************************************************
 467:Generated_Source\PSoC4/DISPLAY_Timer.c **** * Function Name: DISPLAY_Timer_WriteCounter
 468:Generated_Source\PSoC4/DISPLAY_Timer.c **** ********************************************************************************
ARM GAS  C:\Users\Ala\AppData\Local\Temp\ccjVvkIK.s 			page 15


 469:Generated_Source\PSoC4/DISPLAY_Timer.c **** *
 470:Generated_Source\PSoC4/DISPLAY_Timer.c **** * Summary:
 471:Generated_Source\PSoC4/DISPLAY_Timer.c **** *  This funtion is used to set the counter to a specific value
 472:Generated_Source\PSoC4/DISPLAY_Timer.c **** *
 473:Generated_Source\PSoC4/DISPLAY_Timer.c **** * Parameters:
 474:Generated_Source\PSoC4/DISPLAY_Timer.c **** *  counter:  New counter value.
 475:Generated_Source\PSoC4/DISPLAY_Timer.c **** *
 476:Generated_Source\PSoC4/DISPLAY_Timer.c **** * Return:
 477:Generated_Source\PSoC4/DISPLAY_Timer.c **** *  void
 478:Generated_Source\PSoC4/DISPLAY_Timer.c **** *
 479:Generated_Source\PSoC4/DISPLAY_Timer.c **** *******************************************************************************/
 480:Generated_Source\PSoC4/DISPLAY_Timer.c **** void DISPLAY_Timer_WriteCounter(uint16 counter) 
 481:Generated_Source\PSoC4/DISPLAY_Timer.c **** {
 321              		.loc 1 481 0
 322              		.cfi_startproc
 323              		@ args = 0, pretend = 0, frame = 0
 324              		@ frame_needed = 0, uses_anonymous_args = 0
 325              		@ link register save eliminated.
 326              	.LVL3:
 482:Generated_Source\PSoC4/DISPLAY_Timer.c ****    #if(DISPLAY_Timer_UsingFixedFunction)
 483:Generated_Source\PSoC4/DISPLAY_Timer.c ****         /* This functionality is removed until a FixedFunction HW update to
 484:Generated_Source\PSoC4/DISPLAY_Timer.c ****          * allow this register to be written
 485:Generated_Source\PSoC4/DISPLAY_Timer.c ****          */
 486:Generated_Source\PSoC4/DISPLAY_Timer.c ****         CY_SET_REG16(DISPLAY_Timer_COUNTER_LSB_PTR, (uint16)counter);
 487:Generated_Source\PSoC4/DISPLAY_Timer.c ****         
 488:Generated_Source\PSoC4/DISPLAY_Timer.c ****     #else
 489:Generated_Source\PSoC4/DISPLAY_Timer.c ****         CY_SET_REG16(DISPLAY_Timer_COUNTER_LSB_PTR, counter);
 327              		.loc 1 489 0
 328 0000 014B     		ldr	r3, .L32
 490:Generated_Source\PSoC4/DISPLAY_Timer.c ****     #endif /* Set Write Counter only for the UDB implementation (Write Counter not available in fix
 491:Generated_Source\PSoC4/DISPLAY_Timer.c **** }
 329              		.loc 1 491 0
 330              		@ sp needed
 489:Generated_Source\PSoC4/DISPLAY_Timer.c ****     #endif /* Set Write Counter only for the UDB implementation (Write Counter not available in fix
 331              		.loc 1 489 0
 332 0002 1880     		strh	r0, [r3]
 333              		.loc 1 491 0
 334 0004 7047     		bx	lr
 335              	.L33:
 336 0006 C046     		.align	2
 337              	.L32:
 338 0008 04100F40 		.word	1074728964
 339              		.cfi_endproc
 340              	.LFE12:
 341              		.size	DISPLAY_Timer_WriteCounter, .-DISPLAY_Timer_WriteCounter
 342              		.section	.text.DISPLAY_Timer_ReadCounter,"ax",%progbits
 343              		.align	1
 344              		.global	DISPLAY_Timer_ReadCounter
 345              		.code	16
 346              		.thumb_func
 347              		.type	DISPLAY_Timer_ReadCounter, %function
 348              	DISPLAY_Timer_ReadCounter:
 349              	.LFB13:
 492:Generated_Source\PSoC4/DISPLAY_Timer.c **** 
 493:Generated_Source\PSoC4/DISPLAY_Timer.c **** 
 494:Generated_Source\PSoC4/DISPLAY_Timer.c **** /*******************************************************************************
 495:Generated_Source\PSoC4/DISPLAY_Timer.c **** * Function Name: DISPLAY_Timer_ReadCounter
ARM GAS  C:\Users\Ala\AppData\Local\Temp\ccjVvkIK.s 			page 16


 496:Generated_Source\PSoC4/DISPLAY_Timer.c **** ********************************************************************************
 497:Generated_Source\PSoC4/DISPLAY_Timer.c **** *
 498:Generated_Source\PSoC4/DISPLAY_Timer.c **** * Summary:
 499:Generated_Source\PSoC4/DISPLAY_Timer.c **** *  This function returns the current counter value.
 500:Generated_Source\PSoC4/DISPLAY_Timer.c **** *
 501:Generated_Source\PSoC4/DISPLAY_Timer.c **** * Parameters:
 502:Generated_Source\PSoC4/DISPLAY_Timer.c **** *  void
 503:Generated_Source\PSoC4/DISPLAY_Timer.c **** *
 504:Generated_Source\PSoC4/DISPLAY_Timer.c **** * Return:
 505:Generated_Source\PSoC4/DISPLAY_Timer.c **** *  Present compare value.
 506:Generated_Source\PSoC4/DISPLAY_Timer.c **** *
 507:Generated_Source\PSoC4/DISPLAY_Timer.c **** *******************************************************************************/
 508:Generated_Source\PSoC4/DISPLAY_Timer.c **** uint16 DISPLAY_Timer_ReadCounter(void) 
 509:Generated_Source\PSoC4/DISPLAY_Timer.c **** {
 350              		.loc 1 509 0
 351              		.cfi_startproc
 352              		@ args = 0, pretend = 0, frame = 0
 353              		@ frame_needed = 0, uses_anonymous_args = 0
 354              		@ link register save eliminated.
 510:Generated_Source\PSoC4/DISPLAY_Timer.c ****     /* Force capture by reading Accumulator */
 511:Generated_Source\PSoC4/DISPLAY_Timer.c ****     /* Must first do a software capture to be able to read the counter */
 512:Generated_Source\PSoC4/DISPLAY_Timer.c ****     /* It is up to the user code to make sure there isn't already captured data in the FIFO */
 513:Generated_Source\PSoC4/DISPLAY_Timer.c ****     #if(DISPLAY_Timer_UsingFixedFunction)
 514:Generated_Source\PSoC4/DISPLAY_Timer.c ****         (void)CY_GET_REG16(DISPLAY_Timer_COUNTER_LSB_PTR);
 515:Generated_Source\PSoC4/DISPLAY_Timer.c ****     #else
 516:Generated_Source\PSoC4/DISPLAY_Timer.c ****         (void)CY_GET_REG8(DISPLAY_Timer_COUNTER_LSB_PTR_8BIT);
 355              		.loc 1 516 0
 356 0000 024B     		ldr	r3, .L35
 517:Generated_Source\PSoC4/DISPLAY_Timer.c ****     #endif/* (DISPLAY_Timer_UsingFixedFunction) */
 518:Generated_Source\PSoC4/DISPLAY_Timer.c **** 
 519:Generated_Source\PSoC4/DISPLAY_Timer.c ****     /* Read the data from the FIFO (or capture register for Fixed Function)*/
 520:Generated_Source\PSoC4/DISPLAY_Timer.c ****     #if(DISPLAY_Timer_UsingFixedFunction)
 521:Generated_Source\PSoC4/DISPLAY_Timer.c ****         return ((uint16)CY_GET_REG16(DISPLAY_Timer_CAPTURE_LSB_PTR));
 522:Generated_Source\PSoC4/DISPLAY_Timer.c ****     #else
 523:Generated_Source\PSoC4/DISPLAY_Timer.c ****         return (CY_GET_REG16(DISPLAY_Timer_CAPTURE_LSB_PTR));
 524:Generated_Source\PSoC4/DISPLAY_Timer.c ****     #endif /* (DISPLAY_Timer_UsingFixedFunction) */
 525:Generated_Source\PSoC4/DISPLAY_Timer.c **** }
 357              		.loc 1 525 0
 358              		@ sp needed
 516:Generated_Source\PSoC4/DISPLAY_Timer.c ****     #endif/* (DISPLAY_Timer_UsingFixedFunction) */
 359              		.loc 1 516 0
 360 0002 1B78     		ldrb	r3, [r3]
 523:Generated_Source\PSoC4/DISPLAY_Timer.c ****     #endif /* (DISPLAY_Timer_UsingFixedFunction) */
 361              		.loc 1 523 0
 362 0004 024B     		ldr	r3, .L35+4
 363 0006 1888     		ldrh	r0, [r3]
 364 0008 80B2     		uxth	r0, r0
 365              		.loc 1 525 0
 366 000a 7047     		bx	lr
 367              	.L36:
 368              		.align	2
 369              	.L35:
 370 000c 02000F40 		.word	1074724866
 371 0010 84100F40 		.word	1074729092
 372              		.cfi_endproc
 373              	.LFE13:
 374              		.size	DISPLAY_Timer_ReadCounter, .-DISPLAY_Timer_ReadCounter
ARM GAS  C:\Users\Ala\AppData\Local\Temp\ccjVvkIK.s 			page 17


 375              		.section	.text.DISPLAY_Timer_ClearFIFO,"ax",%progbits
 376              		.align	1
 377              		.global	DISPLAY_Timer_ClearFIFO
 378              		.code	16
 379              		.thumb_func
 380              		.type	DISPLAY_Timer_ClearFIFO, %function
 381              	DISPLAY_Timer_ClearFIFO:
 382              	.LFB14:
 526:Generated_Source\PSoC4/DISPLAY_Timer.c **** 
 527:Generated_Source\PSoC4/DISPLAY_Timer.c **** 
 528:Generated_Source\PSoC4/DISPLAY_Timer.c **** #if(!DISPLAY_Timer_UsingFixedFunction) /* UDB Specific Functions */
 529:Generated_Source\PSoC4/DISPLAY_Timer.c **** 
 530:Generated_Source\PSoC4/DISPLAY_Timer.c ****     
 531:Generated_Source\PSoC4/DISPLAY_Timer.c **** /*******************************************************************************
 532:Generated_Source\PSoC4/DISPLAY_Timer.c ****  * The functions below this point are only available using the UDB
 533:Generated_Source\PSoC4/DISPLAY_Timer.c ****  * implementation.  If a feature is selected, then the API is enabled.
 534:Generated_Source\PSoC4/DISPLAY_Timer.c ****  ******************************************************************************/
 535:Generated_Source\PSoC4/DISPLAY_Timer.c **** 
 536:Generated_Source\PSoC4/DISPLAY_Timer.c **** 
 537:Generated_Source\PSoC4/DISPLAY_Timer.c **** #if (DISPLAY_Timer_SoftwareCaptureMode)
 538:Generated_Source\PSoC4/DISPLAY_Timer.c **** 
 539:Generated_Source\PSoC4/DISPLAY_Timer.c **** 
 540:Generated_Source\PSoC4/DISPLAY_Timer.c **** /*******************************************************************************
 541:Generated_Source\PSoC4/DISPLAY_Timer.c **** * Function Name: DISPLAY_Timer_SetCaptureMode
 542:Generated_Source\PSoC4/DISPLAY_Timer.c **** ********************************************************************************
 543:Generated_Source\PSoC4/DISPLAY_Timer.c **** *
 544:Generated_Source\PSoC4/DISPLAY_Timer.c **** * Summary:
 545:Generated_Source\PSoC4/DISPLAY_Timer.c **** *  This function sets the capture mode to either rising or falling edge.
 546:Generated_Source\PSoC4/DISPLAY_Timer.c **** *
 547:Generated_Source\PSoC4/DISPLAY_Timer.c **** * Parameters:
 548:Generated_Source\PSoC4/DISPLAY_Timer.c **** *  captureMode: This parameter sets the capture mode of the UDB capture feature
 549:Generated_Source\PSoC4/DISPLAY_Timer.c **** *  The parameter values are defined using the
 550:Generated_Source\PSoC4/DISPLAY_Timer.c **** *  #define DISPLAY_Timer__B_TIMER__CM_NONE 0
 551:Generated_Source\PSoC4/DISPLAY_Timer.c **** #define DISPLAY_Timer__B_TIMER__CM_RISINGEDGE 1
 552:Generated_Source\PSoC4/DISPLAY_Timer.c **** #define DISPLAY_Timer__B_TIMER__CM_FALLINGEDGE 2
 553:Generated_Source\PSoC4/DISPLAY_Timer.c **** #define DISPLAY_Timer__B_TIMER__CM_EITHEREDGE 3
 554:Generated_Source\PSoC4/DISPLAY_Timer.c **** #define DISPLAY_Timer__B_TIMER__CM_SOFTWARE 4
 555:Generated_Source\PSoC4/DISPLAY_Timer.c ****  identifiers
 556:Generated_Source\PSoC4/DISPLAY_Timer.c **** *  The following are the possible values of the parameter
 557:Generated_Source\PSoC4/DISPLAY_Timer.c **** *  DISPLAY_Timer__B_TIMER__CM_NONE        - Set Capture mode to None
 558:Generated_Source\PSoC4/DISPLAY_Timer.c **** *  DISPLAY_Timer__B_TIMER__CM_RISINGEDGE  - Rising edge of Capture input
 559:Generated_Source\PSoC4/DISPLAY_Timer.c **** *  DISPLAY_Timer__B_TIMER__CM_FALLINGEDGE - Falling edge of Capture input
 560:Generated_Source\PSoC4/DISPLAY_Timer.c **** *  DISPLAY_Timer__B_TIMER__CM_EITHEREDGE  - Either edge of Capture input
 561:Generated_Source\PSoC4/DISPLAY_Timer.c **** *
 562:Generated_Source\PSoC4/DISPLAY_Timer.c **** * Return:
 563:Generated_Source\PSoC4/DISPLAY_Timer.c **** *  void
 564:Generated_Source\PSoC4/DISPLAY_Timer.c **** *
 565:Generated_Source\PSoC4/DISPLAY_Timer.c **** *******************************************************************************/
 566:Generated_Source\PSoC4/DISPLAY_Timer.c **** void DISPLAY_Timer_SetCaptureMode(uint8 captureMode) 
 567:Generated_Source\PSoC4/DISPLAY_Timer.c **** {
 568:Generated_Source\PSoC4/DISPLAY_Timer.c ****     /* This must only set to two bits of the control register associated */
 569:Generated_Source\PSoC4/DISPLAY_Timer.c ****     captureMode = ((uint8)((uint8)captureMode << DISPLAY_Timer_CTRL_CAP_MODE_SHIFT));
 570:Generated_Source\PSoC4/DISPLAY_Timer.c ****     captureMode &= (DISPLAY_Timer_CTRL_CAP_MODE_MASK);
 571:Generated_Source\PSoC4/DISPLAY_Timer.c **** 
 572:Generated_Source\PSoC4/DISPLAY_Timer.c ****     #if (!DISPLAY_Timer_UDB_CONTROL_REG_REMOVED)
 573:Generated_Source\PSoC4/DISPLAY_Timer.c ****         /* Clear the Current Setting */
 574:Generated_Source\PSoC4/DISPLAY_Timer.c ****         DISPLAY_Timer_CONTROL &= ((uint8)(~DISPLAY_Timer_CTRL_CAP_MODE_MASK));
ARM GAS  C:\Users\Ala\AppData\Local\Temp\ccjVvkIK.s 			page 18


 575:Generated_Source\PSoC4/DISPLAY_Timer.c **** 
 576:Generated_Source\PSoC4/DISPLAY_Timer.c ****         /* Write The New Setting */
 577:Generated_Source\PSoC4/DISPLAY_Timer.c ****         DISPLAY_Timer_CONTROL |= captureMode;
 578:Generated_Source\PSoC4/DISPLAY_Timer.c ****     #endif /* (!DISPLAY_Timer_UDB_CONTROL_REG_REMOVED) */
 579:Generated_Source\PSoC4/DISPLAY_Timer.c **** }
 580:Generated_Source\PSoC4/DISPLAY_Timer.c **** #endif /* Remove API if Capture Mode is not Software Controlled */
 581:Generated_Source\PSoC4/DISPLAY_Timer.c **** 
 582:Generated_Source\PSoC4/DISPLAY_Timer.c **** 
 583:Generated_Source\PSoC4/DISPLAY_Timer.c **** #if (DISPLAY_Timer_SoftwareTriggerMode)
 584:Generated_Source\PSoC4/DISPLAY_Timer.c **** 
 585:Generated_Source\PSoC4/DISPLAY_Timer.c **** 
 586:Generated_Source\PSoC4/DISPLAY_Timer.c **** /*******************************************************************************
 587:Generated_Source\PSoC4/DISPLAY_Timer.c **** * Function Name: DISPLAY_Timer_SetTriggerMode
 588:Generated_Source\PSoC4/DISPLAY_Timer.c **** ********************************************************************************
 589:Generated_Source\PSoC4/DISPLAY_Timer.c **** *
 590:Generated_Source\PSoC4/DISPLAY_Timer.c **** * Summary:
 591:Generated_Source\PSoC4/DISPLAY_Timer.c **** *  This function sets the trigger input mode
 592:Generated_Source\PSoC4/DISPLAY_Timer.c **** *
 593:Generated_Source\PSoC4/DISPLAY_Timer.c **** * Parameters:
 594:Generated_Source\PSoC4/DISPLAY_Timer.c **** *  triggerMode: Pass one of the pre-defined Trigger Modes (except Software)
 595:Generated_Source\PSoC4/DISPLAY_Timer.c ****     #define DISPLAY_Timer__B_TIMER__TM_NONE 0x00u
 596:Generated_Source\PSoC4/DISPLAY_Timer.c ****     #define DISPLAY_Timer__B_TIMER__TM_RISINGEDGE 0x04u
 597:Generated_Source\PSoC4/DISPLAY_Timer.c ****     #define DISPLAY_Timer__B_TIMER__TM_FALLINGEDGE 0x08u
 598:Generated_Source\PSoC4/DISPLAY_Timer.c ****     #define DISPLAY_Timer__B_TIMER__TM_EITHEREDGE 0x0Cu
 599:Generated_Source\PSoC4/DISPLAY_Timer.c ****     #define DISPLAY_Timer__B_TIMER__TM_SOFTWARE 0x10u
 600:Generated_Source\PSoC4/DISPLAY_Timer.c **** *
 601:Generated_Source\PSoC4/DISPLAY_Timer.c **** * Return:
 602:Generated_Source\PSoC4/DISPLAY_Timer.c **** *  void
 603:Generated_Source\PSoC4/DISPLAY_Timer.c **** *
 604:Generated_Source\PSoC4/DISPLAY_Timer.c **** *******************************************************************************/
 605:Generated_Source\PSoC4/DISPLAY_Timer.c **** void DISPLAY_Timer_SetTriggerMode(uint8 triggerMode) 
 606:Generated_Source\PSoC4/DISPLAY_Timer.c **** {
 607:Generated_Source\PSoC4/DISPLAY_Timer.c ****     /* This must only set to two bits of the control register associated */
 608:Generated_Source\PSoC4/DISPLAY_Timer.c ****     triggerMode &= DISPLAY_Timer_CTRL_TRIG_MODE_MASK;
 609:Generated_Source\PSoC4/DISPLAY_Timer.c **** 
 610:Generated_Source\PSoC4/DISPLAY_Timer.c ****     #if (!DISPLAY_Timer_UDB_CONTROL_REG_REMOVED)   /* Remove assignment if control register is remo
 611:Generated_Source\PSoC4/DISPLAY_Timer.c ****     
 612:Generated_Source\PSoC4/DISPLAY_Timer.c ****         /* Clear the Current Setting */
 613:Generated_Source\PSoC4/DISPLAY_Timer.c ****         DISPLAY_Timer_CONTROL &= ((uint8)(~DISPLAY_Timer_CTRL_TRIG_MODE_MASK));
 614:Generated_Source\PSoC4/DISPLAY_Timer.c **** 
 615:Generated_Source\PSoC4/DISPLAY_Timer.c ****         /* Write The New Setting */
 616:Generated_Source\PSoC4/DISPLAY_Timer.c ****         DISPLAY_Timer_CONTROL |= (triggerMode | DISPLAY_Timer__B_TIMER__TM_SOFTWARE);
 617:Generated_Source\PSoC4/DISPLAY_Timer.c ****     #endif /* Remove code section if control register is not used */
 618:Generated_Source\PSoC4/DISPLAY_Timer.c **** }
 619:Generated_Source\PSoC4/DISPLAY_Timer.c **** #endif /* Remove API if Trigger Mode is not Software Controlled */
 620:Generated_Source\PSoC4/DISPLAY_Timer.c **** 
 621:Generated_Source\PSoC4/DISPLAY_Timer.c **** #if (DISPLAY_Timer_EnableTriggerMode)
 622:Generated_Source\PSoC4/DISPLAY_Timer.c **** 
 623:Generated_Source\PSoC4/DISPLAY_Timer.c **** 
 624:Generated_Source\PSoC4/DISPLAY_Timer.c **** /*******************************************************************************
 625:Generated_Source\PSoC4/DISPLAY_Timer.c **** * Function Name: DISPLAY_Timer_EnableTrigger
 626:Generated_Source\PSoC4/DISPLAY_Timer.c **** ********************************************************************************
 627:Generated_Source\PSoC4/DISPLAY_Timer.c **** *
 628:Generated_Source\PSoC4/DISPLAY_Timer.c **** * Summary:
 629:Generated_Source\PSoC4/DISPLAY_Timer.c **** *  Sets the control bit enabling Hardware Trigger mode
 630:Generated_Source\PSoC4/DISPLAY_Timer.c **** *
 631:Generated_Source\PSoC4/DISPLAY_Timer.c **** * Parameters:
ARM GAS  C:\Users\Ala\AppData\Local\Temp\ccjVvkIK.s 			page 19


 632:Generated_Source\PSoC4/DISPLAY_Timer.c **** *  void
 633:Generated_Source\PSoC4/DISPLAY_Timer.c **** *
 634:Generated_Source\PSoC4/DISPLAY_Timer.c **** * Return:
 635:Generated_Source\PSoC4/DISPLAY_Timer.c **** *  void
 636:Generated_Source\PSoC4/DISPLAY_Timer.c **** *
 637:Generated_Source\PSoC4/DISPLAY_Timer.c **** *******************************************************************************/
 638:Generated_Source\PSoC4/DISPLAY_Timer.c **** void DISPLAY_Timer_EnableTrigger(void) 
 639:Generated_Source\PSoC4/DISPLAY_Timer.c **** {
 640:Generated_Source\PSoC4/DISPLAY_Timer.c ****     #if (!DISPLAY_Timer_UDB_CONTROL_REG_REMOVED)   /* Remove assignment if control register is remo
 641:Generated_Source\PSoC4/DISPLAY_Timer.c ****         DISPLAY_Timer_CONTROL |= DISPLAY_Timer_CTRL_TRIG_EN;
 642:Generated_Source\PSoC4/DISPLAY_Timer.c ****     #endif /* Remove code section if control register is not used */
 643:Generated_Source\PSoC4/DISPLAY_Timer.c **** }
 644:Generated_Source\PSoC4/DISPLAY_Timer.c **** 
 645:Generated_Source\PSoC4/DISPLAY_Timer.c **** 
 646:Generated_Source\PSoC4/DISPLAY_Timer.c **** /*******************************************************************************
 647:Generated_Source\PSoC4/DISPLAY_Timer.c **** * Function Name: DISPLAY_Timer_DisableTrigger
 648:Generated_Source\PSoC4/DISPLAY_Timer.c **** ********************************************************************************
 649:Generated_Source\PSoC4/DISPLAY_Timer.c **** *
 650:Generated_Source\PSoC4/DISPLAY_Timer.c **** * Summary:
 651:Generated_Source\PSoC4/DISPLAY_Timer.c **** *  Clears the control bit enabling Hardware Trigger mode
 652:Generated_Source\PSoC4/DISPLAY_Timer.c **** *
 653:Generated_Source\PSoC4/DISPLAY_Timer.c **** * Parameters:
 654:Generated_Source\PSoC4/DISPLAY_Timer.c **** *  void
 655:Generated_Source\PSoC4/DISPLAY_Timer.c **** *
 656:Generated_Source\PSoC4/DISPLAY_Timer.c **** * Return:
 657:Generated_Source\PSoC4/DISPLAY_Timer.c **** *  void
 658:Generated_Source\PSoC4/DISPLAY_Timer.c **** *
 659:Generated_Source\PSoC4/DISPLAY_Timer.c **** *******************************************************************************/
 660:Generated_Source\PSoC4/DISPLAY_Timer.c **** void DISPLAY_Timer_DisableTrigger(void) 
 661:Generated_Source\PSoC4/DISPLAY_Timer.c **** {
 662:Generated_Source\PSoC4/DISPLAY_Timer.c ****     #if (!DISPLAY_Timer_UDB_CONTROL_REG_REMOVED )   /* Remove assignment if control register is rem
 663:Generated_Source\PSoC4/DISPLAY_Timer.c ****         DISPLAY_Timer_CONTROL &= ((uint8)(~DISPLAY_Timer_CTRL_TRIG_EN));
 664:Generated_Source\PSoC4/DISPLAY_Timer.c ****     #endif /* Remove code section if control register is not used */
 665:Generated_Source\PSoC4/DISPLAY_Timer.c **** }
 666:Generated_Source\PSoC4/DISPLAY_Timer.c **** #endif /* Remove API is Trigger Mode is set to None */
 667:Generated_Source\PSoC4/DISPLAY_Timer.c **** 
 668:Generated_Source\PSoC4/DISPLAY_Timer.c **** #if(DISPLAY_Timer_InterruptOnCaptureCount)
 669:Generated_Source\PSoC4/DISPLAY_Timer.c **** 
 670:Generated_Source\PSoC4/DISPLAY_Timer.c **** 
 671:Generated_Source\PSoC4/DISPLAY_Timer.c **** /*******************************************************************************
 672:Generated_Source\PSoC4/DISPLAY_Timer.c **** * Function Name: DISPLAY_Timer_SetInterruptCount
 673:Generated_Source\PSoC4/DISPLAY_Timer.c **** ********************************************************************************
 674:Generated_Source\PSoC4/DISPLAY_Timer.c **** *
 675:Generated_Source\PSoC4/DISPLAY_Timer.c **** * Summary:
 676:Generated_Source\PSoC4/DISPLAY_Timer.c **** *  This function sets the capture count before an interrupt is triggered.
 677:Generated_Source\PSoC4/DISPLAY_Timer.c **** *
 678:Generated_Source\PSoC4/DISPLAY_Timer.c **** * Parameters:
 679:Generated_Source\PSoC4/DISPLAY_Timer.c **** *  interruptCount:  A value between 0 and 3 is valid.  If the value is 0, then
 680:Generated_Source\PSoC4/DISPLAY_Timer.c **** *                   an interrupt will occur each time a capture occurs.
 681:Generated_Source\PSoC4/DISPLAY_Timer.c **** *                   A value of 1 to 3 will cause the interrupt
 682:Generated_Source\PSoC4/DISPLAY_Timer.c **** *                   to delay by the same number of captures.
 683:Generated_Source\PSoC4/DISPLAY_Timer.c **** *
 684:Generated_Source\PSoC4/DISPLAY_Timer.c **** * Return:
 685:Generated_Source\PSoC4/DISPLAY_Timer.c **** *  void
 686:Generated_Source\PSoC4/DISPLAY_Timer.c **** *
 687:Generated_Source\PSoC4/DISPLAY_Timer.c **** *******************************************************************************/
 688:Generated_Source\PSoC4/DISPLAY_Timer.c **** void DISPLAY_Timer_SetInterruptCount(uint8 interruptCount) 
ARM GAS  C:\Users\Ala\AppData\Local\Temp\ccjVvkIK.s 			page 20


 689:Generated_Source\PSoC4/DISPLAY_Timer.c **** {
 690:Generated_Source\PSoC4/DISPLAY_Timer.c ****     /* This must only set to two bits of the control register associated */
 691:Generated_Source\PSoC4/DISPLAY_Timer.c ****     interruptCount &= DISPLAY_Timer_CTRL_INTCNT_MASK;
 692:Generated_Source\PSoC4/DISPLAY_Timer.c **** 
 693:Generated_Source\PSoC4/DISPLAY_Timer.c ****     #if (!DISPLAY_Timer_UDB_CONTROL_REG_REMOVED)
 694:Generated_Source\PSoC4/DISPLAY_Timer.c ****         /* Clear the Current Setting */
 695:Generated_Source\PSoC4/DISPLAY_Timer.c ****         DISPLAY_Timer_CONTROL &= ((uint8)(~DISPLAY_Timer_CTRL_INTCNT_MASK));
 696:Generated_Source\PSoC4/DISPLAY_Timer.c ****         /* Write The New Setting */
 697:Generated_Source\PSoC4/DISPLAY_Timer.c ****         DISPLAY_Timer_CONTROL |= interruptCount;
 698:Generated_Source\PSoC4/DISPLAY_Timer.c ****     #endif /* (!DISPLAY_Timer_UDB_CONTROL_REG_REMOVED) */
 699:Generated_Source\PSoC4/DISPLAY_Timer.c **** }
 700:Generated_Source\PSoC4/DISPLAY_Timer.c **** #endif /* DISPLAY_Timer_InterruptOnCaptureCount */
 701:Generated_Source\PSoC4/DISPLAY_Timer.c **** 
 702:Generated_Source\PSoC4/DISPLAY_Timer.c **** 
 703:Generated_Source\PSoC4/DISPLAY_Timer.c **** #if (DISPLAY_Timer_UsingHWCaptureCounter)
 704:Generated_Source\PSoC4/DISPLAY_Timer.c **** 
 705:Generated_Source\PSoC4/DISPLAY_Timer.c **** 
 706:Generated_Source\PSoC4/DISPLAY_Timer.c **** /*******************************************************************************
 707:Generated_Source\PSoC4/DISPLAY_Timer.c **** * Function Name: DISPLAY_Timer_SetCaptureCount
 708:Generated_Source\PSoC4/DISPLAY_Timer.c **** ********************************************************************************
 709:Generated_Source\PSoC4/DISPLAY_Timer.c **** *
 710:Generated_Source\PSoC4/DISPLAY_Timer.c **** * Summary:
 711:Generated_Source\PSoC4/DISPLAY_Timer.c **** *  This function sets the capture count
 712:Generated_Source\PSoC4/DISPLAY_Timer.c **** *
 713:Generated_Source\PSoC4/DISPLAY_Timer.c **** * Parameters:
 714:Generated_Source\PSoC4/DISPLAY_Timer.c **** *  captureCount: A value between 2 and 127 inclusive is valid.  A value of 1
 715:Generated_Source\PSoC4/DISPLAY_Timer.c **** *                to 127 will cause the interrupt to delay by the same number of
 716:Generated_Source\PSoC4/DISPLAY_Timer.c **** *                captures.
 717:Generated_Source\PSoC4/DISPLAY_Timer.c **** *
 718:Generated_Source\PSoC4/DISPLAY_Timer.c **** * Return:
 719:Generated_Source\PSoC4/DISPLAY_Timer.c **** *  void
 720:Generated_Source\PSoC4/DISPLAY_Timer.c **** *
 721:Generated_Source\PSoC4/DISPLAY_Timer.c **** *******************************************************************************/
 722:Generated_Source\PSoC4/DISPLAY_Timer.c **** void DISPLAY_Timer_SetCaptureCount(uint8 captureCount) 
 723:Generated_Source\PSoC4/DISPLAY_Timer.c **** {
 724:Generated_Source\PSoC4/DISPLAY_Timer.c ****     DISPLAY_Timer_CAP_COUNT = captureCount;
 725:Generated_Source\PSoC4/DISPLAY_Timer.c **** }
 726:Generated_Source\PSoC4/DISPLAY_Timer.c **** 
 727:Generated_Source\PSoC4/DISPLAY_Timer.c **** 
 728:Generated_Source\PSoC4/DISPLAY_Timer.c **** /*******************************************************************************
 729:Generated_Source\PSoC4/DISPLAY_Timer.c **** * Function Name: DISPLAY_Timer_ReadCaptureCount
 730:Generated_Source\PSoC4/DISPLAY_Timer.c **** ********************************************************************************
 731:Generated_Source\PSoC4/DISPLAY_Timer.c **** *
 732:Generated_Source\PSoC4/DISPLAY_Timer.c **** * Summary:
 733:Generated_Source\PSoC4/DISPLAY_Timer.c **** *  This function reads the capture count setting
 734:Generated_Source\PSoC4/DISPLAY_Timer.c **** *
 735:Generated_Source\PSoC4/DISPLAY_Timer.c **** * Parameters:
 736:Generated_Source\PSoC4/DISPLAY_Timer.c **** *  void
 737:Generated_Source\PSoC4/DISPLAY_Timer.c **** *
 738:Generated_Source\PSoC4/DISPLAY_Timer.c **** * Return:
 739:Generated_Source\PSoC4/DISPLAY_Timer.c **** *  Returns the Capture Count Setting
 740:Generated_Source\PSoC4/DISPLAY_Timer.c **** *
 741:Generated_Source\PSoC4/DISPLAY_Timer.c **** *******************************************************************************/
 742:Generated_Source\PSoC4/DISPLAY_Timer.c **** uint8 DISPLAY_Timer_ReadCaptureCount(void) 
 743:Generated_Source\PSoC4/DISPLAY_Timer.c **** {
 744:Generated_Source\PSoC4/DISPLAY_Timer.c ****     return ((uint8)DISPLAY_Timer_CAP_COUNT);
 745:Generated_Source\PSoC4/DISPLAY_Timer.c **** }
ARM GAS  C:\Users\Ala\AppData\Local\Temp\ccjVvkIK.s 			page 21


 746:Generated_Source\PSoC4/DISPLAY_Timer.c **** #endif /* DISPLAY_Timer_UsingHWCaptureCounter */
 747:Generated_Source\PSoC4/DISPLAY_Timer.c **** 
 748:Generated_Source\PSoC4/DISPLAY_Timer.c **** 
 749:Generated_Source\PSoC4/DISPLAY_Timer.c **** /*******************************************************************************
 750:Generated_Source\PSoC4/DISPLAY_Timer.c **** * Function Name: DISPLAY_Timer_ClearFIFO
 751:Generated_Source\PSoC4/DISPLAY_Timer.c **** ********************************************************************************
 752:Generated_Source\PSoC4/DISPLAY_Timer.c **** *
 753:Generated_Source\PSoC4/DISPLAY_Timer.c **** * Summary:
 754:Generated_Source\PSoC4/DISPLAY_Timer.c **** *  This function clears all capture data from the capture FIFO
 755:Generated_Source\PSoC4/DISPLAY_Timer.c **** *
 756:Generated_Source\PSoC4/DISPLAY_Timer.c **** * Parameters:
 757:Generated_Source\PSoC4/DISPLAY_Timer.c **** *  void
 758:Generated_Source\PSoC4/DISPLAY_Timer.c **** *
 759:Generated_Source\PSoC4/DISPLAY_Timer.c **** * Return:
 760:Generated_Source\PSoC4/DISPLAY_Timer.c **** *  void
 761:Generated_Source\PSoC4/DISPLAY_Timer.c **** *
 762:Generated_Source\PSoC4/DISPLAY_Timer.c **** *******************************************************************************/
 763:Generated_Source\PSoC4/DISPLAY_Timer.c **** void DISPLAY_Timer_ClearFIFO(void) 
 764:Generated_Source\PSoC4/DISPLAY_Timer.c **** {
 383              		.loc 1 764 0
 384              		.cfi_startproc
 385              		@ args = 0, pretend = 0, frame = 0
 386              		@ frame_needed = 0, uses_anonymous_args = 0
 387              		@ link register save eliminated.
 765:Generated_Source\PSoC4/DISPLAY_Timer.c ****     while(0u != (DISPLAY_Timer_ReadStatusRegister() & DISPLAY_Timer_STATUS_FIFONEMP))
 388              		.loc 1 765 0
 389 0000 0823     		movs	r3, #8
 390              	.LBB12:
 391              	.LBB13:
 335:Generated_Source\PSoC4/DISPLAY_Timer.c **** }
 392              		.loc 1 335 0
 393 0002 0449     		ldr	r1, .L42
 394              	.LBE13:
 395              	.LBE12:
 396              	.LBB15:
 397              	.LBB16:
 461:Generated_Source\PSoC4/DISPLAY_Timer.c ****    #endif /* (DISPLAY_Timer_UsingFixedFunction) */
 398              		.loc 1 461 0
 399 0004 0448     		ldr	r0, .L42+4
 400              	.L38:
 401              	.LBE16:
 402              	.LBE15:
 403              	.LBB18:
 404              	.LBB14:
 335:Generated_Source\PSoC4/DISPLAY_Timer.c **** }
 405              		.loc 1 335 0
 406 0006 0A78     		ldrb	r2, [r1]
 407              	.LBE14:
 408              	.LBE18:
 409              		.loc 1 765 0
 410 0008 1A42     		tst	r2, r3
 411 000a 01D0     		beq	.L41
 412              	.LBB19:
 413              	.LBB17:
 461:Generated_Source\PSoC4/DISPLAY_Timer.c ****    #endif /* (DISPLAY_Timer_UsingFixedFunction) */
 414              		.loc 1 461 0
 415 000c 0288     		ldrh	r2, [r0]
ARM GAS  C:\Users\Ala\AppData\Local\Temp\ccjVvkIK.s 			page 22


 416 000e FAE7     		b	.L38
 417              	.L41:
 418              	.LBE17:
 419              	.LBE19:
 766:Generated_Source\PSoC4/DISPLAY_Timer.c ****     {
 767:Generated_Source\PSoC4/DISPLAY_Timer.c ****         (void)DISPLAY_Timer_ReadCapture();
 768:Generated_Source\PSoC4/DISPLAY_Timer.c ****     }
 769:Generated_Source\PSoC4/DISPLAY_Timer.c **** }
 420              		.loc 1 769 0
 421              		@ sp needed
 422 0010 7047     		bx	lr
 423              	.L43:
 424 0012 C046     		.align	2
 425              	.L42:
 426 0014 63000F40 		.word	1074724963
 427 0018 84100F40 		.word	1074729092
 428              		.cfi_endproc
 429              	.LFE14:
 430              		.size	DISPLAY_Timer_ClearFIFO, .-DISPLAY_Timer_ClearFIFO
 431              		.section	.text.DISPLAY_Timer_Init,"ax",%progbits
 432              		.align	1
 433              		.global	DISPLAY_Timer_Init
 434              		.code	16
 435              		.thumb_func
 436              		.type	DISPLAY_Timer_Init, %function
 437              	DISPLAY_Timer_Init:
 438              	.LFB0:
  44:Generated_Source\PSoC4/DISPLAY_Timer.c ****     #if(!DISPLAY_Timer_UsingFixedFunction)
 439              		.loc 1 44 0
 440              		.cfi_startproc
 441              		@ args = 0, pretend = 0, frame = 0
 442              		@ frame_needed = 0, uses_anonymous_args = 0
 443              	.LVL4:
 444              	.LBB20:
 445              	.LBB21:
 437:Generated_Source\PSoC4/DISPLAY_Timer.c ****     #endif /*Write Period value with appropriate resolution suffix depending on UDB or fixed functi
 446              		.loc 1 437 0
 447 0000 9023     		movs	r3, #144
 448 0002 0A4A     		ldr	r2, .L45
 449 0004 FF33     		adds	r3, r3, #255
 450              	.LBE21:
 451              	.LBE20:
  44:Generated_Source\PSoC4/DISPLAY_Timer.c ****     #if(!DISPLAY_Timer_UsingFixedFunction)
 452              		.loc 1 44 0
 453 0006 10B5     		push	{r4, lr}
 454              		.cfi_def_cfa_offset 8
 455              		.cfi_offset 4, -8
 456              		.cfi_offset 14, -4
 457              	.LBB23:
 458              	.LBB22:
 437:Generated_Source\PSoC4/DISPLAY_Timer.c ****     #endif /*Write Period value with appropriate resolution suffix depending on UDB or fixed functi
 459              		.loc 1 437 0
 460 0008 1380     		strh	r3, [r2]
 461              	.LVL5:
 462              	.LBE22:
 463              	.LBE23:
 464              	.LBB24:
ARM GAS  C:\Users\Ala\AppData\Local\Temp\ccjVvkIK.s 			page 23


 465              	.LBB25:
 489:Generated_Source\PSoC4/DISPLAY_Timer.c ****     #endif /* Set Write Counter only for the UDB implementation (Write Counter not available in fix
 466              		.loc 1 489 0
 467 000a 094A     		ldr	r2, .L45+4
 468              	.LBE25:
 469              	.LBE24:
 163:Generated_Source\PSoC4/DISPLAY_Timer.c **** 
 470              		.loc 1 163 0
 471              		@ sp needed
 472              	.LBB27:
 473              	.LBB26:
 489:Generated_Source\PSoC4/DISPLAY_Timer.c ****     #endif /* Set Write Counter only for the UDB implementation (Write Counter not available in fix
 474              		.loc 1 489 0
 475 000c 1380     		strh	r3, [r2]
 476              	.LVL6:
 477              	.LBE26:
 478              	.LBE27:
 142:Generated_Source\PSoC4/DISPLAY_Timer.c **** 
 479              		.loc 1 142 0
 480 000e FFF7FEFF 		bl	CyEnterCriticalSection
 481              	.LVL7:
 145:Generated_Source\PSoC4/DISPLAY_Timer.c **** 
 482              		.loc 1 145 0
 483 0012 1021     		movs	r1, #16
 484 0014 074A     		ldr	r2, .L45+8
 485 0016 1378     		ldrb	r3, [r2]
 486 0018 0B43     		orrs	r3, r1
 487 001a 1370     		strb	r3, [r2]
 148:Generated_Source\PSoC4/DISPLAY_Timer.c **** 
 488              		.loc 1 148 0
 489 001c FFF7FEFF 		bl	CyExitCriticalSection
 490              	.LVL8:
 159:Generated_Source\PSoC4/DISPLAY_Timer.c ****     #endif /* Configure additional features of UDB implementation */
 491              		.loc 1 159 0
 492 0020 FFF7FEFF 		bl	DISPLAY_Timer_ClearFIFO
 493              	.LVL9:
 494              	.LBB28:
 495              	.LBB29:
 281:Generated_Source\PSoC4/DISPLAY_Timer.c **** }
 496              		.loc 1 281 0
 497 0024 0122     		movs	r2, #1
 498 0026 044B     		ldr	r3, .L45+12
 499 0028 1A70     		strb	r2, [r3]
 500              	.LVL10:
 501              	.LBE29:
 502              	.LBE28:
 163:Generated_Source\PSoC4/DISPLAY_Timer.c **** 
 503              		.loc 1 163 0
 504 002a 10BD     		pop	{r4, pc}
 505              	.L46:
 506              		.align	2
 507              	.L45:
 508 002c 44100F40 		.word	1074729028
 509 0030 04100F40 		.word	1074728964
 510 0034 93000F40 		.word	1074725011
 511 0038 83000F40 		.word	1074724995
 512              		.cfi_endproc
ARM GAS  C:\Users\Ala\AppData\Local\Temp\ccjVvkIK.s 			page 24


 513              	.LFE0:
 514              		.size	DISPLAY_Timer_Init, .-DISPLAY_Timer_Init
 515              		.section	.text.DISPLAY_Timer_Start,"ax",%progbits
 516              		.align	1
 517              		.global	DISPLAY_Timer_Start
 518              		.code	16
 519              		.thumb_func
 520              		.type	DISPLAY_Timer_Start, %function
 521              	DISPLAY_Timer_Start:
 522              	.LFB2:
 216:Generated_Source\PSoC4/DISPLAY_Timer.c ****     if(DISPLAY_Timer_initVar == 0u)
 523              		.loc 1 216 0
 524              		.cfi_startproc
 525              		@ args = 0, pretend = 0, frame = 0
 526              		@ frame_needed = 0, uses_anonymous_args = 0
 527 0000 10B5     		push	{r4, lr}
 528              		.cfi_def_cfa_offset 8
 529              		.cfi_offset 4, -8
 530              		.cfi_offset 14, -4
 217:Generated_Source\PSoC4/DISPLAY_Timer.c ****     {
 531              		.loc 1 217 0
 532 0002 054C     		ldr	r4, .L49
 533 0004 2378     		ldrb	r3, [r4]
 534 0006 002B     		cmp	r3, #0
 535 0008 03D1     		bne	.L48
 219:Generated_Source\PSoC4/DISPLAY_Timer.c **** 
 536              		.loc 1 219 0
 537 000a FFF7FEFF 		bl	DISPLAY_Timer_Init
 538              	.LVL11:
 221:Generated_Source\PSoC4/DISPLAY_Timer.c ****     }
 539              		.loc 1 221 0
 540 000e 0123     		movs	r3, #1
 541 0010 2370     		strb	r3, [r4]
 542              	.L48:
 225:Generated_Source\PSoC4/DISPLAY_Timer.c **** }
 543              		.loc 1 225 0
 544 0012 FFF7FEFF 		bl	DISPLAY_Timer_Enable
 545              	.LVL12:
 226:Generated_Source\PSoC4/DISPLAY_Timer.c **** 
 546              		.loc 1 226 0
 547              		@ sp needed
 548 0016 10BD     		pop	{r4, pc}
 549              	.L50:
 550              		.align	2
 551              	.L49:
 552 0018 00000000 		.word	.LANCHOR0
 553              		.cfi_endproc
 554              	.LFE2:
 555              		.size	DISPLAY_Timer_Start, .-DISPLAY_Timer_Start
 556              		.global	DISPLAY_Timer_initVar
 557              		.bss
 558              		.set	.LANCHOR0,. + 0
 559              		.type	DISPLAY_Timer_initVar, %object
 560              		.size	DISPLAY_Timer_initVar, 1
 561              	DISPLAY_Timer_initVar:
 562 0000 00       		.space	1
 563              		.text
ARM GAS  C:\Users\Ala\AppData\Local\Temp\ccjVvkIK.s 			page 25


 564              	.Letext0:
 565              		.file 2 "Generated_Source\\PSoC4\\cytypes.h"
 566              		.file 3 "Generated_Source\\PSoC4\\CyLib.h"