ARM GAS  C:\Users\Ala\AppData\Local\Temp\ccJImwlk.s 			page 1


   1              		.syntax unified
   2              		.cpu cortex-m0
   3              		.fpu softvfp
   4              		.eabi_attribute 20, 1
   5              		.eabi_attribute 21, 1
   6              		.eabi_attribute 23, 3
   7              		.eabi_attribute 24, 1
   8              		.eabi_attribute 25, 1
   9              		.eabi_attribute 26, 1
  10              		.eabi_attribute 30, 4
  11              		.eabi_attribute 34, 0
  12              		.eabi_attribute 18, 4
  13              		.thumb
  14              		.syntax unified
  15              		.file	"DISPLAY_Timer_PM.c"
  16              		.text
  17              	.Ltext0:
  18              		.cfi_sections	.debug_frame
  19              		.section	.text.DISPLAY_Timer_SaveConfig,"ax",%progbits
  20              		.align	1
  21              		.global	DISPLAY_Timer_SaveConfig
  22              		.code	16
  23              		.thumb_func
  24              		.type	DISPLAY_Timer_SaveConfig, %function
  25              	DISPLAY_Timer_SaveConfig:
  26              	.LFB0:
  27              		.file 1 "Generated_Source\\PSoC4\\DISPLAY_Timer_PM.c"
   1:Generated_Source\PSoC4/DISPLAY_Timer_PM.c **** /*******************************************************************************
   2:Generated_Source\PSoC4/DISPLAY_Timer_PM.c **** * File Name: DISPLAY_Timer_PM.c
   3:Generated_Source\PSoC4/DISPLAY_Timer_PM.c **** * Version 2.80
   4:Generated_Source\PSoC4/DISPLAY_Timer_PM.c **** *
   5:Generated_Source\PSoC4/DISPLAY_Timer_PM.c **** *  Description:
   6:Generated_Source\PSoC4/DISPLAY_Timer_PM.c **** *     This file provides the power management source code to API for the
   7:Generated_Source\PSoC4/DISPLAY_Timer_PM.c **** *     Timer.
   8:Generated_Source\PSoC4/DISPLAY_Timer_PM.c **** *
   9:Generated_Source\PSoC4/DISPLAY_Timer_PM.c **** *   Note:
  10:Generated_Source\PSoC4/DISPLAY_Timer_PM.c **** *     None
  11:Generated_Source\PSoC4/DISPLAY_Timer_PM.c **** *
  12:Generated_Source\PSoC4/DISPLAY_Timer_PM.c **** *******************************************************************************
  13:Generated_Source\PSoC4/DISPLAY_Timer_PM.c **** * Copyright 2008-2017, Cypress Semiconductor Corporation.  All rights reserved.
  14:Generated_Source\PSoC4/DISPLAY_Timer_PM.c **** * You may use this file only in accordance with the license, terms, conditions,
  15:Generated_Source\PSoC4/DISPLAY_Timer_PM.c **** * disclaimers, and limitations in the end user license agreement accompanying
  16:Generated_Source\PSoC4/DISPLAY_Timer_PM.c **** * the software package with which this file was provided.
  17:Generated_Source\PSoC4/DISPLAY_Timer_PM.c **** ********************************************************************************/
  18:Generated_Source\PSoC4/DISPLAY_Timer_PM.c **** 
  19:Generated_Source\PSoC4/DISPLAY_Timer_PM.c **** #include "DISPLAY_Timer.h"
  20:Generated_Source\PSoC4/DISPLAY_Timer_PM.c **** 
  21:Generated_Source\PSoC4/DISPLAY_Timer_PM.c **** static DISPLAY_Timer_backupStruct DISPLAY_Timer_backup;
  22:Generated_Source\PSoC4/DISPLAY_Timer_PM.c **** 
  23:Generated_Source\PSoC4/DISPLAY_Timer_PM.c **** 
  24:Generated_Source\PSoC4/DISPLAY_Timer_PM.c **** /*******************************************************************************
  25:Generated_Source\PSoC4/DISPLAY_Timer_PM.c **** * Function Name: DISPLAY_Timer_SaveConfig
  26:Generated_Source\PSoC4/DISPLAY_Timer_PM.c **** ********************************************************************************
  27:Generated_Source\PSoC4/DISPLAY_Timer_PM.c **** *
  28:Generated_Source\PSoC4/DISPLAY_Timer_PM.c **** * Summary:
  29:Generated_Source\PSoC4/DISPLAY_Timer_PM.c **** *     Save the current user configuration
  30:Generated_Source\PSoC4/DISPLAY_Timer_PM.c **** *
ARM GAS  C:\Users\Ala\AppData\Local\Temp\ccJImwlk.s 			page 2


  31:Generated_Source\PSoC4/DISPLAY_Timer_PM.c **** * Parameters:
  32:Generated_Source\PSoC4/DISPLAY_Timer_PM.c **** *  void
  33:Generated_Source\PSoC4/DISPLAY_Timer_PM.c **** *
  34:Generated_Source\PSoC4/DISPLAY_Timer_PM.c **** * Return:
  35:Generated_Source\PSoC4/DISPLAY_Timer_PM.c **** *  void
  36:Generated_Source\PSoC4/DISPLAY_Timer_PM.c **** *
  37:Generated_Source\PSoC4/DISPLAY_Timer_PM.c **** * Global variables:
  38:Generated_Source\PSoC4/DISPLAY_Timer_PM.c **** *  DISPLAY_Timer_backup:  Variables of this global structure are modified to
  39:Generated_Source\PSoC4/DISPLAY_Timer_PM.c **** *  store the values of non retention configuration registers when Sleep() API is
  40:Generated_Source\PSoC4/DISPLAY_Timer_PM.c **** *  called.
  41:Generated_Source\PSoC4/DISPLAY_Timer_PM.c **** *
  42:Generated_Source\PSoC4/DISPLAY_Timer_PM.c **** *******************************************************************************/
  43:Generated_Source\PSoC4/DISPLAY_Timer_PM.c **** void DISPLAY_Timer_SaveConfig(void) 
  44:Generated_Source\PSoC4/DISPLAY_Timer_PM.c **** {
  28              		.loc 1 44 0
  29              		.cfi_startproc
  30              		@ args = 0, pretend = 0, frame = 0
  31              		@ frame_needed = 0, uses_anonymous_args = 0
  32 0000 10B5     		push	{r4, lr}
  33              		.cfi_def_cfa_offset 8
  34              		.cfi_offset 4, -8
  35              		.cfi_offset 14, -4
  45:Generated_Source\PSoC4/DISPLAY_Timer_PM.c ****     #if (!DISPLAY_Timer_UsingFixedFunction)
  46:Generated_Source\PSoC4/DISPLAY_Timer_PM.c ****         DISPLAY_Timer_backup.TimerUdb = DISPLAY_Timer_ReadCounter();
  36              		.loc 1 46 0
  37 0002 FFF7FEFF 		bl	DISPLAY_Timer_ReadCounter
  38              	.LVL0:
  39 0006 044C     		ldr	r4, .L2
  47:Generated_Source\PSoC4/DISPLAY_Timer_PM.c ****         DISPLAY_Timer_backup.InterruptMaskValue = DISPLAY_Timer_STATUS_MASK;
  40              		.loc 1 47 0
  41 0008 044B     		ldr	r3, .L2+4
  46:Generated_Source\PSoC4/DISPLAY_Timer_PM.c ****         DISPLAY_Timer_backup.InterruptMaskValue = DISPLAY_Timer_STATUS_MASK;
  42              		.loc 1 46 0
  43 000a 6080     		strh	r0, [r4, #2]
  44              		.loc 1 47 0
  45 000c 1B78     		ldrb	r3, [r3]
  48:Generated_Source\PSoC4/DISPLAY_Timer_PM.c ****         #if (DISPLAY_Timer_UsingHWCaptureCounter)
  49:Generated_Source\PSoC4/DISPLAY_Timer_PM.c ****             DISPLAY_Timer_backup.TimerCaptureCounter = DISPLAY_Timer_ReadCaptureCount();
  50:Generated_Source\PSoC4/DISPLAY_Timer_PM.c ****         #endif /* Back Up capture counter register  */
  51:Generated_Source\PSoC4/DISPLAY_Timer_PM.c **** 
  52:Generated_Source\PSoC4/DISPLAY_Timer_PM.c ****         #if(!DISPLAY_Timer_UDB_CONTROL_REG_REMOVED)
  53:Generated_Source\PSoC4/DISPLAY_Timer_PM.c ****             DISPLAY_Timer_backup.TimerControlRegister = DISPLAY_Timer_ReadControlRegister();
  54:Generated_Source\PSoC4/DISPLAY_Timer_PM.c ****         #endif /* Backup the enable state of the Timer component */
  55:Generated_Source\PSoC4/DISPLAY_Timer_PM.c ****     #endif /* Backup non retention registers in UDB implementation. All fixed function registers ar
  56:Generated_Source\PSoC4/DISPLAY_Timer_PM.c **** }
  46              		.loc 1 56 0
  47              		@ sp needed
  47:Generated_Source\PSoC4/DISPLAY_Timer_PM.c ****         #if (DISPLAY_Timer_UsingHWCaptureCounter)
  48              		.loc 1 47 0
  49 000e 2371     		strb	r3, [r4, #4]
  53:Generated_Source\PSoC4/DISPLAY_Timer_PM.c ****         #endif /* Backup the enable state of the Timer component */
  50              		.loc 1 53 0
  51 0010 FFF7FEFF 		bl	DISPLAY_Timer_ReadControlRegister
  52              	.LVL1:
  53 0014 6071     		strb	r0, [r4, #5]
  54              		.loc 1 56 0
  55 0016 10BD     		pop	{r4, pc}
ARM GAS  C:\Users\Ala\AppData\Local\Temp\ccJImwlk.s 			page 3


  56              	.L3:
  57              		.align	2
  58              	.L2:
  59 0018 00000000 		.word	.LANCHOR0
  60 001c 83000F40 		.word	1074724995
  61              		.cfi_endproc
  62              	.LFE0:
  63              		.size	DISPLAY_Timer_SaveConfig, .-DISPLAY_Timer_SaveConfig
  64              		.section	.text.DISPLAY_Timer_RestoreConfig,"ax",%progbits
  65              		.align	1
  66              		.global	DISPLAY_Timer_RestoreConfig
  67              		.code	16
  68              		.thumb_func
  69              		.type	DISPLAY_Timer_RestoreConfig, %function
  70              	DISPLAY_Timer_RestoreConfig:
  71              	.LFB1:
  57:Generated_Source\PSoC4/DISPLAY_Timer_PM.c **** 
  58:Generated_Source\PSoC4/DISPLAY_Timer_PM.c **** 
  59:Generated_Source\PSoC4/DISPLAY_Timer_PM.c **** /*******************************************************************************
  60:Generated_Source\PSoC4/DISPLAY_Timer_PM.c **** * Function Name: DISPLAY_Timer_RestoreConfig
  61:Generated_Source\PSoC4/DISPLAY_Timer_PM.c **** ********************************************************************************
  62:Generated_Source\PSoC4/DISPLAY_Timer_PM.c **** *
  63:Generated_Source\PSoC4/DISPLAY_Timer_PM.c **** * Summary:
  64:Generated_Source\PSoC4/DISPLAY_Timer_PM.c **** *  Restores the current user configuration.
  65:Generated_Source\PSoC4/DISPLAY_Timer_PM.c **** *
  66:Generated_Source\PSoC4/DISPLAY_Timer_PM.c **** * Parameters:
  67:Generated_Source\PSoC4/DISPLAY_Timer_PM.c **** *  void
  68:Generated_Source\PSoC4/DISPLAY_Timer_PM.c **** *
  69:Generated_Source\PSoC4/DISPLAY_Timer_PM.c **** * Return:
  70:Generated_Source\PSoC4/DISPLAY_Timer_PM.c **** *  void
  71:Generated_Source\PSoC4/DISPLAY_Timer_PM.c **** *
  72:Generated_Source\PSoC4/DISPLAY_Timer_PM.c **** * Global variables:
  73:Generated_Source\PSoC4/DISPLAY_Timer_PM.c **** *  DISPLAY_Timer_backup:  Variables of this global structure are used to
  74:Generated_Source\PSoC4/DISPLAY_Timer_PM.c **** *  restore the values of non retention registers on wakeup from sleep mode.
  75:Generated_Source\PSoC4/DISPLAY_Timer_PM.c **** *
  76:Generated_Source\PSoC4/DISPLAY_Timer_PM.c **** *******************************************************************************/
  77:Generated_Source\PSoC4/DISPLAY_Timer_PM.c **** void DISPLAY_Timer_RestoreConfig(void) 
  78:Generated_Source\PSoC4/DISPLAY_Timer_PM.c **** {   
  72              		.loc 1 78 0
  73              		.cfi_startproc
  74              		@ args = 0, pretend = 0, frame = 0
  75              		@ frame_needed = 0, uses_anonymous_args = 0
  76 0000 10B5     		push	{r4, lr}
  77              		.cfi_def_cfa_offset 8
  78              		.cfi_offset 4, -8
  79              		.cfi_offset 14, -4
  79:Generated_Source\PSoC4/DISPLAY_Timer_PM.c ****     #if (!DISPLAY_Timer_UsingFixedFunction)
  80:Generated_Source\PSoC4/DISPLAY_Timer_PM.c **** 
  81:Generated_Source\PSoC4/DISPLAY_Timer_PM.c ****         DISPLAY_Timer_WriteCounter(DISPLAY_Timer_backup.TimerUdb);
  80              		.loc 1 81 0
  81 0002 054C     		ldr	r4, .L5
  82:Generated_Source\PSoC4/DISPLAY_Timer_PM.c ****         DISPLAY_Timer_STATUS_MASK =DISPLAY_Timer_backup.InterruptMaskValue;
  83:Generated_Source\PSoC4/DISPLAY_Timer_PM.c ****         #if (DISPLAY_Timer_UsingHWCaptureCounter)
  84:Generated_Source\PSoC4/DISPLAY_Timer_PM.c ****             DISPLAY_Timer_SetCaptureCount(DISPLAY_Timer_backup.TimerCaptureCounter);
  85:Generated_Source\PSoC4/DISPLAY_Timer_PM.c ****         #endif /* Restore Capture counter register*/
  86:Generated_Source\PSoC4/DISPLAY_Timer_PM.c **** 
  87:Generated_Source\PSoC4/DISPLAY_Timer_PM.c ****         #if(!DISPLAY_Timer_UDB_CONTROL_REG_REMOVED)
ARM GAS  C:\Users\Ala\AppData\Local\Temp\ccJImwlk.s 			page 4


  88:Generated_Source\PSoC4/DISPLAY_Timer_PM.c ****             DISPLAY_Timer_WriteControlRegister(DISPLAY_Timer_backup.TimerControlRegister);
  89:Generated_Source\PSoC4/DISPLAY_Timer_PM.c ****         #endif /* Restore the enable state of the Timer component */
  90:Generated_Source\PSoC4/DISPLAY_Timer_PM.c ****     #endif /* Restore non retention registers in the UDB implementation only */
  91:Generated_Source\PSoC4/DISPLAY_Timer_PM.c **** }
  82              		.loc 1 91 0
  83              		@ sp needed
  81:Generated_Source\PSoC4/DISPLAY_Timer_PM.c ****         DISPLAY_Timer_STATUS_MASK =DISPLAY_Timer_backup.InterruptMaskValue;
  84              		.loc 1 81 0
  85 0004 6088     		ldrh	r0, [r4, #2]
  86 0006 FFF7FEFF 		bl	DISPLAY_Timer_WriteCounter
  87              	.LVL2:
  82:Generated_Source\PSoC4/DISPLAY_Timer_PM.c ****         DISPLAY_Timer_STATUS_MASK =DISPLAY_Timer_backup.InterruptMaskValue;
  88              		.loc 1 82 0
  89 000a 2279     		ldrb	r2, [r4, #4]
  90 000c 034B     		ldr	r3, .L5+4
  91 000e 1A70     		strb	r2, [r3]
  88:Generated_Source\PSoC4/DISPLAY_Timer_PM.c ****         #endif /* Restore the enable state of the Timer component */
  92              		.loc 1 88 0
  93 0010 6079     		ldrb	r0, [r4, #5]
  94 0012 FFF7FEFF 		bl	DISPLAY_Timer_WriteControlRegister
  95              	.LVL3:
  96              		.loc 1 91 0
  97 0016 10BD     		pop	{r4, pc}
  98              	.L6:
  99              		.align	2
 100              	.L5:
 101 0018 00000000 		.word	.LANCHOR0
 102 001c 83000F40 		.word	1074724995
 103              		.cfi_endproc
 104              	.LFE1:
 105              		.size	DISPLAY_Timer_RestoreConfig, .-DISPLAY_Timer_RestoreConfig
 106              		.section	.text.DISPLAY_Timer_Sleep,"ax",%progbits
 107              		.align	1
 108              		.global	DISPLAY_Timer_Sleep
 109              		.code	16
 110              		.thumb_func
 111              		.type	DISPLAY_Timer_Sleep, %function
 112              	DISPLAY_Timer_Sleep:
 113              	.LFB2:
  92:Generated_Source\PSoC4/DISPLAY_Timer_PM.c **** 
  93:Generated_Source\PSoC4/DISPLAY_Timer_PM.c **** 
  94:Generated_Source\PSoC4/DISPLAY_Timer_PM.c **** /*******************************************************************************
  95:Generated_Source\PSoC4/DISPLAY_Timer_PM.c **** * Function Name: DISPLAY_Timer_Sleep
  96:Generated_Source\PSoC4/DISPLAY_Timer_PM.c **** ********************************************************************************
  97:Generated_Source\PSoC4/DISPLAY_Timer_PM.c **** *
  98:Generated_Source\PSoC4/DISPLAY_Timer_PM.c **** * Summary:
  99:Generated_Source\PSoC4/DISPLAY_Timer_PM.c **** *     Stop and Save the user configuration
 100:Generated_Source\PSoC4/DISPLAY_Timer_PM.c **** *
 101:Generated_Source\PSoC4/DISPLAY_Timer_PM.c **** * Parameters:
 102:Generated_Source\PSoC4/DISPLAY_Timer_PM.c **** *  void
 103:Generated_Source\PSoC4/DISPLAY_Timer_PM.c **** *
 104:Generated_Source\PSoC4/DISPLAY_Timer_PM.c **** * Return:
 105:Generated_Source\PSoC4/DISPLAY_Timer_PM.c **** *  void
 106:Generated_Source\PSoC4/DISPLAY_Timer_PM.c **** *
 107:Generated_Source\PSoC4/DISPLAY_Timer_PM.c **** * Global variables:
 108:Generated_Source\PSoC4/DISPLAY_Timer_PM.c **** *  DISPLAY_Timer_backup.TimerEnableState:  Is modified depending on the
 109:Generated_Source\PSoC4/DISPLAY_Timer_PM.c **** *  enable state of the block before entering sleep mode.
ARM GAS  C:\Users\Ala\AppData\Local\Temp\ccJImwlk.s 			page 5


 110:Generated_Source\PSoC4/DISPLAY_Timer_PM.c **** *
 111:Generated_Source\PSoC4/DISPLAY_Timer_PM.c **** *******************************************************************************/
 112:Generated_Source\PSoC4/DISPLAY_Timer_PM.c **** void DISPLAY_Timer_Sleep(void) 
 113:Generated_Source\PSoC4/DISPLAY_Timer_PM.c **** {
 114              		.loc 1 113 0
 115              		.cfi_startproc
 116              		@ args = 0, pretend = 0, frame = 0
 117              		@ frame_needed = 0, uses_anonymous_args = 0
 118 0000 10B5     		push	{r4, lr}
 119              		.cfi_def_cfa_offset 8
 120              		.cfi_offset 4, -8
 121              		.cfi_offset 14, -4
 114:Generated_Source\PSoC4/DISPLAY_Timer_PM.c ****     #if(!DISPLAY_Timer_UDB_CONTROL_REG_REMOVED)
 115:Generated_Source\PSoC4/DISPLAY_Timer_PM.c ****         /* Save Counter's enable state */
 116:Generated_Source\PSoC4/DISPLAY_Timer_PM.c ****         if(DISPLAY_Timer_CTRL_ENABLE == (DISPLAY_Timer_CONTROL & DISPLAY_Timer_CTRL_ENABLE))
 122              		.loc 1 116 0
 123 0002 074B     		ldr	r3, .L12
 124 0004 074A     		ldr	r2, .L12+4
 125 0006 1B78     		ldrb	r3, [r3]
 126 0008 5BB2     		sxtb	r3, r3
 127 000a 002B     		cmp	r3, #0
 128 000c 01DA     		bge	.L8
 117:Generated_Source\PSoC4/DISPLAY_Timer_PM.c ****         {
 118:Generated_Source\PSoC4/DISPLAY_Timer_PM.c ****             /* Timer is enabled */
 119:Generated_Source\PSoC4/DISPLAY_Timer_PM.c ****             DISPLAY_Timer_backup.TimerEnableState = 1u;
 129              		.loc 1 119 0
 130 000e 0123     		movs	r3, #1
 131 0010 00E0     		b	.L10
 132              	.L8:
 120:Generated_Source\PSoC4/DISPLAY_Timer_PM.c ****         }
 121:Generated_Source\PSoC4/DISPLAY_Timer_PM.c ****         else
 122:Generated_Source\PSoC4/DISPLAY_Timer_PM.c ****         {
 123:Generated_Source\PSoC4/DISPLAY_Timer_PM.c ****             /* Timer is disabled */
 124:Generated_Source\PSoC4/DISPLAY_Timer_PM.c ****             DISPLAY_Timer_backup.TimerEnableState = 0u;
 133              		.loc 1 124 0
 134 0012 0023     		movs	r3, #0
 135              	.L10:
 136 0014 1370     		strb	r3, [r2]
 125:Generated_Source\PSoC4/DISPLAY_Timer_PM.c ****         }
 126:Generated_Source\PSoC4/DISPLAY_Timer_PM.c ****     #endif /* Back up enable state from the Timer control register */
 127:Generated_Source\PSoC4/DISPLAY_Timer_PM.c ****     DISPLAY_Timer_Stop();
 128:Generated_Source\PSoC4/DISPLAY_Timer_PM.c ****     DISPLAY_Timer_SaveConfig();
 129:Generated_Source\PSoC4/DISPLAY_Timer_PM.c **** }
 137              		.loc 1 129 0
 138              		@ sp needed
 127:Generated_Source\PSoC4/DISPLAY_Timer_PM.c ****     DISPLAY_Timer_SaveConfig();
 139              		.loc 1 127 0
 140 0016 FFF7FEFF 		bl	DISPLAY_Timer_Stop
 141              	.LVL4:
 128:Generated_Source\PSoC4/DISPLAY_Timer_PM.c **** }
 142              		.loc 1 128 0
 143 001a FFF7FEFF 		bl	DISPLAY_Timer_SaveConfig
 144              	.LVL5:
 145              		.loc 1 129 0
 146 001e 10BD     		pop	{r4, pc}
 147              	.L13:
 148              		.align	2
ARM GAS  C:\Users\Ala\AppData\Local\Temp\ccJImwlk.s 			page 6


 149              	.L12:
 150 0020 73000F40 		.word	1074724979
 151 0024 00000000 		.word	.LANCHOR0
 152              		.cfi_endproc
 153              	.LFE2:
 154              		.size	DISPLAY_Timer_Sleep, .-DISPLAY_Timer_Sleep
 155              		.section	.text.DISPLAY_Timer_Wakeup,"ax",%progbits
 156              		.align	1
 157              		.global	DISPLAY_Timer_Wakeup
 158              		.code	16
 159              		.thumb_func
 160              		.type	DISPLAY_Timer_Wakeup, %function
 161              	DISPLAY_Timer_Wakeup:
 162              	.LFB3:
 130:Generated_Source\PSoC4/DISPLAY_Timer_PM.c **** 
 131:Generated_Source\PSoC4/DISPLAY_Timer_PM.c **** 
 132:Generated_Source\PSoC4/DISPLAY_Timer_PM.c **** /*******************************************************************************
 133:Generated_Source\PSoC4/DISPLAY_Timer_PM.c **** * Function Name: DISPLAY_Timer_Wakeup
 134:Generated_Source\PSoC4/DISPLAY_Timer_PM.c **** ********************************************************************************
 135:Generated_Source\PSoC4/DISPLAY_Timer_PM.c **** *
 136:Generated_Source\PSoC4/DISPLAY_Timer_PM.c **** * Summary:
 137:Generated_Source\PSoC4/DISPLAY_Timer_PM.c **** *  Restores and enables the user configuration
 138:Generated_Source\PSoC4/DISPLAY_Timer_PM.c **** *
 139:Generated_Source\PSoC4/DISPLAY_Timer_PM.c **** * Parameters:
 140:Generated_Source\PSoC4/DISPLAY_Timer_PM.c **** *  void
 141:Generated_Source\PSoC4/DISPLAY_Timer_PM.c **** *
 142:Generated_Source\PSoC4/DISPLAY_Timer_PM.c **** * Return:
 143:Generated_Source\PSoC4/DISPLAY_Timer_PM.c **** *  void
 144:Generated_Source\PSoC4/DISPLAY_Timer_PM.c **** *
 145:Generated_Source\PSoC4/DISPLAY_Timer_PM.c **** * Global variables:
 146:Generated_Source\PSoC4/DISPLAY_Timer_PM.c **** *  DISPLAY_Timer_backup.enableState:  Is used to restore the enable state of
 147:Generated_Source\PSoC4/DISPLAY_Timer_PM.c **** *  block on wakeup from sleep mode.
 148:Generated_Source\PSoC4/DISPLAY_Timer_PM.c **** *
 149:Generated_Source\PSoC4/DISPLAY_Timer_PM.c **** *******************************************************************************/
 150:Generated_Source\PSoC4/DISPLAY_Timer_PM.c **** void DISPLAY_Timer_Wakeup(void) 
 151:Generated_Source\PSoC4/DISPLAY_Timer_PM.c **** {
 163              		.loc 1 151 0
 164              		.cfi_startproc
 165              		@ args = 0, pretend = 0, frame = 0
 166              		@ frame_needed = 0, uses_anonymous_args = 0
 167 0000 10B5     		push	{r4, lr}
 168              		.cfi_def_cfa_offset 8
 169              		.cfi_offset 4, -8
 170              		.cfi_offset 14, -4
 152:Generated_Source\PSoC4/DISPLAY_Timer_PM.c ****     DISPLAY_Timer_RestoreConfig();
 171              		.loc 1 152 0
 172 0002 FFF7FEFF 		bl	DISPLAY_Timer_RestoreConfig
 173              	.LVL6:
 153:Generated_Source\PSoC4/DISPLAY_Timer_PM.c ****     #if(!DISPLAY_Timer_UDB_CONTROL_REG_REMOVED)
 154:Generated_Source\PSoC4/DISPLAY_Timer_PM.c ****         if(DISPLAY_Timer_backup.TimerEnableState == 1u)
 174              		.loc 1 154 0
 175 0006 034B     		ldr	r3, .L16
 176 0008 1B78     		ldrb	r3, [r3]
 177 000a 012B     		cmp	r3, #1
 178 000c 01D1     		bne	.L14
 155:Generated_Source\PSoC4/DISPLAY_Timer_PM.c ****         {     /* Enable Timer's operation */
 156:Generated_Source\PSoC4/DISPLAY_Timer_PM.c ****                 DISPLAY_Timer_Enable();
ARM GAS  C:\Users\Ala\AppData\Local\Temp\ccJImwlk.s 			page 7


 179              		.loc 1 156 0
 180 000e FFF7FEFF 		bl	DISPLAY_Timer_Enable
 181              	.LVL7:
 182              	.L14:
 157:Generated_Source\PSoC4/DISPLAY_Timer_PM.c ****         } /* Do nothing if Timer was disabled before */
 158:Generated_Source\PSoC4/DISPLAY_Timer_PM.c ****     #endif /* Remove this code section if Control register is removed */
 159:Generated_Source\PSoC4/DISPLAY_Timer_PM.c **** }
 183              		.loc 1 159 0
 184              		@ sp needed
 185 0012 10BD     		pop	{r4, pc}
 186              	.L17:
 187              		.align	2
 188              	.L16:
 189 0014 00000000 		.word	.LANCHOR0
 190              		.cfi_endproc
 191              	.LFE3:
 192              		.size	DISPLAY_Timer_Wakeup, .-DISPLAY_Timer_Wakeup
 193              		.bss
 194              		.align	1
 195              		.set	.LANCHOR0,. + 0
 196              		.type	DISPLAY_Timer_backup, %object
 197              		.size	DISPLAY_Timer_backup, 6
 198              	DISPLAY_Timer_backup:
 199 0000 00000000 		.space	6
 199      0000
 200              		.text
 201              	.Letext0:
 202              		.file 2 "Generated_Source\\PSoC4\\cytypes.h"
 203              		.file 3 "Generated_Source\\PSoC4\\DISPLAY_Timer.h"