ARM GAS  C:\Users\Ala\AppData\Local\Temp\ccIveMAV.s 			page 1


   1              		.syntax unified
   2              		.cpu cortex-m0
   3              		.fpu softvfp
   4              		.eabi_attribute 20, 1
   5              		.eabi_attribute 21, 1
   6              		.eabi_attribute 23, 3
   7              		.eabi_attribute 24, 1
   8              		.eabi_attribute 25, 1
   9              		.eabi_attribute 26, 1
  10              		.eabi_attribute 30, 4
  11              		.eabi_attribute 34, 0
  12              		.eabi_attribute 18, 4
  13              		.thumb
  14              		.syntax unified
  15              		.file	"display.c"
  16              		.text
  17              	.Ltext0:
  18              		.cfi_sections	.debug_frame
  19              		.section	.text.SPIM_display_write,"ax",%progbits
  20              		.align	1
  21              		.global	SPIM_display_write
  22              		.code	16
  23              		.thumb_func
  24              		.type	SPIM_display_write, %function
  25              	SPIM_display_write:
  26              	.LFB32:
  27              		.file 1 "display.c"
   1:display.c     **** /* ========================================
   2:display.c     ****  *
   3:display.c     ****  * Copyright HEMI, 2020
   4:display.c     ****  * All Rights Reserved
   5:display.c     ****  * UNPUBLISHED, LICENSED SOFTWARE.
   6:display.c     ****  * 
   7:display.c     ****  * Functions used by BeoModern main PSoC to display informaiton on BeoModern
   8:display.c     ****  * front display as well as front LEDs
   9:display.c     ****  *
  10:display.c     ****  * CONFIDENTIAL AND PROPRIETARY INFORMATION
  11:display.c     ****  * WHICH IS THE PROPERTY OF HEMI.
  12:display.c     ****  *
  13:display.c     ****  * ========================================
  14:display.c     **** */
  15:display.c     **** 
  16:display.c     **** #include <inputs.h>
  17:display.c     **** #include <display.h>
  18:display.c     **** 
  19:display.c     **** 
  20:display.c     **** // This dummy buffer used by SPIM when it receives status packet.
  21:display.c     **** const uint8 dummyBuffer[TxPACKET_SIZE] = {0xFFu, 0xFFu, 0xFFu};
  22:display.c     **** //const uint8 message_table[TxPACKET_SIZE+2] = {0};
  23:display.c     **** 
  24:display.c     **** 
  25:display.c     **** 
  26:display.c     **** /*******************************************************************************
  27:display.c     **** * Function Name: SPIM_display_write
  28:display.c     **** ********************************************************************************
  29:display.c     **** * Summary:
  30:display.c     **** *  SPI Master initiates the transmission of 25 long message to the SPI Slave. 
ARM GAS  C:\Users\Ala\AppData\Local\Temp\ccIveMAV.s 			page 2


  31:display.c     **** *  Funciton adds start and stop bajts to indicate correct transfer.
  32:display.c     **** *  After transfer completion, the dummy bytes sent by the SPIS are cleared from 
  33:display.c     **** *  the RX buffer.
  34:display.c     **** *
  35:display.c     **** * Summary:
  36:display.c     **** *  Funciton reponsible for decoding and displayin commands that were sent over 
  37:display.c     **** *  SPI interface to display. It intercepts 24 ASCI characters and pushes them to 
  38:display.c     **** *  display. It also interprets two control words and manipulates LEDs acordingly
  39:display.c     **** *  to control words state.
  40:display.c     **** *  More than one LED can be ON at one time.
  41:display.c     **** *
  42:display.c     **** * Parameters:
  43:display.c     **** *  input_table[] - table returned by SPI slave routine contining 24 ASCI
  44:display.c     **** *                  characters and 2 control words for LED ON/OFF states
  45:display.c     **** *  disp_ctrl1 - Each bit represents LED on front interface
  46:display.c     **** *               LED control
  47:display.c     **** *               CTRL0.0 - Player
  48:display.c     **** *               CTRL0.1 - iRadio
  49:display.c     **** *               CTRL0.2 - DAB Radio
  50:display.c     **** *               CTRL0.3 - Aux IN
  51:display.c     **** *               CTRL0.4 - Clock    
  52:display.c     **** *               CTRL0.5 - RDS/FM Display
  53:display.c     **** *               CTRL0.6 - BT Rx    
  54:display.c     **** *               CTRL0.7 - NOT USED
  55:display.c     ****                 only one LED can be ON at particualr moment in time
  56:display.c     **** *  disp_ctrl2 - Each bit represents LED on front interface
  57:display.c     **** *               LED control
  58:display.c     **** *               CTRL1.0 - BT Tx
  59:display.c     **** *               CTRL1.1 - Online status
  60:display.c     **** *               CTRL1.2 - Signal Level
  61:display.c     **** *               CTRL1.3 - Spectrum Analyser
  62:display.c     **** *               CTRL1.4 - Clock 1
  63:display.c     **** *               CTRL1.5 - Clock 2
  64:display.c     **** *               CTRL1.6 - NOT USED
  65:display.c     **** *               CTRL1.7 - NOT USED
  66:display.c     **** *               more than one LED can be ON at particualr moment in time
  67:display.c     **** * Return:
  68:display.c     **** *  none
  69:display.c     **** *
  70:display.c     **** *
  71:display.c     **** *******************************************************************************/
  72:display.c     **** void SPIM_display_write(uint8 message_table[], uint8 disp_ctrl1, uint8 disp_ctrl2)
  73:display.c     **** {
  28              		.loc 1 73 0
  29              		.cfi_startproc
  30              		@ args = 0, pretend = 0, frame = 0
  31              		@ frame_needed = 0, uses_anonymous_args = 0
  32              	.LVL0:
  33 0000 70B5     		push	{r4, r5, r6, lr}
  34              		.cfi_def_cfa_offset 16
  35              		.cfi_offset 4, -16
  36              		.cfi_offset 5, -12
  37              		.cfi_offset 6, -8
  38              		.cfi_offset 14, -4
  39              		.loc 1 73 0
  40 0002 0500     		movs	r5, r0
  74:display.c     **** // SPIM TX buffer 
ARM GAS  C:\Users\Ala\AppData\Local\Temp\ccIveMAV.s 			page 3


  75:display.c     ****     static uint8 mTxBuffer[TxPACKET_SIZE] = {0};
  76:display.c     **** // variable to populate Tx buffer with incomming message
  77:display.c     ****     uint8 i = 0;
  78:display.c     **** // set start of Tx message 
  79:display.c     ****     mTxBuffer[TxPACKET_SOP_POS] = (PACKET_SOP);
  41              		.loc 1 79 0
  42 0004 0120     		movs	r0, #1
  43              	.LVL1:
  44 0006 0C4B     		ldr	r3, .L7
  45 0008 0024     		movs	r4, #0
  46 000a 1870     		strb	r0, [r3]
  47              	.LVL2:
  48 000c 1800     		movs	r0, r3
  49              	.LVL3:
  50              	.L2:
  80:display.c     **** // populate buffer with incoming 24 characters of data    
  81:display.c     ****     for (i = 1; i<TxPACKET_SIZE-3; i++)
  82:display.c     ****     {
  83:display.c     ****         mTxBuffer[i] = (message_table[i-1]);
  51              		.loc 1 83 0 discriminator 3
  52 000e 2E5D     		ldrb	r6, [r5, r4]
  53 0010 0319     		adds	r3, r0, r4
  54 0012 0134     		adds	r4, r4, #1
  55              	.LVL4:
  56 0014 5E70     		strb	r6, [r3, #1]
  81:display.c     ****     {
  57              		.loc 1 81 0 discriminator 3
  58 0016 182C     		cmp	r4, #24
  59 0018 F9D1     		bne	.L2
  84:display.c     ****     }
  85:display.c     **** // populate control messages 1 and 2    
  86:display.c     ****     mTxBuffer[TxPACKET_CTRL1_POS] = disp_ctrl1;
  87:display.c     ****     mTxBuffer[TxPACKET_CTRL2_POS] = disp_ctrl2;
  88:display.c     ****     
  89:display.c     **** // set end of Tx message    
  90:display.c     ****     mTxBuffer[TxPACKET_EOP_POS] = (PACKET_EOP);
  60              		.loc 1 90 0
  61 001a 1723     		movs	r3, #23
  86:display.c     ****     mTxBuffer[TxPACKET_CTRL2_POS] = disp_ctrl2;
  62              		.loc 1 86 0
  63 001c 4176     		strb	r1, [r0, #25]
  91:display.c     **** 
  92:display.c     **** // Start transfer (message plus start/stop indicators
  93:display.c     ****     SPIM_SpiUartPutArray(mTxBuffer, TxPACKET_SIZE);
  64              		.loc 1 93 0
  65 001e 1C21     		movs	r1, #28
  66              	.LVL5:
  87:display.c     ****     
  67              		.loc 1 87 0
  68 0020 8276     		strb	r2, [r0, #26]
  90:display.c     **** 
  69              		.loc 1 90 0
  70 0022 C376     		strb	r3, [r0, #27]
  71              		.loc 1 93 0
  72 0024 FFF7FEFF 		bl	SPIM_SpiUartPutArray
  73              	.LVL6:
  74              	.L3:
ARM GAS  C:\Users\Ala\AppData\Local\Temp\ccIveMAV.s 			page 4


  94:display.c     **** 
  95:display.c     **** // Wait for the end of the transfer. The number of transmitted data
  96:display.c     **** // elements has to be equal to the number of received data elements.
  97:display.c     ****     while((TxPACKET_SIZE) != SPIM_SpiUartGetRxBufferSize())
  75              		.loc 1 97 0 discriminator 1
  76 0028 FFF7FEFF 		bl	SPIM_SpiUartGetRxBufferSize
  77              	.LVL7:
  78 002c 1C28     		cmp	r0, #28
  79 002e FBD1     		bne	.L3
  98:display.c     ****     {
  99:display.c     ****     }
 100:display.c     **** 
 101:display.c     **** // Clear dummy bytes from RX buffer
 102:display.c     ****     SPIM_SpiUartClearRxBuffer();
  80              		.loc 1 102 0
  81 0030 FFF7FEFF 		bl	SPIM_SpiUartClearRxBuffer
  82              	.LVL8:
 103:display.c     **** }
  83              		.loc 1 103 0
  84              		@ sp needed
  85              	.LVL9:
  86 0034 70BD     		pop	{r4, r5, r6, pc}
  87              	.L8:
  88 0036 C046     		.align	2
  89              	.L7:
  90 0038 00000000 		.word	.LANCHOR0
  91              		.cfi_endproc
  92              	.LFE32:
  93              		.size	SPIM_display_write, .-SPIM_display_write
  94              		.section	.text.SPIM_display_read,"ax",%progbits
  95              		.align	1
  96              		.global	SPIM_display_read
  97              		.code	16
  98              		.thumb_func
  99              		.type	SPIM_display_read, %function
 100              	SPIM_display_read:
 101              	.LFB33:
 104:display.c     **** 
 105:display.c     **** 
 106:display.c     **** 
 107:display.c     **** /*******************************************************************************
 108:display.c     **** * Function Name: SPIM_display_read
 109:display.c     **** ********************************************************************************
 110:display.c     **** * Summary:
 111:display.c     **** *  SPIM initiates the transmission of a dummy packet to collect the status
 112:display.c     **** *  information from the SPIS. After the transfer is complete the format of
 113:display.c     **** *  the packet is verified and the status is returned. If the format of the
 114:display.c     **** *  packet is invalid the unknown status is returned.
 115:display.c     **** *
 116:display.c     **** * Parameters:
 117:display.c     **** *  None
 118:display.c     **** *
 119:display.c     **** * Return:
 120:display.c     **** *  None
 121:display.c     **** *
 122:display.c     **** *******************************************************************************/
 123:display.c     **** uint32 SPIM_display_read(void)
ARM GAS  C:\Users\Ala\AppData\Local\Temp\ccIveMAV.s 			page 5


 124:display.c     **** {
 102              		.loc 1 124 0
 103              		.cfi_startproc
 104              		@ args = 0, pretend = 0, frame = 8
 105              		@ frame_needed = 0, uses_anonymous_args = 0
 106 0000 37B5     		push	{r0, r1, r2, r4, r5, lr}
 107              		.cfi_def_cfa_offset 24
 108              		.cfi_offset 0, -24
 109              		.cfi_offset 1, -20
 110              		.cfi_offset 2, -16
 111              		.cfi_offset 4, -12
 112              		.cfi_offset 5, -8
 113              		.cfi_offset 14, -4
 125:display.c     ****     uint8 tmpBuffer[RxPACKET_SIZE];
 126:display.c     ****     uint8 status;
 127:display.c     ****     uint32 i;
 128:display.c     **** 
 129:display.c     **** // Start transfer
 130:display.c     ****     SPIM_SpiUartPutArray(dummyBuffer, RxPACKET_SIZE);
 114              		.loc 1 130 0
 115 0002 0321     		movs	r1, #3
 116 0004 0E48     		ldr	r0, .L18
 117 0006 FFF7FEFF 		bl	SPIM_SpiUartPutArray
 118              	.LVL10:
 119              	.L10:
 131:display.c     **** 
 132:display.c     **** // Wait for the end of the transfer. The number of transmitted data
 133:display.c     **** // elements has to be equal to the number of received data elements.
 134:display.c     ****     while (RxPACKET_SIZE != SPIM_SpiUartGetRxBufferSize())
 120              		.loc 1 134 0 discriminator 1
 121 000a FFF7FEFF 		bl	SPIM_SpiUartGetRxBufferSize
 122              	.LVL11:
 123 000e 0328     		cmp	r0, #3
 124 0010 FBD1     		bne	.L10
 135:display.c     ****     {
 136:display.c     ****     }
 137:display.c     **** 
 138:display.c     **** // Clear dummy bytes from TX buffer
 139:display.c     ****     SPIM_SpiUartClearTxBuffer();
 125              		.loc 1 139 0
 126 0012 FFF7FEFF 		bl	SPIM_SpiUartClearTxBuffer
 127              	.LVL12:
 140:display.c     **** 
 141:display.c     **** // Read data from the RX buffer
 142:display.c     ****     i = 0u;
 128              		.loc 1 142 0
 129 0016 0025     		movs	r5, #0
 130              	.LVL13:
 131              	.L11:
 143:display.c     ****     while (0u != SPIM_SpiUartGetRxBufferSize())
 132              		.loc 1 143 0
 133 0018 FFF7FEFF 		bl	SPIM_SpiUartGetRxBufferSize
 134              	.LVL14:
 135 001c 01AC     		add	r4, sp, #4
 136 001e 0028     		cmp	r0, #0
 137 0020 04D0     		beq	.L17
 144:display.c     ****     {
ARM GAS  C:\Users\Ala\AppData\Local\Temp\ccIveMAV.s 			page 6


 145:display.c     ****         tmpBuffer[i] = SPIM_SpiUartReadRxData();
 138              		.loc 1 145 0
 139 0022 FFF7FEFF 		bl	SPIM_SpiUartReadRxData
 140              	.LVL15:
 141 0026 6055     		strb	r0, [r4, r5]
 146:display.c     **** //        UART_UartPutChar('0' + tmpBuffer[i]);
 147:display.c     ****         i++;
 142              		.loc 1 147 0
 143 0028 0135     		adds	r5, r5, #1
 144              	.LVL16:
 145 002a F5E7     		b	.L11
 146              	.L17:
 148:display.c     **** //        UART_UartPutString("A");
 149:display.c     ****         
 150:display.c     ****     }
 151:display.c     **** 
 152:display.c     ****  // Check packet format
 153:display.c     ****     if ((tmpBuffer[RxPACKET_SOP_POS] == PACKET_SOP) &&
 147              		.loc 1 153 0
 148 002c 2378     		ldrb	r3, [r4]
 154:display.c     ****         (tmpBuffer[RxPACKET_EOP_POS] == PACKET_EOP))
 155:display.c     ****     {
 156:display.c     ****  // Return status
 157:display.c     ****         status = tmpBuffer[RxPACKET_STS_POS];
 158:display.c     **** //        UART_UartPutString("B");
 159:display.c     ****     }
 160:display.c     ****     else
 161:display.c     ****     {
 162:display.c     ****  // Invalid packet format, return 0xFF status
 163:display.c     ****         status = 0xFF;
 149              		.loc 1 163 0
 150 002e FF30     		adds	r0, r0, #255
 153:display.c     ****         (tmpBuffer[RxPACKET_EOP_POS] == PACKET_EOP))
 151              		.loc 1 153 0
 152 0030 012B     		cmp	r3, #1
 153 0032 03D1     		bne	.L13
 153:display.c     ****         (tmpBuffer[RxPACKET_EOP_POS] == PACKET_EOP))
 154              		.loc 1 153 0 is_stmt 0 discriminator 1
 155 0034 A378     		ldrb	r3, [r4, #2]
 156 0036 172B     		cmp	r3, #23
 157 0038 00D1     		bne	.L13
 157:display.c     **** //        UART_UartPutString("B");
 158              		.loc 1 157 0 is_stmt 1
 159 003a 6078     		ldrb	r0, [r4, #1]
 160              	.LVL17:
 161              	.L13:
 164:display.c     **** //        UART_UartPutString("C");
 165:display.c     ****     }
 166:display.c     **** 
 167:display.c     ****     return (status);
 168:display.c     **** }
 162              		.loc 1 168 0
 163              		@ sp needed
 164              	.LVL18:
 165 003c 3EBD     		pop	{r1, r2, r3, r4, r5, pc}
 166              	.L19:
 167 003e C046     		.align	2
ARM GAS  C:\Users\Ala\AppData\Local\Temp\ccIveMAV.s 			page 7


 168              	.L18:
 169 0040 00000000 		.word	.LANCHOR1
 170              		.cfi_endproc
 171              	.LFE33:
 172              		.size	SPIM_display_read, .-SPIM_display_read
 173              		.section	.text.SPIM_SigmaDSP_init_SPI,"ax",%progbits
 174              		.align	1
 175              		.global	SPIM_SigmaDSP_init_SPI
 176              		.code	16
 177              		.thumb_func
 178              		.type	SPIM_SigmaDSP_init_SPI, %function
 179              	SPIM_SigmaDSP_init_SPI:
 180              	.LFB34:
 169:display.c     **** 
 170:display.c     **** /*******************************************************************************
 171:display.c     **** * Function Name: SPIM_SigmaDSP_init_SPI
 172:display.c     **** ********************************************************************************
 173:display.c     **** * Summary:
 174:display.c     **** *  This function toggles 3 times /CS line that selects SigmaDSP on SPI port
 175:display.c     **** *  This in turn enables serial port in SPI mode for further transactions. 
 176:display.c     **** *
 177:display.c     **** * Parameters:
 178:display.c     **** *  None
 179:display.c     **** *
 180:display.c     **** * Return:
 181:display.c     **** *  zero
 182:display.c     **** *
 183:display.c     **** *******************************************************************************/
 184:display.c     **** uint8 SPIM_SigmaDSP_init_SPI(void)
 185:display.c     **** {
 181              		.loc 1 185 0
 182              		.cfi_startproc
 183              		@ args = 0, pretend = 0, frame = 8
 184              		@ frame_needed = 0, uses_anonymous_args = 0
 185 0000 37B5     		push	{r0, r1, r2, r4, r5, lr}
 186              		.cfi_def_cfa_offset 24
 187              		.cfi_offset 0, -24
 188              		.cfi_offset 1, -20
 189              		.cfi_offset 2, -16
 190              		.cfi_offset 4, -12
 191              		.cfi_offset 5, -8
 192              		.cfi_offset 14, -4
 186:display.c     **** 
 187:display.c     **** // SPIM TX buffer 
 188:display.c     ****     uint8 localBuffer[1] = {0};
 193              		.loc 1 188 0
 194 0002 0020     		movs	r0, #0
 195 0004 01AC     		add	r4, sp, #4
 196 0006 2070     		strb	r0, [r4]
 189:display.c     **** // buffer value to 0 (only need to toggle CS line 3 times
 190:display.c     ****     localBuffer[0] = (0x00);
 191:display.c     ****     
 192:display.c     **** // set SPI slave select line to SigmaDSP
 193:display.c     ****     SPIM_SpiSetActiveSlaveSelect(SPIM_SPI_SLAVE_SELECT0); 
 197              		.loc 1 193 0
 198 0008 FFF7FEFF 		bl	SPIM_SpiSetActiveSlaveSelect
 199              	.LVL19:
ARM GAS  C:\Users\Ala\AppData\Local\Temp\ccIveMAV.s 			page 8


 194:display.c     **** 
 195:display.c     **** // sent SPI message - first /CS toggle
 196:display.c     ****     SPIM_SpiUartPutArray(localBuffer, 1);
 200              		.loc 1 196 0
 201 000c 0121     		movs	r1, #1
 202 000e 2000     		movs	r0, r4
 203 0010 FFF7FEFF 		bl	SPIM_SpiUartPutArray
 204              	.LVL20:
 205              	.L21:
 197:display.c     **** // Wait for the end of the transfer. The number of transmitted data
 198:display.c     **** // elements has to be equal to the number of received data elements.
 199:display.c     ****     while((1) != SPIM_SpiUartGetRxBufferSize())
 206              		.loc 1 199 0 discriminator 1
 207 0014 FFF7FEFF 		bl	SPIM_SpiUartGetRxBufferSize
 208              	.LVL21:
 209 0018 0500     		movs	r5, r0
 210 001a 0128     		cmp	r0, #1
 211 001c FAD1     		bne	.L21
 200:display.c     ****     {
 201:display.c     ****     }
 202:display.c     **** // Clear dummy bytes from RX buffer
 203:display.c     ****     SPIM_SpiUartClearRxBuffer(); 
 212              		.loc 1 203 0
 213 001e FFF7FEFF 		bl	SPIM_SpiUartClearRxBuffer
 214              	.LVL22:
 204:display.c     **** 
 205:display.c     **** // wait 100uS    
 206:display.c     ****     CyDelayUs(100);  
 215              		.loc 1 206 0
 216 0022 6420     		movs	r0, #100
 217 0024 FFF7FEFF 		bl	CyDelayUs
 218              	.LVL23:
 207:display.c     **** 
 208:display.c     **** // sent SPI message - second /CS toggle
 209:display.c     ****     SPIM_SpiUartPutArray(localBuffer, 1);
 219              		.loc 1 209 0
 220 0028 2900     		movs	r1, r5
 221 002a 2000     		movs	r0, r4
 222 002c FFF7FEFF 		bl	SPIM_SpiUartPutArray
 223              	.LVL24:
 224              	.L22:
 210:display.c     **** // Wait for the end of the transfer. The number of transmitted data
 211:display.c     **** // elements has to be equal to the number of received data elements.
 212:display.c     ****     while((1) != SPIM_SpiUartGetRxBufferSize())
 225              		.loc 1 212 0 discriminator 1
 226 0030 FFF7FEFF 		bl	SPIM_SpiUartGetRxBufferSize
 227              	.LVL25:
 228 0034 0500     		movs	r5, r0
 229 0036 0128     		cmp	r0, #1
 230 0038 FAD1     		bne	.L22
 213:display.c     ****     {
 214:display.c     ****     }
 215:display.c     **** // Clear dummy bytes from RX buffer
 216:display.c     ****     SPIM_SpiUartClearRxBuffer(); 
 231              		.loc 1 216 0
 232 003a FFF7FEFF 		bl	SPIM_SpiUartClearRxBuffer
 233              	.LVL26:
ARM GAS  C:\Users\Ala\AppData\Local\Temp\ccIveMAV.s 			page 9


 217:display.c     ****     
 218:display.c     **** // wait 100uS  
 219:display.c     ****     CyDelayUs(100); 
 234              		.loc 1 219 0
 235 003e 6420     		movs	r0, #100
 236 0040 FFF7FEFF 		bl	CyDelayUs
 237              	.LVL27:
 220:display.c     ****     
 221:display.c     **** // sent SPI message -third /CS toggle
 222:display.c     ****     SPIM_SpiUartPutArray(localBuffer, 1);
 238              		.loc 1 222 0
 239 0044 2900     		movs	r1, r5
 240 0046 2000     		movs	r0, r4
 241 0048 FFF7FEFF 		bl	SPIM_SpiUartPutArray
 242              	.LVL28:
 243              	.L23:
 223:display.c     **** // Wait for the end of the transfer. The number of transmitted data
 224:display.c     **** // elements has to be equal to the number of received data elements.
 225:display.c     ****     while((1) != SPIM_SpiUartGetRxBufferSize())
 244              		.loc 1 225 0 discriminator 1
 245 004c FFF7FEFF 		bl	SPIM_SpiUartGetRxBufferSize
 246              	.LVL29:
 247 0050 0400     		movs	r4, r0
 248 0052 0128     		cmp	r0, #1
 249 0054 FAD1     		bne	.L23
 226:display.c     ****     {
 227:display.c     ****     }
 228:display.c     **** // Clear dummy bytes from RX buffer
 229:display.c     ****     SPIM_SpiUartClearRxBuffer(); 
 250              		.loc 1 229 0
 251 0056 FFF7FEFF 		bl	SPIM_SpiUartClearRxBuffer
 252              	.LVL30:
 230:display.c     ****     
 231:display.c     **** // set SPI slave select line to display module
 232:display.c     ****     SPIM_SpiSetActiveSlaveSelect(SPIM_SPI_SLAVE_SELECT1); 
 253              		.loc 1 232 0
 254 005a 2000     		movs	r0, r4
 255 005c FFF7FEFF 		bl	SPIM_SpiSetActiveSlaveSelect
 256              	.LVL31:
 233:display.c     ****     
 234:display.c     ****     return 0;
 235:display.c     **** }
 257              		.loc 1 235 0
 258              		@ sp needed
 259 0060 0020     		movs	r0, #0
 260 0062 3EBD     		pop	{r1, r2, r3, r4, r5, pc}
 261              		.cfi_endproc
 262              	.LFE34:
 263              		.size	SPIM_SigmaDSP_init_SPI, .-SPIM_SigmaDSP_init_SPI
 264              		.section	.text.SPIM_SigmaDSP_write,"ax",%progbits
 265              		.align	1
 266              		.global	SPIM_SigmaDSP_write
 267              		.code	16
 268              		.thumb_func
 269              		.type	SPIM_SigmaDSP_write, %function
 270              	SPIM_SigmaDSP_write:
 271              	.LFB35:
ARM GAS  C:\Users\Ala\AppData\Local\Temp\ccIveMAV.s 			page 10


 236:display.c     **** 
 237:display.c     **** 
 238:display.c     **** 
 239:display.c     **** /*******************************************************************************
 240:display.c     **** * Function Name: SPIM_SigmaDSP_write
 241:display.c     **** ********************************************************************************
 242:display.c     **** * Summary:
 243:display.c     **** *  This function sents commands over SPI interface to SigmaDSP
 244:display.c     **** *  Commands are controled thru command parameter and are listed below. 
 245:display.c     **** *
 246:display.c     **** * Parameters:
 247:display.c     **** *  0 = Control = 0x052E -> 0x0000 = MUTE
 248:display.c     **** *  1 = Control = 0x052E -> 0x0001 = RPi
 249:display.c     **** *  2 = Control = 0x052E -> 0x0002 = DAB
 250:display.c     **** *  3 = Control = 0x052E -> 0x0003 = AuxIN
 251:display.c     **** *  4 = Control = 0x052E -> 0x0004 = BlueTooth Rx
 252:display.c     **** *  5 = LED = 0x0531 -> 0x0000 = OFF
 253:display.c     **** *  6 = LED = 0x0531 -> 0x0001 = ON
 254:display.c     **** *
 255:display.c     **** * Return:
 256:display.c     **** *  zero
 257:display.c     **** *
 258:display.c     **** *******************************************************************************/
 259:display.c     **** uint8 SPIM_SigmaDSP_write(uint8 command)
 260:display.c     **** {
 272              		.loc 1 260 0
 273              		.cfi_startproc
 274              		@ args = 0, pretend = 0, frame = 8
 275              		@ frame_needed = 0, uses_anonymous_args = 0
 276              	.LVL32:
 277 0000 13B5     		push	{r0, r1, r4, lr}
 278              		.cfi_def_cfa_offset 16
 279              		.cfi_offset 0, -16
 280              		.cfi_offset 1, -12
 281              		.cfi_offset 4, -8
 282              		.cfi_offset 14, -4
 261:display.c     **** // buffer for data to be sent over SPI to SigmaDSP 
 262:display.c     ****     uint8 writeBuffer[7] = {0};
 283              		.loc 1 262 0
 284 0002 0722     		movs	r2, #7
 260:display.c     **** // buffer for data to be sent over SPI to SigmaDSP 
 285              		.loc 1 260 0
 286 0004 0400     		movs	r4, r0
 287              		.loc 1 262 0
 288 0006 0021     		movs	r1, #0
 289 0008 6846     		mov	r0, sp
 290              	.LVL33:
 291 000a FFF7FEFF 		bl	memset
 292              	.LVL34:
 263:display.c     **** // first buffer byte set to value 0x00 indicating write data    
 264:display.c     ****     writeBuffer[0] = (0x00);
 265:display.c     **** // 3, 4 and 5 buffer bytes set to 0x00 all data sent over SPI have its MSBs = 0    
 266:display.c     ****     writeBuffer[3] = (0x00);
 267:display.c     ****     writeBuffer[4] = (0x00);    
 268:display.c     ****     writeBuffer[5] = (0x00);    
 269:display.c     **** 
 270:display.c     **** // set SPI slave select line to SigmaDSP
ARM GAS  C:\Users\Ala\AppData\Local\Temp\ccIveMAV.s 			page 11


 271:display.c     ****     SPIM_SpiSetActiveSlaveSelect(SPIM_SPI_SLAVE_SELECT0); 
 293              		.loc 1 271 0
 294 000e 0020     		movs	r0, #0
 295 0010 FFF7FEFF 		bl	SPIM_SpiSetActiveSlaveSelect
 296              	.LVL35:
 272:display.c     ****     
 273:display.c     ****     switch (command)
 297              		.loc 1 273 0
 298 0014 062C     		cmp	r4, #6
 299 0016 23D8     		bhi	.L28
 300 0018 0523     		movs	r3, #5
 274:display.c     ****     {    
 275:display.c     **** //  0 = Control = 0x052E -> 0x0000 = MUTE
 276:display.c     ****     case (0):
 277:display.c     ****         writeBuffer[1] = (0x05);
 278:display.c     ****         writeBuffer[2] = (0x2E);
 279:display.c     ****         writeBuffer[6] = (0x00);    
 280:display.c     ****         break;
 281:display.c     **** //  1 = Control = 0x052E -> 0x0001 = RPi
 282:display.c     ****     case (1):
 283:display.c     ****         writeBuffer[1] = (0x05);
 284:display.c     ****         writeBuffer[2] = (0x2E);
 285:display.c     ****         writeBuffer[6] = (0x01);    
 286:display.c     ****         break;
 287:display.c     **** //  2 = Control = 0x052E -> 0x0002 = DAB
 288:display.c     ****     case (2):
 289:display.c     ****         writeBuffer[1] = (0x05);
 290:display.c     ****         writeBuffer[2] = (0x2E);
 291:display.c     ****         writeBuffer[6] = (0x02);    
 292:display.c     ****         break;        
 293:display.c     **** //  3 = Control = 0x052E -> 0x0003 = AuxIN
 294:display.c     ****     case (3):
 295:display.c     ****         writeBuffer[1] = (0x05);
 296:display.c     ****         writeBuffer[2] = (0x2E);
 297:display.c     ****         writeBuffer[6] = (0x03);    
 298:display.c     ****         break;
 299:display.c     **** //  4 = Control = 0x052E -> 0x0004 = BlueTooth Rx
 300:display.c     ****     case (4):
 301:display.c     ****         writeBuffer[1] = (0x05);
 302:display.c     ****         writeBuffer[2] = (0x2E);
 303:display.c     ****         writeBuffer[6] = (0x04);    
 304:display.c     ****         break;        
 305:display.c     **** //  5 = LED = 0x0531 -> 0x0000 = OFF
 306:display.c     ****     case (5):
 307:display.c     ****         writeBuffer[1] = (0x05);
 308:display.c     ****         writeBuffer[2] = (0x31);
 309:display.c     ****         writeBuffer[6] = (0x00);    
 310:display.c     ****         break;
 311:display.c     **** //  6 = LED = 0x0531 -> 0x0001 = ON
 312:display.c     ****     case (6):
 313:display.c     ****         writeBuffer[1] = (0x05);
 301              		.loc 1 313 0
 302 001a 6A46     		mov	r2, sp
 273:display.c     ****     {    
 303              		.loc 1 273 0
 304 001c 2000     		movs	r0, r4
 305              		.loc 1 313 0
ARM GAS  C:\Users\Ala\AppData\Local\Temp\ccIveMAV.s 			page 12


 306 001e 5370     		strb	r3, [r2, #1]
 273:display.c     ****     {    
 307              		.loc 1 273 0
 308 0020 FFF7FEFF 		bl	__gnu_thumb1_case_uqi
 309              	.L30:
 310 0024 04       		.byte	(.L29-.L30)/2
 311 0025 06       		.byte	(.L31-.L30)/2
 312 0026 0A       		.byte	(.L32-.L30)/2
 313 0027 0E       		.byte	(.L33-.L30)/2
 314 0028 12       		.byte	(.L34-.L30)/2
 315 0029 16       		.byte	(.L35-.L30)/2
 316 002a 1A       		.byte	(.L36-.L30)/2
 317 002b 00       		.p2align 1
 318              	.L29:
 278:display.c     ****         writeBuffer[6] = (0x00);    
 319              		.loc 1 278 0
 320 002c 2E23     		movs	r3, #46
 321 002e 10E0     		b	.L40
 322              	.L31:
 284:display.c     ****         writeBuffer[6] = (0x01);    
 323              		.loc 1 284 0
 324 0030 2E23     		movs	r3, #46
 325 0032 9370     		strb	r3, [r2, #2]
 285:display.c     ****         break;
 326              		.loc 1 285 0
 327 0034 2D3B     		subs	r3, r3, #45
 328 0036 12E0     		b	.L39
 329              	.L32:
 290:display.c     ****         writeBuffer[6] = (0x02);    
 330              		.loc 1 290 0
 331 0038 2E23     		movs	r3, #46
 332 003a 9370     		strb	r3, [r2, #2]
 291:display.c     ****         break;        
 333              		.loc 1 291 0
 334 003c 2C3B     		subs	r3, r3, #44
 335 003e 0EE0     		b	.L39
 336              	.L33:
 296:display.c     ****         writeBuffer[6] = (0x03);    
 337              		.loc 1 296 0
 338 0040 2E23     		movs	r3, #46
 339 0042 9370     		strb	r3, [r2, #2]
 297:display.c     ****         break;
 340              		.loc 1 297 0
 341 0044 2B3B     		subs	r3, r3, #43
 342 0046 0AE0     		b	.L39
 343              	.L34:
 302:display.c     ****         writeBuffer[6] = (0x04);    
 344              		.loc 1 302 0
 345 0048 2E23     		movs	r3, #46
 346 004a 9370     		strb	r3, [r2, #2]
 303:display.c     ****         break;        
 347              		.loc 1 303 0
 348 004c 2A3B     		subs	r3, r3, #42
 349 004e 06E0     		b	.L39
 350              	.L35:
 308:display.c     ****         writeBuffer[6] = (0x00);    
 351              		.loc 1 308 0
ARM GAS  C:\Users\Ala\AppData\Local\Temp\ccIveMAV.s 			page 13


 352 0050 3123     		movs	r3, #49
 353              	.L40:
 354 0052 9370     		strb	r3, [r2, #2]
 309:display.c     ****         break;
 355              		.loc 1 309 0
 356 0054 0023     		movs	r3, #0
 357 0056 02E0     		b	.L39
 358              	.L36:
 314:display.c     ****         writeBuffer[2] = (0x31);
 359              		.loc 1 314 0
 360 0058 3123     		movs	r3, #49
 361 005a 9370     		strb	r3, [r2, #2]
 315:display.c     ****         writeBuffer[6] = (0x01);    
 362              		.loc 1 315 0
 363 005c 303B     		subs	r3, r3, #48
 364              	.L39:
 365 005e 9371     		strb	r3, [r2, #6]
 366              	.L28:
 316:display.c     ****         break;         
 317:display.c     ****     }        
 318:display.c     **** // Start buffer transfer over SPI interface to SigmaDSP
 319:display.c     ****     SPIM_SpiUartPutArray(writeBuffer, 7);
 367              		.loc 1 319 0
 368 0060 0721     		movs	r1, #7
 369 0062 6846     		mov	r0, sp
 370 0064 FFF7FEFF 		bl	SPIM_SpiUartPutArray
 371              	.LVL36:
 372              	.L37:
 320:display.c     **** 
 321:display.c     **** // Wait for the end of the transfer. The number of transmitted data
 322:display.c     **** // elements has to be equal to the number of received data elements.
 323:display.c     ****     while((7) != SPIM_SpiUartGetRxBufferSize())
 373              		.loc 1 323 0 discriminator 1
 374 0068 FFF7FEFF 		bl	SPIM_SpiUartGetRxBufferSize
 375              	.LVL37:
 376 006c 0728     		cmp	r0, #7
 377 006e FBD1     		bne	.L37
 324:display.c     ****     {
 325:display.c     ****     }
 326:display.c     **** // Clear dummy bytes from RX buffer
 327:display.c     ****     SPIM_SpiUartClearRxBuffer();  
 378              		.loc 1 327 0
 379 0070 FFF7FEFF 		bl	SPIM_SpiUartClearRxBuffer
 380              	.LVL38:
 328:display.c     **** 
 329:display.c     **** // set SPI slave select line to display module
 330:display.c     ****     SPIM_SpiSetActiveSlaveSelect(SPIM_SPI_SLAVE_SELECT1);     
 381              		.loc 1 330 0
 382 0074 0120     		movs	r0, #1
 383 0076 FFF7FEFF 		bl	SPIM_SpiSetActiveSlaveSelect
 384              	.LVL39:
 331:display.c     ****     
 332:display.c     ****     return 0;
 333:display.c     **** }
 385              		.loc 1 333 0
 386              		@ sp needed
 387 007a 0020     		movs	r0, #0
ARM GAS  C:\Users\Ala\AppData\Local\Temp\ccIveMAV.s 			page 14


 388 007c 16BD     		pop	{r1, r2, r4, pc}
 389              		.cfi_endproc
 390              	.LFE35:
 391              		.size	SPIM_SigmaDSP_write, .-SPIM_SigmaDSP_write
 392              		.section	.text.SPIM_SigmaDSP_read,"ax",%progbits
 393              		.align	1
 394              		.global	SPIM_SigmaDSP_read
 395              		.code	16
 396              		.thumb_func
 397              		.type	SPIM_SigmaDSP_read, %function
 398              	SPIM_SigmaDSP_read:
 399              	.LFB36:
 334:display.c     **** 
 335:display.c     **** 
 336:display.c     **** /*******************************************************************************
 337:display.c     **** * Function Name: SPIM_SigmaDSP_read
 338:display.c     **** ********************************************************************************
 339:display.c     **** * Summary:
 340:display.c     **** *  This function sents commands over SPI interface to SigmaDSP. Command itends 
 341:display.c     **** *  to read back SPI register values and return them as one 32 bit value.
 342:display.c     **** *
 343:display.c     **** * Parameters:
 344:display.c     **** * Parameters:
 345:display.c     **** *  0 = LEVEL = 0x0175
 346:display.c     **** *  1 = Spectrum analyzer -> Right = 0x0520
 347:display.c     **** *  2 = Spectrum analyzer -> Left = 0x051F
 348:display.c     **** *  3 = Spectrum analyzer -> Left&Right = 0x0521
 349:display.c     **** *  4 = CODE = 0x0029
 350:display.c     **** *
 351:display.c     **** * Return:
 352:display.c     **** *  0 = LEVEL -> 0x0000aabb
 353:display.c     **** *    -> aa - 0x00 - 0x10 - left channel 
 354:display.c     **** *    -> bb - 0x00 - 0x10 - right channel
 355:display.c     **** *  1 = Spectrum analyzer -> Right
 356:display.c     **** *    b31-b28 - NOT_USED
 357:display.c     **** *    b27-b24 - 31.5Hz
 358:display.c     **** *    b23-b20 - 63Hz
 359:display.c     **** *    b19-b16 - 125Hz
 360:display.c     **** *    b15-b12 - 250Hz
 361:display.c     **** *    b11-b8 - 500Hz
 362:display.c     **** *    b7-b4 - 1000Hz
 363:display.c     **** *    b3-b0 - 2000Hz        
 364:display.c     **** *  2 = Spectrum analyzer -> Left
 365:display.c     **** *    b31-b28 - NOT_USED
 366:display.c     **** *    b27-b24 - 31.5Hz
 367:display.c     **** *    b23-b20 - 63Hz
 368:display.c     **** *    b19-b16 - 125Hz
 369:display.c     **** *    b15-b12 - 250Hz
 370:display.c     **** *    b11-b8 - 500Hz
 371:display.c     **** *    b7-b4 - 1000Hz
 372:display.c     **** *    b3-b0 - 2000Hz        
 373:display.c     **** *  3 = Spectrum analyzer -> Left&Right
 374:display.c     **** *    LEFT
 375:display.c     **** *    b31-b28 - NOT_USED
 376:display.c     **** *    b27-b24 - 4000Hz
 377:display.c     **** *    b23-b20 - 8000Hz
 378:display.c     **** *    b19-b16 - 16000Hz
ARM GAS  C:\Users\Ala\AppData\Local\Temp\ccIveMAV.s 			page 15


 379:display.c     **** *    RIGHT
 380:display.c     **** *    b15-b12 - NOT_USED
 381:display.c     **** *    b11-b8 - 4000Hz
 382:display.c     **** *    b7-b4 - 8000Hz
 383:display.c     **** *    b3-b0 - 16000Hz
 384:display.c     **** *  4 = CODE 
 385:display.c     **** *   expected fixed value -> 32 bit word = 0xBE01BE02
 386:display.c     **** *
 387:display.c     **** *******************************************************************************/
 388:display.c     **** uint32 SPIM_SigmaDSP_read(uint8 command)
 389:display.c     **** {
 400              		.loc 1 389 0
 401              		.cfi_startproc
 402              		@ args = 0, pretend = 0, frame = 16
 403              		@ frame_needed = 0, uses_anonymous_args = 0
 404              	.LVL40:
 405 0000 7FB5     		push	{r0, r1, r2, r3, r4, r5, r6, lr}
 406              		.cfi_def_cfa_offset 32
 407              		.cfi_offset 0, -32
 408              		.cfi_offset 1, -28
 409              		.cfi_offset 2, -24
 410              		.cfi_offset 3, -20
 411              		.cfi_offset 4, -16
 412              		.cfi_offset 5, -12
 413              		.cfi_offset 6, -8
 414              		.cfi_offset 14, -4
 390:display.c     **** // variable used to return read command value    
 391:display.c     ****     uint32 status = 0;
 392:display.c     **** 
 393:display.c     **** // variable used by read buffer command    
 394:display.c     ****     uint8 i;
 395:display.c     **** 
 396:display.c     **** // buffer for data to be read over SPI from SigmaDSP 
 397:display.c     ****     uint8 readBuffer[7] = {0};
 398:display.c     **** // buffer for data to be sent over SPI to SigmaDSP 
 399:display.c     ****     uint8 writeBuffer[7] = {0};
 400:display.c     **** // first buffer byte set to value 0x01 indicating read data    
 401:display.c     ****     writeBuffer[0] = (0x01);
 415              		.loc 1 401 0
 416 0002 0126     		movs	r6, #1
 389:display.c     **** // variable used to return read command value    
 417              		.loc 1 389 0
 418 0004 0500     		movs	r5, r0
 397:display.c     **** // buffer for data to be sent over SPI to SigmaDSP 
 419              		.loc 1 397 0
 420 0006 0722     		movs	r2, #7
 421 0008 0021     		movs	r1, #0
 399:display.c     **** // first buffer byte set to value 0x01 indicating read data    
 422              		.loc 1 399 0
 423 000a 02AC     		add	r4, sp, #8
 397:display.c     **** // buffer for data to be sent over SPI to SigmaDSP 
 424              		.loc 1 397 0
 425 000c 6846     		mov	r0, sp
 426              	.LVL41:
 427 000e FFF7FEFF 		bl	memset
 428              	.LVL42:
 399:display.c     **** // first buffer byte set to value 0x01 indicating read data    
ARM GAS  C:\Users\Ala\AppData\Local\Temp\ccIveMAV.s 			page 16


 429              		.loc 1 399 0
 430 0012 0722     		movs	r2, #7
 431 0014 0021     		movs	r1, #0
 432 0016 2000     		movs	r0, r4
 433 0018 FFF7FEFF 		bl	memset
 434              	.LVL43:
 402:display.c     **** // 3, 4, 5 and 6 buffer bytes set to 0x00 - dummy bytes sent to only toggle SCLK line    
 403:display.c     ****     writeBuffer[3] = (0x00);
 404:display.c     ****     writeBuffer[4] = (0x00);    
 405:display.c     ****     writeBuffer[5] = (0x00); 
 406:display.c     ****     writeBuffer[6] = (0x00); 
 407:display.c     **** 
 408:display.c     **** // set SPI slave select line to SigmaDSP
 409:display.c     ****     SPIM_SpiSetActiveSlaveSelect(SPIM_SPI_SLAVE_SELECT0); 
 435              		.loc 1 409 0
 436 001c 0020     		movs	r0, #0
 401:display.c     **** // 3, 4, 5 and 6 buffer bytes set to 0x00 - dummy bytes sent to only toggle SCLK line    
 437              		.loc 1 401 0
 438 001e 2670     		strb	r6, [r4]
 439              		.loc 1 409 0
 440 0020 FFF7FEFF 		bl	SPIM_SpiSetActiveSlaveSelect
 441              	.LVL44:
 410:display.c     ****     
 411:display.c     **** // set read address based on incoming command
 412:display.c     ****     switch (command)
 442              		.loc 1 412 0
 443 0024 042D     		cmp	r5, #4
 444 0026 18D8     		bhi	.L42
 445 0028 2800     		movs	r0, r5
 446 002a FFF7FEFF 		bl	__gnu_thumb1_case_uqi
 447              	.L44:
 448 002e 03       		.byte	(.L43-.L44)/2
 449 002f 06       		.byte	(.L45-.L44)/2
 450 0030 0A       		.byte	(.L46-.L44)/2
 451 0031 0E       		.byte	(.L47-.L44)/2
 452 0032 12       		.byte	(.L48-.L44)/2
 453 0033 00       		.p2align 1
 454              	.L43:
 413:display.c     ****     {    
 414:display.c     **** //  0 = LEVEL = 0x0175
 415:display.c     ****     case (0):
 416:display.c     ****         writeBuffer[1] = (0x01);
 455              		.loc 1 416 0
 456 0034 6670     		strb	r6, [r4, #1]
 417:display.c     ****         writeBuffer[2] = (0x75);
 457              		.loc 1 417 0
 458 0036 7523     		movs	r3, #117
 459 0038 0EE0     		b	.L61
 460              	.L45:
 418:display.c     ****         break;
 419:display.c     **** //  1 = Spectrum analyzer -> Right = 0x0520
 420:display.c     ****     case (1):
 421:display.c     ****         writeBuffer[1] = (0x05);
 461              		.loc 1 421 0
 462 003a 0523     		movs	r3, #5
 463 003c 6370     		strb	r3, [r4, #1]
 422:display.c     ****         writeBuffer[2] = (0x20);
ARM GAS  C:\Users\Ala\AppData\Local\Temp\ccIveMAV.s 			page 17


 464              		.loc 1 422 0
 465 003e 1B33     		adds	r3, r3, #27
 466 0040 0AE0     		b	.L61
 467              	.L46:
 423:display.c     ****         break;
 424:display.c     **** //  2 = Spectrum analyzer -> Left = 0x051F
 425:display.c     ****     case (2):
 426:display.c     ****         writeBuffer[1] = (0x05);
 468              		.loc 1 426 0
 469 0042 0523     		movs	r3, #5
 470 0044 6370     		strb	r3, [r4, #1]
 427:display.c     ****         writeBuffer[2] = (0x1F);
 471              		.loc 1 427 0
 472 0046 1A33     		adds	r3, r3, #26
 473 0048 06E0     		b	.L61
 474              	.L47:
 428:display.c     ****         break;        
 429:display.c     **** //  3 = Spectrum analyzer -> Left&Right = 0x0521
 430:display.c     ****     case (3):
 431:display.c     ****         writeBuffer[1] = (0x05);
 475              		.loc 1 431 0
 476 004a 0523     		movs	r3, #5
 477 004c 6370     		strb	r3, [r4, #1]
 432:display.c     ****         writeBuffer[2] = (0x21);
 478              		.loc 1 432 0
 479 004e 1C33     		adds	r3, r3, #28
 480 0050 02E0     		b	.L61
 481              	.L48:
 433:display.c     ****         break;
 434:display.c     **** //  4 = CODE = 0x0029
 435:display.c     ****     case (4):
 436:display.c     ****         writeBuffer[1] = (0x00);
 482              		.loc 1 436 0
 483 0052 0023     		movs	r3, #0
 484 0054 6370     		strb	r3, [r4, #1]
 437:display.c     ****         writeBuffer[2] = (0x29);
 485              		.loc 1 437 0
 486 0056 2933     		adds	r3, r3, #41
 487              	.L61:
 488 0058 A370     		strb	r3, [r4, #2]
 489              	.L42:
 438:display.c     ****         break;        
 439:display.c     ****     }            
 440:display.c     ****     
 441:display.c     **** // Start SPI transfer
 442:display.c     ****     SPIM_SpiUartPutArray(writeBuffer, 7);
 490              		.loc 1 442 0
 491 005a 0721     		movs	r1, #7
 492 005c 2000     		movs	r0, r4
 493 005e FFF7FEFF 		bl	SPIM_SpiUartPutArray
 494              	.LVL45:
 495              	.L49:
 443:display.c     **** 
 444:display.c     **** // Wait for the end of the transfer. The number of transmitted data
 445:display.c     **** // elements has to be equal to the number of received data elements.
 446:display.c     ****     while (7 != SPIM_SpiUartGetRxBufferSize())
 496              		.loc 1 446 0 discriminator 1
ARM GAS  C:\Users\Ala\AppData\Local\Temp\ccIveMAV.s 			page 18


 497 0062 FFF7FEFF 		bl	SPIM_SpiUartGetRxBufferSize
 498              	.LVL46:
 499 0066 0728     		cmp	r0, #7
 500 0068 FBD1     		bne	.L49
 447:display.c     ****     {
 448:display.c     ****     }
 449:display.c     **** 
 450:display.c     **** // Clear dummy bytes from TX buffer
 451:display.c     ****     SPIM_SpiUartClearTxBuffer();
 501              		.loc 1 451 0
 502 006a FFF7FEFF 		bl	SPIM_SpiUartClearTxBuffer
 503              	.LVL47:
 452:display.c     **** 
 453:display.c     **** // Read data from the RX buffer
 454:display.c     ****     i = 0u;
 504              		.loc 1 454 0
 505 006e 0026     		movs	r6, #0
 506              	.LVL48:
 507              	.L50:
 455:display.c     ****     while (0u != SPIM_SpiUartGetRxBufferSize())
 508              		.loc 1 455 0
 509 0070 FFF7FEFF 		bl	SPIM_SpiUartGetRxBufferSize
 510              	.LVL49:
 511 0074 041E     		subs	r4, r0, #0
 512 0076 06D0     		beq	.L63
 456:display.c     ****     {
 457:display.c     ****         readBuffer[i] = SPIM_SpiUartReadRxData();
 513              		.loc 1 457 0
 514 0078 FFF7FEFF 		bl	SPIM_SpiUartReadRxData
 515              	.LVL50:
 516 007c 6B46     		mov	r3, sp
 517 007e 9855     		strb	r0, [r3, r6]
 458:display.c     **** //        UART_UartPutChar('0' + readBuffer[i]);
 459:display.c     ****         i++;
 518              		.loc 1 459 0
 519 0080 0136     		adds	r6, r6, #1
 520              	.LVL51:
 521 0082 F6B2     		uxtb	r6, r6
 522              	.LVL52:
 523 0084 F4E7     		b	.L50
 524              	.L63:
 460:display.c     ****     }
 461:display.c     ****     
 462:display.c     **** // Clear dummy bytes from RX buffer
 463:display.c     ****     SPIM_SpiUartClearRxBuffer();
 525              		.loc 1 463 0
 526 0086 FFF7FEFF 		bl	SPIM_SpiUartClearRxBuffer
 527              	.LVL53:
 464:display.c     ****     
 465:display.c     ****     
 466:display.c     **** // format read back values into one 32 bit variable that is returned by 
 467:display.c     **** // this function
 468:display.c     ****     switch (command)
 528              		.loc 1 468 0
 529 008a 042D     		cmp	r5, #4
 530 008c 15D8     		bhi	.L52
 531 008e 2800     		movs	r0, r5
ARM GAS  C:\Users\Ala\AppData\Local\Temp\ccIveMAV.s 			page 19


 469:display.c     ****     {    
 470:display.c     **** // 0 = LEVEL -> 0x0000aabb
 471:display.c     **** //    -> aa - 0x00 - 0x10 - left channel 
 472:display.c     **** //    -> bb - 0x00 - 0x10 - right channel
 473:display.c     ****     case (0):
 474:display.c     ****         status = readBuffer[5];
 475:display.c     ****         status = status << 8;
 476:display.c     ****         status = status | readBuffer[6];
 477:display.c     ****         break;
 478:display.c     **** // 1 = Spectrum analyzer -> Right
 479:display.c     **** // b31-b28 - NOT_USED
 480:display.c     **** // b27-b24 - 31.5Hz
 481:display.c     **** // b23-b20 - 63Hz
 482:display.c     **** // b19-b16 - 125Hz
 483:display.c     **** // b15-b12 - 250Hz
 484:display.c     **** // b11-b8 - 500Hz
 485:display.c     **** // b7-b4 - 1000Hz
 486:display.c     **** // b3-b0 - 2000Hz        
 487:display.c     ****     case (1):
 488:display.c     ****         status = readBuffer[3];
 489:display.c     ****         status = status << 8;
 490:display.c     ****         status = status | readBuffer[4];
 491:display.c     ****         status = status << 8;
 492:display.c     ****         status = status | readBuffer[5];
 493:display.c     ****         status = status << 8;
 494:display.c     ****         status = status | readBuffer[6];
 495:display.c     ****         break;
 496:display.c     **** //  2 = Spectrum analyzer -> Left
 497:display.c     **** // b31-b28 - NOT_USED
 498:display.c     **** // b27-b24 - 31.5Hz
 499:display.c     **** // b23-b20 - 63Hz
 500:display.c     **** // b19-b16 - 125Hz
 501:display.c     **** // b15-b12 - 250Hz
 502:display.c     **** // b11-b8 - 500Hz
 503:display.c     **** // b7-b4 - 1000Hz
 504:display.c     **** // b3-b0 - 2000Hz        
 505:display.c     ****     case (2):
 506:display.c     ****         status = readBuffer[3];
 507:display.c     ****         status = status << 8;
 508:display.c     ****         status = status | readBuffer[4];
 509:display.c     ****         status = status << 8;
 510:display.c     ****         status = status | readBuffer[5];
 511:display.c     ****         status = status << 8;
 512:display.c     ****         status = status | readBuffer[6];
 513:display.c     ****         break;        
 514:display.c     **** //  3 = Spectrum analyzer -> Left&Right
 515:display.c     **** // LEFT
 516:display.c     **** // b31-b28 - NOT_USED
 517:display.c     **** // b27-b24 - 4000Hz
 518:display.c     **** // b23-b20 - 8000Hz
 519:display.c     **** // b19-b16 - 16000Hz
 520:display.c     **** // RIGHT
 521:display.c     **** // b15-b12 - NOT_USED
 522:display.c     **** // b11-b8 - 4000Hz
 523:display.c     **** // b7-b4 - 8000Hz
 524:display.c     **** // b3-b0 - 16000Hz
 525:display.c     ****     case (3):
ARM GAS  C:\Users\Ala\AppData\Local\Temp\ccIveMAV.s 			page 20


 526:display.c     ****         status = readBuffer[3];
 527:display.c     ****         status = status << 8;
 528:display.c     ****         status = status | readBuffer[4];
 529:display.c     ****         status = status << 8;
 530:display.c     ****         status = status | readBuffer[5];
 531:display.c     ****         status = status << 8;
 532:display.c     ****         status = status | readBuffer[6];
 533:display.c     ****         break;
 534:display.c     **** //  4 = CODE 
 535:display.c     **** // expected fixed value -> 32 bit word = 0xBE01BE02
 536:display.c     ****     case (4):
 537:display.c     ****         status = readBuffer[3];
 532              		.loc 1 537 0
 533 0090 6B46     		mov	r3, sp
 468:display.c     ****     {    
 534              		.loc 1 468 0
 535 0092 FFF7FEFF 		bl	__gnu_thumb1_case_uqi
 536              	.L54:
 537 0096 03       		.byte	(.L53-.L54)/2
 538 0097 06       		.byte	(.L58-.L54)/2
 539 0098 06       		.byte	(.L58-.L54)/2
 540 0099 06       		.byte	(.L58-.L54)/2
 541 009a 06       		.byte	(.L58-.L54)/2
 542 009b 00       		.p2align 1
 543              	.L53:
 474:display.c     ****         status = status << 8;
 544              		.loc 1 474 0
 545 009c 5C79     		ldrb	r4, [r3, #5]
 546              	.LVL54:
 475:display.c     ****         status = status | readBuffer[6];
 547              		.loc 1 475 0
 548 009e 2402     		lsls	r4, r4, #8
 549              	.LVL55:
 550 00a0 09E0     		b	.L62
 551              	.LVL56:
 552              	.L58:
 553              		.loc 1 537 0
 554 00a2 DC78     		ldrb	r4, [r3, #3]
 555              	.LVL57:
 538:display.c     ****         status = status << 8;
 539:display.c     ****         status = status | readBuffer[4];
 556              		.loc 1 539 0
 557 00a4 1B79     		ldrb	r3, [r3, #4]
 538:display.c     ****         status = status << 8;
 558              		.loc 1 538 0
 559 00a6 2402     		lsls	r4, r4, #8
 560              	.LVL58:
 561              		.loc 1 539 0
 562 00a8 1C43     		orrs	r4, r3
 563              	.LVL59:
 540:display.c     ****         status = status << 8;
 541:display.c     ****         status = status | readBuffer[5];
 564              		.loc 1 541 0
 565 00aa 6B46     		mov	r3, sp
 566 00ac 5B79     		ldrb	r3, [r3, #5]
 540:display.c     ****         status = status << 8;
 567              		.loc 1 540 0
ARM GAS  C:\Users\Ala\AppData\Local\Temp\ccIveMAV.s 			page 21


 568 00ae 2402     		lsls	r4, r4, #8
 569              	.LVL60:
 570              		.loc 1 541 0
 571 00b0 1C43     		orrs	r4, r3
 572              	.LVL61:
 542:display.c     ****         status = status << 8;
 543:display.c     ****         status = status | readBuffer[6];
 573              		.loc 1 543 0
 574 00b2 6B46     		mov	r3, sp
 542:display.c     ****         status = status << 8;
 575              		.loc 1 542 0
 576 00b4 2402     		lsls	r4, r4, #8
 577              	.LVL62:
 578              	.L62:
 579              		.loc 1 543 0
 580 00b6 9B79     		ldrb	r3, [r3, #6]
 581 00b8 1C43     		orrs	r4, r3
 582              	.LVL63:
 583              	.L52:
 544:display.c     ****         break;        
 545:display.c     ****     }                
 546:display.c     **** 
 547:display.c     **** // TO BE REMOVED TO BE REMOVED   
 548:display.c     **** /*    
 549:display.c     ****     if (((status & 0xF0000000) >> 28) >0x09)
 550:display.c     ****     {
 551:display.c     ****         UART_UartPutChar('0' + (((status & 0xF0000000) >> 28) + 0x07));
 552:display.c     ****     }
 553:display.c     ****     else
 554:display.c     ****        {
 555:display.c     ****            UART_UartPutChar('0' + ((status & 0xF0000000) >> 28));
 556:display.c     ****        }
 557:display.c     ****     
 558:display.c     ****     if (((status & 0x0F000000) >> 24) >0x09)
 559:display.c     ****     {
 560:display.c     ****         UART_UartPutChar('0' + (((status & 0x0F000000) >> 24) + 0x07));
 561:display.c     ****     }
 562:display.c     ****     else
 563:display.c     ****        {
 564:display.c     ****            UART_UartPutChar('0' + ((status & 0x0F000000) >> 24));
 565:display.c     ****        }
 566:display.c     ****     
 567:display.c     ****     if (((status & 0x00F00000) >> 20) >0x09)
 568:display.c     ****     {
 569:display.c     ****         UART_UartPutChar('0' + (((status & 0x00F00000) >> 20) + 0x07));
 570:display.c     ****     }
 571:display.c     ****     else
 572:display.c     ****        {
 573:display.c     ****            UART_UartPutChar('0' + ((status & 0x00F00000) >> 20));
 574:display.c     ****        }
 575:display.c     ****     
 576:display.c     ****     if (((status & 0x000F0000) >> 16) >0x09)
 577:display.c     ****     {
 578:display.c     ****         UART_UartPutChar('0' + (((status & 0x000F0000) >> 16) + 0x07));
 579:display.c     ****     }
 580:display.c     ****     else
 581:display.c     ****        {
ARM GAS  C:\Users\Ala\AppData\Local\Temp\ccIveMAV.s 			page 22


 582:display.c     ****            UART_UartPutChar('0' + ((status & 0x000F0000) >> 16));
 583:display.c     ****        }
 584:display.c     ****     
 585:display.c     ****     if (((status & 0x0000F000) >> 12) >0x09)
 586:display.c     ****     {
 587:display.c     ****         UART_UartPutChar('0' + (((status & 0x0000F000) >> 12) + 0x07));
 588:display.c     ****     }
 589:display.c     ****     else
 590:display.c     ****        {
 591:display.c     ****            UART_UartPutChar('0' + ((status & 0x0000F000) >> 12));
 592:display.c     ****        }    
 593:display.c     ****     
 594:display.c     ****     if (((status & 0x00000F00) >> 8) >0x09)
 595:display.c     ****     {
 596:display.c     ****         UART_UartPutChar('0' + (((status & 0x00000F00) >> 8) + 0x07));
 597:display.c     ****     }
 598:display.c     ****     else
 599:display.c     ****        {
 600:display.c     ****            UART_UartPutChar('0' + ((status & 0x00000F00) >> 8));
 601:display.c     ****        }
 602:display.c     ****  
 603:display.c     ****     if (((status & 0x000000F0) >> 4) >0x09)
 604:display.c     ****     {
 605:display.c     ****         UART_UartPutChar('0' + (((status & 0x000000F0) >> 4) + 0x07));
 606:display.c     ****     }
 607:display.c     ****     else
 608:display.c     ****        {
 609:display.c     ****            UART_UartPutChar('0' + ((status & 0x000000F0) >> 4));
 610:display.c     ****        }
 611:display.c     ****             
 612:display.c     ****     if ((status & 0x0000000F) >0x09)
 613:display.c     ****     {
 614:display.c     ****        UART_UartPutChar('0' + ((status & 0x0000000F) + 0x07));
 615:display.c     ****     }
 616:display.c     ****     else
 617:display.c     ****         {
 618:display.c     ****             UART_UartPutChar('0' + (status & 0x0000000F));
 619:display.c     ****         }
 620:display.c     ****     
 621:display.c     ****     UART_UartPutString("\n\r");
 622:display.c     **** */    
 623:display.c     **** // TO BE REMOVED TO BE REMOVED
 624:display.c     ****     
 625:display.c     ****     
 626:display.c     **** // set SPI slave select line to display module
 627:display.c     ****     SPIM_SpiSetActiveSlaveSelect(SPIM_SPI_SLAVE_SELECT1);   
 584              		.loc 1 627 0
 585 00ba 0120     		movs	r0, #1
 586 00bc FFF7FEFF 		bl	SPIM_SpiSetActiveSlaveSelect
 587              	.LVL64:
 628:display.c     ****     
 629:display.c     ****     return (status);
 630:display.c     **** }
 588              		.loc 1 630 0
 589 00c0 2000     		movs	r0, r4
 590 00c2 04B0     		add	sp, sp, #16
 591              		@ sp needed
ARM GAS  C:\Users\Ala\AppData\Local\Temp\ccIveMAV.s 			page 23


 592              	.LVL65:
 593              	.LVL66:
 594 00c4 70BD     		pop	{r4, r5, r6, pc}
 595              		.cfi_endproc
 596              	.LFE36:
 597              		.size	SPIM_SigmaDSP_read, .-SPIM_SigmaDSP_read
 598              		.global	dummyBuffer
 599              		.comm	DISPLAY_UPDATE,1,1
 600              		.comm	DATALINK_TABLE_COUNTER_MAX,1,1
 601              		.comm	DATALINK_TABLE_COUNTER,1,1
 602              		.comm	DATALINK_TABLE,64,1
 603              		.comm	PWR_OK_LONG_V,1,1
 604              		.comm	MODE_LONG_V,1,1
 605              		.comm	PWR_OK_SHORT_V,1,1
 606              		.comm	MODE_SHORT_V,1,1
 607              		.section	.rodata
 608              		.set	.LANCHOR1,. + 0
 609              		.type	dummyBuffer, %object
 610              		.size	dummyBuffer, 28
 611              	dummyBuffer:
 612 0000 FF       		.byte	-1
 613 0001 FF       		.byte	-1
 614 0002 FF       		.byte	-1
 615 0003 00000000 		.space	25
 615      00000000 
 615      00000000 
 615      00000000 
 615      00000000 
 616              		.bss
 617              		.set	.LANCHOR0,. + 0
 618              		.type	mTxBuffer.6410, %object
 619              		.size	mTxBuffer.6410, 28
 620              	mTxBuffer.6410:
 621 0000 00000000 		.space	28
 621      00000000 
 621      00000000 
 621      00000000 
 621      00000000 
 622              		.text
 623              	.Letext0:
 624              		.file 2 "Generated_Source\\PSoC4/cytypes.h"
 625              		.file 3 "./inputs.h"
 626              		.file 4 "Generated_Source\\PSoC4/SPIM_SPI_UART.h"
 627              		.file 5 "Generated_Source\\PSoC4/CyLib.h"