ARM GAS  C:\Users\Ala\AppData\Local\Temp\ccBA1yfk.s 			page 1


   1              		.syntax unified
   2              		.cpu cortex-m0
   3              		.fpu softvfp
   4              		.eabi_attribute 20, 1
   5              		.eabi_attribute 21, 1
   6              		.eabi_attribute 23, 3
   7              		.eabi_attribute 24, 1
   8              		.eabi_attribute 25, 1
   9              		.eabi_attribute 26, 1
  10              		.eabi_attribute 30, 6
  11              		.eabi_attribute 34, 0
  12              		.eabi_attribute 18, 4
  13              		.thumb
  14              		.syntax unified
  15              		.file	"Em_EEPROM_1.c"
  16              		.text
  17              	.Ltext0:
  18              		.cfi_sections	.debug_frame
  19              		.global	Em_EEPROM_1_config
  20              		.section	.rodata
  21              		.align	2
  22              		.type	Em_EEPROM_1_config, %object
  23              		.size	Em_EEPROM_1_config, 16
  24              	Em_EEPROM_1_config:
  25 0000 00010000 		.word	256
  26 0004 01000000 		.word	1
  27 0008 00       		.byte	0
  28 0009 00       		.byte	0
  29 000a 0000     		.space	2
  30 000c 00000000 		.word	0
  31              		.comm	Em_EEPROM_1_context,28,4
  32              		.section	.text.Em_EEPROM_1_Init,"ax",%progbits
  33              		.align	2
  34              		.global	Em_EEPROM_1_Init
  35              		.code	16
  36              		.thumb_func
  37              		.type	Em_EEPROM_1_Init, %function
  38              	Em_EEPROM_1_Init:
  39              	.LFB0:
  40              		.file 1 "Generated_Source\\PSoC4\\Em_EEPROM_1.c"
   1:Generated_Source\PSoC4/Em_EEPROM_1.c **** /*******************************************************************************
   2:Generated_Source\PSoC4/Em_EEPROM_1.c **** * File Name: Em_EEPROM_1.c
   3:Generated_Source\PSoC4/Em_EEPROM_1.c **** * Version 2.20
   4:Generated_Source\PSoC4/Em_EEPROM_1.c **** *
   5:Generated_Source\PSoC4/Em_EEPROM_1.c **** * Description:
   6:Generated_Source\PSoC4/Em_EEPROM_1.c **** *  This file provides source code of the API for the Emulated EEPROM
   7:Generated_Source\PSoC4/Em_EEPROM_1.c **** *  Component.
   8:Generated_Source\PSoC4/Em_EEPROM_1.c **** *
   9:Generated_Source\PSoC4/Em_EEPROM_1.c **** ********************************************************************************
  10:Generated_Source\PSoC4/Em_EEPROM_1.c **** * Copyright 2013-2017, Cypress Semiconductor Corporation. All rights reserved.
  11:Generated_Source\PSoC4/Em_EEPROM_1.c **** * You may use this file only in accordance with the license, terms, conditions,
  12:Generated_Source\PSoC4/Em_EEPROM_1.c **** * disclaimers, and limitations in the end user license agreement accompanying
  13:Generated_Source\PSoC4/Em_EEPROM_1.c **** * the software package with which this file was provided.
  14:Generated_Source\PSoC4/Em_EEPROM_1.c **** *******************************************************************************/
  15:Generated_Source\PSoC4/Em_EEPROM_1.c **** 
  16:Generated_Source\PSoC4/Em_EEPROM_1.c **** #include "Em_EEPROM_1.h"
  17:Generated_Source\PSoC4/Em_EEPROM_1.c **** 
ARM GAS  C:\Users\Ala\AppData\Local\Temp\ccBA1yfk.s 			page 2


  18:Generated_Source\PSoC4/Em_EEPROM_1.c **** /** The instance-specific configuration structure. This should be used in the
  19:Generated_Source\PSoC4/Em_EEPROM_1.c **** *  associated Em_EEPROM_1_Init() function.
  20:Generated_Source\PSoC4/Em_EEPROM_1.c **** */
  21:Generated_Source\PSoC4/Em_EEPROM_1.c **** cy_stc_eeprom_config_t const Em_EEPROM_1_config =
  22:Generated_Source\PSoC4/Em_EEPROM_1.c **** {
  23:Generated_Source\PSoC4/Em_EEPROM_1.c ****     256U,
  24:Generated_Source\PSoC4/Em_EEPROM_1.c ****     1U,
  25:Generated_Source\PSoC4/Em_EEPROM_1.c ****     0U,
  26:Generated_Source\PSoC4/Em_EEPROM_1.c ****     0U,
  27:Generated_Source\PSoC4/Em_EEPROM_1.c ****     0U
  28:Generated_Source\PSoC4/Em_EEPROM_1.c **** };
  29:Generated_Source\PSoC4/Em_EEPROM_1.c **** 
  30:Generated_Source\PSoC4/Em_EEPROM_1.c **** /** The instance-specific context structure that holds all required information
  31:Generated_Source\PSoC4/Em_EEPROM_1.c **** * about an EEPROM instance. This structure is filled by the Em_EEPROM
  32:Generated_Source\PSoC4/Em_EEPROM_1.c **** * library Init() function and used by EEPROM library functions.
  33:Generated_Source\PSoC4/Em_EEPROM_1.c **** */
  34:Generated_Source\PSoC4/Em_EEPROM_1.c **** cy_stc_eeprom_context_t Em_EEPROM_1_context;
  35:Generated_Source\PSoC4/Em_EEPROM_1.c **** 
  36:Generated_Source\PSoC4/Em_EEPROM_1.c **** /* For PSoC 6 place EEPROM into Emulated EEPROM flash area */
  37:Generated_Source\PSoC4/Em_EEPROM_1.c **** #if ((CY_PSOC6) && (Em_EEPROM_1_STORAGE_EM_EEPROM))
  38:Generated_Source\PSoC4/Em_EEPROM_1.c **** 
  39:Generated_Source\PSoC4/Em_EEPROM_1.c ****     CY_SECTION(".cy_em_eeprom") CY_ALIGN(CY_FLASH_SIZEOF_ROW)
  40:Generated_Source\PSoC4/Em_EEPROM_1.c ****     const uint8 Em_EEPROM_1_em_EepromStorage[Em_EEPROM_1_ACTUAL_SIZE] = {0u};
  41:Generated_Source\PSoC4/Em_EEPROM_1.c **** 
  42:Generated_Source\PSoC4/Em_EEPROM_1.c **** #endif /* ((CY_PSOC6) && (Em_EEPROM_1_STORAGE_EM_EEPROM)) */
  43:Generated_Source\PSoC4/Em_EEPROM_1.c **** 
  44:Generated_Source\PSoC4/Em_EEPROM_1.c **** 
  45:Generated_Source\PSoC4/Em_EEPROM_1.c **** /*******************************************************************************
  46:Generated_Source\PSoC4/Em_EEPROM_1.c **** * Function Name: Em_EEPROM_1_Init
  47:Generated_Source\PSoC4/Em_EEPROM_1.c **** ********************************************************************************
  48:Generated_Source\PSoC4/Em_EEPROM_1.c **** *
  49:Generated_Source\PSoC4/Em_EEPROM_1.c **** * Fills the start address of the EEPROM to the component configuration structure
  50:Generated_Source\PSoC4/Em_EEPROM_1.c **** * and invokes Cy_Em_EEPROM_Init() function. In case of PSoC 6 the function 
  51:Generated_Source\PSoC4/Em_EEPROM_1.c **** * is located in Cy_Em_EEPROM middleware library which is part of PDL. In case if
  52:Generated_Source\PSoC4/Em_EEPROM_1.c **** * it is utilized in the design based on non-PSOC 6 device the function is 
  53:Generated_Source\PSoC4/Em_EEPROM_1.c **** * located in internal design wide resource component - Em_EEPROM_Dynamic.
  54:Generated_Source\PSoC4/Em_EEPROM_1.c **** *
  55:Generated_Source\PSoC4/Em_EEPROM_1.c **** * \param startAddress
  56:Generated_Source\PSoC4/Em_EEPROM_1.c **** * Start address of the EEPROM storage. For PSoC 6, if Emulated EEPROM is 
  57:Generated_Source\PSoC4/Em_EEPROM_1.c **** * selected for EEPROM storage, the start address will be overwritten to some 
  58:Generated_Source\PSoC4/Em_EEPROM_1.c **** * address from Emulated EEPROM flash area.
  59:Generated_Source\PSoC4/Em_EEPROM_1.c **** *
  60:Generated_Source\PSoC4/Em_EEPROM_1.c **** * \return
  61:Generated_Source\PSoC4/Em_EEPROM_1.c **** * A result of function execution of type cy_en_em_eeprom_status_t.
  62:Generated_Source\PSoC4/Em_EEPROM_1.c **** *
  63:Generated_Source\PSoC4/Em_EEPROM_1.c **** *******************************************************************************/
  64:Generated_Source\PSoC4/Em_EEPROM_1.c **** cy_en_em_eeprom_status_t Em_EEPROM_1_Init(uint32 startAddress)
  65:Generated_Source\PSoC4/Em_EEPROM_1.c **** {
  41              		.loc 1 65 0
  42              		.cfi_startproc
  43              		@ args = 0, pretend = 0, frame = 32
  44              		@ frame_needed = 1, uses_anonymous_args = 0
  45 0000 90B5     		push	{r4, r7, lr}
  46              		.cfi_def_cfa_offset 12
  47              		.cfi_offset 4, -12
  48              		.cfi_offset 7, -8
  49              		.cfi_offset 14, -4
ARM GAS  C:\Users\Ala\AppData\Local\Temp\ccBA1yfk.s 			page 3


  50 0002 89B0     		sub	sp, sp, #36
  51              		.cfi_def_cfa_offset 48
  52 0004 00AF     		add	r7, sp, #0
  53              		.cfi_def_cfa_register 7
  54 0006 7860     		str	r0, [r7, #4]
  66:Generated_Source\PSoC4/Em_EEPROM_1.c ****     cy_en_em_eeprom_status_t ret;
  67:Generated_Source\PSoC4/Em_EEPROM_1.c ****     cy_stc_eeprom_config_t config;
  68:Generated_Source\PSoC4/Em_EEPROM_1.c **** 
  69:Generated_Source\PSoC4/Em_EEPROM_1.c ****     config.blockingWrite =      Em_EEPROM_1_config.blockingWrite;
  55              		.loc 1 69 0
  56 0008 0022     		movs	r2, #0
  57 000a 0C23     		movs	r3, #12
  58 000c FB18     		adds	r3, r7, r3
  59 000e 5A72     		strb	r2, [r3, #9]
  70:Generated_Source\PSoC4/Em_EEPROM_1.c ****     config.eepromSize =         Em_EEPROM_1_config.eepromSize;
  60              		.loc 1 70 0
  61 0010 8023     		movs	r3, #128
  62 0012 5A00     		lsls	r2, r3, #1
  63 0014 0C23     		movs	r3, #12
  64 0016 FB18     		adds	r3, r7, r3
  65 0018 1A60     		str	r2, [r3]
  71:Generated_Source\PSoC4/Em_EEPROM_1.c ****     config.redundantCopy =      Em_EEPROM_1_config.redundantCopy;
  66              		.loc 1 71 0
  67 001a 0022     		movs	r2, #0
  68 001c 0C23     		movs	r3, #12
  69 001e FB18     		adds	r3, r7, r3
  70 0020 1A72     		strb	r2, [r3, #8]
  72:Generated_Source\PSoC4/Em_EEPROM_1.c ****     config.wearLevelingFactor = Em_EEPROM_1_config.wearLevelingFactor;
  71              		.loc 1 72 0
  72 0022 0122     		movs	r2, #1
  73 0024 0C23     		movs	r3, #12
  74 0026 FB18     		adds	r3, r7, r3
  75 0028 5A60     		str	r2, [r3, #4]
  73:Generated_Source\PSoC4/Em_EEPROM_1.c ****     
  74:Generated_Source\PSoC4/Em_EEPROM_1.c **** #if ((CY_PSOC6) && (Em_EEPROM_1_STORAGE_EM_EEPROM))
  75:Generated_Source\PSoC4/Em_EEPROM_1.c ****     /* For PSoC 6, if Emulated EEPROM is selected - override the eeprom start 
  76:Generated_Source\PSoC4/Em_EEPROM_1.c ****     * address.
  77:Generated_Source\PSoC4/Em_EEPROM_1.c ****     */
  78:Generated_Source\PSoC4/Em_EEPROM_1.c ****     config.userFlashStartAddr = (uint32)Em_EEPROM_1_em_EepromStorage;
  79:Generated_Source\PSoC4/Em_EEPROM_1.c **** #else
  80:Generated_Source\PSoC4/Em_EEPROM_1.c ****     config.userFlashStartAddr = startAddress;
  76              		.loc 1 80 0
  77 002a 0C23     		movs	r3, #12
  78 002c FB18     		adds	r3, r7, r3
  79 002e 7A68     		ldr	r2, [r7, #4]
  80 0030 DA60     		str	r2, [r3, #12]
  81:Generated_Source\PSoC4/Em_EEPROM_1.c **** #endif /* ((CY_PSOC6) && (Em_EEPROM_1_STORAGE_EM_EEPROM)) */
  82:Generated_Source\PSoC4/Em_EEPROM_1.c ****         
  83:Generated_Source\PSoC4/Em_EEPROM_1.c ****     ret = Cy_Em_EEPROM_Init(&config, &Em_EEPROM_1_context);
  81              		.loc 1 83 0
  82 0032 1F23     		movs	r3, #31
  83 0034 FC18     		adds	r4, r7, r3
  84 0036 084A     		ldr	r2, .L3
  85 0038 0C23     		movs	r3, #12
  86 003a FB18     		adds	r3, r7, r3
  87 003c 1100     		movs	r1, r2
  88 003e 1800     		movs	r0, r3
ARM GAS  C:\Users\Ala\AppData\Local\Temp\ccBA1yfk.s 			page 4


  89 0040 FFF7FEFF 		bl	Cy_Em_EEPROM_Init
  90 0044 0300     		movs	r3, r0
  91 0046 2370     		strb	r3, [r4]
  84:Generated_Source\PSoC4/Em_EEPROM_1.c **** 
  85:Generated_Source\PSoC4/Em_EEPROM_1.c ****     return(ret);
  92              		.loc 1 85 0
  93 0048 1F23     		movs	r3, #31
  94 004a FB18     		adds	r3, r7, r3
  95 004c 1B78     		ldrb	r3, [r3]
  86:Generated_Source\PSoC4/Em_EEPROM_1.c **** }
  96              		.loc 1 86 0
  97 004e 1800     		movs	r0, r3
  98 0050 BD46     		mov	sp, r7
  99 0052 09B0     		add	sp, sp, #36
 100              		@ sp needed
 101 0054 90BD     		pop	{r4, r7, pc}
 102              	.L4:
 103 0056 C046     		.align	2
 104              	.L3:
 105 0058 00000000 		.word	Em_EEPROM_1_context
 106              		.cfi_endproc
 107              	.LFE0:
 108              		.size	Em_EEPROM_1_Init, .-Em_EEPROM_1_Init
 109              		.text
 110              	.Letext0:
 111              		.file 2 "Generated_Source\\PSoC4\\cytypes.h"
 112              		.file 3 "Generated_Source\\PSoC4\\cy_em_eeprom.h"