ARM GAS  C:\Users\Ala\AppData\Local\Temp\ccIdkMgM.s 			page 1


   1              		.syntax unified
   2              		.cpu cortex-m0
   3              		.fpu softvfp
   4              		.eabi_attribute 20, 1
   5              		.eabi_attribute 21, 1
   6              		.eabi_attribute 23, 3
   7              		.eabi_attribute 24, 1
   8              		.eabi_attribute 25, 1
   9              		.eabi_attribute 26, 1
  10              		.eabi_attribute 30, 4
  11              		.eabi_attribute 34, 0
  12              		.eabi_attribute 18, 4
  13              		.thumb
  14              		.syntax unified
  15              		.file	"inputs.c"
  16              		.text
  17              	.Ltext0:
  18              		.cfi_sections	.debug_frame
  19              		.section	.text.PWR_OK_MODE_SHORT_ISR,"ax",%progbits
  20              		.align	1
  21              		.global	PWR_OK_MODE_SHORT_ISR
  22              		.code	16
  23              		.thumb_func
  24              		.type	PWR_OK_MODE_SHORT_ISR, %function
  25              	PWR_OK_MODE_SHORT_ISR:
  26              	.LFB32:
  27              		.file 1 "inputs.c"
   1:inputs.c      **** /* ========================================
   2:inputs.c      ****  *
   3:inputs.c      ****  * Copyright HEMI, 2020
   4:inputs.c      ****  * All Rights Reserved
   5:inputs.c      ****  * UNPUBLISHED, LICENSED SOFTWARE.
   6:inputs.c      ****  * 
   7:inputs.c      ****  * Functions used by BeoModern main PSoC to monitor input informaiton coming from
   8:inputs.c      ****  * push buttons and over DataLink interface
   9:inputs.c      ****  *
  10:inputs.c      ****  * CONFIDENTIAL AND PROPRIETARY INFORMATION
  11:inputs.c      ****  * WHICH IS THE PROPERTY OF HEMI.
  12:inputs.c      ****  *
  13:inputs.c      ****  * ========================================
  14:inputs.c      **** */
  15:inputs.c      **** #include <project.h>
  16:inputs.c      **** #include <modes.h>
  17:inputs.c      **** #include <inputs.h>
  18:inputs.c      **** 
  19:inputs.c      **** /* global variables */
  20:inputs.c      **** uint8 MODE_SWITCH = 0;    /* switch storing info on MODE button long press */
  21:inputs.c      **** uint8 PWR_OK_SWITCH = 0;  /* switch storing info on Power/OK button long press */
  22:inputs.c      **** 
  23:inputs.c      **** uint8 MODE_SHORT_V = 0;     /* variable storing MODE short button press event */
  24:inputs.c      **** uint8 PWR_OK_SHORT_V = 0;   /* variable storing PWR/OK short button press event */
  25:inputs.c      **** uint8 MODE_LONG_V = 0;      /* variable storing MODE long button press event  */
  26:inputs.c      **** uint8 PWR_OK_LONG_V = 0;    /* variable storing PWR/OK long button press event  */
  27:inputs.c      **** 
  28:inputs.c      **** 
  29:inputs.c      **** // DATALINK DATA ARRAY
  30:inputs.c      **** uint8 DATALINK_TABLE[64] = {0};
ARM GAS  C:\Users\Ala\AppData\Local\Temp\ccIdkMgM.s 			page 2


  31:inputs.c      **** uint8 DATALINK_TABLE_COUNTER = 0;
  32:inputs.c      **** uint8 DATALINK_TABLE_COUNTER_MAX = 0;
  33:inputs.c      **** 
  34:inputs.c      **** 
  35:inputs.c      **** 
  36:inputs.c      **** /*******************************************************************************
  37:inputs.c      **** * Function Name: CY_ISR(PWR_OK_MODE_SHORT_ISR)
  38:inputs.c      **** ********************************************************************************
  39:inputs.c      **** * Summary:
  40:inputs.c      **** *  The Interrupt Service Routine. Triggered when PWR_OK or MODE button was released 
  41:inputs.c      **** *  after pressing. Looks on faling edge. 
  42:inputs.c      **** *  If falling edge is later than time assigned to long press, routine clears long 
  43:inputs.c      **** *  press flag only.
  44:inputs.c      **** *  If falling edge is earlier than time assigned to long press, routine blinks 
  45:inputs.c      **** *  LED and set apriopriate variable MODE_SHORT_V or PWR_OK_SHORT_V
  46:inputs.c      **** *  After that interrupt is cleared (after waiting fo 2mS to debounce.     
  47:inputs.c      **** *   
  48:inputs.c      **** * Parameters:
  49:inputs.c      **** *  None
  50:inputs.c      **** *
  51:inputs.c      **** * Return:
  52:inputs.c      **** *  None
  53:inputs.c      **** *
  54:inputs.c      **** *******************************************************************************/
  55:inputs.c      **** CY_ISR(PWR_OK_MODE_SHORT_ISR)
  56:inputs.c      **** {
  28              		.loc 1 56 0
  29              		.cfi_startproc
  30              		@ args = 0, pretend = 0, frame = 0
  31              		@ frame_needed = 0, uses_anonymous_args = 0
  57:inputs.c      **** // Check if interrupt is triggered by MODE push button release (rising edge)
  58:inputs.c      ****     if(PWR_OK_MODE_INTSTAT & 0x40u)
  32              		.loc 1 58 0
  33 0000 0F4B     		ldr	r3, .L13
  56:inputs.c      **** // Check if interrupt is triggered by MODE push button release (rising edge)
  34              		.loc 1 56 0
  35 0002 10B5     		push	{r4, lr}
  36              		.cfi_def_cfa_offset 8
  37              		.cfi_offset 4, -8
  38              		.cfi_offset 14, -4
  39              		.loc 1 58 0
  40 0004 1A68     		ldr	r2, [r3]
  41 0006 5206     		lsls	r2, r2, #25
  42 0008 08D5     		bpl	.L2
  59:inputs.c      ****     { 
  60:inputs.c      ****     if (MODE_SWITCH == 1)       // check if rising edge is after long press time
  43              		.loc 1 60 0
  44 000a 0E4A     		ldr	r2, .L13+4
  45 000c 1178     		ldrb	r1, [r2]
  46 000e 0129     		cmp	r1, #1
  47 0010 02D1     		bne	.L3
  61:inputs.c      ****         {
  62:inputs.c      ****             MODE_SWITCH = 0;    // if it is, clear flag and exit
  48              		.loc 1 62 0
  49 0012 0021     		movs	r1, #0
  50 0014 1170     		strb	r1, [r2]
  51 0016 01E0     		b	.L2
ARM GAS  C:\Users\Ala\AppData\Local\Temp\ccIdkMgM.s 			page 3


  52              	.L3:
  63:inputs.c      ****         }
  64:inputs.c      ****         else
  65:inputs.c      ****         {
  66:inputs.c      ****             MODE_SHORT_V = 1;   // if it is not, set variale indicating MODE short press
  53              		.loc 1 66 0
  54 0018 0121     		movs	r1, #1
  55 001a 5170     		strb	r1, [r2, #1]
  56              	.L2:
  67:inputs.c      ****         }
  68:inputs.c      ****     }
  69:inputs.c      **** // Check if interrupt is triggered by PWR_OK push button release (rising edge)
  70:inputs.c      ****     if(PWR_OK_MODE_INTSTAT & 0x80u)
  57              		.loc 1 70 0
  58 001c 1B68     		ldr	r3, [r3]
  59 001e 1B06     		lsls	r3, r3, #24
  60 0020 08D5     		bpl	.L4
  71:inputs.c      ****     {
  72:inputs.c      ****     if (PWR_OK_SWITCH == 1)     // check if rising edge is after long press time
  61              		.loc 1 72 0
  62 0022 084B     		ldr	r3, .L13+4
  63 0024 9A78     		ldrb	r2, [r3, #2]
  64 0026 012A     		cmp	r2, #1
  65 0028 02D1     		bne	.L5
  73:inputs.c      ****         {
  74:inputs.c      ****             PWR_OK_SWITCH = 0;  // if it is, clear flag and exit
  66              		.loc 1 74 0
  67 002a 0022     		movs	r2, #0
  68 002c 9A70     		strb	r2, [r3, #2]
  69 002e 01E0     		b	.L4
  70              	.L5:
  75:inputs.c      ****         }
  76:inputs.c      ****         else
  77:inputs.c      ****         {
  78:inputs.c      ****             PWR_OK_SHORT_V = 1;   // if it is not, set variale indicating PWR_OK short press
  71              		.loc 1 78 0
  72 0030 0122     		movs	r2, #1
  73 0032 DA70     		strb	r2, [r3, #3]
  74              	.L4:
  79:inputs.c      ****         }
  80:inputs.c      ****     } 
  81:inputs.c      **** // Wait 2mS before clearing interrupt to debounce push buttons
  82:inputs.c      ****     CyDelay(2);
  75              		.loc 1 82 0
  76 0034 0220     		movs	r0, #2
  77 0036 FFF7FEFF 		bl	CyDelay
  78              	.LVL0:
  83:inputs.c      **** // Clear interrupt 
  84:inputs.c      ****     PWR_OK_MODE_ClearInterrupt();  
  85:inputs.c      **** }
  79              		.loc 1 85 0
  80              		@ sp needed
  84:inputs.c      **** }
  81              		.loc 1 84 0
  82 003a FFF7FEFF 		bl	PWR_OK_MODE_ClearInterrupt
  83              	.LVL1:
  84              		.loc 1 85 0
ARM GAS  C:\Users\Ala\AppData\Local\Temp\ccIdkMgM.s 			page 4


  85 003e 10BD     		pop	{r4, pc}
  86              	.L14:
  87              		.align	2
  88              	.L13:
  89 0040 10030440 		.word	1074004752
  90 0044 00000000 		.word	.LANCHOR0
  91              		.cfi_endproc
  92              	.LFE32:
  93              		.size	PWR_OK_MODE_SHORT_ISR, .-PWR_OK_MODE_SHORT_ISR
  94              		.section	.text.MODE_LONG_ISR,"ax",%progbits
  95              		.align	1
  96              		.global	MODE_LONG_ISR
  97              		.code	16
  98              		.thumb_func
  99              		.type	MODE_LONG_ISR, %function
 100              	MODE_LONG_ISR:
 101              	.LFB33:
  86:inputs.c      **** 
  87:inputs.c      **** 
  88:inputs.c      **** /*******************************************************************************
  89:inputs.c      **** * Function Name: CY_ISR(MODE_LONG_ISR)
  90:inputs.c      **** ********************************************************************************
  91:inputs.c      **** * Summary:
  92:inputs.c      **** *  The Interrupt Service Routine. Triggered when Timer started by MODE button  
  93:inputs.c      **** *  reaches pre-defined count. 
  94:inputs.c      **** *  When triggered, interrupt source is cleared, MODE_SWITCH variable is set and
  95:inputs.c      **** *  LED blinks
  96:inputs.c      **** *   
  97:inputs.c      **** * Parameters:
  98:inputs.c      **** *  None
  99:inputs.c      **** *
 100:inputs.c      **** * Return:
 101:inputs.c      **** *  None
 102:inputs.c      **** *
 103:inputs.c      **** *******************************************************************************/
 104:inputs.c      **** CY_ISR(MODE_LONG_ISR)
 105:inputs.c      **** {
 102              		.loc 1 105 0
 103              		.cfi_startproc
 104              		@ args = 0, pretend = 0, frame = 0
 105              		@ frame_needed = 0, uses_anonymous_args = 0
 106 0000 10B5     		push	{r4, lr}
 107              		.cfi_def_cfa_offset 8
 108              		.cfi_offset 4, -8
 109              		.cfi_offset 14, -4
 106:inputs.c      ****     /* Check interrupt source and clear Interrupt */
 107:inputs.c      ****     if (Timer_1_GetInterruptSourceMasked() == Timer_1_INTR_MASK_TC)
 110              		.loc 1 107 0
 111 0002 FFF7FEFF 		bl	Timer_1_GetInterruptSourceMasked
 112              	.LVL2:
 113 0006 0128     		cmp	r0, #1
 114 0008 04D1     		bne	.L15
 108:inputs.c      ****     {
 109:inputs.c      ****         MODE_SWITCH = 1;        // set switch to prevent recognizing falling edge as short press
 115              		.loc 1 109 0
 116 000a 034B     		ldr	r3, .L17
 117 000c 1870     		strb	r0, [r3]
ARM GAS  C:\Users\Ala\AppData\Local\Temp\ccIdkMgM.s 			page 5


 110:inputs.c      ****         MODE_LONG_V = 1;        // set variable indicating long press
 118              		.loc 1 110 0
 119 000e 1871     		strb	r0, [r3, #4]
 111:inputs.c      ****         Timer_1_ClearInterrupt(Timer_1_INTR_MASK_TC);
 120              		.loc 1 111 0
 121 0010 FFF7FEFF 		bl	Timer_1_ClearInterrupt
 122              	.LVL3:
 123              	.L15:
 112:inputs.c      ****                                 // clear interrupt source from timer
 113:inputs.c      ****     }
 114:inputs.c      **** }
 124              		.loc 1 114 0
 125              		@ sp needed
 126 0014 10BD     		pop	{r4, pc}
 127              	.L18:
 128 0016 C046     		.align	2
 129              	.L17:
 130 0018 00000000 		.word	.LANCHOR0
 131              		.cfi_endproc
 132              	.LFE33:
 133              		.size	MODE_LONG_ISR, .-MODE_LONG_ISR
 134              		.section	.text.PWR_OK_LONG_ISR,"ax",%progbits
 135              		.align	1
 136              		.global	PWR_OK_LONG_ISR
 137              		.code	16
 138              		.thumb_func
 139              		.type	PWR_OK_LONG_ISR, %function
 140              	PWR_OK_LONG_ISR:
 141              	.LFB34:
 115:inputs.c      **** 
 116:inputs.c      **** 
 117:inputs.c      **** /*******************************************************************************
 118:inputs.c      **** * Function Name: CY_ISR(PWR_OK_LONG_ISR)
 119:inputs.c      **** ********************************************************************************
 120:inputs.c      **** * Summary:
 121:inputs.c      **** *  The Interrupt Service Routine. Triggered when Timer started by PWR_OK button  
 122:inputs.c      **** *  reaches pre-defined count. 
 123:inputs.c      **** *  When triggered, interrupt source is cleared, PWR_OK_SWITCH variable is set and
 124:inputs.c      **** *  LED blinks
 125:inputs.c      **** *   
 126:inputs.c      **** * Parameters:
 127:inputs.c      **** *  None
 128:inputs.c      **** *
 129:inputs.c      **** * Return:
 130:inputs.c      **** *  None
 131:inputs.c      **** *
 132:inputs.c      **** ********************************************************************************/
 133:inputs.c      **** CY_ISR(PWR_OK_LONG_ISR)
 134:inputs.c      **** {
 142              		.loc 1 134 0
 143              		.cfi_startproc
 144              		@ args = 0, pretend = 0, frame = 0
 145              		@ frame_needed = 0, uses_anonymous_args = 0
 146 0000 10B5     		push	{r4, lr}
 147              		.cfi_def_cfa_offset 8
 148              		.cfi_offset 4, -8
 149              		.cfi_offset 14, -4
ARM GAS  C:\Users\Ala\AppData\Local\Temp\ccIdkMgM.s 			page 6


 135:inputs.c      ****     /* Check interrupt source and clear Interrupt */
 136:inputs.c      ****     if (Timer_2_GetInterruptSourceMasked() == Timer_2_INTR_MASK_TC)
 150              		.loc 1 136 0
 151 0002 FFF7FEFF 		bl	Timer_2_GetInterruptSourceMasked
 152              	.LVL4:
 153 0006 0128     		cmp	r0, #1
 154 0008 04D1     		bne	.L19
 137:inputs.c      ****     {
 138:inputs.c      ****         PWR_OK_SWITCH = 1;      // set switch to prevent recognizing falling edge as short press
 155              		.loc 1 138 0
 156 000a 034B     		ldr	r3, .L21
 157 000c 9870     		strb	r0, [r3, #2]
 139:inputs.c      ****         PWR_OK_LONG_V = 1;      // set variable indicating long press
 158              		.loc 1 139 0
 159 000e 5871     		strb	r0, [r3, #5]
 140:inputs.c      ****         Timer_2_ClearInterrupt(Timer_2_INTR_MASK_TC);
 160              		.loc 1 140 0
 161 0010 FFF7FEFF 		bl	Timer_2_ClearInterrupt
 162              	.LVL5:
 163              	.L19:
 141:inputs.c      ****                                 // clear interrupt source from timer
 142:inputs.c      ****     }
 143:inputs.c      **** }
 164              		.loc 1 143 0
 165              		@ sp needed
 166 0014 10BD     		pop	{r4, pc}
 167              	.L22:
 168 0016 C046     		.align	2
 169              	.L21:
 170 0018 00000000 		.word	.LANCHOR0
 171              		.cfi_endproc
 172              	.LFE34:
 173              		.size	PWR_OK_LONG_ISR, .-PWR_OK_LONG_ISR
 174              		.section	.text.DATALINK_INTRRUPTHandler,"ax",%progbits
 175              		.align	1
 176              		.global	DATALINK_INTRRUPTHandler
 177              		.code	16
 178              		.thumb_func
 179              		.type	DATALINK_INTRRUPTHandler, %function
 180              	DATALINK_INTRRUPTHandler:
 181              	.LFB35:
 144:inputs.c      **** 
 145:inputs.c      **** 
 146:inputs.c      **** /*******************************************************************************
 147:inputs.c      **** * Function Name: CY_ISR(DATALINK_INTRRUPTHandler)
 148:inputs.c      **** ********************************************************************************
 149:inputs.c      **** * Summary:
 150:inputs.c      **** *  The Interrupt Service Routine. Triggered by DATALINK counter exceeding timer 
 151:inputs.c      **** *  count (STOP condition) or when timer FIFO is full (4 new bits)
 152:inputs.c      **** *   
 153:inputs.c      **** * Parameters:
 154:inputs.c      **** *  Routine operates on 3 global vatiables (due to the fact that it can caleld in 
 155:inputs.c      **** *  the middle of incomming command to clear 4 byte FIFO.
 156:inputs.c      **** *  DATALINK_TABLE[64] - to store incoming information about timer values
 157:inputs.c      **** *  DATALINK_TABLE_COUNTER - to store current posiiton in incoming command
 158:inputs.c      **** *  DATALINK_TABLE_COUNTER_MAX - to store and indicate to the system that new 
 159:inputs.c      **** *  command arrived. Serving routine (datalink)decoder) operate on it plus 
ARM GAS  C:\Users\Ala\AppData\Local\Temp\ccIdkMgM.s 			page 7


 160:inputs.c      **** *  DATALINK_TABLE content. 
 161:inputs.c      **** *
 162:inputs.c      **** * Return:
 163:inputs.c      **** *  Sets value of DATALINK_TABLE_COUNTER_MAX to the size of last DATALINK command.
 164:inputs.c      **** *
 165:inputs.c      **** ********************************************************************************/
 166:inputs.c      **** CY_ISR(DATALINK_INTRRUPTHandler)
 167:inputs.c      **** {
 182              		.loc 1 167 0
 183              		.cfi_startproc
 184              		@ args = 0, pretend = 0, frame = 0
 185              		@ frame_needed = 0, uses_anonymous_args = 0
 186              	.LVL6:
 187 0000 F8B5     		push	{r3, r4, r5, r6, r7, lr}
 188              		.cfi_def_cfa_offset 24
 189              		.cfi_offset 3, -24
 190              		.cfi_offset 4, -20
 191              		.cfi_offset 5, -16
 192              		.cfi_offset 6, -12
 193              		.cfi_offset 7, -8
 194              		.cfi_offset 14, -4
 168:inputs.c      **** // variable storing info on DATALINK interrupt source
 169:inputs.c      ****     uint8 DATALINK_STATUS = 0; 
 170:inputs.c      **** // read DATALINK timer status regiister    
 171:inputs.c      ****     DATALINK_STATUS = DATALINK_Timer_ReadStatusRegister();
 195              		.loc 1 171 0
 196 0002 FFF7FEFF 		bl	DATALINK_Timer_ReadStatusRegister
 197              	.LVL7:
 198 0006 0600     		movs	r6, r0
 199              	.LVL8:
 172:inputs.c      **** // Check if interrupt came from Timer Counter expired (indicating end of new command)
 173:inputs.c      ****     if (0u != (DATALINK_STATUS & 0x01))
 200              		.loc 1 173 0
 201 0008 C307     		lsls	r3, r0, #31
 202 000a 15D5     		bpl	.L25
 174:inputs.c      ****     {
 175:inputs.c      **** // flush all data that is still in FIFO        
 176:inputs.c      ****         while (0u != (DATALINK_Timer_ReadStatusRegister() & 0x08))
 203              		.loc 1 176 0
 204 000c 0827     		movs	r7, #8
 205              	.LVL9:
 206              	.L31:
 207 000e FFF7FEFF 		bl	DATALINK_Timer_ReadStatusRegister
 208              	.LVL10:
 209 0012 124C     		ldr	r4, .L33
 210 0014 3840     		ands	r0, r7
 211 0016 08D0     		beq	.L32
 177:inputs.c      ****         {
 178:inputs.c      **** // increase table pointer            
 179:inputs.c      ****             DATALINK_TABLE_COUNTER = DATALINK_TABLE_COUNTER + 1;
 212              		.loc 1 179 0
 213 0018 A579     		ldrb	r5, [r4, #6]
 214 001a 0135     		adds	r5, r5, #1
 215 001c EDB2     		uxtb	r5, r5
 216 001e A571     		strb	r5, [r4, #6]
 180:inputs.c      **** // store data from fifo into table            
 181:inputs.c      ****             DATALINK_TABLE[DATALINK_TABLE_COUNTER] = DATALINK_Timer_ReadCapture();
ARM GAS  C:\Users\Ala\AppData\Local\Temp\ccIdkMgM.s 			page 8


 217              		.loc 1 181 0
 218 0020 FFF7FEFF 		bl	DATALINK_Timer_ReadCapture
 219              	.LVL11:
 220 0024 0734     		adds	r4, r4, #7
 221 0026 6055     		strb	r0, [r4, r5]
 222 0028 F1E7     		b	.L31
 223              	.L32:
 182:inputs.c      ****         }
 183:inputs.c      **** // store latest table data size - this will indicate that new command was received
 184:inputs.c      ****         DATALINK_TABLE_COUNTER_MAX = DATALINK_TABLE_COUNTER;
 224              		.loc 1 184 0
 225 002a 2300     		movs	r3, r4
 226 002c A279     		ldrb	r2, [r4, #6]
 227 002e 4733     		adds	r3, r3, #71
 228 0030 1A70     		strb	r2, [r3]
 185:inputs.c      **** // reset table data pointer for next command        
 186:inputs.c      ****         DATALINK_TABLE_COUNTER = 0;
 229              		.loc 1 186 0
 230 0032 A071     		strb	r0, [r4, #6]
 187:inputs.c      **** // clear all remining interrupts        
 188:inputs.c      ****         DATALINK_INTRRUPT_ClearPending();
 231              		.loc 1 188 0
 232 0034 FFF7FEFF 		bl	DATALINK_INTRRUPT_ClearPending
 233              	.LVL12:
 234              	.L25:
 189:inputs.c      ****     }
 190:inputs.c      ****   
 191:inputs.c      **** // Check interrupt came from FIFO full (4 new bits)
 192:inputs.c      ****     if (0u != (DATALINK_STATUS & DATALINK_Timer_STATUS_FIFOFULL))
 193:inputs.c      ****     {
 194:inputs.c      **** // flush all data that is still in FIFO           
 195:inputs.c      ****         while (0u != (DATALINK_Timer_ReadStatusRegister() & 0x08))
 235              		.loc 1 195 0
 236 0038 0825     		movs	r5, #8
 192:inputs.c      ****     {
 237              		.loc 1 192 0
 238 003a 7307     		lsls	r3, r6, #29
 239 003c 0DD5     		bpl	.L23
 240              	.L30:
 241              		.loc 1 195 0
 242 003e FFF7FEFF 		bl	DATALINK_Timer_ReadStatusRegister
 243              	.LVL13:
 244 0042 2842     		tst	r0, r5
 245 0044 09D0     		beq	.L23
 196:inputs.c      ****         {
 197:inputs.c      **** // increase table pointer             
 198:inputs.c      ****             DATALINK_TABLE_COUNTER = DATALINK_TABLE_COUNTER + 1;
 246              		.loc 1 198 0
 247 0046 054E     		ldr	r6, .L33
 248 0048 B479     		ldrb	r4, [r6, #6]
 249 004a 0134     		adds	r4, r4, #1
 250 004c E4B2     		uxtb	r4, r4
 251 004e B471     		strb	r4, [r6, #6]
 199:inputs.c      **** // store data from fifo into table             
 200:inputs.c      ****             DATALINK_TABLE[DATALINK_TABLE_COUNTER] = DATALINK_Timer_ReadCapture();
 252              		.loc 1 200 0
 253 0050 FFF7FEFF 		bl	DATALINK_Timer_ReadCapture
ARM GAS  C:\Users\Ala\AppData\Local\Temp\ccIdkMgM.s 			page 9


 254              	.LVL14:
 255 0054 F31D     		adds	r3, r6, #7
 256 0056 1855     		strb	r0, [r3, r4]
 257 0058 F1E7     		b	.L30
 258              	.L23:
 201:inputs.c      ****         }
 202:inputs.c      ****     }
 203:inputs.c      **** }
 259              		.loc 1 203 0
 260              		@ sp needed
 261 005a F8BD     		pop	{r3, r4, r5, r6, r7, pc}
 262              	.L34:
 263              		.align	2
 264              	.L33:
 265 005c 00000000 		.word	.LANCHOR0
 266              		.cfi_endproc
 267              	.LFE35:
 268              		.size	DATALINK_INTRRUPTHandler, .-DATALINK_INTRRUPTHandler
 269              		.section	.text.DISPLAY_Timer_INTHandler,"ax",%progbits
 270              		.align	1
 271              		.global	DISPLAY_Timer_INTHandler
 272              		.code	16
 273              		.thumb_func
 274              		.type	DISPLAY_Timer_INTHandler, %function
 275              	DISPLAY_Timer_INTHandler:
 276              	.LFB36:
 204:inputs.c      **** 
 205:inputs.c      **** 
 206:inputs.c      **** /*******************************************************************************
 207:inputs.c      **** * Function Name: CY_ISR(DISPLAY_Timer_INTHandler)
 208:inputs.c      **** ********************************************************************************
 209:inputs.c      **** * Summary:
 210:inputs.c      **** *  The Interrupt Service Routine. Triggered by software when timer expires after 
 211:inputs.c      **** *  DISPLAY_Timer_Start() is called. It uses timer to count 2 seconds wait.
 212:inputs.c      **** *  This time is used to display information that are temporary (like button press
 213:inputs.c      **** *  or BT status).
 214:inputs.c      **** *   
 215:inputs.c      **** * Parameters:
 216:inputs.c      **** *  Timer interrupt handler 
 217:inputs.c      **** *
 218:inputs.c      **** * Return:
 219:inputs.c      **** *  updates DISPLAY_UPDATE variable.when TC is called.
 220:inputs.c      **** *
 221:inputs.c      **** ********************************************************************************/
 222:inputs.c      **** CY_ISR(DISPLAY_Timer_INTHandler)
 223:inputs.c      **** {
 277              		.loc 1 223 0
 278              		.cfi_startproc
 279              		@ args = 0, pretend = 0, frame = 0
 280              		@ frame_needed = 0, uses_anonymous_args = 0
 281 0000 10B5     		push	{r4, lr}
 282              		.cfi_def_cfa_offset 8
 283              		.cfi_offset 4, -8
 284              		.cfi_offset 14, -4
 224:inputs.c      **** // Check if interrupt came from Timer Counter expired (indicating timer count elapsed)
 225:inputs.c      ****     if (0u != (DISPLAY_Timer_ReadStatusRegister() & 0x01))
 285              		.loc 1 225 0
ARM GAS  C:\Users\Ala\AppData\Local\Temp\ccIdkMgM.s 			page 10


 286 0002 FFF7FEFF 		bl	DISPLAY_Timer_ReadStatusRegister
 287              	.LVL15:
 288 0006 0123     		movs	r3, #1
 289 0008 1842     		tst	r0, r3
 290 000a 05D0     		beq	.L35
 226:inputs.c      ****     {
 227:inputs.c      **** // sets display update variable 
 228:inputs.c      ****         DISPLAY_UPDATE = 1;
 291              		.loc 1 228 0
 292 000c 034A     		ldr	r2, .L40
 293 000e 1370     		strb	r3, [r2]
 229:inputs.c      **** // clear all remining interrupts        
 230:inputs.c      ****         DISPLAY_Timer_INT_ClearPending();
 294              		.loc 1 230 0
 295 0010 FFF7FEFF 		bl	DISPLAY_Timer_INT_ClearPending
 296              	.LVL16:
 231:inputs.c      **** // stop timer and wait for another software call to start        
 232:inputs.c      ****         DISPLAY_Timer_Stop();
 297              		.loc 1 232 0
 298 0014 FFF7FEFF 		bl	DISPLAY_Timer_Stop
 299              	.LVL17:
 300              	.L35:
 233:inputs.c      ****     }
 234:inputs.c      **** 
 235:inputs.c      **** }
 301              		.loc 1 235 0
 302              		@ sp needed
 303 0018 10BD     		pop	{r4, pc}
 304              	.L41:
 305 001a C046     		.align	2
 306              	.L40:
 307 001c 00000000 		.word	DISPLAY_UPDATE
 308              		.cfi_endproc
 309              	.LFE36:
 310              		.size	DISPLAY_Timer_INTHandler, .-DISPLAY_Timer_INTHandler
 311              		.global	PWR_OK_SWITCH
 312              		.global	MODE_SWITCH
 313              		.comm	DISPLAY_UPDATE,1,1
 314              		.global	DATALINK_TABLE_COUNTER_MAX
 315              		.global	DATALINK_TABLE_COUNTER
 316              		.global	DATALINK_TABLE
 317              		.global	PWR_OK_LONG_V
 318              		.global	MODE_LONG_V
 319              		.global	PWR_OK_SHORT_V
 320              		.global	MODE_SHORT_V
 321              		.comm	current_PSUstate,5,1
 322              		.comm	next_PSUstate,5,1
 323              		.comm	new_disp_ctrl2,1,1
 324              		.comm	new_disp_ctrl1,1,1
 325              		.comm	new_display_data_buffer,24,1
 326              		.comm	new_display_data_flag,1,1
 327              		.comm	BT_Tx_STATE,1,1
 328              		.comm	DISPLAY_STATE,1,1
 329              		.comm	SYSTEM_STATE,1,1
 330              		.comm	eepromArray,3,1
 331              		.comm	array,3,1
 332              		.bss
ARM GAS  C:\Users\Ala\AppData\Local\Temp\ccIdkMgM.s 			page 11


 333              		.set	.LANCHOR0,. + 0
 334              		.type	MODE_SWITCH, %object
 335              		.size	MODE_SWITCH, 1
 336              	MODE_SWITCH:
 337 0000 00       		.space	1
 338              		.type	MODE_SHORT_V, %object
 339              		.size	MODE_SHORT_V, 1
 340              	MODE_SHORT_V:
 341 0001 00       		.space	1
 342              		.type	PWR_OK_SWITCH, %object
 343              		.size	PWR_OK_SWITCH, 1
 344              	PWR_OK_SWITCH:
 345 0002 00       		.space	1
 346              		.type	PWR_OK_SHORT_V, %object
 347              		.size	PWR_OK_SHORT_V, 1
 348              	PWR_OK_SHORT_V:
 349 0003 00       		.space	1
 350              		.type	MODE_LONG_V, %object
 351              		.size	MODE_LONG_V, 1
 352              	MODE_LONG_V:
 353 0004 00       		.space	1
 354              		.type	PWR_OK_LONG_V, %object
 355              		.size	PWR_OK_LONG_V, 1
 356              	PWR_OK_LONG_V:
 357 0005 00       		.space	1
 358              		.type	DATALINK_TABLE_COUNTER, %object
 359              		.size	DATALINK_TABLE_COUNTER, 1
 360              	DATALINK_TABLE_COUNTER:
 361 0006 00       		.space	1
 362              		.type	DATALINK_TABLE, %object
 363              		.size	DATALINK_TABLE, 64
 364              	DATALINK_TABLE:
 365 0007 00000000 		.space	64
 365      00000000 
 365      00000000 
 365      00000000 
 365      00000000 
 366              		.type	DATALINK_TABLE_COUNTER_MAX, %object
 367              		.size	DATALINK_TABLE_COUNTER_MAX, 1
 368              	DATALINK_TABLE_COUNTER_MAX:
 369 0047 00       		.space	1
 370              		.text
 371              	.Letext0:
 372              		.file 2 "Generated_Source\\PSoC4/cytypes.h"
 373              		.file 3 "./modes.h"
 374              		.file 4 "./inputs.h"
 375              		.file 5 "Generated_Source\\PSoC4/CyLib.h"
 376              		.file 6 "Generated_Source\\PSoC4/PWR_OK_MODE.h"
 377              		.file 7 "Generated_Source\\PSoC4/Timer_1.h"
 378              		.file 8 "Generated_Source\\PSoC4/Timer_2.h"
 379              		.file 9 "Generated_Source\\PSoC4/DATALINK_Timer.h"
 380              		.file 10 "Generated_Source\\PSoC4/DATALINK_INTRRUPT.h"
 381              		.file 11 "Generated_Source\\PSoC4/DISPLAY_Timer.h"
 382              		.file 12 "Generated_Source\\PSoC4/DISPLAY_Timer_INT.h"