ARM GAS  C:\Users\Ala\AppData\Local\Temp\cchxkKbJ.s 			page 1


   1              		.syntax unified
   2              		.cpu cortex-m0
   3              		.fpu softvfp
   4              		.eabi_attribute 20, 1
   5              		.eabi_attribute 21, 1
   6              		.eabi_attribute 23, 3
   7              		.eabi_attribute 24, 1
   8              		.eabi_attribute 25, 1
   9              		.eabi_attribute 26, 1
  10              		.eabi_attribute 30, 4
  11              		.eabi_attribute 34, 0
  12              		.eabi_attribute 18, 4
  13              		.thumb
  14              		.syntax unified
  15              		.file	"main.c"
  16              		.text
  17              	.Ltext0:
  18              		.cfi_sections	.debug_frame
  19              		.section	.text.startup.main,"ax",%progbits
  20              		.align	1
  21              		.global	main
  22              		.code	16
  23              		.thumb_func
  24              		.type	main, %function
  25              	main:
  26              	.LFB32:
  27              		.file 1 "main.c"
   1:main.c        **** /*******************************************************************************
   2:main.c        **** * File Name: main.c
   3:main.c        **** *
   4:main.c        **** * Version: 1.0
   5:main.c        **** * Date: 2020
   6:main.c        **** *
   7:main.c        **** * Description:
   8:main.c        **** *  This project is intended to be used as main code that runs on PSoC KIT
   9:main.c        **** *  inside BeoModern system. 
  10:main.c        **** *  It is responsible for monitoring
  11:main.c        **** *  - two push buttons (short and long press)
  12:main.c        **** *  - listenning and responding to commands sent over BeO Datalink
  13:main.c        **** *  It is responsible for controling 
  14:main.c        **** *  - Raspberry Pi that acts as iRadio, mp3/flac player, DAB radio, FM radio
  15:main.c        **** *    station name display
  16:main.c        **** *  - SigmaDSP processor togethre with audio DAC responsible for processing 
  17:main.c        **** *    audio and producing analog sound
  18:main.c        **** *  - Bluetooth module
  19:main.c        **** *  - power supply system (power up and down different blocks)
  20:main.c        **** *  - information sent to the display module
  21:main.c        **** *
  22:main.c        **** *******************************************************************************/
  23:main.c        **** 
  24:main.c        **** #include <project.h>
  25:main.c        **** #include <inputs.h>
  26:main.c        **** #include <modes.h>
  27:main.c        **** #include <spi_int.h>
  28:main.c        **** #include <operate.h>
  29:main.c        **** #include <string.h>
  30:main.c        **** 
ARM GAS  C:\Users\Ala\AppData\Local\Temp\cchxkKbJ.s 			page 2


  31:main.c        **** // EEPROM storage in work flash, this is defined in Em_EEPROM.c
  32:main.c        **** #if defined (__ICCARM__)
  33:main.c        **** #pragma data_alignment = CY_FLASH_SIZEOF_ROW
  34:main.c        **** const uint8_t Em_EEPROM_em_EepromStorage[Em_EEPROM_PHYSICAL_SIZE] = {0u};
  35:main.c        **** #else
  36:main.c        **** const uint8_t Em_EEPROM_em_EepromStorage[Em_EEPROM_PHYSICAL_SIZE]
  37:main.c        **** CY_SECTION(".cy_checksum_exclude")
  38:main.c        **** __ALIGNED(CY_FLASH_SIZEOF_ROW) = {0u};
  39:main.c        **** #endif /* defined (__ICCARM__) */
  40:main.c        **** 
  41:main.c        **** // global display data variables
  42:main.c        **** uint32 display_return;
  43:main.c        **** uint8 current_display_data_buffer[24];
  44:main.c        **** uint8 current_disp_ctrl1;
  45:main.c        **** uint8 current_disp_ctrl2;
  46:main.c        **** 
  47:main.c        **** void main()
  48:main.c        **** {   
  28              		.loc 1 48 0
  29              		.cfi_startproc
  30              		@ args = 0, pretend = 0, frame = 32
  31              		@ frame_needed = 0, uses_anonymous_args = 0
  32              	.LVL0:
  33 0000 F0B5     		push	{r4, r5, r6, r7, lr}
  34              		.cfi_def_cfa_offset 20
  35              		.cfi_offset 4, -20
  36              		.cfi_offset 5, -16
  37              		.cfi_offset 6, -12
  38              		.cfi_offset 7, -8
  39              		.cfi_offset 14, -4
  40 0002 89B0     		sub	sp, sp, #36
  41              		.cfi_def_cfa_offset 56
  49:main.c        ****  // TO BE REMOVED TO BE REMOVED
  50:main.c        ****     uint8 swCounter = 0;    /* variable used by routine used to quickly move to load mode */
  51:main.c        ****  // TO BE REMOVED TO BE REMOVED
  52:main.c        ****  
  53:main.c        ****     uint8 currentSTATE = 9;    /* variable used by routine used to quickly move to load mode */
  54:main.c        ****     uint8 BTSTATE = 9;    /* variable used by routine used to quickly move to load mode */
  55:main.c        ****     uint8 datalink_command = 0;
  56:main.c        ****     
  57:main.c        **** // display data variables
  58:main.c        ****     uint32 display_return = 0;
  59:main.c        ****     uint8 current_display_data_buffer[24] = {"...4....4....4....4....4"};
  42              		.loc 1 59 0
  43 0004 1822     		movs	r2, #24
  44 0006 4949     		ldr	r1, .L13
  45 0008 02A8     		add	r0, sp, #8
  46 000a FFF7FEFF 		bl	memcpy
  47              	.LVL1:
  60:main.c        ****     uint8 current_disp_ctrl1 = 0;
  61:main.c        ****     uint8 current_disp_ctrl2 = 0;    
  62:main.c        ****     
  63:main.c        **** // Initalize EEPROM with the start address of the memory location
  64:main.c        ****     Em_EEPROM_Init((uint32_t)Em_EEPROM_em_EepromStorage);
  48              		.loc 1 64 0
  49 000e 4848     		ldr	r0, .L13+4
  50 0010 FFF7FEFF 		bl	Em_EEPROM_Init
ARM GAS  C:\Users\Ala\AppData\Local\Temp\cchxkKbJ.s 			page 3


  51              	.LVL2:
  65:main.c        ****     
  66:main.c        **** //Manually set P4.2 as input. Used to Read Raspberry Pi status
  67:main.c        ****     CY_SYS_PINS_SET_DRIVE_MODE(CYREG_PRT4_PC,2,CY_SYS_PINS_DM_DIG_HIZ);
  52              		.loc 1 67 0
  53 0014 474A     		ldr	r2, .L13+8
  54 0016 484B     		ldr	r3, .L13+12
  55 0018 1168     		ldr	r1, [r2]
  56 001a 0B40     		ands	r3, r1
  57 001c 4021     		movs	r1, #64
  58 001e 0B43     		orrs	r3, r1
  59 0020 1360     		str	r3, [r2]
  68:main.c        **** //Manually set P4.3 as input. Used to Read BT AAC status
  69:main.c        ****     CY_SYS_PINS_SET_DRIVE_MODE(CYREG_PRT4_PC,3,CY_SYS_PINS_DM_DIG_HIZ);
  60              		.loc 1 69 0
  61 0022 1168     		ldr	r1, [r2]
  62 0024 454B     		ldr	r3, .L13+16
  63 0026 0B40     		ands	r3, r1
  64 0028 8021     		movs	r1, #128
  65 002a 8900     		lsls	r1, r1, #2
  66 002c 0B43     		orrs	r3, r1
  67 002e 1360     		str	r3, [r2]
  70:main.c        ****     
  71:main.c        **** // Start push button timers    
  72:main.c        ****     Timer_1_Start();
  68              		.loc 1 72 0
  69 0030 FFF7FEFF 		bl	Timer_1_Start
  70              	.LVL3:
  73:main.c        ****     Timer_2_Start();
  71              		.loc 1 73 0
  72 0034 FFF7FEFF 		bl	Timer_2_Start
  73              	.LVL4:
  74:main.c        **** 
  75:main.c        **** // Start DATALINK timer
  76:main.c        ****     DATALINK_Timer_Start();
  74              		.loc 1 76 0
  75 0038 FFF7FEFF 		bl	DATALINK_Timer_Start
  76              	.LVL5:
  77:main.c        **** 
  78:main.c        **** // Start DISPLAY timer
  79:main.c        ****     DISPLAY_Timer_Start();
  77              		.loc 1 79 0
  78 003c FFF7FEFF 		bl	DISPLAY_Timer_Start
  79              	.LVL6:
  80:main.c        ****     
  81:main.c        **** // initialize interrupt routines for push buttons
  82:main.c        ****     PWR_OK_MODE_SHORT_StartEx(PWR_OK_MODE_SHORT_ISR);    
  80              		.loc 1 82 0
  81 0040 3F48     		ldr	r0, .L13+20
  82 0042 FFF7FEFF 		bl	PWR_OK_MODE_SHORT_StartEx
  83              	.LVL7:
  83:main.c        ****     MODE_LONG_StartEx(MODE_LONG_ISR);
  84              		.loc 1 83 0
  85 0046 3F48     		ldr	r0, .L13+24
  86 0048 FFF7FEFF 		bl	MODE_LONG_StartEx
  87              	.LVL8:
  84:main.c        ****     PWR_OK_LONG_StartEx(PWR_OK_LONG_ISR);
ARM GAS  C:\Users\Ala\AppData\Local\Temp\cchxkKbJ.s 			page 4


  88              		.loc 1 84 0
  89 004c 3E48     		ldr	r0, .L13+28
  90 004e FFF7FEFF 		bl	PWR_OK_LONG_StartEx
  91              	.LVL9:
  85:main.c        ****     
  86:main.c        **** // initialize DATALINK timer interrupt and set up handler for it
  87:main.c        ****     DATALINK_INTRRUPT_StartEx(DATALINK_INTRRUPTHandler);    
  92              		.loc 1 87 0
  93 0052 3E48     		ldr	r0, .L13+32
  94 0054 FFF7FEFF 		bl	DATALINK_INTRRUPT_StartEx
  95              	.LVL10:
  88:main.c        ****    
  89:main.c        **** // initialize DISPLAY timer interrupt and set up handler for it
  90:main.c        ****     DISPLAY_Timer_INT_StartEx(DISPLAY_Timer_INTHandler);    
  96              		.loc 1 90 0
  97 0058 3D48     		ldr	r0, .L13+36
  98 005a FFF7FEFF 		bl	DISPLAY_Timer_INT_StartEx
  99              	.LVL11:
  91:main.c        ****     
  92:main.c        **** // Enable interrupt routines
  93:main.c        ****     CyGlobalIntEnable;
 100              		.loc 1 93 0
 101              		.syntax divided
 102              	@ 93 "main.c" 1
 103 005e 62B6     		CPSIE   i
 104              	@ 0 "" 2
  94:main.c        ****     
  95:main.c        **** // Start SCB (UART mode) operation 
  96:main.c        ****     UART_Start();
 105              		.loc 1 96 0
 106              		.thumb
 107              		.syntax unified
 108 0060 FFF7FEFF 		bl	UART_Start
 109              	.LVL12:
  53:main.c        ****     uint8 BTSTATE = 9;    /* variable used by routine used to quickly move to load mode */
 110              		.loc 1 53 0
 111 0064 0927     		movs	r7, #9
  97:main.c        **** 
  98:main.c        **** // Start SCB (SPI Master mode) operation 
  99:main.c        ****     SPIM_Start();
 112              		.loc 1 99 0
 113 0066 FFF7FEFF 		bl	SPIM_Start
 114              	.LVL13:
  50:main.c        ****  // TO BE REMOVED TO BE REMOVED
 115              		.loc 1 50 0
 116 006a 0024     		movs	r4, #0
 100:main.c        **** 
 101:main.c        **** // inifinite loop - this uP is always ON
 102:main.c        ****     for (;;)
 103:main.c        ****     {
 104:main.c        ****             
 105:main.c        ****  // check if there are any activities with 2 push buttons (short or long press occured)
 106:main.c        ****         buttons_check();
 107:main.c        **** 
 108:main.c        **** // check if activity on datalink interface was deteced        
 109:main.c        ****         if (DATALINK_TABLE_COUNTER_MAX != 0)
 110:main.c        ****         {
ARM GAS  C:\Users\Ala\AppData\Local\Temp\cchxkKbJ.s 			page 5


 111:main.c        **** // if it was, check if command was addressed to BeoModern unit
 112:main.c        ****             datalink_command = datalink_decoder();
 113:main.c        ****             if ((datalink_command >= 10) & (datalink_command <=60) )
 114:main.c        ****             {
 115:main.c        **** // if it was, react to it                
 116:main.c        ****                 datalink_check(datalink_command);
 117:main.c        ****             }
 118:main.c        ****         }
 119:main.c        **** 
 120:main.c        **** // check if system state changed due to datalink command or pushbuttons activities        
 121:main.c        ****         if ( ( currentSTATE > SYSTEM_STATE ) || ( currentSTATE < SYSTEM_STATE ) )
 122:main.c        ****         {
 123:main.c        **** // switch beomodern state to new state and set current state to new value
 124:main.c        ****             currentSTATE = BeoM_PSU_state();
 125:main.c        **** // read back new bluetooth state
 126:main.c        ****             BTSTATE = BT_control(0,0);
 127:main.c        **** // configure power supply control to fulfil needs of new beomodern state            
 128:main.c        ****             current_PSUstate = psu_config(1, next_PSUstate);
 117              		.loc 1 128 0
 118 006c FF26     		movs	r6, #255
 119              	.LVL14:
 120              	.L2:
 106:main.c        **** 
 121              		.loc 1 106 0
 122 006e FFF7FEFF 		bl	buttons_check
 123              	.LVL15:
 109:main.c        ****         {
 124              		.loc 1 109 0
 125 0072 384B     		ldr	r3, .L13+40
 126 0074 1B78     		ldrb	r3, [r3]
 127 0076 002B     		cmp	r3, #0
 128 0078 08D0     		beq	.L4
 112:main.c        ****             if ((datalink_command >= 10) & (datalink_command <=60) )
 129              		.loc 1 112 0
 130 007a FFF7FEFF 		bl	datalink_decoder
 131              	.LVL16:
 113:main.c        ****             {
 132              		.loc 1 113 0
 133 007e 0300     		movs	r3, r0
 134 0080 0A3B     		subs	r3, r3, #10
 135 0082 DBB2     		uxtb	r3, r3
 136 0084 322B     		cmp	r3, #50
 137 0086 01D8     		bhi	.L4
 116:main.c        ****             }
 138              		.loc 1 116 0
 139 0088 FFF7FEFF 		bl	datalink_check
 140              	.LVL17:
 141              	.L4:
 121:main.c        ****         {
 142              		.loc 1 121 0
 143 008c 324B     		ldr	r3, .L13+44
 144 008e 1D78     		ldrb	r5, [r3]
 145 0090 AF42     		cmp	r7, r5
 146 0092 1ED0     		beq	.L6
 124:main.c        **** // read back new bluetooth state
 147              		.loc 1 124 0
 148 0094 FFF7FEFF 		bl	BeoM_PSU_state
ARM GAS  C:\Users\Ala\AppData\Local\Temp\cchxkKbJ.s 			page 6


 149              	.LVL18:
 126:main.c        **** // configure power supply control to fulfil needs of new beomodern state            
 150              		.loc 1 126 0
 151 0098 0021     		movs	r1, #0
 124:main.c        **** // read back new bluetooth state
 152              		.loc 1 124 0
 153 009a 0500     		movs	r5, r0
 154              	.LVL19:
 126:main.c        **** // configure power supply control to fulfil needs of new beomodern state            
 155              		.loc 1 126 0
 156 009c 0800     		movs	r0, r1
 157              	.LVL20:
 158 009e FFF7FEFF 		bl	BT_control
 159              	.LVL21:
 160              		.loc 1 128 0
 161 00a2 2E4F     		ldr	r7, .L13+48
 162 00a4 7B78     		ldrb	r3, [r7, #1]
 163 00a6 3878     		ldrb	r0, [r7]
 164 00a8 BA78     		ldrb	r2, [r7, #2]
 165 00aa 1B02     		lsls	r3, r3, #8
 166 00ac 0343     		orrs	r3, r0
 167 00ae 1204     		lsls	r2, r2, #16
 168 00b0 1900     		movs	r1, r3
 169 00b2 1300     		movs	r3, r2
 170 00b4 FA78     		ldrb	r2, [r7, #3]
 171 00b6 0B43     		orrs	r3, r1
 172 00b8 1206     		lsls	r2, r2, #24
 173 00ba 1A43     		orrs	r2, r3
 174 00bc 3B79     		ldrb	r3, [r7, #4]
 175 00be 0121     		movs	r1, #1
 176 00c0 6846     		mov	r0, sp
 177 00c2 3340     		ands	r3, r6
 178 00c4 FFF7FEFF 		bl	psu_config
 179              	.LVL22:
 180 00c8 0522     		movs	r2, #5
 181 00ca 6946     		mov	r1, sp
 182 00cc 2448     		ldr	r0, .L13+52
 183 00ce FFF7FEFF 		bl	memcpy
 184              	.LVL23:
 185              	.L6:
 129:main.c        ****         }
 130:main.c        ****     
 131:main.c        **** // update information sent over SPI to display based on current state and selected mode
 132:main.c        ****         display_update();
 186              		.loc 1 132 0
 187 00d2 FFF7FEFF 		bl	display_update
 188              	.LVL24:
 133:main.c        **** 
 134:main.c        ****         
 135:main.c        **** // check if there is new data ready to be sent to display over SPI interface
 136:main.c        ****         if (new_display_data_flag == 1)
 189              		.loc 1 136 0
 190 00d6 234F     		ldr	r7, .L13+56
 191 00d8 3B78     		ldrb	r3, [r7]
 192 00da 012B     		cmp	r3, #1
 193 00dc 11D1     		bne	.L7
 137:main.c        ****         {
ARM GAS  C:\Users\Ala\AppData\Local\Temp\cchxkKbJ.s 			page 7


 138:main.c        **** // copy new data into buffer that will be sent to display            
 139:main.c        ****             strcpy((char*)current_display_data_buffer,(char*)new_display_data_buffer);
 194              		.loc 1 139 0
 195 00de 2249     		ldr	r1, .L13+60
 196 00e0 02A8     		add	r0, sp, #8
 197 00e2 FFF7FEFF 		bl	strcpy
 198              	.LVL25:
 140:main.c        **** // copy new control values that will be sent to display            
 141:main.c        ****             current_disp_ctrl1 = new_disp_ctrl1;
 142:main.c        ****             current_disp_ctrl2 = new_disp_ctrl2;
 199              		.loc 1 142 0
 200 00e6 214B     		ldr	r3, .L13+64
 143:main.c        **** 
 144:main.c        **** // sent data over SPI to display module
 145:main.c        ****             SPIM_display_write(current_display_data_buffer, current_disp_ctrl1, current_disp_ctrl2)
 201              		.loc 1 145 0
 202 00e8 02A8     		add	r0, sp, #8
 203 00ea 1A78     		ldrb	r2, [r3]
 141:main.c        ****             current_disp_ctrl2 = new_disp_ctrl2;
 204              		.loc 1 141 0
 205 00ec 204B     		ldr	r3, .L13+68
 206              		.loc 1 145 0
 207 00ee 1978     		ldrb	r1, [r3]
 208 00f0 FFF7FEFF 		bl	SPIM_display_write
 209              	.LVL26:
 146:main.c        **** // Delay between commands to handle buffer update on slave side 
 147:main.c        **** // (when talking to display module using SPI pooling)
 148:main.c        **** //            CyDelayUs(50);
 149:main.c        **** // Delay between commands to handle buffer update on slave side 
 150:main.c        **** // (when talking to display module using SPI interrupt)
 151:main.c        ****             CyDelay(4);
 210              		.loc 1 151 0
 211 00f4 0420     		movs	r0, #4
 212 00f6 FFF7FEFF 		bl	CyDelay
 213              	.LVL27:
 152:main.c        **** 
 153:main.c        **** // Send packet to read response from display
 154:main.c        ****             display_return = SPIM_display_read();
 214              		.loc 1 154 0
 215 00fa FFF7FEFF 		bl	SPIM_display_read
 216              	.LVL28:
 155:main.c        ****             // clear flag indicating new data to dosplay             
 156:main.c        ****             new_display_data_flag = 0;
 217              		.loc 1 156 0
 218 00fe 0023     		movs	r3, #0
 219 0100 3B70     		strb	r3, [r7]
 220              	.L7:
 157:main.c        ****         }
 158:main.c        ****       
 159:main.c        ****         
 160:main.c        ****   
 161:main.c        **** // TO BE REMOVED TO BE REMOVED
 162:main.c        **** // Reset the software counter if SW1 is not pressed (Pulled high)
 163:main.c        ****         if(Pin_1_Read())
 221              		.loc 1 163 0
 222 0102 FFF7FEFF 		bl	Pin_1_Read
 223              	.LVL29:
ARM GAS  C:\Users\Ala\AppData\Local\Temp\cchxkKbJ.s 			page 8


 164:main.c        ****         {
 165:main.c        ****             swCounter = 0;
 166:main.c        ****         }
 167:main.c        ****         else
 168:main.c        ****             {
 169:main.c        **** // Increment the counter if SW1 is pressed (Shorted to GND)
 170:main.c        ****                 swCounter++;
 224              		.loc 1 170 0
 225 0106 0134     		adds	r4, r4, #1
 226              	.LVL30:
 227 0108 E4B2     		uxtb	r4, r4
 163:main.c        ****         {
 228              		.loc 1 163 0
 229 010a 0028     		cmp	r0, #0
 230 010c 00D0     		beq	.L8
 165:main.c        ****         }
 231              		.loc 1 165 0
 232 010e 0024     		movs	r4, #0
 233              	.L8:
 234              	.LVL31:
 171:main.c        ****             }
 172:main.c        **** // Provide a 10 ms delay to make the counter approximately periodic every 10 ms
 173:main.c        ****         PSoC_LED_Write(~PSoC_LED_Read());
 235              		.loc 1 173 0
 236 0110 FFF7FEFF 		bl	PSoC_LED_Read
 237              	.LVL32:
 238 0114 C043     		mvns	r0, r0
 239 0116 C0B2     		uxtb	r0, r0
 240 0118 FFF7FEFF 		bl	PSoC_LED_Write
 241              	.LVL33:
 174:main.c        **** // Check if the software counter has passed 100 ==> Enter bootloader mode
 175:main.c        **** //        if(swCounter > 100)
 176:main.c        ****         if(swCounter > 3)
 242              		.loc 1 176 0
 243 011c 032C     		cmp	r4, #3
 244 011e 01D8     		bhi	.L12
 245              	.L9:
  48:main.c        ****  // TO BE REMOVED TO BE REMOVED
 246              		.loc 1 48 0
 247 0120 2F00     		movs	r7, r5
 248 0122 A4E7     		b	.L2
 249              	.L12:
 177:main.c        ****         {
 178:main.c        ****             Bootloadable_1_Load();
 250              		.loc 1 178 0
 251 0124 FFF7FEFF 		bl	Bootloadable_1_Load
 252              	.LVL34:
 253 0128 FAE7     		b	.L9
 254              	.L14:
 255 012a C046     		.align	2
 256              	.L13:
 257 012c 00000000 		.word	.LANCHOR0
 258 0130 00000000 		.word	.LANCHOR1
 259 0134 08040440 		.word	1074005000
 260 0138 3FFEFFFF 		.word	-449
 261 013c FFF1FFFF 		.word	-3585
 262 0140 00000000 		.word	PWR_OK_MODE_SHORT_ISR
ARM GAS  C:\Users\Ala\AppData\Local\Temp\cchxkKbJ.s 			page 9


 263 0144 00000000 		.word	MODE_LONG_ISR
 264 0148 00000000 		.word	PWR_OK_LONG_ISR
 265 014c 00000000 		.word	DATALINK_INTRRUPTHandler
 266 0150 00000000 		.word	DISPLAY_Timer_INTHandler
 267 0154 00000000 		.word	DATALINK_TABLE_COUNTER_MAX
 268 0158 00000000 		.word	SYSTEM_STATE
 269 015c 00000000 		.word	next_PSUstate
 270 0160 00000000 		.word	current_PSUstate
 271 0164 00000000 		.word	new_display_data_flag
 272 0168 00000000 		.word	new_display_data_buffer
 273 016c 00000000 		.word	new_disp_ctrl2
 274 0170 00000000 		.word	new_disp_ctrl1
 275              		.cfi_endproc
 276              	.LFE32:
 277              		.size	main, .-main
 278              		.comm	current_disp_ctrl2,1,1
 279              		.comm	current_disp_ctrl1,1,1
 280              		.comm	current_display_data_buffer,24,1
 281              		.comm	display_return,4,4
 282              		.global	Em_EEPROM_em_EepromStorage
 283              		.comm	FM_RADIO_STATION,1,1
 284              		.comm	dummyBuffer,28,1
 285              		.comm	current_PSUstate,5,1
 286              		.comm	next_PSUstate,5,1
 287              		.comm	new_disp_ctrl2,1,1
 288              		.comm	new_disp_ctrl1,1,1
 289              		.comm	new_display_data_buffer,24,1
 290              		.comm	new_display_data_flag,1,1
 291              		.comm	BT_Tx_STATE,1,1
 292              		.comm	DISPLAY_STATE,1,1
 293              		.comm	SYSTEM_STATE,1,1
 294              		.comm	eepromArray,3,1
 295              		.comm	array,3,1
 296              		.comm	DISPLAY_UPDATE,1,1
 297              		.comm	DATALINK_TABLE_COUNTER_MAX,1,1
 298              		.comm	DATALINK_TABLE_COUNTER,1,1
 299              		.comm	DATALINK_TABLE,64,1
 300              		.comm	PWR_OK_LONG_V,1,1
 301              		.comm	MODE_LONG_V,1,1
 302              		.comm	PWR_OK_SHORT_V,1,1
 303              		.comm	MODE_SHORT_V,1,1
 304              		.section	.rodata
 305              		.set	.LANCHOR0,. + 0
 306              	.LC0:
 307 0000 2E2E2E34 		.ascii	"...4....4....4....4....4\000"
 307      2E2E2E2E 
 307      342E2E2E 
 307      2E342E2E 
 307      2E2E342E 
 308              		.section	.cy_checksum_exclude,"a",%progbits
 309              		.align	7
 310              		.set	.LANCHOR1,. + 0
 311              		.type	Em_EEPROM_em_EepromStorage, %object
 312              		.size	Em_EEPROM_em_EepromStorage, 128
 313              	Em_EEPROM_em_EepromStorage:
 314 0000 00000000 		.space	128
 314      00000000 
ARM GAS  C:\Users\Ala\AppData\Local\Temp\cchxkKbJ.s 			page 10


 314      00000000 
 314      00000000 
 314      00000000 
 315              		.text
 316              	.Letext0:
 317              		.file 2 "c:\\program files (x86)\\cypress\\psoc creator\\4.3\\psoc creator\\import\\gnu\\arm\\5.4.
 318              		.file 3 "c:\\program files (x86)\\cypress\\psoc creator\\4.3\\psoc creator\\import\\gnu\\arm\\5.4.
 319              		.file 4 "Generated_Source\\PSoC4/cytypes.h"
 320              		.file 5 "./modes.h"
 321              		.file 6 "./inputs.h"
 322              		.file 7 "./spi_int.h"
 323              		.file 8 "./operate.h"
 324              		.file 9 "Generated_Source\\PSoC4/Em_EEPROM.h"
 325              		.file 10 "Generated_Source\\PSoC4/Timer_1.h"
 326              		.file 11 "Generated_Source\\PSoC4/Timer_2.h"
 327              		.file 12 "Generated_Source\\PSoC4/DATALINK_Timer.h"
 328              		.file 13 "Generated_Source\\PSoC4/DISPLAY_Timer.h"
 329              		.file 14 "Generated_Source\\PSoC4/PWR_OK_MODE_SHORT.h"
 330              		.file 15 "Generated_Source\\PSoC4/MODE_LONG.h"
 331              		.file 16 "Generated_Source\\PSoC4/PWR_OK_LONG.h"
 332              		.file 17 "Generated_Source\\PSoC4/DATALINK_INTRRUPT.h"
 333              		.file 18 "Generated_Source\\PSoC4/DISPLAY_Timer_INT.h"
 334              		.file 19 "Generated_Source\\PSoC4/UART.h"
 335              		.file 20 "Generated_Source\\PSoC4/SPIM.h"
 336              		.file 21 "c:\\program files (x86)\\cypress\\psoc creator\\4.3\\psoc creator\\import\\gnu\\arm\\5.4
 337              		.file 22 "Generated_Source\\PSoC4/CyLib.h"
 338              		.file 23 "Generated_Source\\PSoC4/Pin_1.h"
 339              		.file 24 "Generated_Source\\PSoC4/PSoC_LED.h"
 340              		.file 25 "Generated_Source\\PSoC4/Bootloadable_1.h"