ARM GAS  C:\Users\Ala\AppData\Local\Temp\ccPRO05X.s 			page 1


   1              		.syntax unified
   2              		.cpu cortex-m0
   3              		.fpu softvfp
   4              		.eabi_attribute 20, 1
   5              		.eabi_attribute 21, 1
   6              		.eabi_attribute 23, 3
   7              		.eabi_attribute 24, 1
   8              		.eabi_attribute 25, 1
   9              		.eabi_attribute 26, 1
  10              		.eabi_attribute 30, 4
  11              		.eabi_attribute 34, 0
  12              		.eabi_attribute 18, 4
  13              		.thumb
  14              		.syntax unified
  15              		.file	"modes.c"
  16              		.text
  17              	.Ltext0:
  18              		.cfi_sections	.debug_frame
  19              		.section	.text.psu_config,"ax",%progbits
  20              		.align	1
  21              		.global	psu_config
  22              		.code	16
  23              		.thumb_func
  24              		.type	psu_config, %function
  25              	psu_config:
  26              	.LFB34:
  27              		.file 1 "modes.c"
   1:modes.c       **** /* ========================================
   2:modes.c       ****  *
   3:modes.c       ****  * Copyright HEMI, 2020
   4:modes.c       ****  * All Rights Reserved
   5:modes.c       ****  * UNPUBLISHED, LICENSED SOFTWARE.
   6:modes.c       ****  * 
   7:modes.c       ****  * Functions used by BeoModern main PSoC to switch unit into different states including
   8:modes.c       ****  * OFF, Clock, Player, iRadio, RDS/FM display, DAB radio, BT Rx, BT Tx, AuxIN
   9:modes.c       ****  *
  10:modes.c       ****  * CONFIDENTIAL AND PROPRIETARY INFORMATION
  11:modes.c       ****  * WHICH IS THE PROPERTY OF HEMI.
  12:modes.c       ****  *
  13:modes.c       ****  * ========================================
  14:modes.c       **** */
  15:modes.c       **** 
  16:modes.c       **** #include <project.h>
  17:modes.c       **** #include <modes.h>
  18:modes.c       **** #include <inputs.h>
  19:modes.c       **** #include <spi_int.h>
  20:modes.c       **** 
  21:modes.c       **** 
  22:modes.c       **** uint8 SYSTEM_STATE = 0;    // variable used to store whole system state    
  23:modes.c       **** uint8 DISPLAY_STATE = 0;   // variable used to store display state 
  24:modes.c       **** uint8 BT_Tx_STATE = 0;     // variable used to store BT Tx state   
  25:modes.c       **** 
  26:modes.c       **** // flag used to indicate new data ready to be sent over SPI to display module
  27:modes.c       **** uint8 new_display_data_flag = 0;
  28:modes.c       **** // new data that needs to be sent over SPI to display module
  29:modes.c       **** uint8 new_display_data_buffer[24] = {"........................"};
  30:modes.c       **** uint8 new_disp_ctrl1 = 0;
ARM GAS  C:\Users\Ala\AppData\Local\Temp\ccPRO05X.s 			page 2


  31:modes.c       **** uint8 new_disp_ctrl2 = 0;
  32:modes.c       **** 
  33:modes.c       **** /*******************************************************************************
  34:modes.c       **** * Function Name: buttons_check()
  35:modes.c       **** ********************************************************************************
  36:modes.c       **** * Summary:
  37:modes.c       **** *  Button press funciton that checkc button actions. It also initialize state
  38:modes.c       **** *  of main system to the latest one stored in emulated EEPROM space. 
  39:modes.c       **** *   
  40:modes.c       **** * Parameters:
  41:modes.c       **** *  None
  42:modes.c       **** *
  43:modes.c       **** * Return:
  44:modes.c       **** *  1 if button was pressed
  45:modes.c       **** *  0 if no button were pressed
  46:modes.c       **** *
  47:modes.c       **** *******************************************************************************/  
  48:modes.c       **** uint8 buttons_check()
  49:modes.c       **** {
  50:modes.c       ****     
  51:modes.c       **** // system state array stored in EEPROM
  52:modes.c       **** // [0] = SYSTEM_STATE 
  53:modes.c       **** // [1] = DISPLAY_STATE
  54:modes.c       **** // [2] = BT_Tx_STATE
  55:modes.c       **** uint8 array[]= { 0x00, 0x00, 0x00 };
  56:modes.c       **** 
  57:modes.c       **** // check if power button was pressed for short time      
  58:modes.c       ****     if (PWR_OK_SHORT_V == 1)
  59:modes.c       ****     {
  60:modes.c       **** // check if system is in power down state
  61:modes.c       ****         if (SYSTEM_STATE == 0)
  62:modes.c       ****         {
  63:modes.c       **** // if in power down state - restore system to last saved state
  64:modes.c       **** // Read data from emulated EEPROM
  65:modes.c       ****             Em_EEPROM_Read(LOGICAL_EEPROM_START, eepromArray, LOGICAL_EEPROM_SIZE);         
  66:modes.c       **** // set variables based on read data
  67:modes.c       ****             SYSTEM_STATE = eepromArray[0];
  68:modes.c       ****             DISPLAY_STATE = eepromArray[1];
  69:modes.c       ****             BT_Tx_STATE = eepromArray[2];
  70:modes.c       **** // start with system state in 1 to avoid infinite loop in system state 0
  71:modes.c       ****             if (SYSTEM_STATE == 0)
  72:modes.c       ****             {
  73:modes.c       ****                 SYSTEM_STATE = 1;
  74:modes.c       ****             }
  75:modes.c       **** // clear push button variable
  76:modes.c       ****             PWR_OK_SHORT_V = 0;
  77:modes.c       ****         }
  78:modes.c       ****         else
  79:modes.c       **** // if system not in power down state, move to next system state based on PWR_OK button press
  80:modes.c       ****             {           
  81:modes.c       ****                 SYSTEM_STATE = SYSTEM_STATE + 1;
  82:modes.c       ****                 if (SYSTEM_STATE >= 9)
  83:modes.c       ****                 {
  84:modes.c       ****                     SYSTEM_STATE = 1;
  85:modes.c       ****                 }
  86:modes.c       **** // clear push button variable
  87:modes.c       ****                 PWR_OK_SHORT_V = 0;
ARM GAS  C:\Users\Ala\AppData\Local\Temp\ccPRO05X.s 			page 3


  88:modes.c       ****             }
  89:modes.c       **** // return 1 indicating that button has been pressed
  90:modes.c       ****         return 1;
  91:modes.c       ****     }
  92:modes.c       ****  
  93:modes.c       ****     
  94:modes.c       **** // check if power button was pressed for long time (1 second)        
  95:modes.c       ****     if (PWR_OK_LONG_V == 1)
  96:modes.c       ****     {
  97:modes.c       **** // if it was, prepare array to write it to the EEPROM location
  98:modes.c       ****         array[0] =  SYSTEM_STATE;
  99:modes.c       ****         array[1] =  DISPLAY_STATE;
 100:modes.c       ****         array[2] =  BT_Tx_STATE;
 101:modes.c       ****  // Write data to emulated EEPROM
 102:modes.c       ****         Em_EEPROM_Write(LOGICAL_EEPROM_START, array, LOGICAL_EEPROM_SIZE);         
 103:modes.c       ****         
 104:modes.c       **** // set system state to power down mode
 105:modes.c       ****         SYSTEM_STATE = 0;
 106:modes.c       **** // set display state to power down
 107:modes.c       ****         DISPLAY_STATE = 0;
 108:modes.c       **** // clear push button variable
 109:modes.c       ****         PWR_OK_LONG_V = 0;
 110:modes.c       **** // return 1 indicating button press action
 111:modes.c       ****         return 1;
 112:modes.c       ****     }
 113:modes.c       ****     
 114:modes.c       **** // check if MODE button was pressed for short time 
 115:modes.c       ****     if (MODE_SHORT_V == 1)
 116:modes.c       ****     {
 117:modes.c       **** // operate function based on current state of the system    
 118:modes.c       ****         switch (SYSTEM_STATE)
 119:modes.c       ****         {
 120:modes.c       **** 
 121:modes.c       **** // SYSTEM_STATE = 0 - system in power down mode
 122:modes.c       **** // System shuld react only to display changes in this mode  
 123:modes.c       **** // no interaction from systme in power down state   
 124:modes.c       ****         case (0):
 125:modes.c       ****             break;
 126:modes.c       **** 
 127:modes.c       **** // SYSTEM_STATE = 1 - system in Player mode
 128:modes.c       **** // System reacts to commands:
 129:modes.c       **** // push button MODE Short = next song (DOWN and OK)
 130:modes.c       ****         case (1):
 131:modes.c       **** //  1 = Button: MODE SHORT  
 132:modes.c       ****             if (MODE_SHORT_V == 1)
 133:modes.c       ****             {
 134:modes.c       ****                 UART_UartPutString("-UP+");
 135:modes.c       ****                 CyDelay(100);  
 136:modes.c       ****                 UART_UartPutString("-GO+");
 137:modes.c       ****                 MODE_SHORT_V = 0;
 138:modes.c       ****             }
 139:modes.c       ****             break;
 140:modes.c       ****     
 141:modes.c       **** // SYSTEM_STATE = 2 - system in iRadio mode    
 142:modes.c       **** // System reacts to commands:
 143:modes.c       **** // push button MODE Short = next radio station (DOWN)
 144:modes.c       ****         case(2):
ARM GAS  C:\Users\Ala\AppData\Local\Temp\ccPRO05X.s 			page 4


 145:modes.c       **** //  1 = Button: MODE SHORT  
 146:modes.c       ****             if (MODE_SHORT_V == 1)
 147:modes.c       ****             {
 148:modes.c       ****                 UART_UartPutString("-UP+");
 149:modes.c       ****                 CyDelay(100);  
 150:modes.c       ****                 UART_UartPutString("-GO+");
 151:modes.c       ****                 MODE_SHORT_V = 0;
 152:modes.c       ****             }
 153:modes.c       ****             break;
 154:modes.c       ****         
 155:modes.c       **** // SYSTEM_STATE = 3 - system in DAB Radio mode
 156:modes.c       **** // System reacts to commands:
 157:modes.c       **** // push button MODE Short = next radio station (DOWN)
 158:modes.c       ****         case(3):
 159:modes.c       **** //  1 = Button: MODE SHORT  
 160:modes.c       ****             if (MODE_SHORT_V == 1)
 161:modes.c       ****             {
 162:modes.c       ****                 UART_UartPutString("-UP+");
 163:modes.c       ****                 CyDelay(100);  
 164:modes.c       ****                 UART_UartPutString("-GO+");
 165:modes.c       ****                 MODE_SHORT_V = 0;
 166:modes.c       ****             }
 167:modes.c       ****             break;
 168:modes.c       **** 
 169:modes.c       **** // SYSTEM_STATE = 4 - system in AuxIn mode    
 170:modes.c       **** // System shuld react only to display changes in this mode  
 171:modes.c       **** // no interaction from MODE button in AuxIN state    
 172:modes.c       ****         case (4):
 173:modes.c       ****             break;
 174:modes.c       ****     
 175:modes.c       ****     
 176:modes.c       **** // SYSTEM_STATE = 5 - Clock
 177:modes.c       **** // System shuld react only to intercepted datalink commands with 
 178:modes.c       **** // FM station numbers. No interaction from MODE button in AuxIN state    
 179:modes.c       ****         case (5):
 180:modes.c       ****             break;
 181:modes.c       ****     
 182:modes.c       **** // SYSTEM_STATE = 6 - system in RDS/FM mode
 183:modes.c       **** // System shuld react only to intercepted datalink commands with 
 184:modes.c       **** // FM station numbers. No interaction from MODE button in AuxIN state    
 185:modes.c       ****         case (6):
 186:modes.c       ****             break;    
 187:modes.c       ****     
 188:modes.c       **** // SYSTEM_STATE = 7 - system in BlueTooth Rx mode
 189:modes.c       ****         case (7):
 190:modes.c       **** // System reacts to push button MODE Short = re-connecting
 191:modes.c       **** //  1 = Button: MODE SHORT  
 192:modes.c       ****             if (MODE_SHORT_V == 1)
 193:modes.c       ****             {
 194:modes.c       **** // BlueTooth start pairing        
 195:modes.c       ****                 BT_control(2, 1); 
 196:modes.c       ****                 MODE_SHORT_V = 0;
 197:modes.c       ****             }
 198:modes.c       ****             break;
 199:modes.c       ****     
 200:modes.c       **** // SYSTEM_STATE = 8 - system in BlueTooth Tx mode
 201:modes.c       ****         case (8):
ARM GAS  C:\Users\Ala\AppData\Local\Temp\ccPRO05X.s 			page 5


 202:modes.c       **** // System reacts to push button MODE Short = re-connecting
 203:modes.c       **** //  1 = Button: MODE SHORT        
 204:modes.c       ****             if (MODE_SHORT_V == 1)
 205:modes.c       ****             {
 206:modes.c       **** // BlueTooth start pairing        
 207:modes.c       ****                 BT_control(1, 1); 
 208:modes.c       ****                 MODE_SHORT_V = 0;
 209:modes.c       ****             }
 210:modes.c       ****             break;      
 211:modes.c       **** 
 212:modes.c       ****         default:
 213:modes.c       **** // DEFAULT STATEMENT        
 214:modes.c       ****             break;
 215:modes.c       **** 
 216:modes.c       **** // clear flag            
 217:modes.c       ****         MODE_SHORT_V = 0;
 218:modes.c       **** // return 1 indicating button press action
 219:modes.c       ****         return 1;
 220:modes.c       ****         }
 221:modes.c       ****     }
 222:modes.c       **** 
 223:modes.c       ****     
 224:modes.c       **** // check if MODE button was pressed for long time 
 225:modes.c       ****     if (MODE_LONG_V == 1)
 226:modes.c       ****     {
 227:modes.c       **** // check if system is not in power down state
 228:modes.c       ****         if (SYSTEM_STATE != 0)
 229:modes.c       ****         {
 230:modes.c       **** // if it is not then move to next display state
 231:modes.c       ****         DISPLAY_STATE = DISPLAY_STATE + 1;
 232:modes.c       ****             if (DISPLAY_STATE >= 7)
 233:modes.c       ****             {
 234:modes.c       ****                 DISPLAY_STATE = 1;
 235:modes.c       ****             }
 236:modes.c       ****         }
 237:modes.c       **** // clear push button variable
 238:modes.c       ****         MODE_LONG_V = 0;
 239:modes.c       **** // return 1 indicating button press action
 240:modes.c       ****         return 1;
 241:modes.c       ****     }
 242:modes.c       **** 
 243:modes.c       **** // return 0 indicating no button press action
 244:modes.c       ****     return 0;
 245:modes.c       **** } 
 246:modes.c       **** 
 247:modes.c       ****     
 248:modes.c       **** 
 249:modes.c       **** 
 250:modes.c       **** /*******************************************************************************
 251:modes.c       **** * Function Name: BT_control()
 252:modes.c       **** ********************************************************************************
 253:modes.c       **** * Summary:
 254:modes.c       **** *  BlueTooth control funciton. Allows set all available bluetooth functions 
 255:modes.c       **** *  as well as it reads back BlueTooth module current status
 256:modes.c       **** *   
 257:modes.c       **** * Parameters:
 258:modes.c       **** *  mode:
ARM GAS  C:\Users\Ala\AppData\Local\Temp\ccPRO05X.s 			page 6


 259:modes.c       **** *    0 = report back status only
 260:modes.c       **** *    1 = switch to Tx
 261:modes.c       **** *    2 = switch to Rx
 262:modes.c       **** *  action:
 263:modes.c       **** *    0 = report back status only
 264:modes.c       **** *    1 = start pairing
 265:modes.c       **** *    2 = re-connect
 266:modes.c       **** *    3 = clear all recorded devices
 267:modes.c       **** *    4 = pause/mute
 268:modes.c       **** *    5 = back (in Rx mode, previus song)
 269:modes.c       **** *    6 = next (in Rx mode, next song)
 270:modes.c       **** *
 271:modes.c       **** * Return:
 272:modes.c       **** *    0 = power down
 273:modes.c       **** *    1 = connected
 274:modes.c       **** *    2 = searching
 275:modes.c       **** *    3 = sleep
 276:modes.c       **** *    4 = SBC
 277:modes.c       **** *    5 = AAC
 278:modes.c       **** *    6 = aptX
 279:modes.c       **** *    7 = aptxHD
 280:modes.c       **** *    8 = aptxLL
 281:modes.c       **** *
 282:modes.c       **** *******************************************************************************/  
 283:modes.c       **** uint8 BT_control(uint8 mode, uint8 action)  
 284:modes.c       **** {
 285:modes.c       ****     uint8 BT_status = 0;
 286:modes.c       ****     uint8 swCounter = 0;
 287:modes.c       ****     uint8 loopCounter = 0;
 288:modes.c       **** // mode == 1 Tx state
 289:modes.c       ****     if (mode == 1)
 290:modes.c       ****     {
 291:modes.c       **** // enable Tx state        
 292:modes.c       ****         BT_Tx_Rx_Write(0);
 293:modes.c       **** //    1 = start pairing - double click pairing button      
 294:modes.c       ****         if (action == 1)
 295:modes.c       ****         {
 296:modes.c       **** // SENT OVER SPI informaiton about BlueTooth Tx Pairing status            
 297:modes.c       **** // new data that needs to be sent over SPI to display module
 298:modes.c       ****             strcpy((char*)new_display_data_buffer, "BT Pairing - name BT-B20");
 299:modes.c       **** // CTRL0.6 - Clear BT Rx indicator 
 300:modes.c       ****             new_disp_ctrl1 = new_disp_ctrl1 & 0xBF;
 301:modes.c       **** // CTRL1.0 - set BT Tx indicator 
 302:modes.c       ****             new_disp_ctrl2 = new_disp_ctrl2 | 0x01;
 303:modes.c       ****             new_display_data_flag = 1;
 304:modes.c       **** // ensure pairing signal is low            
 305:modes.c       ****             BT_RE_CONNECT_Write(0);
 306:modes.c       **** // set pairing signal to high             
 307:modes.c       ****             BT_RE_CONNECT_Write(1);
 308:modes.c       **** // wait 100 ms 
 309:modes.c       ****             CyDelay(100);            
 310:modes.c       **** // set pairing signal to low                   
 311:modes.c       ****             BT_RE_CONNECT_Write(0);
 312:modes.c       **** // wait 100 ms 
 313:modes.c       ****             CyDelay(100);            
 314:modes.c       **** // set pairing signal to high             
 315:modes.c       ****             BT_RE_CONNECT_Write(1);
ARM GAS  C:\Users\Ala\AppData\Local\Temp\ccPRO05X.s 			page 7


 316:modes.c       **** // wait 100 ms 
 317:modes.c       ****             CyDelay(100);            
 318:modes.c       **** // set pairing signal to low                   
 319:modes.c       ****             BT_RE_CONNECT_Write(0);   
 320:modes.c       ****         }
 321:modes.c       **** 
 322:modes.c       **** //    2 = re-connect - single click pairing button
 323:modes.c       ****         if (action == 2)
 324:modes.c       ****         {
 325:modes.c       **** // SENT OVER SPI informaiton about BlueTooth Rx Reconnecting status
 326:modes.c       **** // new data that needs to be sent over SPI to display module
 327:modes.c       ****             strcpy((char*)new_display_data_buffer, "BlueTooth reconnecting  ");
 328:modes.c       **** // CTRL0.6 - Clear BT Rx indicator 
 329:modes.c       ****             new_disp_ctrl1 = new_disp_ctrl1 & 0xBF;
 330:modes.c       **** // CTRL1.0 - set BT Tx indicator 
 331:modes.c       ****             new_disp_ctrl2 = new_disp_ctrl2 | 0x01;
 332:modes.c       ****             new_display_data_flag = 1;
 333:modes.c       **** // ensure pairing signal is low            
 334:modes.c       ****             BT_RE_CONNECT_Write(0);
 335:modes.c       **** // set pairing signal to high             
 336:modes.c       ****             BT_RE_CONNECT_Write(1);
 337:modes.c       **** // wait 100 ms 
 338:modes.c       ****             CyDelay(100);            
 339:modes.c       **** // set pairing signal to low                   
 340:modes.c       ****             BT_RE_CONNECT_Write(0);          
 341:modes.c       ****         }
 342:modes.c       ****         
 343:modes.c       **** //    3 = clear all recorded devices
 344:modes.c       ****         if (action == 3)
 345:modes.c       ****         {
 346:modes.c       **** // SENT OVER SPI informaiton about BlueTooth Tx clearing status
 347:modes.c       **** // new data that needs to be sent over SPI to display module
 348:modes.c       ****             strcpy((char*)new_display_data_buffer, "BlueTooth clearing ...  ");
 349:modes.c       **** // CTRL0.6 - Clear BT Rx indicator 
 350:modes.c       ****             new_disp_ctrl1 = new_disp_ctrl1 & 0xBF;
 351:modes.c       **** // CTRL1.0 - set BT Tx indicator 
 352:modes.c       ****             new_disp_ctrl2 = new_disp_ctrl2 | 0x01;
 353:modes.c       ****             new_display_data_flag = 1;
 354:modes.c       **** // ensure pairing signal is low            
 355:modes.c       ****             BT_RE_CONNECT_Write(0);
 356:modes.c       **** // set pairing signal to high             
 357:modes.c       ****             BT_RE_CONNECT_Write(1);
 358:modes.c       **** // wait 9 seconds 
 359:modes.c       ****             CyDelay(9000);            
 360:modes.c       **** // set pairing signal to low                   
 361:modes.c       ****             BT_RE_CONNECT_Write(0);            
 362:modes.c       ****             
 363:modes.c       ****         }
 364:modes.c       **** //    4 = pause/mute   
 365:modes.c       ****         if (action == 4)
 366:modes.c       ****         {
 367:modes.c       **** // SENT OVER SPI informaiton about BlueTooth Tx mute status
 368:modes.c       **** // new data that needs to be sent over SPI to display module
 369:modes.c       ****             strcpy((char*)new_display_data_buffer, "BlueTooth mute audio    ");
 370:modes.c       **** // CTRL0.6 - Clear BT Rx indicator 
 371:modes.c       ****             new_disp_ctrl1 = new_disp_ctrl1 & 0xBF;
 372:modes.c       **** // CTRL1.0 - set BT Tx indicator 
ARM GAS  C:\Users\Ala\AppData\Local\Temp\ccPRO05X.s 			page 8


 373:modes.c       ****             new_disp_ctrl2 = new_disp_ctrl2 | 0x01;
 374:modes.c       ****             new_display_data_flag = 1;
 375:modes.c       **** // ensure pause signal is low            
 376:modes.c       ****             BT_PAUSE_Write(0);
 377:modes.c       **** // set pause signal to high             
 378:modes.c       ****             BT_PAUSE_Write(1);
 379:modes.c       **** // wait 100 ms 
 380:modes.c       ****             CyDelay(100);            
 381:modes.c       **** // set pause signal to low                   
 382:modes.c       ****             BT_PAUSE_Write(0);               
 383:modes.c       ****         }
 384:modes.c       ****     }
 385:modes.c       ****     
 386:modes.c       ****     
 387:modes.c       **** // mode == 2 Rx state
 388:modes.c       ****     else if (mode == 2)
 389:modes.c       ****     {
 390:modes.c       **** // enable Rx state        
 391:modes.c       ****         BT_Tx_Rx_Write(1);
 392:modes.c       ****  //    1 = start pairing - double click pairing button      
 393:modes.c       ****         if (action == 1)
 394:modes.c       ****         {
 395:modes.c       **** // SENT OVER SPI informaiton about BlueTooth Rx Pairing status
 396:modes.c       **** // new data that needs to be sent over SPI to display module
 397:modes.c       ****             strcpy((char*)new_display_data_buffer, "BT Pairing search BT-B20");
 398:modes.c       ****             new_disp_ctrl1 = 0x40;
 399:modes.c       **** // CTRL1.0 - Clear BT Tx indicator 
 400:modes.c       ****             new_disp_ctrl2 = new_disp_ctrl2 & 0xFE;
 401:modes.c       ****             new_display_data_flag = 1;
 402:modes.c       ****             
 403:modes.c       **** // ensure pairing signal is low            
 404:modes.c       ****             BT_RE_CONNECT_Write(0);
 405:modes.c       **** // set pairing signal to high             
 406:modes.c       ****             BT_RE_CONNECT_Write(1);
 407:modes.c       **** // wait 100 ms 
 408:modes.c       ****             CyDelay(100);            
 409:modes.c       **** // set pairing signal to low                   
 410:modes.c       ****             BT_RE_CONNECT_Write(0);
 411:modes.c       **** // wait 100 ms 
 412:modes.c       ****             CyDelay(100);            
 413:modes.c       **** // set pairing signal to high             
 414:modes.c       ****             BT_RE_CONNECT_Write(1);
 415:modes.c       **** // wait 100 ms 
 416:modes.c       ****             CyDelay(100);            
 417:modes.c       **** // set pairing signal to low                   
 418:modes.c       ****             BT_RE_CONNECT_Write(0);   
 419:modes.c       ****         }
 420:modes.c       **** 
 421:modes.c       **** //    2 = re-connect - single click pairing button
 422:modes.c       ****         if (action == 2)
 423:modes.c       ****         {
 424:modes.c       **** // SENT OVER SPI informaiton about BlueTooth Rx reconnecting status
 425:modes.c       **** // new data that needs to be sent over SPI to display module
 426:modes.c       ****             strcpy((char*)new_display_data_buffer, "BlueTooth reconnecting  ");
 427:modes.c       ****             new_disp_ctrl1 = 0x40;
 428:modes.c       **** // CTRL1.0 - Clear BT Tx indicator 
 429:modes.c       ****             new_disp_ctrl2 = new_disp_ctrl2 & 0xFE;
ARM GAS  C:\Users\Ala\AppData\Local\Temp\ccPRO05X.s 			page 9


 430:modes.c       ****             new_display_data_flag = 1;
 431:modes.c       ****      
 432:modes.c       **** // ensure pairing signal is low            
 433:modes.c       ****             BT_RE_CONNECT_Write(0);
 434:modes.c       **** // set pairing signal to high             
 435:modes.c       ****             BT_RE_CONNECT_Write(1);
 436:modes.c       **** // wait 100 ms 
 437:modes.c       ****             CyDelay(100);            
 438:modes.c       **** // set pairing signal to low                   
 439:modes.c       ****             BT_RE_CONNECT_Write(0);          
 440:modes.c       ****         }
 441:modes.c       ****         
 442:modes.c       **** //    3 = clear all recorded devices
 443:modes.c       ****         if (action == 3)
 444:modes.c       ****         {
 445:modes.c       **** // SENT OVER SPI informaiton about BlueTooth clearing Rx devices
 446:modes.c       **** // new data that needs to be sent over SPI to display module
 447:modes.c       ****             strcpy((char*)new_display_data_buffer, "BlueTooth clearing ...  ");
 448:modes.c       ****             new_disp_ctrl1 = 0x40;
 449:modes.c       **** // CTRL1.0 - Clear BT Tx indicator 
 450:modes.c       ****             new_disp_ctrl2 = new_disp_ctrl2 & 0xFE;
 451:modes.c       ****             new_display_data_flag = 1;       
 452:modes.c       **** // ensure pairing signal is low            
 453:modes.c       ****             BT_RE_CONNECT_Write(0);
 454:modes.c       **** // set pairing signal to high             
 455:modes.c       ****             BT_RE_CONNECT_Write(1);
 456:modes.c       **** // wait 9 seconds 
 457:modes.c       ****             CyDelay(9000);            
 458:modes.c       **** // set pairing signal to low                   
 459:modes.c       ****             BT_RE_CONNECT_Write(0);            
 460:modes.c       ****         }
 461:modes.c       ****         
 462:modes.c       **** //    4 = pause/mute   
 463:modes.c       ****         if (action == 4)
 464:modes.c       ****         {
 465:modes.c       **** // SENT OVER SPI informaiton about BlueTooth Rx pause status
 466:modes.c       **** // new data that needs to be sent over SPI to display module
 467:modes.c       ****             strcpy((char*)new_display_data_buffer, "BlueTooth PAUSE song    ");
 468:modes.c       ****             new_disp_ctrl1 = 0x40;
 469:modes.c       **** // CTRL1.0 - Clear BT Tx indicator 
 470:modes.c       ****             new_disp_ctrl2 = new_disp_ctrl2 & 0xFE;
 471:modes.c       ****             new_display_data_flag = 1;
 472:modes.c       **** // ensure pause signal is low            
 473:modes.c       ****             BT_PAUSE_Write(0);
 474:modes.c       **** // set pause signal to high             
 475:modes.c       ****             BT_PAUSE_Write(1);
 476:modes.c       **** // wait 100 ms 
 477:modes.c       ****             CyDelay(100);            
 478:modes.c       **** // set pause signal to low                   
 479:modes.c       ****             BT_PAUSE_Write(0);               
 480:modes.c       ****         }
 481:modes.c       ****         
 482:modes.c       **** //    5 = back (in Rx mode, previus song)
 483:modes.c       ****         if (action == 5)
 484:modes.c       ****         {
 485:modes.c       **** // SENT OVER SPI informaiton about BlueTooth Rx previus song
 486:modes.c       **** // new data that needs to be sent over SPI to display module
ARM GAS  C:\Users\Ala\AppData\Local\Temp\ccPRO05X.s 			page 10


 487:modes.c       ****             strcpy((char*)new_display_data_buffer, "BlueTooth PREVIUS song  ");
 488:modes.c       ****             new_disp_ctrl1 = 0x40;
 489:modes.c       **** // CTRL1.0 - Clear BT Tx indicator 
 490:modes.c       ****             new_disp_ctrl2 = new_disp_ctrl2 & 0xFE;
 491:modes.c       ****             new_display_data_flag = 1;
 492:modes.c       **** // ensure previus signal is low            
 493:modes.c       ****             BT_PREVIOUS_Write(0);
 494:modes.c       **** // set previus signal to high             
 495:modes.c       ****             BT_PREVIOUS_Write(1);
 496:modes.c       **** // wait 100 ms 
 497:modes.c       ****             CyDelay(100);            
 498:modes.c       **** // set previous signal to low                   
 499:modes.c       ****             BT_PREVIOUS_Write(0);               
 500:modes.c       ****         }
 501:modes.c       ****         
 502:modes.c       **** //    6 = next (in Rx mode, next song)
 503:modes.c       ****         if (action == 6)
 504:modes.c       ****         {
 505:modes.c       **** // SENT OVER SPI informaiton about BlueTooth Rx next song
 506:modes.c       **** // new data that needs to be sent over SPI to display module
 507:modes.c       ****             strcpy((char*)new_display_data_buffer, "BlueTooth NEXT song     ");
 508:modes.c       ****             new_disp_ctrl1 = 0x40;
 509:modes.c       **** // CTRL1.0 - Clear BT Tx indicator 
 510:modes.c       ****             new_disp_ctrl2 = new_disp_ctrl2 & 0xFE;
 511:modes.c       ****             new_display_data_flag = 1; 
 512:modes.c       **** // ensure next signal is low            
 513:modes.c       ****             BT_NEXT_Write(0);
 514:modes.c       **** // set next signal to high             
 515:modes.c       ****             BT_NEXT_Write(1);
 516:modes.c       **** // wait 100 ms 
 517:modes.c       ****             CyDelay(100);            
 518:modes.c       **** // set next signal to low                   
 519:modes.c       ****             BT_NEXT_Write(0);               
 520:modes.c       ****         }
 521:modes.c       ****     }
 522:modes.c       ****     
 523:modes.c       **** // mode == 0 (or any other) report state only
 524:modes.c       ****     else
 525:modes.c       ****     {
 526:modes.c       ****  // read back current PSU state    
 527:modes.c       ****         current_PSUstate = psu_config(2, current_PSUstate);    
 528:modes.c       ****  // check if BT module is powered up
 529:modes.c       ****         if (current_PSUstate.BlueTooth_PWR == 0)
 530:modes.c       ****         {
 531:modes.c       **** // if it is not return power down status            
 532:modes.c       ****             BT_status = 0;
 533:modes.c       ****         }
 534:modes.c       **** // if it is powered up, check its current state        
 535:modes.c       ****         else
 536:modes.c       ****             {
 537:modes.c       **** // check if BT statuts = SBC codec
 538:modes.c       ****                 if (BT_SBC_Read())
 539:modes.c       ****                 {
 540:modes.c       ****                     BT_status = 4;   
 541:modes.c       **** // SENT OVER SPI informaiton about BlueTooth codec info
 542:modes.c       **** // new data that needs to be sent over SPI to display module
 543:modes.c       ****                     strcpy((char*)new_display_data_buffer, "BlueTooth SBC codec     ");
ARM GAS  C:\Users\Ala\AppData\Local\Temp\ccPRO05X.s 			page 11


 544:modes.c       ****                     new_display_data_flag = 1; 
 545:modes.c       ****                 }
 546:modes.c       **** // check if BT status = AAC codec - reading back state of the pin directly
 547:modes.c       ****                 if (CY_SYS_PINS_READ_PIN(CYREG_PRT4_PS,3) == 1)
 548:modes.c       ****                 {
 549:modes.c       ****                     BT_status = 5;    
 550:modes.c       **** // SENT OVER SPI informaiton about BlueTooth codec info
 551:modes.c       **** // new data that needs to be sent over SPI to display module
 552:modes.c       ****                     strcpy((char*)new_display_data_buffer, "BlueTooth AAC codec     ");
 553:modes.c       ****                     new_display_data_flag = 1; 
 554:modes.c       ****                 }
 555:modes.c       **** // check if BT statuts = APTx codec
 556:modes.c       ****                 if (BT_APTX_Read())
 557:modes.c       ****                 {
 558:modes.c       ****                     BT_status = 6;    
 559:modes.c       **** // SENT OVER SPI informaiton about BlueTooth codec info
 560:modes.c       **** // new data that needs to be sent over SPI to display module
 561:modes.c       ****                     strcpy((char*)new_display_data_buffer, "BlueTooth aptX codec    ");
 562:modes.c       ****                     new_display_data_flag = 1; 
 563:modes.c       ****                 }                
 564:modes.c       **** // check if BT statuts = APTx HD codec
 565:modes.c       ****                 if (BT_HD_Read())
 566:modes.c       ****                 {
 567:modes.c       ****                     BT_status = 7;    
 568:modes.c       **** // SENT OVER SPI informaiton about BlueTooth codec info
 569:modes.c       **** // new data that needs to be sent over SPI to display module
 570:modes.c       ****                     strcpy((char*)new_display_data_buffer, "BlueTooth aptX HD codec ");
 571:modes.c       ****                     new_display_data_flag = 1; 
 572:modes.c       ****                 }                
 573:modes.c       **** // check if BT statuts = APTx LL codec
 574:modes.c       ****                 if (BT_LL_Read())
 575:modes.c       ****                 {
 576:modes.c       ****                     BT_status = 8;    
 577:modes.c       **** // SENT OVER SPI informaiton about BlueTooth codec info
 578:modes.c       **** // new data that needs to be sent over SPI to display module
 579:modes.c       ****                     strcpy((char*)new_display_data_buffer, "BlueTooth aptX LL codec ");
 580:modes.c       ****                     new_display_data_flag = 1; 
 581:modes.c       **** 
 582:modes.c       ****                 }   
 583:modes.c       **** // check if any BT connection is established (by checking codec status)
 584:modes.c       ****                 if (BT_status < 4)
 585:modes.c       ****                 {
 586:modes.c       **** // if not established check state of BT link
 587:modes.c       **** // BT_PAIRING - ON all the time - link established
 588:modes.c       **** // BT_PAIRING - ON and OFF every 300..500mS  - searching for device
 589:modes.c       **** // BT_PAIRING - ON for 300..500mS every 2 seconds - sleep state
 590:modes.c       **** // read back pin state for 1 second and calculate nubmer of 1 states                    
 591:modes.c       ****                     for (loopCounter = 0; loopCounter < 150; ++loopCounter)
 592:modes.c       ****                     {
 593:modes.c       **** // read back pairing state pin                    
 594:modes.c       ****                         if (!(BT_PAIRING_Read()))
 595:modes.c       ****                         {
 596:modes.c       **** // increase swCounter when 1                        
 597:modes.c       ****                             swCounter++;
 598:modes.c       ****                         }
 599:modes.c       **** // Provide a 10 ms delay to make the counter approximately periodic every 10 ms 
 600:modes.c       ****                         CyDelay(10);
ARM GAS  C:\Users\Ala\AppData\Local\Temp\ccPRO05X.s 			page 12


 601:modes.c       ****                     }
 602:modes.c       **** // if all redbacks of pin state are 1                    
 603:modes.c       ****                     if(swCounter >= 149)
 604:modes.c       ****                     {
 605:modes.c       **** // BT is connected                        
 606:modes.c       ****                         BT_status = 1;
 607:modes.c       **** // SENT OVER SPI informaiton about BlueTooth status
 608:modes.c       **** // new data that needs to be sent over SPI to display module
 609:modes.c       ****                         strcpy((char*)new_display_data_buffer, "BlueTooth connected     ");
 610:modes.c       ****                         new_display_data_flag = 1; 
 611:modes.c       **** 
 612:modes.c       **** // REPLACE with SPI transfer 
 613:modes.c       **** 
 614:modes.c       ****                     }
 615:modes.c       **** // if more than 50% and less than a 100%   
 616:modes.c       ****                     else if ((swCounter < 149) & (swCounter > 50))
 617:modes.c       ****                     {
 618:modes.c       **** // BT is searching                 
 619:modes.c       ****                         BT_status = 2;
 620:modes.c       **** // SENT OVER SPI informaiton about BlueTooth status
 621:modes.c       **** // new data that needs to be sent over SPI to display module
 622:modes.c       ****                         strcpy((char*)new_display_data_buffer, "BlueTooth searching ... ");
 623:modes.c       ****                         new_display_data_flag = 1; 
 624:modes.c       ****                     }                 
 625:modes.c       **** // if less than 30% 
 626:modes.c       ****                     else
 627:modes.c       ****                         {
 628:modes.c       **** // BT in sleep state                               
 629:modes.c       ****                             BT_status = 3;
 630:modes.c       **** // SENT OVER SPI informaiton about BlueTooth status
 631:modes.c       **** // new data that needs to be sent over SPI to display module
 632:modes.c       ****                         strcpy((char*)new_display_data_buffer, "BlueTooth in sleep state");
 633:modes.c       ****                         new_display_data_flag = 1; 
 634:modes.c       **** 
 635:modes.c       ****                         }
 636:modes.c       **** // clear counter                        
 637:modes.c       ****                     swCounter = 0;
 638:modes.c       ****                 }
 639:modes.c       ****             }
 640:modes.c       ****     }
 641:modes.c       ****     return BT_status;
 642:modes.c       **** }
 643:modes.c       **** 
 644:modes.c       **** 
 645:modes.c       **** 
 646:modes.c       **** 
 647:modes.c       **** /*******************************************************************************
 648:modes.c       **** * Function Name: psu_config()
 649:modes.c       **** ********************************************************************************
 650:modes.c       **** * Summary:
 651:modes.c       **** *  Power supply control funciton that enables/disables differnt BeoModern blocks
 652:modes.c       **** *  and reports back their current state.
 653:modes.c       **** *  It controls power supplies to:
 654:modes.c       **** *  - Raspberry Pi
 655:modes.c       **** *     - it reads back and reports state of RPi GPIO indicatign its state ON/OFF
 656:modes.c       **** *  - SigmaDSP EVB
 657:modes.c       **** *  - BlueTooth module
ARM GAS  C:\Users\Ala\AppData\Local\Temp\ccPRO05X.s 			page 13


 658:modes.c       **** *  - Display module
 659:modes.c       **** *   
 660:modes.c       **** * Parameters:
 661:modes.c       **** *  switch - if 1, PSU states to be set, if other than 1 return current state
 662:modes.c       **** *  structure with expected stated of controlled blocks 
 663:modes.c       **** *
 664:modes.c       **** * Return:
 665:modes.c       **** *  structure with current states of controlled blocks 
 666:modes.c       **** *
 667:modes.c       **** *******************************************************************************/  
 668:modes.c       **** psuState psu_config(uint8 action, psuState new_PSUstate)  
 669:modes.c       **** {
  28              		.loc 1 669 0
  29              		.cfi_startproc
  30              		@ args = 0, pretend = 0, frame = 8
  31              		@ frame_needed = 0, uses_anonymous_args = 0
  32              	.LVL0:
  33 0000 F7B5     		push	{r0, r1, r2, r4, r5, r6, r7, lr}
  34              		.cfi_def_cfa_offset 32
  35              		.cfi_offset 0, -32
  36              		.cfi_offset 1, -28
  37              		.cfi_offset 2, -24
  38              		.cfi_offset 4, -20
  39              		.cfi_offset 5, -16
  40              		.cfi_offset 6, -12
  41              		.cfi_offset 7, -8
  42              		.cfi_offset 14, -4
  43              	.LVL1:
  44              		.loc 1 669 0
  45 0002 0400     		movs	r4, r0
  46 0004 0092     		str	r2, [sp]
  47              	.LVL2:
  48 0006 0193     		str	r3, [sp, #4]
  49              	.LVL3:
 670:modes.c       **** // action == 1 indicates setting PSU
 671:modes.c       ****     if (action == 1)
  50              		.loc 1 671 0
  51 0008 0129     		cmp	r1, #1
  52 000a 0FD1     		bne	.L2
  53 000c 6B46     		mov	r3, sp
  54 000e DF78     		ldrb	r7, [r3, #3]
  55 0010 9E78     		ldrb	r6, [r3, #2]
 672:modes.c       ****     {
 673:modes.c       **** // enabling (1) or disabling (0) power supply for display module
 674:modes.c       ****         PWR_DISP_Write (new_PSUstate.Display_PWR); 
  56              		.loc 1 674 0
  57 0012 1879     		ldrb	r0, [r3, #4]
  58              	.LVL4:
  59 0014 1D78     		ldrb	r5, [r3]
  60 0016 FFF7FEFF 		bl	PWR_DISP_Write
  61              	.LVL5:
 675:modes.c       **** // enabling (1) or disabling (0) power supply for bluetooth module
 676:modes.c       ****         PWR_BT_Write (new_PSUstate.BlueTooth_PWR); 
  62              		.loc 1 676 0
  63 001a 3800     		movs	r0, r7
  64 001c FFF7FEFF 		bl	PWR_BT_Write
  65              	.LVL6:
ARM GAS  C:\Users\Ala\AppData\Local\Temp\ccPRO05X.s 			page 14


 677:modes.c       **** // enabling (1) or disabling (0) power supply for SigmaDSP EVB
 678:modes.c       ****         PWR_SDSP_Write (new_PSUstate.SigmaDSP_PWR);
  66              		.loc 1 678 0
  67 0020 3000     		movs	r0, r6
  68 0022 FFF7FEFF 		bl	PWR_SDSP_Write
  69              	.LVL7:
 679:modes.c       **** // enabling (1) or disabling (0) power supply for Raspberry Pi 
 680:modes.c       ****         PWR_RPI_Write (new_PSUstate.RPI_PWR);
  70              		.loc 1 680 0
  71 0026 2800     		movs	r0, r5
  72 0028 FFF7FEFF 		bl	PWR_RPI_Write
  73              	.LVL8:
  74              	.L2:
 681:modes.c       ****     }
 682:modes.c       **** // reading back state of display enable/disable pin
 683:modes.c       ****     new_PSUstate.Display_PWR = PWR_DISP_ReadDataReg();
  75              		.loc 1 683 0
  76 002c FFF7FEFF 		bl	PWR_DISP_ReadDataReg
  77              	.LVL9:
  78 0030 0500     		movs	r5, r0
  79              	.LVL10:
 684:modes.c       **** // reading back state of BlueTooth enable/disable pin
 685:modes.c       ****     new_PSUstate.BlueTooth_PWR = PWR_BT_ReadDataReg(); 
  80              		.loc 1 685 0
  81 0032 FFF7FEFF 		bl	PWR_BT_ReadDataReg
  82              	.LVL11:
  83 0036 0600     		movs	r6, r0
  84              	.LVL12:
 686:modes.c       **** // reading back state of SigmaDSP enable/disable pin
 687:modes.c       ****     new_PSUstate.SigmaDSP_PWR = PWR_SDSP_ReadDataReg();
  85              		.loc 1 687 0
  86 0038 FFF7FEFF 		bl	PWR_SDSP_ReadDataReg
  87              	.LVL13:
  88 003c 0700     		movs	r7, r0
  89              	.LVL14:
 688:modes.c       **** // reading back state of Raspberry Pi enable/disable pin
 689:modes.c       ****     new_PSUstate.RPI_PWR = PWR_RPI_ReadDataReg();
  90              		.loc 1 689 0
  91 003e FFF7FEFF 		bl	PWR_RPI_ReadDataReg
  92              	.LVL15:
 690:modes.c       **** // reading back status pin that indicates Raspberry Pi state (1 = ON, 0 = OFF)
 691:modes.c       ****     new_PSUstate.RPi_GPIO_state = CY_SYS_PINS_READ_PIN(CYREG_PRT4_PS,2);
  93              		.loc 1 691 0
  94 0042 054B     		ldr	r3, .L4
 692:modes.c       **** // returning current state of PSU controls
 693:modes.c       ****     return new_PSUstate;
 694:modes.c       **** }
  95              		.loc 1 694 0
  96              		@ sp needed
 691:modes.c       **** // returning current state of PSU controls
  97              		.loc 1 691 0
  98 0044 1B68     		ldr	r3, [r3]
  99              	.LVL16:
 693:modes.c       **** }
 100              		.loc 1 693 0
 101 0046 2070     		strb	r0, [r4]
 102 0048 5B07     		lsls	r3, r3, #29
ARM GAS  C:\Users\Ala\AppData\Local\Temp\ccPRO05X.s 			page 15


 103              	.LVL17:
 104 004a DB0F     		lsrs	r3, r3, #31
 105 004c A770     		strb	r7, [r4, #2]
 106 004e E670     		strb	r6, [r4, #3]
 107 0050 2571     		strb	r5, [r4, #4]
 108              		.loc 1 694 0
 109 0052 2000     		movs	r0, r4
 110              	.LVL18:
 693:modes.c       **** }
 111              		.loc 1 693 0
 112 0054 6370     		strb	r3, [r4, #1]
 113              	.LVL19:
 114              	.LVL20:
 115              	.LVL21:
 116              	.LVL22:
 117              		.loc 1 694 0
 118 0056 FEBD     		pop	{r1, r2, r3, r4, r5, r6, r7, pc}
 119              	.L5:
 120              		.align	2
 121              	.L4:
 122 0058 04040440 		.word	1074004996
 123              		.cfi_endproc
 124              	.LFE34:
 125              		.size	psu_config, .-psu_config
 126              		.section	.text.BT_control,"ax",%progbits
 127              		.align	1
 128              		.global	BT_control
 129              		.code	16
 130              		.thumb_func
 131              		.type	BT_control, %function
 132              	BT_control:
 133              	.LFB33:
 284:modes.c       ****     uint8 BT_status = 0;
 134              		.loc 1 284 0
 135              		.cfi_startproc
 136              		@ args = 0, pretend = 0, frame = 8
 137              		@ frame_needed = 0, uses_anonymous_args = 0
 138              	.LVL23:
 139 0000 37B5     		push	{r0, r1, r2, r4, r5, lr}
 140              		.cfi_def_cfa_offset 24
 141              		.cfi_offset 0, -24
 142              		.cfi_offset 1, -20
 143              		.cfi_offset 2, -16
 144              		.cfi_offset 4, -12
 145              		.cfi_offset 5, -8
 146              		.cfi_offset 14, -4
 284:modes.c       ****     uint8 BT_status = 0;
 147              		.loc 1 284 0
 148 0002 0500     		movs	r5, r0
 149 0004 0C00     		movs	r4, r1
 289:modes.c       ****     {
 150              		.loc 1 289 0
 151 0006 0128     		cmp	r0, #1
 152 0008 55D1     		bne	.L7
 292:modes.c       **** //    1 = start pairing - double click pairing button      
 153              		.loc 1 292 0
 154 000a 0020     		movs	r0, #0
ARM GAS  C:\Users\Ala\AppData\Local\Temp\ccPRO05X.s 			page 16


 155              	.LVL24:
 156 000c FFF7FEFF 		bl	BT_Tx_Rx_Write
 157              	.LVL25:
 294:modes.c       ****         {
 158              		.loc 1 294 0
 159 0010 012C     		cmp	r4, #1
 160 0012 0BD1     		bne	.L8
 298:modes.c       **** // CTRL0.6 - Clear BT Rx indicator 
 161              		.loc 1 298 0
 162 0014 BA49     		ldr	r1, .L52
 163 0016 BB48     		ldr	r0, .L52+4
 164 0018 FFF7FEFF 		bl	strcpy
 165              	.LVL26:
 300:modes.c       **** // CTRL1.0 - set BT Tx indicator 
 166              		.loc 1 300 0
 167 001c 4021     		movs	r1, #64
 168 001e BA4B     		ldr	r3, .L52+8
 169 0020 1A78     		ldrb	r2, [r3]
 170 0022 8A43     		bics	r2, r1
 171 0024 1A70     		strb	r2, [r3]
 302:modes.c       ****             new_display_data_flag = 1;
 172              		.loc 1 302 0
 173 0026 5A78     		ldrb	r2, [r3, #1]
 174 0028 2243     		orrs	r2, r4
 175 002a 55E0     		b	.L46
 176              	.L8:
 323:modes.c       ****         {
 177              		.loc 1 323 0
 178 002c 022C     		cmp	r4, #2
 179 002e 11D1     		bne	.L10
 327:modes.c       **** // CTRL0.6 - Clear BT Rx indicator 
 180              		.loc 1 327 0
 181 0030 B649     		ldr	r1, .L52+12
 182 0032 B448     		ldr	r0, .L52+4
 183 0034 FFF7FEFF 		bl	strcpy
 184              	.LVL27:
 329:modes.c       **** // CTRL1.0 - set BT Tx indicator 
 185              		.loc 1 329 0
 186 0038 4021     		movs	r1, #64
 187 003a B34B     		ldr	r3, .L52+8
 334:modes.c       **** // set pairing signal to high             
 188              		.loc 1 334 0
 189 003c 0020     		movs	r0, #0
 329:modes.c       **** // CTRL1.0 - set BT Tx indicator 
 190              		.loc 1 329 0
 191 003e 1A78     		ldrb	r2, [r3]
 332:modes.c       **** // ensure pairing signal is low            
 192              		.loc 1 332 0
 193 0040 9D70     		strb	r5, [r3, #2]
 329:modes.c       **** // CTRL1.0 - set BT Tx indicator 
 194              		.loc 1 329 0
 195 0042 8A43     		bics	r2, r1
 196 0044 1A70     		strb	r2, [r3]
 331:modes.c       ****             new_display_data_flag = 1;
 197              		.loc 1 331 0
 198 0046 5A78     		ldrb	r2, [r3, #1]
 199 0048 2A43     		orrs	r2, r5
ARM GAS  C:\Users\Ala\AppData\Local\Temp\ccPRO05X.s 			page 17


 200 004a 5A70     		strb	r2, [r3, #1]
 334:modes.c       **** // set pairing signal to high             
 201              		.loc 1 334 0
 202 004c FFF7FEFF 		bl	BT_RE_CONNECT_Write
 203              	.LVL28:
 336:modes.c       **** // wait 100 ms 
 204              		.loc 1 336 0
 205 0050 2800     		movs	r0, r5
 206 0052 65E0     		b	.L50
 207              	.L10:
 344:modes.c       ****         {
 208              		.loc 1 344 0
 209 0054 032C     		cmp	r4, #3
 210 0056 19D1     		bne	.L12
 348:modes.c       **** // CTRL0.6 - Clear BT Rx indicator 
 211              		.loc 1 348 0
 212 0058 AD49     		ldr	r1, .L52+16
 213 005a AA48     		ldr	r0, .L52+4
 214 005c FFF7FEFF 		bl	strcpy
 215              	.LVL29:
 350:modes.c       **** // CTRL1.0 - set BT Tx indicator 
 216              		.loc 1 350 0
 217 0060 4021     		movs	r1, #64
 218 0062 A94B     		ldr	r3, .L52+8
 355:modes.c       **** // set pairing signal to high             
 219              		.loc 1 355 0
 220 0064 0020     		movs	r0, #0
 350:modes.c       **** // CTRL1.0 - set BT Tx indicator 
 221              		.loc 1 350 0
 222 0066 1A78     		ldrb	r2, [r3]
 353:modes.c       **** // ensure pairing signal is low            
 223              		.loc 1 353 0
 224 0068 9D70     		strb	r5, [r3, #2]
 350:modes.c       **** // CTRL1.0 - set BT Tx indicator 
 225              		.loc 1 350 0
 226 006a 8A43     		bics	r2, r1
 227 006c 1A70     		strb	r2, [r3]
 352:modes.c       ****             new_display_data_flag = 1;
 228              		.loc 1 352 0
 229 006e 5A78     		ldrb	r2, [r3, #1]
 230 0070 2A43     		orrs	r2, r5
 231 0072 5A70     		strb	r2, [r3, #1]
 355:modes.c       **** // set pairing signal to high             
 232              		.loc 1 355 0
 233 0074 FFF7FEFF 		bl	BT_RE_CONNECT_Write
 234              	.LVL30:
 357:modes.c       **** // wait 9 seconds 
 235              		.loc 1 357 0
 236 0078 2800     		movs	r0, r5
 237              	.L51:
 238 007a FFF7FEFF 		bl	BT_RE_CONNECT_Write
 239              	.LVL31:
 359:modes.c       **** // set pairing signal to low                   
 240              		.loc 1 359 0
 241 007e A548     		ldr	r0, .L52+20
 242              	.L48:
 243 0080 FFF7FEFF 		bl	CyDelay
ARM GAS  C:\Users\Ala\AppData\Local\Temp\ccPRO05X.s 			page 18


 244              	.LVL32:
 361:modes.c       ****             
 245              		.loc 1 361 0
 246 0084 0020     		movs	r0, #0
 247 0086 FFF7FEFF 		bl	BT_RE_CONNECT_Write
 248              	.LVL33:
 249 008a 95E0     		b	.L47
 250              	.L12:
 365:modes.c       ****         {
 251              		.loc 1 365 0
 252 008c 042C     		cmp	r4, #4
 253 008e 00D0     		beq	.LCB203
 254 0090 92E0     		b	.L47	@long jump
 255              	.LCB203:
 369:modes.c       **** // CTRL0.6 - Clear BT Rx indicator 
 256              		.loc 1 369 0
 257 0092 A149     		ldr	r1, .L52+24
 258 0094 9B48     		ldr	r0, .L52+4
 259 0096 FFF7FEFF 		bl	strcpy
 260              	.LVL34:
 371:modes.c       **** // CTRL1.0 - set BT Tx indicator 
 261              		.loc 1 371 0
 262 009a 4021     		movs	r1, #64
 263 009c 9A4B     		ldr	r3, .L52+8
 376:modes.c       **** // set pause signal to high             
 264              		.loc 1 376 0
 265 009e 0020     		movs	r0, #0
 371:modes.c       **** // CTRL1.0 - set BT Tx indicator 
 266              		.loc 1 371 0
 267 00a0 1A78     		ldrb	r2, [r3]
 374:modes.c       **** // ensure pause signal is low            
 268              		.loc 1 374 0
 269 00a2 9D70     		strb	r5, [r3, #2]
 371:modes.c       **** // CTRL1.0 - set BT Tx indicator 
 270              		.loc 1 371 0
 271 00a4 8A43     		bics	r2, r1
 272 00a6 1A70     		strb	r2, [r3]
 373:modes.c       ****             new_display_data_flag = 1;
 273              		.loc 1 373 0
 274 00a8 5A78     		ldrb	r2, [r3, #1]
 275 00aa 2A43     		orrs	r2, r5
 276 00ac 5A70     		strb	r2, [r3, #1]
 376:modes.c       **** // set pause signal to high             
 277              		.loc 1 376 0
 278 00ae FFF7FEFF 		bl	BT_PAUSE_Write
 279              	.LVL35:
 378:modes.c       **** // wait 100 ms 
 280              		.loc 1 378 0
 281 00b2 2800     		movs	r0, r5
 282 00b4 5DE0     		b	.L49
 283              	.LVL36:
 284              	.L7:
 388:modes.c       ****     {
 285              		.loc 1 388 0
 286 00b6 0228     		cmp	r0, #2
 287 00b8 00D0     		beq	.LCB228
 288 00ba 9AE0     		b	.L14	@long jump
ARM GAS  C:\Users\Ala\AppData\Local\Temp\ccPRO05X.s 			page 19


 289              	.LCB228:
 391:modes.c       ****  //    1 = start pairing - double click pairing button      
 290              		.loc 1 391 0
 291 00bc 0120     		movs	r0, #1
 292              	.LVL37:
 293 00be FFF7FEFF 		bl	BT_Tx_Rx_Write
 294              	.LVL38:
 393:modes.c       ****         {
 295              		.loc 1 393 0
 296 00c2 012C     		cmp	r4, #1
 297 00c4 1AD1     		bne	.L15
 397:modes.c       ****             new_disp_ctrl1 = 0x40;
 298              		.loc 1 397 0
 299 00c6 9549     		ldr	r1, .L52+28
 300 00c8 8E48     		ldr	r0, .L52+4
 301 00ca FFF7FEFF 		bl	strcpy
 302              	.LVL39:
 398:modes.c       **** // CTRL1.0 - Clear BT Tx indicator 
 303              		.loc 1 398 0
 304 00ce 4022     		movs	r2, #64
 305 00d0 8D4B     		ldr	r3, .L52+8
 306 00d2 1A70     		strb	r2, [r3]
 400:modes.c       ****             new_display_data_flag = 1;
 307              		.loc 1 400 0
 308 00d4 5A78     		ldrb	r2, [r3, #1]
 309 00d6 A243     		bics	r2, r4
 310              	.L46:
 404:modes.c       **** // set pairing signal to high             
 311              		.loc 1 404 0
 312 00d8 0020     		movs	r0, #0
 400:modes.c       ****             new_display_data_flag = 1;
 313              		.loc 1 400 0
 314 00da 5A70     		strb	r2, [r3, #1]
 401:modes.c       ****             
 315              		.loc 1 401 0
 316 00dc 9C70     		strb	r4, [r3, #2]
 404:modes.c       **** // set pairing signal to high             
 317              		.loc 1 404 0
 318 00de FFF7FEFF 		bl	BT_RE_CONNECT_Write
 319              	.LVL40:
 406:modes.c       **** // wait 100 ms 
 320              		.loc 1 406 0
 321 00e2 2000     		movs	r0, r4
 322 00e4 FFF7FEFF 		bl	BT_RE_CONNECT_Write
 323              	.LVL41:
 408:modes.c       **** // set pairing signal to low                   
 324              		.loc 1 408 0
 325 00e8 6420     		movs	r0, #100
 326 00ea FFF7FEFF 		bl	CyDelay
 327              	.LVL42:
 410:modes.c       **** // wait 100 ms 
 328              		.loc 1 410 0
 329 00ee 0020     		movs	r0, #0
 330 00f0 FFF7FEFF 		bl	BT_RE_CONNECT_Write
 331              	.LVL43:
 412:modes.c       **** // set pairing signal to high             
 332              		.loc 1 412 0
ARM GAS  C:\Users\Ala\AppData\Local\Temp\ccPRO05X.s 			page 20


 333 00f4 6420     		movs	r0, #100
 334 00f6 FFF7FEFF 		bl	CyDelay
 335              	.LVL44:
 336 00fa 10E0     		b	.L44
 337              	.L15:
 422:modes.c       ****         {
 338              		.loc 1 422 0
 339 00fc 022C     		cmp	r4, #2
 340 00fe 13D1     		bne	.L17
 426:modes.c       ****             new_disp_ctrl1 = 0x40;
 341              		.loc 1 426 0
 342 0100 8249     		ldr	r1, .L52+12
 343 0102 8048     		ldr	r0, .L52+4
 344 0104 FFF7FEFF 		bl	strcpy
 345              	.LVL45:
 427:modes.c       **** // CTRL1.0 - Clear BT Tx indicator 
 346              		.loc 1 427 0
 347 0108 4022     		movs	r2, #64
 348 010a 7F4B     		ldr	r3, .L52+8
 429:modes.c       ****             new_display_data_flag = 1;
 349              		.loc 1 429 0
 350 010c 013C     		subs	r4, r4, #1
 427:modes.c       **** // CTRL1.0 - Clear BT Tx indicator 
 351              		.loc 1 427 0
 352 010e 1A70     		strb	r2, [r3]
 429:modes.c       ****             new_display_data_flag = 1;
 353              		.loc 1 429 0
 354 0110 5A78     		ldrb	r2, [r3, #1]
 433:modes.c       **** // set pairing signal to high             
 355              		.loc 1 433 0
 356 0112 0020     		movs	r0, #0
 429:modes.c       ****             new_display_data_flag = 1;
 357              		.loc 1 429 0
 358 0114 A243     		bics	r2, r4
 359 0116 5A70     		strb	r2, [r3, #1]
 430:modes.c       ****      
 360              		.loc 1 430 0
 361 0118 9C70     		strb	r4, [r3, #2]
 433:modes.c       **** // set pairing signal to high             
 362              		.loc 1 433 0
 363 011a FFF7FEFF 		bl	BT_RE_CONNECT_Write
 364              	.LVL46:
 365              	.L44:
 435:modes.c       **** // wait 100 ms 
 366              		.loc 1 435 0
 367 011e 2000     		movs	r0, r4
 368              	.L50:
 369 0120 FFF7FEFF 		bl	BT_RE_CONNECT_Write
 370              	.LVL47:
 437:modes.c       **** // set pairing signal to low                   
 371              		.loc 1 437 0
 372 0124 6420     		movs	r0, #100
 373 0126 ABE7     		b	.L48
 374              	.L17:
 443:modes.c       ****         {
 375              		.loc 1 443 0
 376 0128 032C     		cmp	r4, #3
ARM GAS  C:\Users\Ala\AppData\Local\Temp\ccPRO05X.s 			page 21


 377 012a 10D1     		bne	.L18
 447:modes.c       ****             new_disp_ctrl1 = 0x40;
 378              		.loc 1 447 0
 379 012c 7849     		ldr	r1, .L52+16
 380 012e 7548     		ldr	r0, .L52+4
 381 0130 FFF7FEFF 		bl	strcpy
 382              	.LVL48:
 448:modes.c       **** // CTRL1.0 - Clear BT Tx indicator 
 383              		.loc 1 448 0
 384 0134 4022     		movs	r2, #64
 385 0136 744B     		ldr	r3, .L52+8
 450:modes.c       ****             new_display_data_flag = 1;       
 386              		.loc 1 450 0
 387 0138 023C     		subs	r4, r4, #2
 448:modes.c       **** // CTRL1.0 - Clear BT Tx indicator 
 388              		.loc 1 448 0
 389 013a 1A70     		strb	r2, [r3]
 450:modes.c       ****             new_display_data_flag = 1;       
 390              		.loc 1 450 0
 391 013c 5A78     		ldrb	r2, [r3, #1]
 453:modes.c       **** // set pairing signal to high             
 392              		.loc 1 453 0
 393 013e 0020     		movs	r0, #0
 450:modes.c       ****             new_display_data_flag = 1;       
 394              		.loc 1 450 0
 395 0140 A243     		bics	r2, r4
 396 0142 5A70     		strb	r2, [r3, #1]
 451:modes.c       **** // ensure pairing signal is low            
 397              		.loc 1 451 0
 398 0144 9C70     		strb	r4, [r3, #2]
 453:modes.c       **** // set pairing signal to high             
 399              		.loc 1 453 0
 400 0146 FFF7FEFF 		bl	BT_RE_CONNECT_Write
 401              	.LVL49:
 455:modes.c       **** // wait 9 seconds 
 402              		.loc 1 455 0
 403 014a 2000     		movs	r0, r4
 404 014c 95E7     		b	.L51
 405              	.L18:
 463:modes.c       ****         {
 406              		.loc 1 463 0
 407 014e 042C     		cmp	r4, #4
 408 0150 18D1     		bne	.L19
 467:modes.c       ****             new_disp_ctrl1 = 0x40;
 409              		.loc 1 467 0
 410 0152 7349     		ldr	r1, .L52+32
 411 0154 6B48     		ldr	r0, .L52+4
 412 0156 FFF7FEFF 		bl	strcpy
 413              	.LVL50:
 468:modes.c       **** // CTRL1.0 - Clear BT Tx indicator 
 414              		.loc 1 468 0
 415 015a 4022     		movs	r2, #64
 416 015c 6A4B     		ldr	r3, .L52+8
 470:modes.c       ****             new_display_data_flag = 1;
 417              		.loc 1 470 0
 418 015e 033C     		subs	r4, r4, #3
 468:modes.c       **** // CTRL1.0 - Clear BT Tx indicator 
ARM GAS  C:\Users\Ala\AppData\Local\Temp\ccPRO05X.s 			page 22


 419              		.loc 1 468 0
 420 0160 1A70     		strb	r2, [r3]
 470:modes.c       ****             new_display_data_flag = 1;
 421              		.loc 1 470 0
 422 0162 5A78     		ldrb	r2, [r3, #1]
 473:modes.c       **** // set pause signal to high             
 423              		.loc 1 473 0
 424 0164 0020     		movs	r0, #0
 470:modes.c       ****             new_display_data_flag = 1;
 425              		.loc 1 470 0
 426 0166 A243     		bics	r2, r4
 427 0168 5A70     		strb	r2, [r3, #1]
 471:modes.c       **** // ensure pause signal is low            
 428              		.loc 1 471 0
 429 016a 9C70     		strb	r4, [r3, #2]
 473:modes.c       **** // set pause signal to high             
 430              		.loc 1 473 0
 431 016c FFF7FEFF 		bl	BT_PAUSE_Write
 432              	.LVL51:
 475:modes.c       **** // wait 100 ms 
 433              		.loc 1 475 0
 434 0170 2000     		movs	r0, r4
 435              	.L49:
 436 0172 FFF7FEFF 		bl	BT_PAUSE_Write
 437              	.LVL52:
 477:modes.c       **** // set pause signal to low                   
 438              		.loc 1 477 0
 439 0176 6420     		movs	r0, #100
 440 0178 FFF7FEFF 		bl	CyDelay
 441              	.LVL53:
 479:modes.c       ****         }
 442              		.loc 1 479 0
 443 017c 0020     		movs	r0, #0
 444 017e FFF7FEFF 		bl	BT_PAUSE_Write
 445              	.LVL54:
 446 0182 19E0     		b	.L47
 447              	.L19:
 483:modes.c       ****         {
 448              		.loc 1 483 0
 449 0184 052C     		cmp	r4, #5
 450 0186 19D1     		bne	.L16
 487:modes.c       ****             new_disp_ctrl1 = 0x40;
 451              		.loc 1 487 0
 452 0188 6649     		ldr	r1, .L52+36
 453 018a 5E48     		ldr	r0, .L52+4
 454 018c FFF7FEFF 		bl	strcpy
 455              	.LVL55:
 488:modes.c       **** // CTRL1.0 - Clear BT Tx indicator 
 456              		.loc 1 488 0
 457 0190 4022     		movs	r2, #64
 458 0192 5D4B     		ldr	r3, .L52+8
 490:modes.c       ****             new_display_data_flag = 1;
 459              		.loc 1 490 0
 460 0194 043C     		subs	r4, r4, #4
 488:modes.c       **** // CTRL1.0 - Clear BT Tx indicator 
 461              		.loc 1 488 0
 462 0196 1A70     		strb	r2, [r3]
ARM GAS  C:\Users\Ala\AppData\Local\Temp\ccPRO05X.s 			page 23


 490:modes.c       ****             new_display_data_flag = 1;
 463              		.loc 1 490 0
 464 0198 5A78     		ldrb	r2, [r3, #1]
 493:modes.c       **** // set previus signal to high             
 465              		.loc 1 493 0
 466 019a 0020     		movs	r0, #0
 490:modes.c       ****             new_display_data_flag = 1;
 467              		.loc 1 490 0
 468 019c A243     		bics	r2, r4
 469 019e 5A70     		strb	r2, [r3, #1]
 491:modes.c       **** // ensure previus signal is low            
 470              		.loc 1 491 0
 471 01a0 9C70     		strb	r4, [r3, #2]
 493:modes.c       **** // set previus signal to high             
 472              		.loc 1 493 0
 473 01a2 FFF7FEFF 		bl	BT_PREVIOUS_Write
 474              	.LVL56:
 495:modes.c       **** // wait 100 ms 
 475              		.loc 1 495 0
 476 01a6 2000     		movs	r0, r4
 477 01a8 FFF7FEFF 		bl	BT_PREVIOUS_Write
 478              	.LVL57:
 497:modes.c       **** // set previous signal to low                   
 479              		.loc 1 497 0
 480 01ac 6420     		movs	r0, #100
 481 01ae FFF7FEFF 		bl	CyDelay
 482              	.LVL58:
 499:modes.c       ****         }
 483              		.loc 1 499 0
 484 01b2 0020     		movs	r0, #0
 485 01b4 FFF7FEFF 		bl	BT_PREVIOUS_Write
 486              	.LVL59:
 487              	.L47:
 285:modes.c       ****     uint8 swCounter = 0;
 488              		.loc 1 285 0
 489 01b8 0024     		movs	r4, #0
 490 01ba 9FE0     		b	.L11
 491              	.L16:
 503:modes.c       ****         {
 492              		.loc 1 503 0
 493 01bc 062C     		cmp	r4, #6
 494 01be FBD1     		bne	.L47
 507:modes.c       ****             new_disp_ctrl1 = 0x40;
 495              		.loc 1 507 0
 496 01c0 5949     		ldr	r1, .L52+40
 497 01c2 5048     		ldr	r0, .L52+4
 498 01c4 FFF7FEFF 		bl	strcpy
 499              	.LVL60:
 508:modes.c       **** // CTRL1.0 - Clear BT Tx indicator 
 500              		.loc 1 508 0
 501 01c8 4022     		movs	r2, #64
 502 01ca 4F4B     		ldr	r3, .L52+8
 510:modes.c       ****             new_display_data_flag = 1; 
 503              		.loc 1 510 0
 504 01cc 053C     		subs	r4, r4, #5
 508:modes.c       **** // CTRL1.0 - Clear BT Tx indicator 
 505              		.loc 1 508 0
ARM GAS  C:\Users\Ala\AppData\Local\Temp\ccPRO05X.s 			page 24


 506 01ce 1A70     		strb	r2, [r3]
 510:modes.c       ****             new_display_data_flag = 1; 
 507              		.loc 1 510 0
 508 01d0 5A78     		ldrb	r2, [r3, #1]
 513:modes.c       **** // set next signal to high             
 509              		.loc 1 513 0
 510 01d2 0020     		movs	r0, #0
 510:modes.c       ****             new_display_data_flag = 1; 
 511              		.loc 1 510 0
 512 01d4 A243     		bics	r2, r4
 513 01d6 5A70     		strb	r2, [r3, #1]
 511:modes.c       **** // ensure next signal is low            
 514              		.loc 1 511 0
 515 01d8 9C70     		strb	r4, [r3, #2]
 513:modes.c       **** // set next signal to high             
 516              		.loc 1 513 0
 517 01da FFF7FEFF 		bl	BT_NEXT_Write
 518              	.LVL61:
 515:modes.c       **** // wait 100 ms 
 519              		.loc 1 515 0
 520 01de 2000     		movs	r0, r4
 521 01e0 FFF7FEFF 		bl	BT_NEXT_Write
 522              	.LVL62:
 517:modes.c       **** // set next signal to low                   
 523              		.loc 1 517 0
 524 01e4 6420     		movs	r0, #100
 525 01e6 FFF7FEFF 		bl	CyDelay
 526              	.LVL63:
 519:modes.c       ****         }
 527              		.loc 1 519 0
 528 01ea 0020     		movs	r0, #0
 529 01ec FFF7FEFF 		bl	BT_NEXT_Write
 530              	.LVL64:
 531 01f0 E2E7     		b	.L47
 532              	.LVL65:
 533              	.L14:
 527:modes.c       ****  // check if BT module is powered up
 534              		.loc 1 527 0
 535 01f2 4E4C     		ldr	r4, .L52+44
 536 01f4 6378     		ldrb	r3, [r4, #1]
 537 01f6 2078     		ldrb	r0, [r4]
 538              	.LVL66:
 539 01f8 A278     		ldrb	r2, [r4, #2]
 540 01fa 1B02     		lsls	r3, r3, #8
 541 01fc 0343     		orrs	r3, r0
 542 01fe 1204     		lsls	r2, r2, #16
 543 0200 1900     		movs	r1, r3
 544              	.LVL67:
 545 0202 1300     		movs	r3, r2
 546 0204 E278     		ldrb	r2, [r4, #3]
 547 0206 0B43     		orrs	r3, r1
 548 0208 1206     		lsls	r2, r2, #24
 549 020a 1A43     		orrs	r2, r3
 550 020c 0221     		movs	r1, #2
 551 020e 2379     		ldrb	r3, [r4, #4]
 552 0210 6846     		mov	r0, sp
 553 0212 FFF7FEFF 		bl	psu_config
ARM GAS  C:\Users\Ala\AppData\Local\Temp\ccPRO05X.s 			page 25


 554              	.LVL68:
 555 0216 0522     		movs	r2, #5
 556 0218 6946     		mov	r1, sp
 557 021a 2000     		movs	r0, r4
 558 021c FFF7FEFF 		bl	memcpy
 559              	.LVL69:
 529:modes.c       ****         {
 560              		.loc 1 529 0
 561 0220 E378     		ldrb	r3, [r4, #3]
 562 0222 002B     		cmp	r3, #0
 563 0224 C8D0     		beq	.L47
 538:modes.c       ****                 {
 564              		.loc 1 538 0
 565 0226 FFF7FEFF 		bl	BT_SBC_Read
 566              	.LVL70:
 285:modes.c       ****     uint8 swCounter = 0;
 567              		.loc 1 285 0
 568 022a 0024     		movs	r4, #0
 538:modes.c       ****                 {
 569              		.loc 1 538 0
 570 022c A042     		cmp	r0, r4
 571 022e 07D0     		beq	.L20
 572              	.LVL71:
 543:modes.c       ****                     new_display_data_flag = 1; 
 573              		.loc 1 543 0
 574 0230 3F49     		ldr	r1, .L52+48
 575 0232 3448     		ldr	r0, .L52+4
 576 0234 FFF7FEFF 		bl	strcpy
 577              	.LVL72:
 544:modes.c       ****                 }
 578              		.loc 1 544 0
 579 0238 0122     		movs	r2, #1
 580 023a 334B     		ldr	r3, .L52+8
 540:modes.c       **** // SENT OVER SPI informaiton about BlueTooth codec info
 581              		.loc 1 540 0
 582 023c 0434     		adds	r4, r4, #4
 544:modes.c       ****                 }
 583              		.loc 1 544 0
 584 023e 9A70     		strb	r2, [r3, #2]
 585              	.LVL73:
 586              	.L20:
 547:modes.c       ****                 {
 587              		.loc 1 547 0
 588 0240 3C4B     		ldr	r3, .L52+52
 589 0242 1B68     		ldr	r3, [r3]
 590 0244 1B07     		lsls	r3, r3, #28
 591 0246 07D5     		bpl	.L21
 592              	.LVL74:
 552:modes.c       ****                     new_display_data_flag = 1; 
 593              		.loc 1 552 0
 594 0248 3B49     		ldr	r1, .L52+56
 595 024a 2E48     		ldr	r0, .L52+4
 596 024c FFF7FEFF 		bl	strcpy
 597              	.LVL75:
 553:modes.c       ****                 }
 598              		.loc 1 553 0
 599 0250 0122     		movs	r2, #1
ARM GAS  C:\Users\Ala\AppData\Local\Temp\ccPRO05X.s 			page 26


 549:modes.c       **** // SENT OVER SPI informaiton about BlueTooth codec info
 600              		.loc 1 549 0
 601 0252 0524     		movs	r4, #5
 553:modes.c       ****                 }
 602              		.loc 1 553 0
 603 0254 2C4B     		ldr	r3, .L52+8
 604 0256 9A70     		strb	r2, [r3, #2]
 605              	.LVL76:
 606              	.L21:
 556:modes.c       ****                 {
 607              		.loc 1 556 0
 608 0258 FFF7FEFF 		bl	BT_APTX_Read
 609              	.LVL77:
 610 025c 0028     		cmp	r0, #0
 611 025e 07D0     		beq	.L22
 612              	.LVL78:
 561:modes.c       ****                     new_display_data_flag = 1; 
 613              		.loc 1 561 0
 614 0260 3649     		ldr	r1, .L52+60
 615 0262 2848     		ldr	r0, .L52+4
 616 0264 FFF7FEFF 		bl	strcpy
 617              	.LVL79:
 562:modes.c       ****                 }                
 618              		.loc 1 562 0
 619 0268 0122     		movs	r2, #1
 558:modes.c       **** // SENT OVER SPI informaiton about BlueTooth codec info
 620              		.loc 1 558 0
 621 026a 0624     		movs	r4, #6
 562:modes.c       ****                 }                
 622              		.loc 1 562 0
 623 026c 264B     		ldr	r3, .L52+8
 624 026e 9A70     		strb	r2, [r3, #2]
 625              	.LVL80:
 626              	.L22:
 565:modes.c       ****                 {
 627              		.loc 1 565 0
 628 0270 FFF7FEFF 		bl	BT_HD_Read
 629              	.LVL81:
 630 0274 0028     		cmp	r0, #0
 631 0276 07D0     		beq	.L23
 632              	.LVL82:
 570:modes.c       ****                     new_display_data_flag = 1; 
 633              		.loc 1 570 0
 634 0278 3149     		ldr	r1, .L52+64
 635 027a 2248     		ldr	r0, .L52+4
 636 027c FFF7FEFF 		bl	strcpy
 637              	.LVL83:
 571:modes.c       ****                 }                
 638              		.loc 1 571 0
 639 0280 0122     		movs	r2, #1
 567:modes.c       **** // SENT OVER SPI informaiton about BlueTooth codec info
 640              		.loc 1 567 0
 641 0282 0724     		movs	r4, #7
 571:modes.c       ****                 }                
 642              		.loc 1 571 0
 643 0284 204B     		ldr	r3, .L52+8
 644 0286 9A70     		strb	r2, [r3, #2]
ARM GAS  C:\Users\Ala\AppData\Local\Temp\ccPRO05X.s 			page 27


 645              	.LVL84:
 646              	.L23:
 574:modes.c       ****                 {
 647              		.loc 1 574 0
 648 0288 FFF7FEFF 		bl	BT_LL_Read
 649              	.LVL85:
 650 028c 0028     		cmp	r0, #0
 651 028e 08D0     		beq	.L24
 652              	.LVL86:
 579:modes.c       ****                     new_display_data_flag = 1; 
 653              		.loc 1 579 0
 654 0290 2C49     		ldr	r1, .L52+68
 655 0292 1C48     		ldr	r0, .L52+4
 656 0294 FFF7FEFF 		bl	strcpy
 657              	.LVL87:
 580:modes.c       **** 
 658              		.loc 1 580 0
 659 0298 0122     		movs	r2, #1
 660 029a 1B4B     		ldr	r3, .L52+8
 576:modes.c       **** // SENT OVER SPI informaiton about BlueTooth codec info
 661              		.loc 1 576 0
 662 029c 0824     		movs	r4, #8
 580:modes.c       **** 
 663              		.loc 1 580 0
 664 029e 9A70     		strb	r2, [r3, #2]
 665 02a0 2CE0     		b	.L11
 666              	.LVL88:
 667              	.L24:
 584:modes.c       ****                 {
 668              		.loc 1 584 0
 669 02a2 032C     		cmp	r4, #3
 670 02a4 2AD8     		bhi	.L11
 671 02a6 9625     		movs	r5, #150
 672 02a8 0400     		movs	r4, r0
 673              	.LVL89:
 674              	.L26:
 594:modes.c       ****                         {
 675              		.loc 1 594 0
 676 02aa FFF7FEFF 		bl	BT_PAIRING_Read
 677              	.LVL90:
 678 02ae 0028     		cmp	r0, #0
 679 02b0 01D1     		bne	.L25
 597:modes.c       ****                         }
 680              		.loc 1 597 0
 681 02b2 631C     		adds	r3, r4, #1
 682 02b4 DCB2     		uxtb	r4, r3
 683              	.LVL91:
 684              	.L25:
 685 02b6 013D     		subs	r5, r5, #1
 686              	.LVL92:
 600:modes.c       ****                     }
 687              		.loc 1 600 0 discriminator 2
 688 02b8 0A20     		movs	r0, #10
 689 02ba EDB2     		uxtb	r5, r5
 690 02bc FFF7FEFF 		bl	CyDelay
 691              	.LVL93:
 591:modes.c       ****                     {
ARM GAS  C:\Users\Ala\AppData\Local\Temp\ccPRO05X.s 			page 28


 692              		.loc 1 591 0 discriminator 2
 693 02c0 002D     		cmp	r5, #0
 694 02c2 F2D1     		bne	.L26
 695 02c4 0F48     		ldr	r0, .L52+4
 696 02c6 104D     		ldr	r5, .L52+8
 603:modes.c       ****                     {
 697              		.loc 1 603 0
 698 02c8 942C     		cmp	r4, #148
 699 02ca 05D9     		bls	.L27
 700              	.LVL94:
 610:modes.c       **** 
 701              		.loc 1 610 0
 702 02cc 0124     		movs	r4, #1
 703              	.LVL95:
 609:modes.c       ****                         new_display_data_flag = 1; 
 704              		.loc 1 609 0
 705 02ce 1E49     		ldr	r1, .L52+72
 706 02d0 FFF7FEFF 		bl	strcpy
 707              	.LVL96:
 610:modes.c       **** 
 708              		.loc 1 610 0
 709 02d4 AC70     		strb	r4, [r5, #2]
 710 02d6 11E0     		b	.L11
 711              	.LVL97:
 712              	.L27:
 616:modes.c       ****                     {
 713              		.loc 1 616 0
 714 02d8 2300     		movs	r3, r4
 715 02da 333B     		subs	r3, r3, #51
 716 02dc DBB2     		uxtb	r3, r3
 717 02de 612B     		cmp	r3, #97
 718 02e0 06D8     		bhi	.L28
 719              	.LVL98:
 622:modes.c       ****                         new_display_data_flag = 1; 
 720              		.loc 1 622 0
 721 02e2 1A49     		ldr	r1, .L52+76
 722 02e4 FFF7FEFF 		bl	strcpy
 723              	.LVL99:
 623:modes.c       ****                     }                 
 724              		.loc 1 623 0
 725 02e8 0123     		movs	r3, #1
 619:modes.c       **** // SENT OVER SPI informaiton about BlueTooth status
 726              		.loc 1 619 0
 727 02ea 0224     		movs	r4, #2
 728              	.LVL100:
 623:modes.c       ****                     }                 
 729              		.loc 1 623 0
 730 02ec AB70     		strb	r3, [r5, #2]
 731 02ee 05E0     		b	.L11
 732              	.LVL101:
 733              	.L28:
 632:modes.c       ****                         new_display_data_flag = 1; 
 734              		.loc 1 632 0
 735 02f0 1749     		ldr	r1, .L52+80
 736 02f2 FFF7FEFF 		bl	strcpy
 737              	.LVL102:
 633:modes.c       **** 
ARM GAS  C:\Users\Ala\AppData\Local\Temp\ccPRO05X.s 			page 29


 738              		.loc 1 633 0
 739 02f6 0123     		movs	r3, #1
 629:modes.c       **** // SENT OVER SPI informaiton about BlueTooth status
 740              		.loc 1 629 0
 741 02f8 0324     		movs	r4, #3
 742              	.LVL103:
 633:modes.c       **** 
 743              		.loc 1 633 0
 744 02fa AB70     		strb	r3, [r5, #2]
 745              	.LVL104:
 746              	.L11:
 642:modes.c       **** 
 747              		.loc 1 642 0
 748 02fc 2000     		movs	r0, r4
 749              		@ sp needed
 750              	.LVL105:
 751 02fe 3EBD     		pop	{r1, r2, r3, r4, r5, pc}
 752              	.L53:
 753              		.align	2
 754              	.L52:
 755 0300 00000000 		.word	.LC0
 756 0304 00000000 		.word	.LANCHOR0
 757 0308 00000000 		.word	.LANCHOR1
 758 030c 19000000 		.word	.LC4
 759 0310 32000000 		.word	.LC6
 760 0314 28230000 		.word	9000
 761 0318 4B000000 		.word	.LC8
 762 031c 64000000 		.word	.LC10
 763 0320 7D000000 		.word	.LC12
 764 0324 96000000 		.word	.LC14
 765 0328 AF000000 		.word	.LC16
 766 032c 00000000 		.word	current_PSUstate
 767 0330 C8000000 		.word	.LC19
 768 0334 04040440 		.word	1074004996
 769 0338 E1000000 		.word	.LC21
 770 033c FA000000 		.word	.LC23
 771 0340 13010000 		.word	.LC25
 772 0344 2C010000 		.word	.LC27
 773 0348 45010000 		.word	.LC29
 774 034c 5E010000 		.word	.LC31
 775 0350 77010000 		.word	.LC33
 776              		.cfi_endproc
 777              	.LFE33:
 778              		.size	BT_control, .-BT_control
 779              		.section	.text.buttons_check,"ax",%progbits
 780              		.align	1
 781              		.global	buttons_check
 782              		.code	16
 783              		.thumb_func
 784              		.type	buttons_check, %function
 785              	buttons_check:
 786              	.LFB32:
  49:modes.c       ****     
 787              		.loc 1 49 0
 788              		.cfi_startproc
 789              		@ args = 0, pretend = 0, frame = 8
 790              		@ frame_needed = 0, uses_anonymous_args = 0
ARM GAS  C:\Users\Ala\AppData\Local\Temp\ccPRO05X.s 			page 30


 791 0000 F7B5     		push	{r0, r1, r2, r4, r5, r6, r7, lr}
 792              		.cfi_def_cfa_offset 32
 793              		.cfi_offset 0, -32
 794              		.cfi_offset 1, -28
 795              		.cfi_offset 2, -24
 796              		.cfi_offset 4, -20
 797              		.cfi_offset 5, -16
 798              		.cfi_offset 6, -12
 799              		.cfi_offset 7, -8
 800              		.cfi_offset 14, -4
  55:modes.c       **** 
 801              		.loc 1 55 0
 802 0002 0025     		movs	r5, #0
  58:modes.c       ****     {
 803              		.loc 1 58 0
 804 0004 384E     		ldr	r6, .L79
  55:modes.c       **** 
 805              		.loc 1 55 0
 806 0006 01A9     		add	r1, sp, #4
  58:modes.c       ****     {
 807              		.loc 1 58 0
 808 0008 3478     		ldrb	r4, [r6]
  55:modes.c       **** 
 809              		.loc 1 55 0
 810 000a 0D70     		strb	r5, [r1]
 811 000c 4D70     		strb	r5, [r1, #1]
 812 000e 8D70     		strb	r5, [r1, #2]
  58:modes.c       ****     {
 813              		.loc 1 58 0
 814 0010 012C     		cmp	r4, #1
 815 0012 1CD1     		bne	.L55
  61:modes.c       ****         {
 816              		.loc 1 61 0
 817 0014 354D     		ldr	r5, .L79+4
 818 0016 E878     		ldrb	r0, [r5, #3]
 819 0018 0028     		cmp	r0, #0
 820 001a 12D1     		bne	.L56
  65:modes.c       **** // set variables based on read data
 821              		.loc 1 65 0
 822 001c 344F     		ldr	r7, .L79+8
 823 001e 354B     		ldr	r3, .L79+12
 824 0020 0322     		movs	r2, #3
 825 0022 3900     		movs	r1, r7
 826 0024 FFF7FEFF 		bl	Cy_Em_EEPROM_Read
 827              	.LVL106:
  67:modes.c       ****             DISPLAY_STATE = eepromArray[1];
 828              		.loc 1 67 0
 829 0028 3B78     		ldrb	r3, [r7]
 830 002a EB70     		strb	r3, [r5, #3]
  68:modes.c       ****             BT_Tx_STATE = eepromArray[2];
 831              		.loc 1 68 0
 832 002c 7A78     		ldrb	r2, [r7, #1]
 833 002e 2A71     		strb	r2, [r5, #4]
  69:modes.c       **** // start with system state in 1 to avoid infinite loop in system state 0
 834              		.loc 1 69 0
 835 0030 BA78     		ldrb	r2, [r7, #2]
 836 0032 6A71     		strb	r2, [r5, #5]
ARM GAS  C:\Users\Ala\AppData\Local\Temp\ccPRO05X.s 			page 31


  71:modes.c       ****             {
 837              		.loc 1 71 0
 838 0034 002B     		cmp	r3, #0
 839 0036 01D1     		bne	.L58
 840              	.L57:
  73:modes.c       ****             }
 841              		.loc 1 73 0
 842 0038 0123     		movs	r3, #1
 843 003a EB70     		strb	r3, [r5, #3]
 844              	.L58:
  76:modes.c       ****         }
 845              		.loc 1 76 0
 846 003c 0023     		movs	r3, #0
 847 003e 3370     		strb	r3, [r6]
 848 0040 50E0     		b	.L59
 849              	.L56:
  81:modes.c       ****                 if (SYSTEM_STATE >= 9)
 850              		.loc 1 81 0
 851 0042 0130     		adds	r0, r0, #1
 852 0044 C0B2     		uxtb	r0, r0
 853 0046 E870     		strb	r0, [r5, #3]
  82:modes.c       ****                 {
 854              		.loc 1 82 0
 855 0048 0828     		cmp	r0, #8
 856 004a F5D8     		bhi	.L57
 857 004c F6E7     		b	.L58
 858              	.L55:
  95:modes.c       ****     {
 859              		.loc 1 95 0
 860 004e 2A4F     		ldr	r7, .L79+16
 861 0050 3C78     		ldrb	r4, [r7]
 862 0052 012C     		cmp	r4, #1
 863 0054 0FD1     		bne	.L61
  98:modes.c       ****         array[1] =  DISPLAY_STATE;
 864              		.loc 1 98 0
 865 0056 254E     		ldr	r6, .L79+4
 102:modes.c       ****         
 866              		.loc 1 102 0
 867 0058 0322     		movs	r2, #3
  98:modes.c       ****         array[1] =  DISPLAY_STATE;
 868              		.loc 1 98 0
 869 005a F378     		ldrb	r3, [r6, #3]
 102:modes.c       ****         
 870              		.loc 1 102 0
 871 005c 2800     		movs	r0, r5
  98:modes.c       ****         array[1] =  DISPLAY_STATE;
 872              		.loc 1 98 0
 873 005e 0B70     		strb	r3, [r1]
  99:modes.c       ****         array[2] =  BT_Tx_STATE;
 874              		.loc 1 99 0
 875 0060 3379     		ldrb	r3, [r6, #4]
 876 0062 4B70     		strb	r3, [r1, #1]
 100:modes.c       ****  // Write data to emulated EEPROM
 877              		.loc 1 100 0
 878 0064 7379     		ldrb	r3, [r6, #5]
 879 0066 8B70     		strb	r3, [r1, #2]
 102:modes.c       ****         
ARM GAS  C:\Users\Ala\AppData\Local\Temp\ccPRO05X.s 			page 32


 880              		.loc 1 102 0
 881 0068 224B     		ldr	r3, .L79+12
 882 006a FFF7FEFF 		bl	Cy_Em_EEPROM_Write
 883              	.LVL107:
 105:modes.c       **** // set display state to power down
 884              		.loc 1 105 0
 885 006e F570     		strb	r5, [r6, #3]
 107:modes.c       **** // clear push button variable
 886              		.loc 1 107 0
 887 0070 3571     		strb	r5, [r6, #4]
 109:modes.c       **** // return 1 indicating button press action
 888              		.loc 1 109 0
 889 0072 3D70     		strb	r5, [r7]
 111:modes.c       ****     }
 890              		.loc 1 111 0
 891 0074 36E0     		b	.L59
 892              	.L61:
 115:modes.c       ****     {
 893              		.loc 1 115 0
 894 0076 214C     		ldr	r4, .L79+20
 895 0078 2378     		ldrb	r3, [r4]
 896 007a 012B     		cmp	r3, #1
 897 007c 1DD1     		bne	.L62
 118:modes.c       ****         {
 898              		.loc 1 118 0
 899 007e 1B4B     		ldr	r3, .L79+4
 900 0080 D878     		ldrb	r0, [r3, #3]
 901 0082 0138     		subs	r0, r0, #1
 902 0084 0728     		cmp	r0, #7
 903 0086 18D8     		bhi	.L62
 904 0088 FFF7FEFF 		bl	__gnu_thumb1_case_uqi
 905              	.L64:
 906 008c 04       		.byte	(.L66-.L64)/2
 907 008d 04       		.byte	(.L66-.L64)/2
 908 008e 04       		.byte	(.L66-.L64)/2
 909 008f 17       		.byte	(.L62-.L64)/2
 910 0090 17       		.byte	(.L62-.L64)/2
 911 0091 17       		.byte	(.L62-.L64)/2
 912 0092 0E       		.byte	(.L67-.L64)/2
 913 0093 11       		.byte	(.L68-.L64)/2
 914              		.p2align 1
 915              	.L66:
 162:modes.c       ****                 CyDelay(100);  
 916              		.loc 1 162 0
 917 0094 1A48     		ldr	r0, .L79+24
 918 0096 FFF7FEFF 		bl	UART_UartPutString
 919              	.LVL108:
 163:modes.c       ****                 UART_UartPutString("-GO+");
 920              		.loc 1 163 0
 921 009a 6420     		movs	r0, #100
 922 009c FFF7FEFF 		bl	CyDelay
 923              	.LVL109:
 164:modes.c       ****                 MODE_SHORT_V = 0;
 924              		.loc 1 164 0
 925 00a0 1848     		ldr	r0, .L79+28
 926 00a2 FFF7FEFF 		bl	UART_UartPutString
 927              	.LVL110:
ARM GAS  C:\Users\Ala\AppData\Local\Temp\ccPRO05X.s 			page 33


 928 00a6 06E0     		b	.L77
 929              	.L67:
 195:modes.c       ****                 MODE_SHORT_V = 0;
 930              		.loc 1 195 0
 931 00a8 0121     		movs	r1, #1
 932 00aa 0220     		movs	r0, #2
 933 00ac 01E0     		b	.L78
 934              	.L68:
 207:modes.c       ****                 MODE_SHORT_V = 0;
 935              		.loc 1 207 0
 936 00ae 0121     		movs	r1, #1
 937 00b0 0800     		movs	r0, r1
 938              	.L78:
 939 00b2 FFF7FEFF 		bl	BT_control
 940              	.LVL111:
 941              	.L77:
 208:modes.c       ****             }
 942              		.loc 1 208 0
 943 00b6 0023     		movs	r3, #0
 944 00b8 2370     		strb	r3, [r4]
 945              	.L62:
 225:modes.c       ****     {
 946              		.loc 1 225 0
 947 00ba 134B     		ldr	r3, .L79+32
 948 00bc 1C78     		ldrb	r4, [r3]
 949 00be 1A00     		movs	r2, r3
 950 00c0 012C     		cmp	r4, #1
 951 00c2 0ED1     		bne	.L73
 228:modes.c       ****         {
 952              		.loc 1 228 0
 953 00c4 0949     		ldr	r1, .L79+4
 954 00c6 CB78     		ldrb	r3, [r1, #3]
 955 00c8 002B     		cmp	r3, #0
 956 00ca 07D0     		beq	.L70
 231:modes.c       ****             if (DISPLAY_STATE >= 7)
 957              		.loc 1 231 0
 958 00cc 0B79     		ldrb	r3, [r1, #4]
 959 00ce 0133     		adds	r3, r3, #1
 960 00d0 DBB2     		uxtb	r3, r3
 232:modes.c       ****             {
 961              		.loc 1 232 0
 962 00d2 062B     		cmp	r3, #6
 963 00d4 01D8     		bhi	.L71
 231:modes.c       ****             if (DISPLAY_STATE >= 7)
 964              		.loc 1 231 0
 965 00d6 0B71     		strb	r3, [r1, #4]
 966 00d8 00E0     		b	.L70
 967              	.L71:
 234:modes.c       ****             }
 968              		.loc 1 234 0
 969 00da 0C71     		strb	r4, [r1, #4]
 970              	.L70:
 238:modes.c       **** // return 1 indicating button press action
 971              		.loc 1 238 0
 972 00dc 0023     		movs	r3, #0
 973 00de 1370     		strb	r3, [r2]
 240:modes.c       ****     }
ARM GAS  C:\Users\Ala\AppData\Local\Temp\ccPRO05X.s 			page 34


 974              		.loc 1 240 0
 975 00e0 00E0     		b	.L59
 976              	.L73:
 244:modes.c       **** } 
 977              		.loc 1 244 0
 978 00e2 0024     		movs	r4, #0
 979              	.L59:
 245:modes.c       **** 
 980              		.loc 1 245 0
 981 00e4 2000     		movs	r0, r4
 982              		@ sp needed
 983 00e6 FEBD     		pop	{r1, r2, r3, r4, r5, r6, r7, pc}
 984              	.L80:
 985              		.align	2
 986              	.L79:
 987 00e8 00000000 		.word	PWR_OK_SHORT_V
 988 00ec 00000000 		.word	.LANCHOR1
 989 00f0 00000000 		.word	eepromArray
 990 00f4 00000000 		.word	Em_EEPROM_context
 991 00f8 00000000 		.word	PWR_OK_LONG_V
 992 00fc 00000000 		.word	MODE_SHORT_V
 993 0100 90010000 		.word	.LC42
 994 0104 95010000 		.word	.LC44
 995 0108 00000000 		.word	MODE_LONG_V
 996              		.cfi_endproc
 997              	.LFE32:
 998              		.size	buttons_check, .-buttons_check
 999              		.global	__aeabi_idiv
 1000              		.global	__aeabi_lmul
 1001              		.section	.text.datalink_decoder,"ax",%progbits
 1002              		.align	1
 1003              		.global	datalink_decoder
 1004              		.code	16
 1005              		.thumb_func
 1006              		.type	datalink_decoder, %function
 1007              	datalink_decoder:
 1008              	.LFB35:
 695:modes.c       **** 
 696:modes.c       **** 
 697:modes.c       **** 
 698:modes.c       **** 
 699:modes.c       **** /*******************************************************************************
 700:modes.c       **** * Function Name: datalink_decoder()
 701:modes.c       **** ********************************************************************************
 702:modes.c       **** * Summary:
 703:modes.c       **** *  Function responsible for encoding raw datalink timing informaiton into
 704:modes.c       **** *  commands
 705:modes.c       **** *   
 706:modes.c       **** * Parameters:
 707:modes.c       **** *  No parameters as input. Function operates on global varaibles set by interrupt 
 708:modes.c       **** *  routine
 709:modes.c       **** *
 710:modes.c       **** * Return:
 711:modes.c       **** *  code represents error or decoded command as follow:
 712:modes.c       **** *   0 - no new command
 713:modes.c       **** *   1 - incorrect start and/or stop value
 714:modes.c       **** *   2 - if t = 0 and t+1 = t1 -> error or t = 1 and t+1 = t3 -> error
ARM GAS  C:\Users\Ala\AppData\Local\Temp\ccPRO05X.s 			page 35


 715:modes.c       **** *  10 - only Aux button pressed - power up to last state
 716:modes.c       **** *  11 - Aux button pressed plus one digit number 1 or nubmer one to any of five aux devices
 717:modes.c       **** *  12 - Aux button pressed plus one digit number 2 or nubmer two  to any of five aux devices
 718:modes.c       **** *  13 - Aux button pressed plus one digit number 3 or nubmer three to any of five aux devices
 719:modes.c       **** *  14 - Aux button pressed plus one digit number 4 or nubmer four to any of five aux devices
 720:modes.c       **** *  15 - Aux button pressed plus one digit number 5 or nubmer five to any of five aux devices
 721:modes.c       **** *  16 - Digit number 6 to any of five aux devices
 722:modes.c       **** *  17 - Digit number 7 to any of five aux devices
 723:modes.c       **** *  18 - Digit number 8 to any of five aux devices
 724:modes.c       **** *  20 - OK/GO/PLAY to any of five aux devices
 725:modes.c       **** *  21 - UP/STEP > to any of five aux devices
 726:modes.c       **** *  22 - DOWN/< STEP to any of five aux devices
 727:modes.c       **** *  23 - LEFT/<< to any of five aux devices
 728:modes.c       **** *  24 - RIGHT/>> to any of five aux devices
 729:modes.c       **** *  25 - STOP to any of five aux devices
 730:modes.c       **** *  26 - POWER OFF to any of five aux devices
 731:modes.c       **** *  27 - MENU(onBeo4)/TURN(on MCP) to any of five aux devices
 732:modes.c       **** *  28 - EXIT(on Beo4)/RESET(on MCP) to any of five aux devices
 733:modes.c       **** *  31 - DISPLAY or yellow to any of five aux devices
 734:modes.c       **** *  32 - green to any of five aux devices
 735:modes.c       **** *  41 - FM Radio station 1
 736:modes.c       **** *  42 - FM Radio station 2
 737:modes.c       **** *  43 - FM Radio station 3
 738:modes.c       **** *  44 - FM Radio station 4
 739:modes.c       **** *  45 - FM Radio station 5
 740:modes.c       **** *  46 - FM Radio station 6
 741:modes.c       **** *  47 - FM Radio station 7
 742:modes.c       **** *  48 - FM Radio station 8
 743:modes.c       **** *  49 - FM Radio station 9
 744:modes.c       **** *  50 - FM Radio station 10
 745:modes.c       **** *  51 - FM Radio station 11
 746:modes.c       **** *  52 - FM Radio station 12
 747:modes.c       **** *  53 - FM Radio station 13
 748:modes.c       **** *  54 - FM Radio station 14
 749:modes.c       **** *  55 - FM Radio station 15
 750:modes.c       **** *  56 - FM Radio station 16
 751:modes.c       **** *  57 - FM Radio station 17
 752:modes.c       **** *  58 - FM Radio station 18
 753:modes.c       **** *  59 - FM Radio station 19
 754:modes.c       **** *  60 - FM Radio station 20
 755:modes.c       **** *
 756:modes.c       **** *******************************************************************************/  
 757:modes.c       **** uint8 datalink_decoder()  
 758:modes.c       **** {
 1009              		.loc 1 758 0
 1010              		.cfi_startproc
 1011              		@ args = 0, pretend = 0, frame = 136
 1012              		@ frame_needed = 0, uses_anonymous_args = 0
 1013              	.LVL112:
 1014 0000 F0B5     		push	{r4, r5, r6, r7, lr}
 1015              		.cfi_def_cfa_offset 20
 1016              		.cfi_offset 4, -20
 1017              		.cfi_offset 5, -16
 1018              		.cfi_offset 6, -12
 1019              		.cfi_offset 7, -8
 1020              		.cfi_offset 14, -4
 1021 0002 A3B0     		sub	sp, sp, #140
ARM GAS  C:\Users\Ala\AppData\Local\Temp\ccPRO05X.s 			page 36


 1022              		.cfi_def_cfa_offset 160
 759:modes.c       **** // variable used to scan thru DATALINK readback time string 
 760:modes.c       ****     uint8 command_counter = 0;  
 761:modes.c       **** // variable used when converting bits to hex 
 762:modes.c       ****     uint64 hex_weight = 1;  
 763:modes.c       **** // variable used to scan thru DATALINK readback time string 
 764:modes.c       ****     uint8 decoded_command_table_size = 0;  
 765:modes.c       **** // table to store decoded command    
 766:modes.c       ****     uint8 TIME_TABLE[64] = {0};
 1023              		.loc 1 766 0
 1024 0004 4022     		movs	r2, #64
 1025 0006 0021     		movs	r1, #0
 1026 0008 02A8     		add	r0, sp, #8
 1027 000a FFF7FEFF 		bl	memset
 1028              	.LVL113:
 767:modes.c       **** // table to store decoded command    
 768:modes.c       ****     uint8 COMMAND_TABLE[64] = {0};
 1029              		.loc 1 768 0
 1030 000e 4022     		movs	r2, #64
 1031 0010 0021     		movs	r1, #0
 1032 0012 12A8     		add	r0, sp, #72
 1033 0014 FFF7FEFF 		bl	memset
 1034              	.LVL114:
 769:modes.c       **** // table to store commands in hex format    
 770:modes.c       ****     uint64 COMMAND_HEX = 0;
 771:modes.c       **** // variable to store return status
 772:modes.c       ****     uint8 status = 0;
 773:modes.c       **** 
 774:modes.c       **** // check if new command is available to decode    
 775:modes.c       ****     if (DATALINK_TABLE_COUNTER_MAX != 0)
 1035              		.loc 1 775 0
 1036 0018 5C4B     		ldr	r3, .L249
 1037 001a 1F78     		ldrb	r7, [r3]
 772:modes.c       **** 
 1038              		.loc 1 772 0
 1039 001c 0023     		movs	r3, #0
 1040 001e 0093     		str	r3, [sp]
 1041              		.loc 1 775 0
 1042 0020 9F42     		cmp	r7, r3
 1043 0022 01D1     		bne	.LCB879
 1044 0024 00F09FFC 		bl	.L82	@far jump
 1045              	.LCB879:
 776:modes.c       ****     {
 777:modes.c       **** // check if new time string has correct start and stop characters        
 778:modes.c       ****         if ( (80 - DATALINK_TABLE[1] >= 0) & 
 1046              		.loc 1 778 0
 1047 0028 5022     		movs	r2, #80
 1048 002a 0E20     		movs	r0, #14
 1049 002c 0021     		movs	r1, #0
 1050 002e 584C     		ldr	r4, .L249+4
 1051 0030 0D00     		movs	r5, r1
 1052 0032 6378     		ldrb	r3, [r4, #1]
 1053 0034 D31A     		subs	r3, r2, r3
 1054 0036 9842     		cmp	r0, r3
 1055 0038 4941     		adcs	r1, r1, r1
 1056 003a 0B00     		movs	r3, r1
 1057 003c A178     		ldrb	r1, [r4, #2]
ARM GAS  C:\Users\Ala\AppData\Local\Temp\ccPRO05X.s 			page 37


 1058 003e 511A     		subs	r1, r2, r1
 1059 0040 8842     		cmp	r0, r1
 1060 0042 6D41     		adcs	r5, r5, r5
 1061 0044 2900     		movs	r1, r5
 1062 0046 1940     		ands	r1, r3
 1063 0048 E378     		ldrb	r3, [r4, #3]
 1064 004a D21A     		subs	r2, r2, r3
 1065 004c 0123     		movs	r3, #1
 1066 004e 3F2A     		cmp	r2, #63
 1067 0050 01DC     		bgt	.L83
 1068 0052 6B46     		mov	r3, sp
 1069 0054 1B78     		ldrb	r3, [r3]
 1070              	.L83:
 1071 0056 0026     		movs	r6, #0
 1072 0058 5025     		movs	r5, #80
 1073 005a 0B40     		ands	r3, r1
 1074 005c 3000     		movs	r0, r6
 1075 005e 0E21     		movs	r1, #14
 1076 0060 2279     		ldrb	r2, [r4, #4]
 1077 0062 AA1A     		subs	r2, r5, r2
 1078 0064 9142     		cmp	r1, r2
 1079 0066 7041     		adcs	r0, r0, r6
 1080 0068 0340     		ands	r3, r0
 1081 006a DB07     		lsls	r3, r3, #31
 1082 006c 01D4     		bmi	.LCB919
 1083 006e 00F0DEFB 		bl	.L120	@far jump
 1084              	.LCB919:
 1085 0072 1022     		movs	r2, #16
 1086 0074 3100     		movs	r1, r6
 1087 0076 E35D     		ldrb	r3, [r4, r7]
 1088 0078 EB1A     		subs	r3, r5, r3
 1089 007a 2F3B     		subs	r3, r3, #47
 1090 007c 9A42     		cmp	r2, r3
 1091 007e 7141     		adcs	r1, r1, r6
 1092 0080 CBB2     		uxtb	r3, r1
 1093 0082 B342     		cmp	r3, r6
 1094 0084 00D1     		bne	.LCB928
 1095 0086 D2E3     		b	.L120	@long jump
 1096              	.LCB928:
 1097 0088 0196     		str	r6, [sp, #4]
 1098              	.LVL115:
 1099              	.L84:
 779:modes.c       ****              (80 - DATALINK_TABLE[1] < 15) &
 780:modes.c       ****              (80 - DATALINK_TABLE[2] >= 0) & 
 781:modes.c       ****              (80 - DATALINK_TABLE[2] < 15) &
 782:modes.c       ****              (80 - DATALINK_TABLE[3] >= 64) & 
 783:modes.c       ****              (80 - DATALINK_TABLE[3] <= 80) &
 784:modes.c       ****              (80 - DATALINK_TABLE[4] >= 0) & 
 785:modes.c       ****              (80 - DATALINK_TABLE[4] < 15) &
 786:modes.c       ****              (80 - DATALINK_TABLE[DATALINK_TABLE_COUNTER_MAX] >= 47) & 
 787:modes.c       ****              (80 - DATALINK_TABLE[DATALINK_TABLE_COUNTER_MAX] < 64) )
 788:modes.c       ****         {
 789:modes.c       **** // scan thru time table and convert measured time informations 
 790:modes.c       **** // into string of t1 = 1 ,t2 = 2, t3 = 3 time designators
 791:modes.c       ****             for (command_counter = 4 ; command_counter <= ( DATALINK_TABLE_COUNTER_MAX - 1 ); ++com
 1100              		.loc 1 791 0 discriminator 1
 1101 008a 019B     		ldr	r3, [sp, #4]
ARM GAS  C:\Users\Ala\AppData\Local\Temp\ccPRO05X.s 			page 38


 1102 008c 0433     		adds	r3, r3, #4
 1103 008e DBB2     		uxtb	r3, r3
 1104 0090 9F42     		cmp	r7, r3
 1105 0092 0EDD     		ble	.L246
 792:modes.c       ****             {    
 793:modes.c       **** // invert convert number (down-count from 80) to number of DATALINK clock (5120Hz) ticks
 794:modes.c       **** // divide them by 15 and add 1 to get t1 = 1 ,t2 = 2, t3 = 3 times
 795:modes.c       ****                 TIME_TABLE[command_counter - 4] = ((80 - DATALINK_TABLE[command_counter]) / 15) + 1
 1106              		.loc 1 795 0 discriminator 3
 1107 0094 E05C     		ldrb	r0, [r4, r3]
 1108 0096 02AA     		add	r2, sp, #8
 1109 0098 281A     		subs	r0, r5, r0
 1110 009a 0F21     		movs	r1, #15
 1111 009c 9E18     		adds	r6, r3, r2
 1112 009e FFF7FEFF 		bl	__aeabi_idiv
 1113              	.LVL116:
 1114 00a2 043E     		subs	r6, r6, #4
 1115 00a4 0130     		adds	r0, r0, #1
 1116 00a6 3070     		strb	r0, [r6]
 796:modes.c       ****                 
 797:modes.c       **** // increase size of counter that will determine table size with decoded word
 798:modes.c       ****                 decoded_command_table_size = decoded_command_table_size + 1;
 1117              		.loc 1 798 0 discriminator 3
 1118 00a8 019E     		ldr	r6, [sp, #4]
 1119 00aa 0136     		adds	r6, r6, #1
 1120 00ac F3B2     		uxtb	r3, r6
 1121 00ae 0193     		str	r3, [sp, #4]
 1122              	.LVL117:
 1123 00b0 EBE7     		b	.L84
 1124              	.L246:
 1125 00b2 4122     		movs	r2, #65
 1126 00b4 02AB     		add	r3, sp, #8
 1127 00b6 D218     		adds	r2, r2, r3
 791:modes.c       ****             {    
 1128              		.loc 1 791 0
 1129 00b8 0023     		movs	r3, #0
 799:modes.c       ****             }
 800:modes.c       **** 
 801:modes.c       ****             COMMAND_TABLE[0] = 0;
 802:modes.c       **** 
 803:modes.c       **** // scan thru t1,t2,t3 table and encode it to 10 data following DATALINK spec
 804:modes.c       ****             for (command_counter = 0 ; command_counter < decoded_command_table_size; ++command_coun
 805:modes.c       ****             {
 806:modes.c       **** // if t = 0 and t+1 = t1 -> error 
 807:modes.c       ****                 if ( (COMMAND_TABLE[command_counter] == 0) & (TIME_TABLE[command_counter + 1] == 1)
 808:modes.c       ****                 {
 809:modes.c       ****                     status = 2;
 810:modes.c       ****                 }
 811:modes.c       **** // if t = 0 and t+1 = t2 -> 0
 812:modes.c       ****                 else if ( (COMMAND_TABLE[command_counter] == 0) & (TIME_TABLE[command_counter + 1] 
 813:modes.c       ****                 {
 814:modes.c       ****                     COMMAND_TABLE[command_counter + 1] = 0;
 815:modes.c       ****                 }
 816:modes.c       **** // if t = 0 and t+1 = t3 -> 1
 817:modes.c       ****                 else if ( (COMMAND_TABLE[command_counter] == 0) & (TIME_TABLE[command_counter + 1] 
 818:modes.c       ****                 {
 819:modes.c       ****                     COMMAND_TABLE[command_counter + 1] = 1;
ARM GAS  C:\Users\Ala\AppData\Local\Temp\ccPRO05X.s 			page 39


 820:modes.c       ****                 }
 821:modes.c       **** // if t = 1 and t+1 = t1 -> 1
 822:modes.c       ****                 else if ( (COMMAND_TABLE[command_counter] == 1) & (TIME_TABLE[command_counter + 1] 
 823:modes.c       ****                 {
 824:modes.c       ****                     COMMAND_TABLE[command_counter + 1] = 0;
 1130              		.loc 1 824 0
 1131 00ba 9C46     		mov	ip, r3
 791:modes.c       ****             {    
 1132              		.loc 1 791 0
 1133 00bc 0093     		str	r3, [sp]
 1134              	.LVL118:
 1135              	.L86:
 804:modes.c       ****             {
 1136              		.loc 1 804 0 discriminator 1
 1137 00be 0198     		ldr	r0, [sp, #4]
 1138 00c0 D9B2     		uxtb	r1, r3
 1139 00c2 8842     		cmp	r0, r1
 1140 00c4 39D9     		bls	.L247
 807:modes.c       ****                 {
 1141              		.loc 1 807 0
 1142 00c6 12A9     		add	r1, sp, #72
 1143 00c8 585C     		ldrb	r0, [r3, r1]
 1144 00ca 02AD     		add	r5, sp, #8
 1145 00cc 4442     		rsbs	r4, r0, #0
 1146 00ce 4441     		adcs	r4, r4, r0
 1147 00d0 5919     		adds	r1, r3, r5
 1148 00d2 4978     		ldrb	r1, [r1, #1]
 1149 00d4 E4B2     		uxtb	r4, r4
 1150 00d6 4F1E     		subs	r7, r1, #1
 1151 00d8 7D42     		rsbs	r5, r7, #0
 1152 00da 6F41     		adcs	r7, r7, r5
 1153 00dc FFB2     		uxtb	r7, r7
 1154 00de 002C     		cmp	r4, #0
 1155 00e0 01D0     		beq	.L163
 1156 00e2 002F     		cmp	r7, #0
 1157 00e4 24D1     		bne	.L122
 1158              	.L163:
 812:modes.c       ****                 {
 1159              		.loc 1 812 0
 1160 00e6 8D1E     		subs	r5, r1, #2
 1161 00e8 6E42     		rsbs	r6, r5, #0
 1162 00ea 7541     		adcs	r5, r5, r6
 1163 00ec EDB2     		uxtb	r5, r5
 1164 00ee 002C     		cmp	r4, #0
 1165 00f0 01D0     		beq	.L89
 1166 00f2 002D     		cmp	r5, #0
 1167 00f4 0FD1     		bne	.L245
 1168              	.L89:
 817:modes.c       ****                 {
 1169              		.loc 1 817 0
 1170 00f6 0339     		subs	r1, r1, #3
 1171 00f8 4E42     		rsbs	r6, r1, #0
 1172 00fa 4E41     		adcs	r6, r6, r1
 1173 00fc F6B2     		uxtb	r6, r6
 1174 00fe 002C     		cmp	r4, #0
 1175 0100 01D0     		beq	.L90
 1176 0102 002E     		cmp	r6, #0
ARM GAS  C:\Users\Ala\AppData\Local\Temp\ccPRO05X.s 			page 40


 1177 0104 0DD1     		bne	.L243
 1178              	.L90:
 822:modes.c       ****                 {
 1179              		.loc 1 822 0
 1180 0106 0138     		subs	r0, r0, #1
 1181 0108 4142     		rsbs	r1, r0, #0
 1182 010a 4141     		adcs	r1, r1, r0
 1183 010c C9B2     		uxtb	r1, r1
 1184 010e 002F     		cmp	r7, #0
 1185 0110 03D0     		beq	.L91
 1186 0112 0029     		cmp	r1, #0
 1187 0114 01D0     		beq	.L91
 1188              	.L245:
 1189              		.loc 1 824 0
 1190 0116 6146     		mov	r1, ip
 1191 0118 04E0     		b	.L242
 1192              	.L91:
 825:modes.c       ****                 }
 826:modes.c       **** // if t = 1 and t+1 = t2 -> 1
 827:modes.c       ****                 else if ( (COMMAND_TABLE[command_counter] == 1) & (TIME_TABLE[command_counter + 1] 
 1193              		.loc 1 827 0
 1194 011a 002D     		cmp	r5, #0
 1195 011c 04D0     		beq	.L92
 1196 011e 0029     		cmp	r1, #0
 1197 0120 02D0     		beq	.L92
 1198              	.L243:
 828:modes.c       ****                 {
 829:modes.c       ****                     COMMAND_TABLE[command_counter + 1] = 1;
 1199              		.loc 1 829 0
 1200 0122 0121     		movs	r1, #1
 1201              	.L242:
 1202 0124 1170     		strb	r1, [r2]
 1203              	.LVL119:
 1204 0126 05E0     		b	.L87
 1205              	.LVL120:
 1206              	.L92:
 830:modes.c       ****                 }
 831:modes.c       **** // if t = 1 and t+1 = t3 -> error
 832:modes.c       ****                 else if ( (COMMAND_TABLE[command_counter] == 1) & (TIME_TABLE[command_counter + 1] 
 1207              		.loc 1 832 0
 1208 0128 002E     		cmp	r6, #0
 1209 012a 03D0     		beq	.L87
 1210 012c 0029     		cmp	r1, #0
 1211 012e 01D0     		beq	.L87
 1212              	.L122:
 833:modes.c       ****                 {
 834:modes.c       ****                      status = 2;
 1213              		.loc 1 834 0
 1214 0130 0221     		movs	r1, #2
 1215 0132 0091     		str	r1, [sp]
 1216              	.LVL121:
 1217              	.L87:
 1218 0134 0133     		adds	r3, r3, #1
 1219              	.LVL122:
 1220 0136 0132     		adds	r2, r2, #1
 1221 0138 C1E7     		b	.L86
 1222              	.LVL123:
ARM GAS  C:\Users\Ala\AppData\Local\Temp\ccPRO05X.s 			page 41


 1223              	.L247:
 835:modes.c       ****                 }
 836:modes.c       ****             }
 837:modes.c       **** 
 838:modes.c       **** // convert table with bit informaiton into 64 bits number for easier manipulation later on 
 839:modes.c       ****             if (decoded_command_table_size > 0)
 1224              		.loc 1 839 0
 1225 013a 0028     		cmp	r0, #0
 1226 013c 2AD0     		beq	.L123
 840:modes.c       ****             {
 841:modes.c       **** // scan thru table with bits starting from LSB                
 842:modes.c       ****                 for (command_counter = decoded_command_table_size-1 ; command_counter > 0 ; --comma
 1227              		.loc 1 842 0
 1228 013e 0600     		movs	r6, r0
 1229 0140 013E     		subs	r6, r6, #1
 1230 0142 F3B2     		uxtb	r3, r6
 1231              	.LVL124:
 770:modes.c       **** // variable to store return status
 1232              		.loc 1 770 0
 1233 0144 0024     		movs	r4, #0
 1234 0146 0025     		movs	r5, #0
 762:modes.c       **** // variable used to scan thru DATALINK readback time string 
 1235              		.loc 1 762 0
 1236 0148 0126     		movs	r6, #1
 1237 014a 0027     		movs	r7, #0
 1238              		.loc 1 842 0
 1239 014c 0193     		str	r3, [sp, #4]
 1240              	.LVL125:
 1241              	.L96:
 1242              		.loc 1 842 0 is_stmt 0 discriminator 1
 1243 014e 019B     		ldr	r3, [sp, #4]
 1244 0150 002B     		cmp	r3, #0
 1245 0152 10D0     		beq	.L248
 843:modes.c       ****                 {
 844:modes.c       **** // add bits values and its weight into one nubmer                    
 845:modes.c       ****                     COMMAND_HEX = COMMAND_HEX + COMMAND_TABLE[command_counter] * hex_weight; 
 1246              		.loc 1 845 0 is_stmt 1 discriminator 3
 1247 0154 019A     		ldr	r2, [sp, #4]
 1248 0156 12AB     		add	r3, sp, #72
 1249 0158 985C     		ldrb	r0, [r3, r2]
 1250 015a 0021     		movs	r1, #0
 1251 015c 3B00     		movs	r3, r7
 1252 015e 3200     		movs	r2, r6
 1253 0160 FFF7FEFF 		bl	__aeabi_lmul
 1254              	.LVL126:
 842:modes.c       ****                 {
 1255              		.loc 1 842 0 discriminator 3
 1256 0164 019B     		ldr	r3, [sp, #4]
 1257              		.loc 1 845 0 discriminator 3
 1258 0166 2418     		adds	r4, r4, r0
 1259 0168 4D41     		adcs	r5, r5, r1
 1260              	.LVL127:
 842:modes.c       ****                 {
 1261              		.loc 1 842 0 discriminator 3
 1262 016a 013B     		subs	r3, r3, #1
 1263 016c DBB2     		uxtb	r3, r3
 846:modes.c       **** // increase weight value                    
ARM GAS  C:\Users\Ala\AppData\Local\Temp\ccPRO05X.s 			page 42


 847:modes.c       ****                     hex_weight = 2 * hex_weight;
 1264              		.loc 1 847 0 discriminator 3
 1265 016e B619     		adds	r6, r6, r6
 1266 0170 7F41     		adcs	r7, r7, r7
 1267              	.LVL128:
 842:modes.c       ****                 {
 1268              		.loc 1 842 0 discriminator 3
 1269 0172 0193     		str	r3, [sp, #4]
 1270              	.LVL129:
 1271 0174 EBE7     		b	.L96
 1272              	.L248:
 848:modes.c       ****                 }
 849:modes.c       ****             }
 850:modes.c       ****             
 851:modes.c       **** // Map remote control buttons to BeoModern commads
 852:modes.c       **** // BeoModern will respond to commands sent to Aux 1/2/3/4/5 inputs
 853:modes.c       **** // it will react to nubmers from 0-7, arrows up/down/let/right, power on/off,
 854:modes.c       **** // OK, stop/pause and display/color_buttons(toggle display mode)
 855:modes.c       **** 
 856:modes.c       **** // only Aux button pressed - power up to last state - return code 10
 857:modes.c       ****             if (COMMAND_HEX == 0x000003BC35000000)
 1273              		.loc 1 857 0
 1274 0176 D423     		movs	r3, #212
 1275 0178 9B05     		lsls	r3, r3, #22
 1276 017a 9C42     		cmp	r4, r3
 1277 017c 0CD1     		bne	.L95
 1278 017e EF23     		movs	r3, #239
 1279 0180 9B00     		lsls	r3, r3, #2
 1280 0182 9D42     		cmp	r5, r3
 1281 0184 00D1     		bne	.LCB1123
 1282 0186 54E3     		b	.L221	@long jump
 1283              	.LCB1123:
 1284 0188 06E0     		b	.L95
 1285              	.L250:
 1286 018a C046     		.align	2
 1287              	.L249:
 1288 018c 00000000 		.word	DATALINK_TABLE_COUNTER_MAX
 1289 0190 00000000 		.word	DATALINK_TABLE
 1290              	.LVL130:
 1291              	.L123:
 770:modes.c       **** // variable to store return status
 1292              		.loc 1 770 0
 1293 0194 0024     		movs	r4, #0
 1294 0196 0025     		movs	r5, #0
 1295              	.LVL131:
 1296              	.L95:
 858:modes.c       ****             {        
 859:modes.c       ****                 status = 10;
 860:modes.c       ****             }
 861:modes.c       **** // Aux button pressed plus one digit number 1 or nubmer one to any of five
 862:modes.c       **** // aux devices - return code 11
 863:modes.c       ****             else if ( (COMMAND_HEX == 0x000003BC05000000) | 
 1297              		.loc 1 863 0
 1298 0198 A022     		movs	r2, #160
 1299 019a EF26     		movs	r6, #239
 1300 019c 0120     		movs	r0, #1
 1301 019e D204     		lsls	r2, r2, #19
ARM GAS  C:\Users\Ala\AppData\Local\Temp\ccPRO05X.s 			page 43


 1302 01a0 B600     		lsls	r6, r6, #2
 1303 01a2 6240     		eors	r2, r4
 1304 01a4 6E40     		eors	r6, r5
 1305 01a6 6040     		eors	r0, r4
 1306 01a8 3243     		orrs	r2, r6
 1307 01aa 2843     		orrs	r0, r5
 1308 01ac 4142     		rsbs	r1, r0, #0
 1309 01ae 4841     		adcs	r0, r0, r1
 1310 01b0 5142     		rsbs	r1, r2, #0
 1311 01b2 4A41     		adcs	r2, r2, r1
 1312 01b4 0243     		orrs	r2, r0
 1313 01b6 1100     		movs	r1, r2
 1314 01b8 E04A     		ldr	r2, .L251
 1315 01ba 2B00     		movs	r3, r5
 1316 01bc 6240     		eors	r2, r4
 1317 01be 2A43     		orrs	r2, r5
 1318 01c0 5042     		rsbs	r0, r2, #0
 1319 01c2 4241     		adcs	r2, r2, r0
 1320 01c4 0A43     		orrs	r2, r1
 1321 01c6 DE49     		ldr	r1, .L251+4
 1322 01c8 6140     		eors	r1, r4
 1323 01ca 2943     		orrs	r1, r5
 1324 01cc 4842     		rsbs	r0, r1, #0
 1325 01ce 4141     		adcs	r1, r1, r0
 1326 01d0 0A43     		orrs	r2, r1
 1327 01d2 00D0     		beq	.LCB1173
 1328 01d4 30E3     		b	.L125	@long jump
 1329              	.LCB1173:
 1330 01d6 0121     		movs	r1, #1
 1331 01d8 DA48     		ldr	r0, .L251+8
 1332 01da 4942     		rsbs	r1, r1, #0
 1333 01dc 0019     		adds	r0, r0, r4
 1334 01de 6941     		adcs	r1, r1, r5
 1335 01e0 D94A     		ldr	r2, .L251+12
 1336 01e2 1040     		ands	r0, r2
 1337 01e4 0143     		orrs	r1, r0
 1338 01e6 00D1     		bne	.LCB1184
 1339 01e8 26E3     		b	.L125	@long jump
 1340              	.LCB1184:
 864:modes.c       ****                     (COMMAND_HEX == 0x0000000000000001) |
 865:modes.c       ****                     (COMMAND_HEX == 0x0000000000000501) |
 866:modes.c       ****                     (COMMAND_HEX == 0x0000000000000A01) |
 867:modes.c       ****                     (COMMAND_HEX == 0x0000000000000601) |
 868:modes.c       ****                     (COMMAND_HEX == 0x0000000000012901) )
 869:modes.c       ****                 {        
 870:modes.c       ****                     status = 11;
 871:modes.c       ****                 }
 872:modes.c       **** 
 873:modes.c       **** // Aux button pressed plus one digit number 2 or nubmer two to any of five
 874:modes.c       **** // aux devices - return code 12
 875:modes.c       ****             else if ( (COMMAND_HEX == 0x000003BC55000000) |
 1341              		.loc 1 875 0
 1342 01ea AA21     		movs	r1, #170
 1343 01ec 0227     		movs	r7, #2
 1344 01ee C905     		lsls	r1, r1, #23
 1345 01f0 6140     		eors	r1, r4
 1346 01f2 6740     		eors	r7, r4
ARM GAS  C:\Users\Ala\AppData\Local\Temp\ccPRO05X.s 			page 44


 1347 01f4 3143     		orrs	r1, r6
 1348 01f6 2F43     		orrs	r7, r5
 1349 01f8 7842     		rsbs	r0, r7, #0
 1350 01fa 4741     		adcs	r7, r7, r0
 1351 01fc 4842     		rsbs	r0, r1, #0
 1352 01fe 4141     		adcs	r1, r1, r0
 1353 0200 3943     		orrs	r1, r7
 1354 0202 0800     		movs	r0, r1
 1355 0204 D149     		ldr	r1, .L251+16
 1356 0206 6140     		eors	r1, r4
 1357 0208 2943     		orrs	r1, r5
 1358 020a 4F42     		rsbs	r7, r1, #0
 1359 020c 7941     		adcs	r1, r1, r7
 1360 020e 0143     		orrs	r1, r0
 1361 0210 CF48     		ldr	r0, .L251+20
 1362 0212 6040     		eors	r0, r4
 1363 0214 2843     		orrs	r0, r5
 1364 0216 4742     		rsbs	r7, r0, #0
 1365 0218 7841     		adcs	r0, r0, r7
 1366 021a 0143     		orrs	r1, r0
 1367 021c 00D0     		beq	.LCB1209
 1368 021e 0DE3     		b	.L126	@long jump
 1369              	.LCB1209:
 1370 0220 0121     		movs	r1, #1
 1371 0222 CC48     		ldr	r0, .L251+24
 1372 0224 4942     		rsbs	r1, r1, #0
 1373 0226 0019     		adds	r0, r0, r4
 1374 0228 6941     		adcs	r1, r1, r5
 1375 022a 1040     		ands	r0, r2
 1376 022c 0143     		orrs	r1, r0
 1377 022e 00D1     		bne	.LCB1219
 1378 0230 04E3     		b	.L126	@long jump
 1379              	.LCB1219:
 876:modes.c       ****                     (COMMAND_HEX == 0x0000000000000002) |
 877:modes.c       ****                     (COMMAND_HEX == 0x0000000000000502) |
 878:modes.c       ****                     (COMMAND_HEX == 0x0000000000000A02) |
 879:modes.c       ****                     (COMMAND_HEX == 0x0000000000000602) |
 880:modes.c       ****                     (COMMAND_HEX == 0x0000000000012902) )
 881:modes.c       ****                 {        
 882:modes.c       ****                     status = 12;
 883:modes.c       ****                 }
 884:modes.c       **** 
 885:modes.c       **** // Aux button pressed plus one digit number 3 or nubmer three to any of five
 886:modes.c       **** // aux devices - return code 13
 887:modes.c       ****             else if ( (COMMAND_HEX == 0x000003BCA5000000) |
 1380              		.loc 1 887 0
 1381 0232 A521     		movs	r1, #165
 1382 0234 0327     		movs	r7, #3
 1383 0236 0906     		lsls	r1, r1, #24
 1384 0238 6140     		eors	r1, r4
 1385 023a 6740     		eors	r7, r4
 1386 023c 3143     		orrs	r1, r6
 1387 023e 2F43     		orrs	r7, r5
 1388 0240 7842     		rsbs	r0, r7, #0
 1389 0242 4741     		adcs	r7, r7, r0
 1390 0244 4842     		rsbs	r0, r1, #0
 1391 0246 4141     		adcs	r1, r1, r0
ARM GAS  C:\Users\Ala\AppData\Local\Temp\ccPRO05X.s 			page 45


 1392 0248 3943     		orrs	r1, r7
 1393 024a 0800     		movs	r0, r1
 1394 024c C249     		ldr	r1, .L251+28
 1395 024e 6140     		eors	r1, r4
 1396 0250 2943     		orrs	r1, r5
 1397 0252 4F42     		rsbs	r7, r1, #0
 1398 0254 7941     		adcs	r1, r1, r7
 1399 0256 0143     		orrs	r1, r0
 1400 0258 C048     		ldr	r0, .L251+32
 1401 025a 6040     		eors	r0, r4
 1402 025c 2843     		orrs	r0, r5
 1403 025e 4742     		rsbs	r7, r0, #0
 1404 0260 7841     		adcs	r0, r0, r7
 1405 0262 0143     		orrs	r1, r0
 1406 0264 00D0     		beq	.LCB1243
 1407 0266 EBE2     		b	.L127	@long jump
 1408              	.LCB1243:
 1409 0268 0121     		movs	r1, #1
 1410 026a BD48     		ldr	r0, .L251+36
 1411 026c 4942     		rsbs	r1, r1, #0
 1412 026e 0019     		adds	r0, r0, r4
 1413 0270 6941     		adcs	r1, r1, r5
 1414 0272 1040     		ands	r0, r2
 1415 0274 0143     		orrs	r1, r0
 1416 0276 00D1     		bne	.LCB1253
 1417 0278 E2E2     		b	.L127	@long jump
 1418              	.LCB1253:
 888:modes.c       ****                     (COMMAND_HEX == 0x0000000000000003) |
 889:modes.c       ****                     (COMMAND_HEX == 0x0000000000000503) |
 890:modes.c       ****                     (COMMAND_HEX == 0x0000000000000A03) |
 891:modes.c       ****                     (COMMAND_HEX == 0x0000000000000603) |
 892:modes.c       ****                     (COMMAND_HEX == 0x0000000000012903) )
 893:modes.c       ****                 {        
 894:modes.c       ****                     status = 13;
 895:modes.c       ****                 }
 896:modes.c       **** 
 897:modes.c       **** // Aux button pressed plus one digit number 4 or nubmer four to any of five
 898:modes.c       **** // aux devices - return code 14
 899:modes.c       ****             else if ( (COMMAND_HEX == 0x000003BC65000000) |
 1419              		.loc 1 899 0
 1420 027a CA21     		movs	r1, #202
 1421 027c 0427     		movs	r7, #4
 1422 027e C905     		lsls	r1, r1, #23
 1423 0280 6140     		eors	r1, r4
 1424 0282 6740     		eors	r7, r4
 1425 0284 3143     		orrs	r1, r6
 1426 0286 2F43     		orrs	r7, r5
 1427 0288 7842     		rsbs	r0, r7, #0
 1428 028a 4741     		adcs	r7, r7, r0
 1429 028c 4842     		rsbs	r0, r1, #0
 1430 028e 4141     		adcs	r1, r1, r0
 1431 0290 3943     		orrs	r1, r7
 1432 0292 0800     		movs	r0, r1
 1433 0294 B349     		ldr	r1, .L251+40
 1434 0296 6140     		eors	r1, r4
 1435 0298 2943     		orrs	r1, r5
 1436 029a 4F42     		rsbs	r7, r1, #0
ARM GAS  C:\Users\Ala\AppData\Local\Temp\ccPRO05X.s 			page 46


 1437 029c 7941     		adcs	r1, r1, r7
 1438 029e 0143     		orrs	r1, r0
 1439 02a0 B148     		ldr	r0, .L251+44
 1440 02a2 6040     		eors	r0, r4
 1441 02a4 2843     		orrs	r0, r5
 1442 02a6 4742     		rsbs	r7, r0, #0
 1443 02a8 7841     		adcs	r0, r0, r7
 1444 02aa 0143     		orrs	r1, r0
 1445 02ac 00D0     		beq	.LCB1277
 1446 02ae C9E2     		b	.L128	@long jump
 1447              	.LCB1277:
 1448 02b0 0121     		movs	r1, #1
 1449 02b2 AE48     		ldr	r0, .L251+48
 1450 02b4 4942     		rsbs	r1, r1, #0
 1451 02b6 0019     		adds	r0, r0, r4
 1452 02b8 6941     		adcs	r1, r1, r5
 1453 02ba 1040     		ands	r0, r2
 1454 02bc 0143     		orrs	r1, r0
 1455 02be 00D1     		bne	.LCB1287
 1456 02c0 C0E2     		b	.L128	@long jump
 1457              	.LCB1287:
 900:modes.c       ****                     (COMMAND_HEX == 0x0000000000000004) |
 901:modes.c       ****                     (COMMAND_HEX == 0x0000000000000504) |
 902:modes.c       ****                     (COMMAND_HEX == 0x0000000000000A04) |
 903:modes.c       ****                     (COMMAND_HEX == 0x0000000000000604) |
 904:modes.c       ****                     (COMMAND_HEX == 0x0000000000012904) )
 905:modes.c       ****                 {        
 906:modes.c       ****                     status = 14;
 907:modes.c       ****                 }
 908:modes.c       **** 
 909:modes.c       **** // Aux button pressed plus one digit number 5 or nubmer five to any of five
 910:modes.c       **** // aux devices - return code 15
 911:modes.c       ****             else if ( (COMMAND_HEX == 0x000003BC85000000) |
 1458              		.loc 1 911 0
 1459 02c2 8521     		movs	r1, #133
 1460 02c4 0527     		movs	r7, #5
 1461 02c6 0906     		lsls	r1, r1, #24
 1462 02c8 6140     		eors	r1, r4
 1463 02ca 6740     		eors	r7, r4
 1464 02cc 0E43     		orrs	r6, r1
 1465 02ce 2F43     		orrs	r7, r5
 1466 02d0 7842     		rsbs	r0, r7, #0
 1467 02d2 4741     		adcs	r7, r7, r0
 1468 02d4 7042     		rsbs	r0, r6, #0
 1469 02d6 4641     		adcs	r6, r6, r0
 1470 02d8 3E43     		orrs	r6, r7
 1471 02da A54F     		ldr	r7, .L251+52
 1472 02dc A549     		ldr	r1, .L251+56
 1473 02de 6740     		eors	r7, r4
 1474 02e0 6140     		eors	r1, r4
 1475 02e2 2F43     		orrs	r7, r5
 1476 02e4 7842     		rsbs	r0, r7, #0
 1477 02e6 7841     		adcs	r0, r0, r7
 1478 02e8 0B43     		orrs	r3, r1
 1479 02ea 5942     		rsbs	r1, r3, #0
 1480 02ec 5941     		adcs	r1, r1, r3
 1481 02ee 0643     		orrs	r6, r0
ARM GAS  C:\Users\Ala\AppData\Local\Temp\ccPRO05X.s 			page 47


 1482 02f0 3143     		orrs	r1, r6
 1483 02f2 00D0     		beq	.LCB1310
 1484 02f4 A8E2     		b	.L129	@long jump
 1485              	.LCB1310:
 1486 02f6 0121     		movs	r1, #1
 1487 02f8 9F48     		ldr	r0, .L251+60
 1488 02fa 4942     		rsbs	r1, r1, #0
 1489 02fc 0019     		adds	r0, r0, r4
 1490 02fe 6941     		adcs	r1, r1, r5
 1491 0300 0300     		movs	r3, r0
 1492 0302 1340     		ands	r3, r2
 1493 0304 0B43     		orrs	r3, r1
 1494 0306 00D1     		bne	.LCB1321
 1495 0308 9EE2     		b	.L129	@long jump
 1496              	.LCB1321:
 912:modes.c       ****                     (COMMAND_HEX == 0x0000000000000005) |
 913:modes.c       ****                     (COMMAND_HEX == 0x0000000000000505) |
 914:modes.c       ****                     (COMMAND_HEX == 0x0000000000000A05) |
 915:modes.c       ****                     (COMMAND_HEX == 0x0000000000000605) |
 916:modes.c       ****                     (COMMAND_HEX == 0x0000000000012905) )
 917:modes.c       ****                 {        
 918:modes.c       ****                     status = 15;
 919:modes.c       ****                 }        
 920:modes.c       **** 
 921:modes.c       **** // Digit number 6 to any of five aux devices - return code 16
 922:modes.c       ****             else if ( (COMMAND_HEX == 0x0000000000000006) |
 1497              		.loc 1 922 0
 1498 030a 0621     		movs	r1, #6
 1499 030c 6140     		eors	r1, r4
 1500 030e 2943     		orrs	r1, r5
 1501 0310 4842     		rsbs	r0, r1, #0
 1502 0312 4141     		adcs	r1, r1, r0
 1503 0314 9948     		ldr	r0, .L251+64
 1504 0316 2B00     		movs	r3, r5
 1505 0318 6040     		eors	r0, r4
 1506 031a 2843     		orrs	r0, r5
 1507 031c 4642     		rsbs	r6, r0, #0
 1508 031e 7041     		adcs	r0, r0, r6
 1509 0320 0143     		orrs	r1, r0
 1510 0322 9748     		ldr	r0, .L251+68
 1511 0324 6040     		eors	r0, r4
 1512 0326 2843     		orrs	r0, r5
 1513 0328 4642     		rsbs	r6, r0, #0
 1514 032a 7041     		adcs	r0, r0, r6
 1515 032c 0143     		orrs	r1, r0
 1516 032e 00D0     		beq	.LCB1339
 1517 0330 8CE2     		b	.L130	@long jump
 1518              	.LCB1339:
 1519 0332 0121     		movs	r1, #1
 1520 0334 9348     		ldr	r0, .L251+72
 1521 0336 4942     		rsbs	r1, r1, #0
 1522 0338 0019     		adds	r0, r0, r4
 1523 033a 6941     		adcs	r1, r1, r5
 1524 033c 1040     		ands	r0, r2
 1525 033e 1600     		movs	r6, r2
 1526 0340 0143     		orrs	r1, r0
 1527 0342 00D1     		bne	.LCB1350
ARM GAS  C:\Users\Ala\AppData\Local\Temp\ccPRO05X.s 			page 48


 1528 0344 82E2     		b	.L130	@long jump
 1529              	.LCB1350:
 923:modes.c       ****                     (COMMAND_HEX == 0x0000000000000506) |
 924:modes.c       ****                     (COMMAND_HEX == 0x0000000000000A06) |
 925:modes.c       ****                     (COMMAND_HEX == 0x0000000000000606) |
 926:modes.c       ****                     (COMMAND_HEX == 0x0000000000012906) )
 927:modes.c       ****                 {        
 928:modes.c       ****                     status = 16;
 929:modes.c       ****                 }        
 930:modes.c       **** 
 931:modes.c       **** // Digit number 7 to any of five aux devices - return code 17
 932:modes.c       ****             else if ( (COMMAND_HEX == 0x0000000000000007) |
 1530              		.loc 1 932 0
 1531 0346 0721     		movs	r1, #7
 1532 0348 6140     		eors	r1, r4
 1533 034a 2943     		orrs	r1, r5
 1534 034c 4842     		rsbs	r0, r1, #0
 1535 034e 4141     		adcs	r1, r1, r0
 1536 0350 8D48     		ldr	r0, .L251+76
 1537 0352 6040     		eors	r0, r4
 1538 0354 2843     		orrs	r0, r5
 1539 0356 4742     		rsbs	r7, r0, #0
 1540 0358 7841     		adcs	r0, r0, r7
 1541 035a 0143     		orrs	r1, r0
 1542 035c 8B48     		ldr	r0, .L251+80
 1543 035e 6040     		eors	r0, r4
 1544 0360 2843     		orrs	r0, r5
 1545 0362 4742     		rsbs	r7, r0, #0
 1546 0364 7841     		adcs	r0, r0, r7
 1547 0366 0143     		orrs	r1, r0
 1548 0368 00D0     		beq	.LCB1367
 1549 036a 71E2     		b	.L131	@long jump
 1550              	.LCB1367:
 1551 036c 0121     		movs	r1, #1
 1552 036e 8848     		ldr	r0, .L251+84
 1553 0370 4942     		rsbs	r1, r1, #0
 1554 0372 0019     		adds	r0, r0, r4
 1555 0374 6941     		adcs	r1, r1, r5
 1556 0376 1040     		ands	r0, r2
 1557 0378 0143     		orrs	r1, r0
 1558 037a 00D1     		bne	.LCB1377
 1559 037c 68E2     		b	.L131	@long jump
 1560              	.LCB1377:
 933:modes.c       ****                     (COMMAND_HEX == 0x0000000000000507) |
 934:modes.c       ****                     (COMMAND_HEX == 0x0000000000000A07) |
 935:modes.c       ****                     (COMMAND_HEX == 0x0000000000000607) |
 936:modes.c       ****                     (COMMAND_HEX == 0x0000000000012907) )
 937:modes.c       ****                 {        
 938:modes.c       ****                     status = 17;
 939:modes.c       ****                 }        
 940:modes.c       **** 
 941:modes.c       **** // Digit number 8 to any of five aux devices - return code 18
 942:modes.c       ****             else if ( (COMMAND_HEX == 0x0000000000000008) |
 1561              		.loc 1 942 0
 1562 037e 0821     		movs	r1, #8
 1563 0380 6140     		eors	r1, r4
 1564 0382 2943     		orrs	r1, r5
ARM GAS  C:\Users\Ala\AppData\Local\Temp\ccPRO05X.s 			page 49


 1565 0384 4842     		rsbs	r0, r1, #0
 1566 0386 4141     		adcs	r1, r1, r0
 1567 0388 8248     		ldr	r0, .L251+88
 1568 038a 6040     		eors	r0, r4
 1569 038c 2843     		orrs	r0, r5
 1570 038e 4742     		rsbs	r7, r0, #0
 1571 0390 7841     		adcs	r0, r0, r7
 1572 0392 0143     		orrs	r1, r0
 1573 0394 8048     		ldr	r0, .L251+92
 1574 0396 6040     		eors	r0, r4
 1575 0398 2843     		orrs	r0, r5
 1576 039a 4742     		rsbs	r7, r0, #0
 1577 039c 7841     		adcs	r0, r0, r7
 1578 039e 0143     		orrs	r1, r0
 1579 03a0 00D0     		beq	.LCB1394
 1580 03a2 57E2     		b	.L132	@long jump
 1581              	.LCB1394:
 1582 03a4 0121     		movs	r1, #1
 1583 03a6 7D48     		ldr	r0, .L251+96
 1584 03a8 4942     		rsbs	r1, r1, #0
 1585 03aa 0019     		adds	r0, r0, r4
 1586 03ac 6941     		adcs	r1, r1, r5
 1587 03ae 1040     		ands	r0, r2
 1588 03b0 0143     		orrs	r1, r0
 1589 03b2 00D1     		bne	.LCB1404
 1590 03b4 4EE2     		b	.L132	@long jump
 1591              	.LCB1404:
 943:modes.c       ****                     (COMMAND_HEX == 0x0000000000000508) |
 944:modes.c       ****                     (COMMAND_HEX == 0x0000000000000A08) |
 945:modes.c       ****                     (COMMAND_HEX == 0x0000000000000608) |
 946:modes.c       ****                     (COMMAND_HEX == 0x0000000000012908) )
 947:modes.c       ****                 {        
 948:modes.c       ****                     status = 18;
 949:modes.c       ****                 } 
 950:modes.c       ****                 
 951:modes.c       **** // OK/GO/PLAY to any of five aux devices - return code 20
 952:modes.c       ****             else if ( (COMMAND_HEX == 0x0000000000000035) |
 1592              		.loc 1 952 0
 1593 03b6 3521     		movs	r1, #53
 1594 03b8 6140     		eors	r1, r4
 1595 03ba 2943     		orrs	r1, r5
 1596 03bc 4842     		rsbs	r0, r1, #0
 1597 03be 4141     		adcs	r1, r1, r0
 1598 03c0 7748     		ldr	r0, .L251+100
 1599 03c2 6040     		eors	r0, r4
 1600 03c4 2843     		orrs	r0, r5
 1601 03c6 4742     		rsbs	r7, r0, #0
 1602 03c8 7841     		adcs	r0, r0, r7
 1603 03ca 0143     		orrs	r1, r0
 1604 03cc 7548     		ldr	r0, .L251+104
 1605 03ce 6040     		eors	r0, r4
 1606 03d0 2843     		orrs	r0, r5
 1607 03d2 4742     		rsbs	r7, r0, #0
 1608 03d4 7841     		adcs	r0, r0, r7
 1609 03d6 0143     		orrs	r1, r0
 1610 03d8 00D0     		beq	.LCB1421
 1611 03da 3DE2     		b	.L133	@long jump
ARM GAS  C:\Users\Ala\AppData\Local\Temp\ccPRO05X.s 			page 50


 1612              	.LCB1421:
 1613 03dc 0121     		movs	r1, #1
 1614 03de 7248     		ldr	r0, .L251+108
 1615 03e0 4942     		rsbs	r1, r1, #0
 1616 03e2 0019     		adds	r0, r0, r4
 1617 03e4 6941     		adcs	r1, r1, r5
 1618 03e6 1040     		ands	r0, r2
 1619 03e8 0143     		orrs	r1, r0
 1620 03ea 00D1     		bne	.LCB1431
 1621 03ec 34E2     		b	.L133	@long jump
 1622              	.LCB1431:
 953:modes.c       ****                     (COMMAND_HEX == 0x0000000000000535) |
 954:modes.c       ****                     (COMMAND_HEX == 0x0000000000000A35) |
 955:modes.c       ****                     (COMMAND_HEX == 0x0000000000000635) |
 956:modes.c       ****                     (COMMAND_HEX == 0x0000000000012935) )
 957:modes.c       ****                 {        
 958:modes.c       ****                     status = 20;
 959:modes.c       ****                 } 
 960:modes.c       **** 
 961:modes.c       **** // UP/STEP > to any of five aux devices - return code 21
 962:modes.c       ****             else if ( (COMMAND_HEX == 0x000000000000001E) |
 1623              		.loc 1 962 0
 1624 03ee 1E21     		movs	r1, #30
 1625 03f0 6140     		eors	r1, r4
 1626 03f2 2943     		orrs	r1, r5
 1627 03f4 4842     		rsbs	r0, r1, #0
 1628 03f6 4141     		adcs	r1, r1, r0
 1629 03f8 6C48     		ldr	r0, .L251+112
 1630 03fa 6040     		eors	r0, r4
 1631 03fc 2843     		orrs	r0, r5
 1632 03fe 0700     		movs	r7, r0
 1633 0400 7842     		rsbs	r0, r7, #0
 1634 0402 7841     		adcs	r0, r0, r7
 1635 0404 0843     		orrs	r0, r1
 1636 0406 6A49     		ldr	r1, .L251+116
 1637 0408 6140     		eors	r1, r4
 1638 040a 0B43     		orrs	r3, r1
 1639 040c 5942     		rsbs	r1, r3, #0
 1640 040e 5941     		adcs	r1, r1, r3
 1641 0410 0143     		orrs	r1, r0
 1642 0412 00D0     		beq	.LCB1449
 1643 0414 22E2     		b	.L134	@long jump
 1644              	.LCB1449:
 1645 0416 0121     		movs	r1, #1
 1646 0418 6648     		ldr	r0, .L251+120
 1647 041a 4942     		rsbs	r1, r1, #0
 1648 041c 0019     		adds	r0, r0, r4
 1649 041e 6941     		adcs	r1, r1, r5
 1650 0420 0640     		ands	r6, r0
 1651 0422 0E43     		orrs	r6, r1
 1652 0424 00D1     		bne	.LCB1459
 1653 0426 19E2     		b	.L134	@long jump
 1654              	.LCB1459:
 963:modes.c       ****                     (COMMAND_HEX == 0x000000000000051E) |
 964:modes.c       ****                     (COMMAND_HEX == 0x0000000000000A1E) |
 965:modes.c       ****                     (COMMAND_HEX == 0x000000000000061E) |
 966:modes.c       ****                     (COMMAND_HEX == 0x000000000001291E) )
ARM GAS  C:\Users\Ala\AppData\Local\Temp\ccPRO05X.s 			page 51


 967:modes.c       ****                 {        
 968:modes.c       ****                     status = 21;
 969:modes.c       ****                 }         
 970:modes.c       ****         
 971:modes.c       **** // DOWN/< STEP to any of five aux devices - return code 22
 972:modes.c       ****             else if ( (COMMAND_HEX == 0x000000000000001F) |
 1655              		.loc 1 972 0
 1656 0428 1F21     		movs	r1, #31
 1657 042a 6140     		eors	r1, r4
 1658 042c 2943     		orrs	r1, r5
 1659 042e 4842     		rsbs	r0, r1, #0
 1660 0430 4141     		adcs	r1, r1, r0
 1661 0432 6148     		ldr	r0, .L251+124
 1662 0434 2B00     		movs	r3, r5
 1663 0436 6040     		eors	r0, r4
 1664 0438 2843     		orrs	r0, r5
 1665 043a 4642     		rsbs	r6, r0, #0
 1666 043c 7041     		adcs	r0, r0, r6
 1667 043e 0143     		orrs	r1, r0
 1668 0440 5E48     		ldr	r0, .L251+128
 1669 0442 6040     		eors	r0, r4
 1670 0444 2843     		orrs	r0, r5
 1671 0446 4642     		rsbs	r6, r0, #0
 1672 0448 7041     		adcs	r0, r0, r6
 1673 044a 0143     		orrs	r1, r0
 1674 044c 00D0     		beq	.LCB1477
 1675 044e 07E2     		b	.L135	@long jump
 1676              	.LCB1477:
 1677 0450 0121     		movs	r1, #1
 1678 0452 5B48     		ldr	r0, .L251+132
 1679 0454 4942     		rsbs	r1, r1, #0
 1680 0456 0019     		adds	r0, r0, r4
 1681 0458 6941     		adcs	r1, r1, r5
 1682 045a 1040     		ands	r0, r2
 1683 045c 1600     		movs	r6, r2
 1684 045e 0143     		orrs	r1, r0
 1685 0460 00D1     		bne	.LCB1488
 1686 0462 FDE1     		b	.L135	@long jump
 1687              	.LCB1488:
 973:modes.c       ****                     (COMMAND_HEX == 0x000000000000051F) |
 974:modes.c       ****                     (COMMAND_HEX == 0x0000000000000A1F) |
 975:modes.c       ****                     (COMMAND_HEX == 0x000000000000061F) |
 976:modes.c       ****                     (COMMAND_HEX == 0x000000000001291F) )
 977:modes.c       ****                 {        
 978:modes.c       ****                     status = 22;
 979:modes.c       ****                 } 
 980:modes.c       **** 
 981:modes.c       **** // LEFT/<< to any of five aux devices - return code 23
 982:modes.c       ****             else if ( (COMMAND_HEX == 0x0000000000000032) |
 1688              		.loc 1 982 0
 1689 0464 3221     		movs	r1, #50
 1690 0466 6140     		eors	r1, r4
 1691 0468 2943     		orrs	r1, r5
 1692 046a 4842     		rsbs	r0, r1, #0
 1693 046c 4141     		adcs	r1, r1, r0
 1694 046e 5548     		ldr	r0, .L251+136
 1695 0470 6040     		eors	r0, r4
ARM GAS  C:\Users\Ala\AppData\Local\Temp\ccPRO05X.s 			page 52


 1696 0472 2843     		orrs	r0, r5
 1697 0474 4742     		rsbs	r7, r0, #0
 1698 0476 7841     		adcs	r0, r0, r7
 1699 0478 0143     		orrs	r1, r0
 1700 047a 5348     		ldr	r0, .L251+140
 1701 047c 6040     		eors	r0, r4
 1702 047e 2843     		orrs	r0, r5
 1703 0480 4742     		rsbs	r7, r0, #0
 1704 0482 7841     		adcs	r0, r0, r7
 1705 0484 0143     		orrs	r1, r0
 1706 0486 00D0     		beq	.LCB1505
 1707 0488 ECE1     		b	.L136	@long jump
 1708              	.LCB1505:
 1709 048a 0121     		movs	r1, #1
 1710 048c 4F48     		ldr	r0, .L251+144
 1711 048e 4942     		rsbs	r1, r1, #0
 1712 0490 0019     		adds	r0, r0, r4
 1713 0492 6941     		adcs	r1, r1, r5
 1714 0494 1040     		ands	r0, r2
 1715 0496 0143     		orrs	r1, r0
 1716 0498 00D1     		bne	.LCB1515
 1717 049a E3E1     		b	.L136	@long jump
 1718              	.LCB1515:
 983:modes.c       ****                     (COMMAND_HEX == 0x0000000000000532) |
 984:modes.c       ****                     (COMMAND_HEX == 0x0000000000000A32) |
 985:modes.c       ****                     (COMMAND_HEX == 0x0000000000000632) |
 986:modes.c       ****                     (COMMAND_HEX == 0x0000000000012932) )
 987:modes.c       ****                 {        
 988:modes.c       ****                     status = 23;
 989:modes.c       ****                 } 
 990:modes.c       **** 
 991:modes.c       **** // RIGHT/>> to any of five aux devices - return code 24
 992:modes.c       ****             else if ( (COMMAND_HEX == 0x0000000000000034) |
 1719              		.loc 1 992 0
 1720 049c 3421     		movs	r1, #52
 1721 049e 6140     		eors	r1, r4
 1722 04a0 2943     		orrs	r1, r5
 1723 04a2 4842     		rsbs	r0, r1, #0
 1724 04a4 4141     		adcs	r1, r1, r0
 1725 04a6 4A48     		ldr	r0, .L251+148
 1726 04a8 6040     		eors	r0, r4
 1727 04aa 2843     		orrs	r0, r5
 1728 04ac 4742     		rsbs	r7, r0, #0
 1729 04ae 7841     		adcs	r0, r0, r7
 1730 04b0 0143     		orrs	r1, r0
 1731 04b2 4848     		ldr	r0, .L251+152
 1732 04b4 6040     		eors	r0, r4
 1733 04b6 2843     		orrs	r0, r5
 1734 04b8 4742     		rsbs	r7, r0, #0
 1735 04ba 7841     		adcs	r0, r0, r7
 1736 04bc 0143     		orrs	r1, r0
 1737 04be 00D0     		beq	.LCB1532
 1738 04c0 D2E1     		b	.L137	@long jump
 1739              	.LCB1532:
 1740 04c2 0121     		movs	r1, #1
 1741 04c4 4448     		ldr	r0, .L251+156
 1742 04c6 4942     		rsbs	r1, r1, #0
ARM GAS  C:\Users\Ala\AppData\Local\Temp\ccPRO05X.s 			page 53


 1743 04c8 0019     		adds	r0, r0, r4
 1744 04ca 6941     		adcs	r1, r1, r5
 1745 04cc 1040     		ands	r0, r2
 1746 04ce 0143     		orrs	r1, r0
 1747 04d0 00D1     		bne	.LCB1542
 1748 04d2 C9E1     		b	.L137	@long jump
 1749              	.LCB1542:
 993:modes.c       ****                     (COMMAND_HEX == 0x0000000000000534) |
 994:modes.c       ****                     (COMMAND_HEX == 0x0000000000000A34) |
 995:modes.c       ****                     (COMMAND_HEX == 0x0000000000000634) |
 996:modes.c       ****                     (COMMAND_HEX == 0x0000000000012934) )
 997:modes.c       ****                 {        
 998:modes.c       ****                     status = 24;
 999:modes.c       ****                 } 
1000:modes.c       **** 
1001:modes.c       **** // STOP to any of five aux devices - return code 25
1002:modes.c       ****             else if ( (COMMAND_HEX == 0x0000000000000036) |
 1750              		.loc 1 1002 0
 1751 04d4 3621     		movs	r1, #54
 1752 04d6 6140     		eors	r1, r4
 1753 04d8 2943     		orrs	r1, r5
 1754 04da 4842     		rsbs	r0, r1, #0
 1755 04dc 4141     		adcs	r1, r1, r0
 1756 04de 3F48     		ldr	r0, .L251+160
 1757 04e0 6040     		eors	r0, r4
 1758 04e2 2843     		orrs	r0, r5
 1759 04e4 0700     		movs	r7, r0
 1760 04e6 7842     		rsbs	r0, r7, #0
 1761 04e8 7841     		adcs	r0, r0, r7
 1762 04ea 0843     		orrs	r0, r1
 1763 04ec 3C49     		ldr	r1, .L251+164
 1764 04ee 6140     		eors	r1, r4
 1765 04f0 0B43     		orrs	r3, r1
 1766 04f2 5942     		rsbs	r1, r3, #0
 1767 04f4 5941     		adcs	r1, r1, r3
 1768 04f6 0143     		orrs	r1, r0
 1769 04f8 00D0     		beq	.LCB1560
 1770 04fa B7E1     		b	.L138	@long jump
 1771              	.LCB1560:
 1772 04fc 0121     		movs	r1, #1
 1773 04fe 3948     		ldr	r0, .L251+168
 1774 0500 4942     		rsbs	r1, r1, #0
 1775 0502 0019     		adds	r0, r0, r4
 1776 0504 6941     		adcs	r1, r1, r5
 1777 0506 0640     		ands	r6, r0
 1778 0508 0E43     		orrs	r6, r1
 1779 050a 00D1     		bne	.LCB1570
 1780 050c AEE1     		b	.L138	@long jump
 1781              	.LCB1570:
1003:modes.c       ****                     (COMMAND_HEX == 0x0000000000000536) |
1004:modes.c       ****                     (COMMAND_HEX == 0x0000000000000A36) |
1005:modes.c       ****                     (COMMAND_HEX == 0x0000000000000636) |
1006:modes.c       ****                     (COMMAND_HEX == 0x0000000000012936) )
1007:modes.c       ****                 {        
1008:modes.c       ****                     status = 25;
1009:modes.c       ****                 } 
1010:modes.c       **** 
ARM GAS  C:\Users\Ala\AppData\Local\Temp\ccPRO05X.s 			page 54


1011:modes.c       **** // POWER OFF to any of five aux devices - return code 26
1012:modes.c       ****             else if ( COMMAND_HEX == 0x0000003BC1400200 )
 1782              		.loc 1 1012 0
 1783 050e 364B     		ldr	r3, .L251+172
 1784 0510 9C42     		cmp	r4, r3
 1785 0512 02D1     		bne	.L164
 1786 0514 3B2D     		cmp	r5, #59
 1787 0516 00D1     		bne	.LCB1575
 1788 0518 AAE1     		b	.L222	@long jump
 1789              	.LCB1575:
 1790              	.L164:
1013:modes.c       ****                 {        
1014:modes.c       ****                     status = 26;
1015:modes.c       ****                 } 
1016:modes.c       **** 
1017:modes.c       **** // MENU(onBeo4)/TURN(on MCP) to any of five aux devices - return code 27
1018:modes.c       ****             else if ( (COMMAND_HEX == 0x000000000000005C) |
 1791              		.loc 1 1018 0
 1792 051a 5C26     		movs	r6, #92
 1793 051c 3349     		ldr	r1, .L251+176
 1794 051e 6640     		eors	r6, r4
 1795 0520 6140     		eors	r1, r4
 1796 0522 2E43     		orrs	r6, r5
 1797 0524 2943     		orrs	r1, r5
 1798 0526 4F42     		rsbs	r7, r1, #0
 1799 0528 7941     		adcs	r1, r1, r7
 1800 052a 7742     		rsbs	r7, r6, #0
 1801 052c 7E41     		adcs	r6, r6, r7
 1802 052e 3048     		ldr	r0, .L251+180
 1803 0530 0E43     		orrs	r6, r1
 1804 0532 6040     		eors	r0, r4
 1805 0534 2843     		orrs	r0, r5
 1806 0536 4621     		movs	r1, #70
 1807 0538 3700     		movs	r7, r6
 1808 053a 5BE0     		b	.L252
 1809              	.L253:
 1810              		.align	2
 1811              	.L251:
 1812 053c 010A0000 		.word	2561
 1813 0540 01290100 		.word	76033
 1814 0544 FFFAFFFF 		.word	-1281
 1815 0548 FFFEFFFF 		.word	-257
 1816 054c 020A0000 		.word	2562
 1817 0550 02290100 		.word	76034
 1818 0554 FEFAFFFF 		.word	-1282
 1819 0558 030A0000 		.word	2563
 1820 055c 03290100 		.word	76035
 1821 0560 FDFAFFFF 		.word	-1283
 1822 0564 040A0000 		.word	2564
 1823 0568 04290100 		.word	76036
 1824 056c FCFAFFFF 		.word	-1284
 1825 0570 050A0000 		.word	2565
 1826 0574 05290100 		.word	76037
 1827 0578 FBFAFFFF 		.word	-1285
 1828 057c 060A0000 		.word	2566
 1829 0580 06290100 		.word	76038
 1830 0584 FAFAFFFF 		.word	-1286
ARM GAS  C:\Users\Ala\AppData\Local\Temp\ccPRO05X.s 			page 55


 1831 0588 070A0000 		.word	2567
 1832 058c 07290100 		.word	76039
 1833 0590 F9FAFFFF 		.word	-1287
 1834 0594 080A0000 		.word	2568
 1835 0598 08290100 		.word	76040
 1836 059c F8FAFFFF 		.word	-1288
 1837 05a0 350A0000 		.word	2613
 1838 05a4 35290100 		.word	76085
 1839 05a8 CBFAFFFF 		.word	-1333
 1840 05ac 1E0A0000 		.word	2590
 1841 05b0 1E290100 		.word	76062
 1842 05b4 E2FAFFFF 		.word	-1310
 1843 05b8 1F0A0000 		.word	2591
 1844 05bc 1F290100 		.word	76063
 1845 05c0 E1FAFFFF 		.word	-1311
 1846 05c4 320A0000 		.word	2610
 1847 05c8 32290100 		.word	76082
 1848 05cc CEFAFFFF 		.word	-1330
 1849 05d0 340A0000 		.word	2612
 1850 05d4 34290100 		.word	76084
 1851 05d8 CCFAFFFF 		.word	-1332
 1852 05dc 360A0000 		.word	2614
 1853 05e0 36290100 		.word	76086
 1854 05e4 CAFAFFFF 		.word	-1334
 1855 05e8 000240C1 		.word	-1052769792
 1856 05ec 5C0A0000 		.word	2652
 1857 05f0 5C290100 		.word	76124
 1858              	.L252:
 1859 05f4 4642     		rsbs	r6, r0, #0
 1860 05f6 7041     		adcs	r0, r0, r6
 1861 05f8 6140     		eors	r1, r4
 1862 05fa 3843     		orrs	r0, r7
 1863 05fc 2943     		orrs	r1, r5
 1864 05fe 0600     		movs	r6, r0
 1865 0600 4842     		rsbs	r0, r1, #0
 1866 0602 4141     		adcs	r1, r1, r0
 1867 0604 B14F     		ldr	r7, .L254
 1868 0606 3143     		orrs	r1, r6
 1869 0608 6740     		eors	r7, r4
 1870 060a 2F43     		orrs	r7, r5
 1871 060c 0800     		movs	r0, r1
 1872 060e 7942     		rsbs	r1, r7, #0
 1873 0610 4F41     		adcs	r7, r7, r1
 1874 0612 3900     		movs	r1, r7
 1875 0614 AE4F     		ldr	r7, .L254+4
 1876 0616 0143     		orrs	r1, r0
 1877 0618 6740     		eors	r7, r4
 1878 061a 2F43     		orrs	r7, r5
 1879 061c 7842     		rsbs	r0, r7, #0
 1880 061e 4741     		adcs	r7, r7, r0
 1881 0620 0F43     		orrs	r7, r1
 1882 0622 0121     		movs	r1, #1
 1883 0624 AB48     		ldr	r0, .L254+8
 1884 0626 4942     		rsbs	r1, r1, #0
 1885 0628 0019     		adds	r0, r0, r4
 1886 062a 6941     		adcs	r1, r1, r5
 1887 062c 0240     		ands	r2, r0
ARM GAS  C:\Users\Ala\AppData\Local\Temp\ccPRO05X.s 			page 56


 1888 062e 0A43     		orrs	r2, r1
 1889 0630 5142     		rsbs	r1, r2, #0
 1890 0632 4A41     		adcs	r2, r2, r1
 1891 0634 2B00     		movs	r3, r5
 1892 0636 A84E     		ldr	r6, .L254+12
 1893 0638 1743     		orrs	r7, r2
 1894 063a 00D0     		beq	.LCB1676
 1895 063c 1AE1     		b	.L140	@long jump
 1896              	.LCB1676:
 1897 063e 0121     		movs	r1, #1
 1898 0640 A648     		ldr	r0, .L254+16
 1899 0642 4942     		rsbs	r1, r1, #0
 1900 0644 0019     		adds	r0, r0, r4
 1901 0646 6941     		adcs	r1, r1, r5
 1902 0648 0200     		movs	r2, r0
 1903 064a 3240     		ands	r2, r6
 1904 064c 0A43     		orrs	r2, r1
 1905 064e 00D1     		bne	.LCB1687
 1906 0650 10E1     		b	.L140	@long jump
 1907              	.LCB1687:
1019:modes.c       ****                     (COMMAND_HEX == 0x000000000000055C) |
1020:modes.c       ****                     (COMMAND_HEX == 0x0000000000000A5C) |
1021:modes.c       ****                     (COMMAND_HEX == 0x000000000000065C) |
1022:modes.c       ****                     (COMMAND_HEX == 0x000000000001295C) |
1023:modes.c       ****                     (COMMAND_HEX == 0x0000000000000046) |
1024:modes.c       ****                     (COMMAND_HEX == 0x0000000000000546) |
1025:modes.c       ****                     (COMMAND_HEX == 0x0000000000000A46) |
1026:modes.c       ****                     (COMMAND_HEX == 0x0000000000000646) |
1027:modes.c       ****                     (COMMAND_HEX == 0x0000000000012946) )
1028:modes.c       ****                 {        
1029:modes.c       ****                     status = 27;
1030:modes.c       ****                 } 
1031:modes.c       **** 
1032:modes.c       **** // EXIT(on Beo4)/RESET(on MCP) to any of five aux devices - return code 28
1033:modes.c       ****             else if ( (COMMAND_HEX == 0x000000000000007F) |
 1908              		.loc 1 1033 0
 1909 0652 7F22     		movs	r2, #127
 1910 0654 A248     		ldr	r0, .L254+20
 1911 0656 6240     		eors	r2, r4
 1912 0658 6040     		eors	r0, r4
 1913 065a 2A43     		orrs	r2, r5
 1914 065c 2843     		orrs	r0, r5
 1915 065e 4142     		rsbs	r1, r0, #0
 1916 0660 4841     		adcs	r0, r0, r1
 1917 0662 5142     		rsbs	r1, r2, #0
 1918 0664 4A41     		adcs	r2, r2, r1
 1919 0666 0243     		orrs	r2, r0
 1920 0668 1100     		movs	r1, r2
 1921 066a 9E4A     		ldr	r2, .L254+24
 1922 066c 6240     		eors	r2, r4
 1923 066e 2A43     		orrs	r2, r5
 1924 0670 5042     		rsbs	r0, r2, #0
 1925 0672 4241     		adcs	r2, r2, r0
 1926 0674 0A43     		orrs	r2, r1
 1927 0676 9C49     		ldr	r1, .L254+28
 1928 0678 6140     		eors	r1, r4
 1929 067a 0800     		movs	r0, r1
ARM GAS  C:\Users\Ala\AppData\Local\Temp\ccPRO05X.s 			page 57


 1930 067c 3B21     		movs	r1, #59
 1931 067e 6940     		eors	r1, r5
 1932 0680 0143     		orrs	r1, r0
 1933 0682 4842     		rsbs	r0, r1, #0
 1934 0684 4141     		adcs	r1, r1, r0
 1935 0686 0A43     		orrs	r2, r1
 1936 0688 00D0     		beq	.LCB1713
 1937 068a F5E0     		b	.L141	@long jump
 1938              	.LCB1713:
 1939 068c 0121     		movs	r1, #1
 1940 068e 9748     		ldr	r0, .L254+32
 1941 0690 4942     		rsbs	r1, r1, #0
 1942 0692 0019     		adds	r0, r0, r4
 1943 0694 6941     		adcs	r1, r1, r5
 1944 0696 0200     		movs	r2, r0
 1945 0698 3240     		ands	r2, r6
 1946 069a 0A43     		orrs	r2, r1
 1947 069c 00D1     		bne	.LCB1724
 1948 069e EBE0     		b	.L141	@long jump
 1949              	.LCB1724:
1034:modes.c       ****                     (COMMAND_HEX == 0x000000000000057F) |
1035:modes.c       ****                     (COMMAND_HEX == 0x0000000000000A7F) |
1036:modes.c       ****                     (COMMAND_HEX == 0x000000000000067F) |
1037:modes.c       ****                     (COMMAND_HEX == 0x000000000001297F) |
1038:modes.c       ****                     (COMMAND_HEX == 0x0000003BC348741A) )
1039:modes.c       ****                 {        
1040:modes.c       ****                     status = 28;
1041:modes.c       ****                 } 
1042:modes.c       ****             
1043:modes.c       **** // DISPLAY or yellow to any of five aux devices - return code 31
1044:modes.c       ****             else if ( (COMMAND_HEX == 0x0000000000000059) |
 1950              		.loc 1 1044 0
 1951 06a0 5937     		adds	r7, r7, #89
 1952 06a2 6740     		eors	r7, r4
 1953 06a4 2F43     		orrs	r7, r5
 1954 06a6 7A42     		rsbs	r2, r7, #0
 1955 06a8 5741     		adcs	r7, r7, r2
 1956 06aa 9149     		ldr	r1, .L254+36
 1957 06ac 9148     		ldr	r0, .L254+40
 1958 06ae 6140     		eors	r1, r4
 1959 06b0 2943     		orrs	r1, r5
 1960 06b2 4A42     		rsbs	r2, r1, #0
 1961 06b4 5141     		adcs	r1, r1, r2
 1962 06b6 3A00     		movs	r2, r7
 1963 06b8 6040     		eors	r0, r4
 1964 06ba 0A43     		orrs	r2, r1
 1965 06bc 2843     		orrs	r0, r5
 1966 06be D421     		movs	r1, #212
 1967 06c0 4742     		rsbs	r7, r0, #0
 1968 06c2 7841     		adcs	r0, r0, r7
 1969 06c4 6140     		eors	r1, r4
 1970 06c6 1043     		orrs	r0, r2
 1971 06c8 2943     		orrs	r1, r5
 1972 06ca 0700     		movs	r7, r0
 1973 06cc 4842     		rsbs	r0, r1, #0
 1974 06ce 4141     		adcs	r1, r1, r0
 1975 06d0 894A     		ldr	r2, .L254+44
ARM GAS  C:\Users\Ala\AppData\Local\Temp\ccPRO05X.s 			page 58


 1976 06d2 3943     		orrs	r1, r7
 1977 06d4 6240     		eors	r2, r4
 1978 06d6 2A43     		orrs	r2, r5
 1979 06d8 0800     		movs	r0, r1
 1980 06da 5142     		rsbs	r1, r2, #0
 1981 06dc 4A41     		adcs	r2, r2, r1
 1982 06de 0243     		orrs	r2, r0
 1983 06e0 1100     		movs	r1, r2
 1984 06e2 864A     		ldr	r2, .L254+48
 1985 06e4 6240     		eors	r2, r4
 1986 06e6 2A43     		orrs	r2, r5
 1987 06e8 5042     		rsbs	r0, r2, #0
 1988 06ea 4241     		adcs	r2, r2, r0
 1989 06ec 0A43     		orrs	r2, r1
 1990 06ee 0121     		movs	r1, #1
 1991 06f0 8348     		ldr	r0, .L254+52
 1992 06f2 4942     		rsbs	r1, r1, #0
 1993 06f4 0019     		adds	r0, r0, r4
 1994 06f6 6941     		adcs	r1, r1, r5
 1995 06f8 3040     		ands	r0, r6
 1996 06fa 0143     		orrs	r1, r0
 1997 06fc 4842     		rsbs	r0, r1, #0
 1998 06fe 4141     		adcs	r1, r1, r0
 1999 0700 0A43     		orrs	r2, r1
 2000 0702 00D0     		beq	.LCB1768
 2001 0704 BAE0     		b	.L142	@long jump
 2002              	.LCB1768:
 2003 0706 0121     		movs	r1, #1
 2004 0708 7E48     		ldr	r0, .L254+56
 2005 070a 4942     		rsbs	r1, r1, #0
 2006 070c 0019     		adds	r0, r0, r4
 2007 070e 6941     		adcs	r1, r1, r5
 2008 0710 0200     		movs	r2, r0
 2009 0712 3240     		ands	r2, r6
 2010 0714 0A43     		orrs	r2, r1
 2011 0716 00D1     		bne	.LCB1779
 2012 0718 B0E0     		b	.L142	@long jump
 2013              	.LCB1779:
1045:modes.c       ****                     (COMMAND_HEX == 0x0000000000000559) |
1046:modes.c       ****                     (COMMAND_HEX == 0x0000000000000A59) |
1047:modes.c       ****                     (COMMAND_HEX == 0x0000000000000659) |
1048:modes.c       ****                     (COMMAND_HEX == 0x0000000000012959) |
1049:modes.c       ****                     (COMMAND_HEX == 0x00000000000000D4) |
1050:modes.c       ****                     (COMMAND_HEX == 0x00000000000005D4) |
1051:modes.c       ****                     (COMMAND_HEX == 0x0000000000000AD4) |
1052:modes.c       ****                     (COMMAND_HEX == 0x00000000000006D4) |
1053:modes.c       ****                     (COMMAND_HEX == 0x00000000000129D4) )
1054:modes.c       ****             {        
1055:modes.c       ****                 status = 31;
1056:modes.c       ****             } 
1057:modes.c       **** 
1058:modes.c       **** // green to any of five aux devices - return code 32
1059:modes.c       ****             else if ( (COMMAND_HEX == 0x00000000000000D5) |
 2014              		.loc 1 1059 0
 2015 071a D522     		movs	r2, #213
 2016 071c 7A48     		ldr	r0, .L254+60
 2017 071e 6240     		eors	r2, r4
ARM GAS  C:\Users\Ala\AppData\Local\Temp\ccPRO05X.s 			page 59


 2018 0720 6040     		eors	r0, r4
 2019 0722 2A43     		orrs	r2, r5
 2020 0724 2843     		orrs	r0, r5
 2021 0726 5142     		rsbs	r1, r2, #0
 2022 0728 4A41     		adcs	r2, r2, r1
 2023 072a 4142     		rsbs	r1, r0, #0
 2024 072c 4141     		adcs	r1, r1, r0
 2025 072e 1143     		orrs	r1, r2
 2026 0730 764A     		ldr	r2, .L254+64
 2027 0732 6240     		eors	r2, r4
 2028 0734 1343     		orrs	r3, r2
 2029 0736 5A42     		rsbs	r2, r3, #0
 2030 0738 5A41     		adcs	r2, r2, r3
 2031 073a 0A43     		orrs	r2, r1
 2032 073c 00D0     		beq	.LCB1796
 2033 073e 9FE0     		b	.L143	@long jump
 2034              	.LCB1796:
 2035 0740 0123     		movs	r3, #1
 2036 0742 734A     		ldr	r2, .L254+68
 2037 0744 5B42     		rsbs	r3, r3, #0
 2038 0746 1219     		adds	r2, r2, r4
 2039 0748 6B41     		adcs	r3, r3, r5
 2040 074a 1640     		ands	r6, r2
 2041 074c 1E43     		orrs	r6, r3
 2042 074e 00D1     		bne	.LCB1806
 2043 0750 96E0     		b	.L143	@long jump
 2044              	.LCB1806:
1060:modes.c       ****                     (COMMAND_HEX == 0x00000000000005D5) |
1061:modes.c       ****                     (COMMAND_HEX == 0x0000000000000AD5) |
1062:modes.c       ****                     (COMMAND_HEX == 0x00000000000006D5) |
1063:modes.c       ****                     (COMMAND_HEX == 0x00000000000129D5) )
1064:modes.c       ****             {        
1065:modes.c       ****                 status = 32;
1066:modes.c       ****             } 
1067:modes.c       **** 
1068:modes.c       **** // FM Radio station 1 - return code 41
1069:modes.c       ****             else if ( COMMAND_HEX == 0x0000003BC1400001 )
 2045              		.loc 1 1069 0
 2046 0752 704B     		ldr	r3, .L254+72
 2047 0754 9C42     		cmp	r4, r3
 2048 0756 02D1     		bne	.L165
 2049 0758 3B2D     		cmp	r5, #59
 2050 075a 00D1     		bne	.LCB1811
 2051 075c 92E0     		b	.L223	@long jump
 2052              	.LCB1811:
 2053              	.L165:
1070:modes.c       ****             {        
1071:modes.c       ****                 status = 41;
1072:modes.c       ****             }             
1073:modes.c       **** // FM Radio station 2 - return code 42
1074:modes.c       ****             else if ( COMMAND_HEX == 0x0000003BC1400002 )
 2054              		.loc 1 1074 0
 2055 075e 6E4B     		ldr	r3, .L254+76
 2056 0760 9C42     		cmp	r4, r3
 2057 0762 02D1     		bne	.L166
 2058 0764 3B2D     		cmp	r5, #59
 2059 0766 00D1     		bne	.LCB1817
ARM GAS  C:\Users\Ala\AppData\Local\Temp\ccPRO05X.s 			page 60


 2060 0768 8EE0     		b	.L224	@long jump
 2061              	.LCB1817:
 2062              	.L166:
1075:modes.c       ****             {        
1076:modes.c       ****                 status = 42;
1077:modes.c       ****             }             
1078:modes.c       **** // FM Radio station 3 - return code 43
1079:modes.c       ****             else if ( COMMAND_HEX == 0x0000003BC1400003 )
 2063              		.loc 1 1079 0
 2064 076a 6C4B     		ldr	r3, .L254+80
 2065 076c 9C42     		cmp	r4, r3
 2066 076e 02D1     		bne	.L167
 2067 0770 3B2D     		cmp	r5, #59
 2068 0772 00D1     		bne	.LCB1823
 2069 0774 8AE0     		b	.L225	@long jump
 2070              	.LCB1823:
 2071              	.L167:
1080:modes.c       ****             {        
1081:modes.c       ****                 status = 43;
1082:modes.c       ****             }             
1083:modes.c       **** // FM Radio station 4 - return code 44
1084:modes.c       ****             else if ( COMMAND_HEX == 0x0000003BC1400004 )
 2072              		.loc 1 1084 0
 2073 0776 6A4B     		ldr	r3, .L254+84
 2074 0778 9C42     		cmp	r4, r3
 2075 077a 02D1     		bne	.L168
 2076 077c 3B2D     		cmp	r5, #59
 2077 077e 00D1     		bne	.LCB1829
 2078 0780 86E0     		b	.L226	@long jump
 2079              	.LCB1829:
 2080              	.L168:
1085:modes.c       ****             {        
1086:modes.c       ****                 status = 44;
1087:modes.c       ****             }             
1088:modes.c       **** // FM Radio station 5 - return code 45
1089:modes.c       ****             else if ( COMMAND_HEX == 0x0000003BC1400005 )
 2081              		.loc 1 1089 0
 2082 0782 684B     		ldr	r3, .L254+88
 2083 0784 9C42     		cmp	r4, r3
 2084 0786 02D1     		bne	.L169
 2085 0788 3B2D     		cmp	r5, #59
 2086 078a 00D1     		bne	.LCB1835
 2087 078c 82E0     		b	.L227	@long jump
 2088              	.LCB1835:
 2089              	.L169:
1090:modes.c       ****             {        
1091:modes.c       ****                 status = 45;
1092:modes.c       ****             }             
1093:modes.c       **** // FM Radio station 6 - return code 46
1094:modes.c       ****             else if ( COMMAND_HEX == 0x0000003BC1400006 )
 2090              		.loc 1 1094 0
 2091 078e 664B     		ldr	r3, .L254+92
 2092 0790 9C42     		cmp	r4, r3
 2093 0792 01D1     		bne	.L170
 2094 0794 3B2D     		cmp	r5, #59
 2095 0796 7FD0     		beq	.L228
 2096              	.L170:
ARM GAS  C:\Users\Ala\AppData\Local\Temp\ccPRO05X.s 			page 61


1095:modes.c       ****             {        
1096:modes.c       ****                 status = 46;
1097:modes.c       ****             }             
1098:modes.c       **** // FM Radio station 7 - return code 47
1099:modes.c       ****             else if ( COMMAND_HEX == 0x0000003BC1400007 )
 2097              		.loc 1 1099 0
 2098 0798 644B     		ldr	r3, .L254+96
 2099 079a 9C42     		cmp	r4, r3
 2100 079c 01D1     		bne	.L171
 2101 079e 3B2D     		cmp	r5, #59
 2102 07a0 7CD0     		beq	.L229
 2103              	.L171:
1100:modes.c       ****             {        
1101:modes.c       ****                 status = 47;
1102:modes.c       ****             }             
1103:modes.c       **** // FM Radio station 8 - return code 48
1104:modes.c       ****             else if ( COMMAND_HEX == 0x0000003BC1400008 )
 2104              		.loc 1 1104 0
 2105 07a2 634B     		ldr	r3, .L254+100
 2106 07a4 9C42     		cmp	r4, r3
 2107 07a6 01D1     		bne	.L172
 2108 07a8 3B2D     		cmp	r5, #59
 2109 07aa 79D0     		beq	.L230
 2110              	.L172:
1105:modes.c       ****             {        
1106:modes.c       ****                 status = 48;
1107:modes.c       ****             }             
1108:modes.c       **** // FM Radio station 9 - return code 49
1109:modes.c       ****             else if ( COMMAND_HEX == 0x0000003BC1400009 )
 2111              		.loc 1 1109 0
 2112 07ac 614B     		ldr	r3, .L254+104
 2113 07ae 9C42     		cmp	r4, r3
 2114 07b0 01D1     		bne	.L173
 2115 07b2 3B2D     		cmp	r5, #59
 2116 07b4 76D0     		beq	.L231
 2117              	.L173:
1110:modes.c       ****             {        
1111:modes.c       ****                 status = 49;
1112:modes.c       ****             }             
1113:modes.c       **** // FM Radio station 10 - return code 50
1114:modes.c       ****             else if ( COMMAND_HEX == 0x0000003BC140000A )
 2118              		.loc 1 1114 0
 2119 07b6 604B     		ldr	r3, .L254+108
 2120 07b8 9C42     		cmp	r4, r3
 2121 07ba 01D1     		bne	.L174
 2122 07bc 3B2D     		cmp	r5, #59
 2123 07be 73D0     		beq	.L232
 2124              	.L174:
1115:modes.c       ****             {        
1116:modes.c       ****                 status = 50;
1117:modes.c       ****             }             
1118:modes.c       **** // FM Radio station 11 - return code 51
1119:modes.c       ****             else if ( COMMAND_HEX == 0x0000003BC140000B )
 2125              		.loc 1 1119 0
 2126 07c0 5E4B     		ldr	r3, .L254+112
 2127 07c2 9C42     		cmp	r4, r3
 2128 07c4 01D1     		bne	.L175
ARM GAS  C:\Users\Ala\AppData\Local\Temp\ccPRO05X.s 			page 62


 2129 07c6 3B2D     		cmp	r5, #59
 2130 07c8 70D0     		beq	.L233
 2131              	.L175:
1120:modes.c       ****             {        
1121:modes.c       ****                 status = 51;
1122:modes.c       ****             }             
1123:modes.c       **** // FM Radio station 12 - return code 52
1124:modes.c       ****             else if ( COMMAND_HEX == 0x0000003BC140000C )
 2132              		.loc 1 1124 0
 2133 07ca 5D4B     		ldr	r3, .L254+116
 2134 07cc 9C42     		cmp	r4, r3
 2135 07ce 01D1     		bne	.L176
 2136 07d0 3B2D     		cmp	r5, #59
 2137 07d2 6DD0     		beq	.L234
 2138              	.L176:
1125:modes.c       ****             {        
1126:modes.c       ****                 status = 52;
1127:modes.c       ****             }             
1128:modes.c       **** // FM Radio station 13 - return code 53
1129:modes.c       ****             else if ( COMMAND_HEX == 0x0000003BC140000D )
 2139              		.loc 1 1129 0
 2140 07d4 5B4B     		ldr	r3, .L254+120
 2141 07d6 9C42     		cmp	r4, r3
 2142 07d8 01D1     		bne	.L177
 2143 07da 3B2D     		cmp	r5, #59
 2144 07dc 6AD0     		beq	.L235
 2145              	.L177:
1130:modes.c       ****             {        
1131:modes.c       ****                 status = 53;
1132:modes.c       ****             }             
1133:modes.c       **** // FM Radio station 14 - return code 54
1134:modes.c       ****             else if ( COMMAND_HEX == 0x0000003BC140000E )
 2146              		.loc 1 1134 0
 2147 07de 5A4B     		ldr	r3, .L254+124
 2148 07e0 9C42     		cmp	r4, r3
 2149 07e2 01D1     		bne	.L178
 2150 07e4 3B2D     		cmp	r5, #59
 2151 07e6 67D0     		beq	.L236
 2152              	.L178:
1135:modes.c       ****             {        
1136:modes.c       ****                 status = 54;
1137:modes.c       ****             }             
1138:modes.c       **** // FM Radio station 15 - return code 55
1139:modes.c       ****             else if ( COMMAND_HEX == 0x0000003BC140000F )
 2153              		.loc 1 1139 0
 2154 07e8 584B     		ldr	r3, .L254+128
 2155 07ea 9C42     		cmp	r4, r3
 2156 07ec 01D1     		bne	.L179
 2157 07ee 3B2D     		cmp	r5, #59
 2158 07f0 64D0     		beq	.L237
 2159              	.L179:
1140:modes.c       ****             {        
1141:modes.c       ****                 status = 55;
1142:modes.c       ****             }             
1143:modes.c       **** // FM Radio station 16 - return code 56
1144:modes.c       ****             else if ( COMMAND_HEX == 0x0000003BC1400010 )
 2160              		.loc 1 1144 0
ARM GAS  C:\Users\Ala\AppData\Local\Temp\ccPRO05X.s 			page 63


 2161 07f2 574B     		ldr	r3, .L254+132
 2162 07f4 9C42     		cmp	r4, r3
 2163 07f6 01D1     		bne	.L180
 2164 07f8 3B2D     		cmp	r5, #59
 2165 07fa 61D0     		beq	.L238
 2166              	.L180:
1145:modes.c       ****             {        
1146:modes.c       ****                 status = 56;
1147:modes.c       ****             }             
1148:modes.c       **** // FM Radio station 17 - return code 57
1149:modes.c       ****             else if ( COMMAND_HEX == 0x0000003BC1400011 )
 2167              		.loc 1 1149 0
 2168 07fc 554B     		ldr	r3, .L254+136
 2169 07fe 9C42     		cmp	r4, r3
 2170 0800 01D1     		bne	.L181
 2171 0802 3B2D     		cmp	r5, #59
 2172 0804 5ED0     		beq	.L239
 2173              	.L181:
1150:modes.c       ****             {        
1151:modes.c       ****                 status = 57;
1152:modes.c       ****             }             
1153:modes.c       **** // FM Radio station 18 - return code 58
1154:modes.c       ****             else if ( COMMAND_HEX == 0x0000003BC1400012 )
 2174              		.loc 1 1154 0
 2175 0806 544B     		ldr	r3, .L254+140
 2176 0808 9C42     		cmp	r4, r3
 2177 080a 01D1     		bne	.L182
 2178 080c 3B2D     		cmp	r5, #59
 2179 080e 5BD0     		beq	.L240
 2180              	.L182:
1155:modes.c       ****             {        
1156:modes.c       ****                 status = 58;
1157:modes.c       ****             }             
1158:modes.c       **** // FM Radio station 19 - return code 59
1159:modes.c       ****             else if ( COMMAND_HEX == 0x0000003BC1400013 )
 2181              		.loc 1 1159 0
 2182 0810 524B     		ldr	r3, .L254+144
 2183 0812 9C42     		cmp	r4, r3
 2184 0814 02D1     		bne	.L183
 2185 0816 3B2D     		cmp	r5, #59
 2186 0818 00D1     		bne	.LCB1919
 2187 081a A3E0     		b	.L241	@long jump
 2188              	.LCB1919:
 2189              	.L183:
1160:modes.c       ****             {        
1161:modes.c       ****                 status = 59;
1162:modes.c       ****             }             
1163:modes.c       **** // FM Radio station 20 - return code 60
1164:modes.c       ****             else if ( COMMAND_HEX == 0x0000003BC1400014 )
 2190              		.loc 1 1164 0
 2191 081c 504B     		ldr	r3, .L254+148
 2192 081e 9C42     		cmp	r4, r3
 2193 0820 00D0     		beq	.LCB1923
 2194 0822 A0E0     		b	.L82	@long jump
 2195              	.LCB1923:
1165:modes.c       ****             {        
1166:modes.c       ****                 status = 60;
ARM GAS  C:\Users\Ala\AppData\Local\Temp\ccPRO05X.s 			page 64


 2196              		.loc 1 1166 0
 2197 0824 3C23     		movs	r3, #60
1164:modes.c       ****             {        
 2198              		.loc 1 1164 0
 2199 0826 3B2D     		cmp	r5, #59
 2200 0828 00D0     		beq	.LCB1926
 2201 082a 9CE0     		b	.L82	@long jump
 2202              	.LCB1926:
 2203 082c 02E0     		b	.L244
 2204              	.LVL132:
 2205              	.L120:
1167:modes.c       ****             }             
1168:modes.c       ****         }
1169:modes.c       ****         else
1170:modes.c       ****             {
1171:modes.c       **** // incorrect start and/or stop value - return 1 value
1172:modes.c       ****             status = 1;
 2206              		.loc 1 1172 0
 2207 082e 0123     		movs	r3, #1
 2208 0830 00E0     		b	.L244
 2209              	.LVL133:
 2210              	.L221:
 859:modes.c       ****             }
 2211              		.loc 1 859 0
 2212 0832 0A23     		movs	r3, #10
 2213              	.LVL134:
 2214              	.L244:
 2215 0834 0093     		str	r3, [sp]
 2216 0836 96E0     		b	.L82
 2217              	.LVL135:
 2218              	.L125:
 870:modes.c       ****                 }
 2219              		.loc 1 870 0
 2220 0838 0B23     		movs	r3, #11
 2221 083a FBE7     		b	.L244
 2222              	.L126:
 882:modes.c       ****                 }
 2223              		.loc 1 882 0
 2224 083c 0C23     		movs	r3, #12
 2225 083e F9E7     		b	.L244
 2226              	.L127:
 894:modes.c       ****                 }
 2227              		.loc 1 894 0
 2228 0840 0D23     		movs	r3, #13
 2229 0842 F7E7     		b	.L244
 2230              	.L128:
 906:modes.c       ****                 }
 2231              		.loc 1 906 0
 2232 0844 0E23     		movs	r3, #14
 2233 0846 F5E7     		b	.L244
 2234              	.L129:
 918:modes.c       ****                 }        
 2235              		.loc 1 918 0
 2236 0848 0F23     		movs	r3, #15
 2237 084a F3E7     		b	.L244
 2238              	.L130:
 928:modes.c       ****                 }        
ARM GAS  C:\Users\Ala\AppData\Local\Temp\ccPRO05X.s 			page 65


 2239              		.loc 1 928 0
 2240 084c 1023     		movs	r3, #16
 2241 084e F1E7     		b	.L244
 2242              	.L131:
 938:modes.c       ****                 }        
 2243              		.loc 1 938 0
 2244 0850 1123     		movs	r3, #17
 2245 0852 EFE7     		b	.L244
 2246              	.L132:
 948:modes.c       ****                 } 
 2247              		.loc 1 948 0
 2248 0854 1223     		movs	r3, #18
 2249 0856 EDE7     		b	.L244
 2250              	.L133:
 958:modes.c       ****                 } 
 2251              		.loc 1 958 0
 2252 0858 1423     		movs	r3, #20
 2253 085a EBE7     		b	.L244
 2254              	.L134:
 968:modes.c       ****                 }         
 2255              		.loc 1 968 0
 2256 085c 1523     		movs	r3, #21
 2257 085e E9E7     		b	.L244
 2258              	.L135:
 978:modes.c       ****                 } 
 2259              		.loc 1 978 0
 2260 0860 1623     		movs	r3, #22
 2261 0862 E7E7     		b	.L244
 2262              	.L136:
 988:modes.c       ****                 } 
 2263              		.loc 1 988 0
 2264 0864 1723     		movs	r3, #23
 2265 0866 E5E7     		b	.L244
 2266              	.L137:
 998:modes.c       ****                 } 
 2267              		.loc 1 998 0
 2268 0868 1823     		movs	r3, #24
 2269 086a E3E7     		b	.L244
 2270              	.L138:
1008:modes.c       ****                 } 
 2271              		.loc 1 1008 0
 2272 086c 1923     		movs	r3, #25
 2273 086e E1E7     		b	.L244
 2274              	.L222:
1014:modes.c       ****                 } 
 2275              		.loc 1 1014 0
 2276 0870 1A23     		movs	r3, #26
 2277 0872 DFE7     		b	.L244
 2278              	.L140:
1029:modes.c       ****                 } 
 2279              		.loc 1 1029 0
 2280 0874 1B23     		movs	r3, #27
 2281 0876 DDE7     		b	.L244
 2282              	.L141:
1040:modes.c       ****                 } 
 2283              		.loc 1 1040 0
 2284 0878 1C23     		movs	r3, #28
ARM GAS  C:\Users\Ala\AppData\Local\Temp\ccPRO05X.s 			page 66


 2285 087a DBE7     		b	.L244
 2286              	.L142:
1055:modes.c       ****             } 
 2287              		.loc 1 1055 0
 2288 087c 1F23     		movs	r3, #31
 2289 087e D9E7     		b	.L244
 2290              	.L143:
1065:modes.c       ****             } 
 2291              		.loc 1 1065 0
 2292 0880 2023     		movs	r3, #32
 2293 0882 D7E7     		b	.L244
 2294              	.L223:
1071:modes.c       ****             }             
 2295              		.loc 1 1071 0
 2296 0884 2923     		movs	r3, #41
 2297 0886 D5E7     		b	.L244
 2298              	.L224:
1076:modes.c       ****             }             
 2299              		.loc 1 1076 0
 2300 0888 2A23     		movs	r3, #42
 2301 088a D3E7     		b	.L244
 2302              	.L225:
1081:modes.c       ****             }             
 2303              		.loc 1 1081 0
 2304 088c 2B23     		movs	r3, #43
 2305 088e D1E7     		b	.L244
 2306              	.L226:
1086:modes.c       ****             }             
 2307              		.loc 1 1086 0
 2308 0890 2C23     		movs	r3, #44
 2309 0892 CFE7     		b	.L244
 2310              	.L227:
1091:modes.c       ****             }             
 2311              		.loc 1 1091 0
 2312 0894 2D23     		movs	r3, #45
 2313 0896 CDE7     		b	.L244
 2314              	.L228:
1096:modes.c       ****             }             
 2315              		.loc 1 1096 0
 2316 0898 2E23     		movs	r3, #46
 2317 089a CBE7     		b	.L244
 2318              	.L229:
1101:modes.c       ****             }             
 2319              		.loc 1 1101 0
 2320 089c 2F23     		movs	r3, #47
 2321 089e C9E7     		b	.L244
 2322              	.L230:
1106:modes.c       ****             }             
 2323              		.loc 1 1106 0
 2324 08a0 3023     		movs	r3, #48
 2325 08a2 C7E7     		b	.L244
 2326              	.L231:
1111:modes.c       ****             }             
 2327              		.loc 1 1111 0
 2328 08a4 3123     		movs	r3, #49
 2329 08a6 C5E7     		b	.L244
 2330              	.L232:
ARM GAS  C:\Users\Ala\AppData\Local\Temp\ccPRO05X.s 			page 67


1116:modes.c       ****             }             
 2331              		.loc 1 1116 0
 2332 08a8 3223     		movs	r3, #50
 2333 08aa C3E7     		b	.L244
 2334              	.L233:
1121:modes.c       ****             }             
 2335              		.loc 1 1121 0
 2336 08ac 3323     		movs	r3, #51
 2337 08ae C1E7     		b	.L244
 2338              	.L234:
1126:modes.c       ****             }             
 2339              		.loc 1 1126 0
 2340 08b0 3423     		movs	r3, #52
 2341 08b2 BFE7     		b	.L244
 2342              	.L235:
1131:modes.c       ****             }             
 2343              		.loc 1 1131 0
 2344 08b4 3523     		movs	r3, #53
 2345 08b6 BDE7     		b	.L244
 2346              	.L236:
1136:modes.c       ****             }             
 2347              		.loc 1 1136 0
 2348 08b8 3623     		movs	r3, #54
 2349 08ba BBE7     		b	.L244
 2350              	.L237:
1141:modes.c       ****             }             
 2351              		.loc 1 1141 0
 2352 08bc 3723     		movs	r3, #55
 2353 08be B9E7     		b	.L244
 2354              	.L238:
1146:modes.c       ****             }             
 2355              		.loc 1 1146 0
 2356 08c0 3823     		movs	r3, #56
 2357 08c2 B7E7     		b	.L244
 2358              	.L239:
1151:modes.c       ****             }             
 2359              		.loc 1 1151 0
 2360 08c4 3923     		movs	r3, #57
 2361 08c6 B5E7     		b	.L244
 2362              	.L240:
1156:modes.c       ****             }             
 2363              		.loc 1 1156 0
 2364 08c8 3A23     		movs	r3, #58
 2365 08ca B3E7     		b	.L244
 2366              	.L255:
 2367              		.align	2
 2368              	.L254:
 2369 08cc 460A0000 		.word	2630
 2370 08d0 46290100 		.word	76102
 2371 08d4 A4FAFFFF 		.word	-1372
 2372 08d8 FFFEFFFF 		.word	-257
 2373 08dc BAFAFFFF 		.word	-1350
 2374 08e0 7F0A0000 		.word	2687
 2375 08e4 7F290100 		.word	76159
 2376 08e8 1A7448C3 		.word	-1018661862
 2377 08ec 81FAFFFF 		.word	-1407
 2378 08f0 590A0000 		.word	2649
ARM GAS  C:\Users\Ala\AppData\Local\Temp\ccPRO05X.s 			page 68


 2379 08f4 59290100 		.word	76121
 2380 08f8 D40A0000 		.word	2772
 2381 08fc D4290100 		.word	76244
 2382 0900 A7FAFFFF 		.word	-1369
 2383 0904 2CFAFFFF 		.word	-1492
 2384 0908 D50A0000 		.word	2773
 2385 090c D5290100 		.word	76245
 2386 0910 2BFAFFFF 		.word	-1493
 2387 0914 010040C1 		.word	-1052770303
 2388 0918 020040C1 		.word	-1052770302
 2389 091c 030040C1 		.word	-1052770301
 2390 0920 040040C1 		.word	-1052770300
 2391 0924 050040C1 		.word	-1052770299
 2392 0928 060040C1 		.word	-1052770298
 2393 092c 070040C1 		.word	-1052770297
 2394 0930 080040C1 		.word	-1052770296
 2395 0934 090040C1 		.word	-1052770295
 2396 0938 0A0040C1 		.word	-1052770294
 2397 093c 0B0040C1 		.word	-1052770293
 2398 0940 0C0040C1 		.word	-1052770292
 2399 0944 0D0040C1 		.word	-1052770291
 2400 0948 0E0040C1 		.word	-1052770290
 2401 094c 0F0040C1 		.word	-1052770289
 2402 0950 100040C1 		.word	-1052770288
 2403 0954 110040C1 		.word	-1052770287
 2404 0958 120040C1 		.word	-1052770286
 2405 095c 130040C1 		.word	-1052770285
 2406 0960 140040C1 		.word	-1052770284
 2407              	.L241:
1161:modes.c       ****             }             
 2408              		.loc 1 1161 0
 2409 0964 0095     		str	r5, [sp]
 2410              	.LVL136:
 2411              	.L82:
1173:modes.c       ****             }
1174:modes.c       ****     }
1175:modes.c       **** 
1176:modes.c       **** // reset time string table indicating readiness for decoding of new command                        
1177:modes.c       ****         DATALINK_TABLE_COUNTER_MAX = 0;
 2412              		.loc 1 1177 0
 2413 0966 0022     		movs	r2, #0
 2414 0968 024B     		ldr	r3, .L256
1178:modes.c       **** // no new command - return 0 value
1179:modes.c       ****         return status;
1180:modes.c       **** }
 2415              		.loc 1 1180 0
 2416 096a 0098     		ldr	r0, [sp]
1177:modes.c       **** // no new command - return 0 value
 2417              		.loc 1 1177 0
 2418 096c 1A70     		strb	r2, [r3]
 2419              		.loc 1 1180 0
 2420 096e 23B0     		add	sp, sp, #140
 2421              	.LVL137:
 2422              		@ sp needed
 2423 0970 F0BD     		pop	{r4, r5, r6, r7, pc}
 2424              	.L257:
 2425 0972 C046     		.align	2
ARM GAS  C:\Users\Ala\AppData\Local\Temp\ccPRO05X.s 			page 69


 2426              	.L256:
 2427 0974 00000000 		.word	DATALINK_TABLE_COUNTER_MAX
 2428              		.cfi_endproc
 2429              	.LFE35:
 2430              		.size	datalink_decoder, .-datalink_decoder
 2431              		.section	.text.SigmaDSP_to_display,"ax",%progbits
 2432              		.align	1
 2433              		.global	SigmaDSP_to_display
 2434              		.code	16
 2435              		.thumb_func
 2436              		.type	SigmaDSP_to_display, %function
 2437              	SigmaDSP_to_display:
 2438              	.LFB36:
1181:modes.c       **** 
1182:modes.c       **** 
1183:modes.c       **** 
1184:modes.c       **** 
1185:modes.c       **** /*******************************************************************************
1186:modes.c       **** * Function Name: SigmaDSP_to_display()
1187:modes.c       **** ********************************************************************************
1188:modes.c       **** * Summary:
1189:modes.c       **** *  Function 
1190:modes.c       **** *   
1191:modes.c       **** * Parameters:
1192:modes.c       **** *  0 - read back signal level values and encode them into information sent to 
1193:modes.c       **** *      display module
1194:modes.c       **** *  1 - read back spectrum analyser info and encode it into informaiton sent to
1195:modes.c       **** *      display module
1196:modes.c       **** *
1197:modes.c       **** * Return:
1198:modes.c       **** *  Funciton returns zero value
1199:modes.c       **** *
1200:modes.c       **** *******************************************************************************/  
1201:modes.c       **** uint8 SigmaDSP_to_display(uint8 mode)  
1202:modes.c       **** {
 2439              		.loc 1 1202 0
 2440              		.cfi_startproc
 2441              		@ args = 0, pretend = 0, frame = 0
 2442              		@ frame_needed = 0, uses_anonymous_args = 0
 2443              	.LVL138:
 2444 0000 F8B5     		push	{r3, r4, r5, r6, r7, lr}
 2445              		.cfi_def_cfa_offset 24
 2446              		.cfi_offset 3, -24
 2447              		.cfi_offset 4, -20
 2448              		.cfi_offset 5, -16
 2449              		.cfi_offset 6, -12
 2450              		.cfi_offset 7, -8
 2451              		.cfi_offset 14, -4
 2452              		.loc 1 1202 0
 2453 0002 061E     		subs	r6, r0, #0
1203:modes.c       **** // variable used to store values returned from SigmaDSP 
1204:modes.c       ****     uint32 status = 0;
1205:modes.c       **** // variable used to produce level informaiton on display
1206:modes.c       ****     uint8 display_counter = 0;
1207:modes.c       ****     
1208:modes.c       ****     
1209:modes.c       **** // execute sequence based on mode informaiton
ARM GAS  C:\Users\Ala\AppData\Local\Temp\ccPRO05X.s 			page 70


1210:modes.c       ****     switch (mode)
 2454              		.loc 1 1210 0
 2455 0004 62D0     		beq	.L260
 2456 0006 0128     		cmp	r0, #1
 2457 0008 00D0     		beq	.LCB2241
 2458 000a 94E0     		b	.L259	@long jump
 2459              	.LCB2241:
1211:modes.c       ****     {    
1212:modes.c       **** // 0 = LEVEL
1213:modes.c       ****     case (0):
1214:modes.c       **** // 0 = LEVEL info -> 0x0000aabb
1215:modes.c       **** //    -> aa - 0x00 - 0x10 - left channel 
1216:modes.c       **** //    -> bb - 0x00 - 0x10 - right channel
1217:modes.c       ****         status = SPIM_SigmaDSP_read(0);
1218:modes.c       **** // display data
1219:modes.c       **** // 0 = empty display
1220:modes.c       **** // 1 = bottom (right) empty square
1221:modes.c       **** // 2 = top (left) empty square
1222:modes.c       **** // 3 = both bottom and top (left and right) empty squares        
1223:modes.c       **** // 5 = bottom (right) full square
1224:modes.c       **** // 6 = top (left) full square
1225:modes.c       **** // 7 = both bottom and top (left and right) full squares        
1226:modes.c       **** // 8 = arrow left
1227:modes.c       **** // 9 = arrow right
1228:modes.c       **** // prepare status header for display    
1229:modes.c       ****         new_display_data_buffer[0] = '8';
1230:modes.c       ****         new_display_data_buffer[1] = '9';
1231:modes.c       ****      
1232:modes.c       **** // check and display signals below 0dB        
1233:modes.c       ****         for (display_counter = 0; display_counter<=0x13; display_counter++)
1234:modes.c       ****         {
1235:modes.c       **** // left and right channel info            
1236:modes.c       ****             if ( (((status >> 8) & 0x000000FF) >= display_counter) && ((status & 0x000000FF) >= dis
1237:modes.c       ****             {
1238:modes.c       ****                 new_display_data_buffer[display_counter+2] = '3';
1239:modes.c       ****             }
1240:modes.c       **** // left channel info
1241:modes.c       ****             else if ( (((status >> 8) & 0x000000FF) >= display_counter) && ((status & 0x000000FF) <
1242:modes.c       ****             {
1243:modes.c       ****                 new_display_data_buffer[display_counter+2] = '2';
1244:modes.c       ****             }
1245:modes.c       **** // right channel info
1246:modes.c       ****             else if ( (((status >> 8) & 0x000000FF) < display_counter) && ((status & 0x000000FF) >=
1247:modes.c       ****             {
1248:modes.c       ****                 new_display_data_buffer[display_counter+2] = '1';
1249:modes.c       ****             }
1250:modes.c       ****             else 
1251:modes.c       **** // fill remining places with zeros            
1252:modes.c       ****                 {
1253:modes.c       ****                     new_display_data_buffer[display_counter+2] = '0';
1254:modes.c       ****                 }
1255:modes.c       ****         }
1256:modes.c       ****                 
1257:modes.c       ****         new_display_data_buffer[2] = '0';
1258:modes.c       ****                 
1259:modes.c       **** // check and display signals below and 0dB and above
1260:modes.c       ****         for (display_counter = 0x13; display_counter<=0x15; display_counter++)
ARM GAS  C:\Users\Ala\AppData\Local\Temp\ccPRO05X.s 			page 71


1261:modes.c       ****         {
1262:modes.c       **** // left and right channel info            
1263:modes.c       ****             if ( (((status >> 8) & 0x000000FF) >= display_counter) && ((status & 0x000000FF) >= dis
1264:modes.c       ****             {
1265:modes.c       ****                 new_display_data_buffer[display_counter+2] = '7';
1266:modes.c       ****             }
1267:modes.c       **** // left channel info
1268:modes.c       ****             else if ( (((status >> 8) & 0x000000FF) >= display_counter) && ((status & 0x000000FF) <
1269:modes.c       ****             {
1270:modes.c       ****                 new_display_data_buffer[display_counter+2] = '6';
1271:modes.c       ****             }
1272:modes.c       **** // right channel info
1273:modes.c       ****             else if ( (((status >> 8) & 0x000000FF) < display_counter) && ((status & 0x000000FF) >=
1274:modes.c       ****             {
1275:modes.c       ****                 new_display_data_buffer[display_counter+2] = '5';
1276:modes.c       ****             }
1277:modes.c       ****             else 
1278:modes.c       **** // fill remining places with zeros            
1279:modes.c       ****                 {
1280:modes.c       ****                     new_display_data_buffer[display_counter+2] = '0';
1281:modes.c       ****                 }
1282:modes.c       ****         }
1283:modes.c       ****         
1284:modes.c       **** // set flag and sent info to display module
1285:modes.c       **** //        new_display_data_flag = 1;
1286:modes.c       ****         break;
1287:modes.c       **** 
1288:modes.c       ****         
1289:modes.c       **** // 1 = spectrum analyser        
1290:modes.c       ****     case (1):
1291:modes.c       **** // prepare headers to indicate levt and right channels 
1292:modes.c       ****         new_display_data_buffer[0] = ' ';
1293:modes.c       ****         new_display_data_buffer[1] = 'L';
 2460              		.loc 1 1293 0
 2461 000c 4C23     		movs	r3, #76
1292:modes.c       ****         new_display_data_buffer[1] = 'L';
 2462              		.loc 1 1292 0
 2463 000e 2027     		movs	r7, #32
 2464 0010 4A4C     		ldr	r4, .L277
1294:modes.c       **** // read back 
1295:modes.c       **** // 2 = Spectrum analyzer -> Left 
1296:modes.c       **** //    b31-b28 - NOT_USED
1297:modes.c       ****         status = SPIM_SigmaDSP_read(2);
 2465              		.loc 1 1297 0
 2466 0012 0220     		movs	r0, #2
 2467              	.LVL139:
1293:modes.c       **** // read back 
 2468              		.loc 1 1293 0
 2469 0014 6370     		strb	r3, [r4, #1]
1292:modes.c       ****         new_display_data_buffer[1] = 'L';
 2470              		.loc 1 1292 0
 2471 0016 2770     		strb	r7, [r4]
 2472              		.loc 1 1297 0
 2473 0018 FFF7FEFF 		bl	SPIM_SigmaDSP_read
 2474              	.LVL140:
1298:modes.c       **** //    b27-b24 - 31.5Hz
1299:modes.c       ****         new_display_data_buffer[2] = '0' + ((status >> 24) & 0x0000000F);
ARM GAS  C:\Users\Ala\AppData\Local\Temp\ccPRO05X.s 			page 72


 2475              		.loc 1 1299 0
 2476 001c 0F25     		movs	r5, #15
 2477 001e 030E     		lsrs	r3, r0, #24
 2478 0020 2B40     		ands	r3, r5
 2479 0022 3033     		adds	r3, r3, #48
 2480 0024 A370     		strb	r3, [r4, #2]
1300:modes.c       **** //    b23-b20 - 63Hz
1301:modes.c       ****         new_display_data_buffer[3] = '0' + ((status >> 20) & 0x0000000F);
 2481              		.loc 1 1301 0
 2482 0026 030D     		lsrs	r3, r0, #20
 2483 0028 2B40     		ands	r3, r5
 2484 002a 3033     		adds	r3, r3, #48
 2485 002c E370     		strb	r3, [r4, #3]
1302:modes.c       **** //    b19-b16 - 125Hz
1303:modes.c       ****         new_display_data_buffer[4] = '0' + ((status >> 16) & 0x0000000F);
 2486              		.loc 1 1303 0
 2487 002e 030C     		lsrs	r3, r0, #16
 2488 0030 2B40     		ands	r3, r5
 2489 0032 3033     		adds	r3, r3, #48
 2490 0034 2371     		strb	r3, [r4, #4]
1304:modes.c       **** //    b15-b12 - 250Hz
1305:modes.c       ****         new_display_data_buffer[5] = '0' + ((status >> 12) & 0x0000000F);
 2491              		.loc 1 1305 0
 2492 0036 030B     		lsrs	r3, r0, #12
 2493 0038 2B40     		ands	r3, r5
 2494 003a 3033     		adds	r3, r3, #48
 2495 003c 6371     		strb	r3, [r4, #5]
1306:modes.c       **** //    b11-b8 - 500Hz
1307:modes.c       ****         new_display_data_buffer[6] = '0' + ((status >> 8) & 0x0000000F);
 2496              		.loc 1 1307 0
 2497 003e 030A     		lsrs	r3, r0, #8
 2498 0040 2B40     		ands	r3, r5
 2499 0042 3033     		adds	r3, r3, #48
 2500 0044 A371     		strb	r3, [r4, #6]
1308:modes.c       **** //    b7-b4 - 1000Hz        
1309:modes.c       ****         new_display_data_buffer[7] = '0' + ((status >> 4) & 0x0000000F);       
 2501              		.loc 1 1309 0
 2502 0046 0309     		lsrs	r3, r0, #4
1310:modes.c       **** //    b3-b0 - 2000Hz                
1311:modes.c       ****         new_display_data_buffer[8] = '0' + (status & 0x0000000F);
 2503              		.loc 1 1311 0
 2504 0048 2840     		ands	r0, r5
 2505              	.LVL141:
1309:modes.c       **** //    b3-b0 - 2000Hz                
 2506              		.loc 1 1309 0
 2507 004a 2B40     		ands	r3, r5
 2508              		.loc 1 1311 0
 2509 004c 3030     		adds	r0, r0, #48
1309:modes.c       **** //    b3-b0 - 2000Hz                
 2510              		.loc 1 1309 0
 2511 004e 3033     		adds	r3, r3, #48
 2512              		.loc 1 1311 0
 2513 0050 2072     		strb	r0, [r4, #8]
1312:modes.c       **** 
1313:modes.c       **** // read back
1314:modes.c       **** // 3 = Spectrum analyzer -> Left&Right 
1315:modes.c       **** //    b31-b28 - NOT_USED
ARM GAS  C:\Users\Ala\AppData\Local\Temp\ccPRO05X.s 			page 73


1316:modes.c       **** //    b15-b12 - NOT_USED
1317:modes.c       ****         status = SPIM_SigmaDSP_read(3);        
 2514              		.loc 1 1317 0
 2515 0052 0320     		movs	r0, #3
1309:modes.c       **** //    b3-b0 - 2000Hz                
 2516              		.loc 1 1309 0
 2517 0054 E371     		strb	r3, [r4, #7]
 2518              		.loc 1 1317 0
 2519 0056 FFF7FEFF 		bl	SPIM_SigmaDSP_read
 2520              	.LVL142:
1318:modes.c       **** //    LEFT
1319:modes.c       **** //    b27-b24 - 4000Hz
1320:modes.c       ****        new_display_data_buffer[9] = '0' + ((status >> 24) & 0x0000000F);
 2521              		.loc 1 1320 0
 2522 005a 030E     		lsrs	r3, r0, #24
 2523 005c 2B40     		ands	r3, r5
 2524 005e 3033     		adds	r3, r3, #48
 2525 0060 6372     		strb	r3, [r4, #9]
1321:modes.c       **** //    b23-b20 - 8000Hz
1322:modes.c       ****         new_display_data_buffer[10] = '0' + ((status >> 20) & 0x0000000F);
 2526              		.loc 1 1322 0
 2527 0062 030D     		lsrs	r3, r0, #20
 2528 0064 2B40     		ands	r3, r5
 2529 0066 3033     		adds	r3, r3, #48
 2530 0068 A372     		strb	r3, [r4, #10]
1323:modes.c       **** //    b19-b16 - 16000Hz
1324:modes.c       ****         new_display_data_buffer[11] = '0' + ((status >> 16) & 0x0000000F);
 2531              		.loc 1 1324 0
 2532 006a 030C     		lsrs	r3, r0, #16
 2533 006c 2B40     		ands	r3, r5
 2534 006e 3033     		adds	r3, r3, #48
 2535 0070 E372     		strb	r3, [r4, #11]
1325:modes.c       ****         
1326:modes.c       **** //    RIGHT
1327:modes.c       ****         new_display_data_buffer[12] = ' ';
1328:modes.c       ****         new_display_data_buffer[13] = 'R';
 2536              		.loc 1 1328 0
 2537 0072 5223     		movs	r3, #82
 2538 0074 6373     		strb	r3, [r4, #13]
1329:modes.c       **** //    b11-b8 - 4000Hz
1330:modes.c       ****         new_display_data_buffer[21] = '0' + ((status >> 8) & 0x0000000F);
 2539              		.loc 1 1330 0
 2540 0076 030A     		lsrs	r3, r0, #8
 2541 0078 2B40     		ands	r3, r5
 2542 007a 3033     		adds	r3, r3, #48
 2543 007c 6375     		strb	r3, [r4, #21]
1331:modes.c       **** //    b7-b4 - 8000Hz       
1332:modes.c       ****         new_display_data_buffer[22] = '0' + ((status >> 4) & 0x0000000F);       
 2544              		.loc 1 1332 0
 2545 007e 0309     		lsrs	r3, r0, #4
1333:modes.c       **** //    b3-b0 - 16000Hz                
1334:modes.c       ****         new_display_data_buffer[23] = '0' + (status & 0x0000000F);
 2546              		.loc 1 1334 0
 2547 0080 2840     		ands	r0, r5
 2548              	.LVL143:
1332:modes.c       **** //    b3-b0 - 16000Hz                
 2549              		.loc 1 1332 0
ARM GAS  C:\Users\Ala\AppData\Local\Temp\ccPRO05X.s 			page 74


 2550 0082 2B40     		ands	r3, r5
 2551              		.loc 1 1334 0
 2552 0084 3030     		adds	r0, r0, #48
1332:modes.c       **** //    b3-b0 - 16000Hz                
 2553              		.loc 1 1332 0
 2554 0086 3033     		adds	r3, r3, #48
 2555              		.loc 1 1334 0
 2556 0088 E075     		strb	r0, [r4, #23]
1335:modes.c       ****  
1336:modes.c       **** //read back
1337:modes.c       **** // 1 = Spectrum analyzer -> Right 
1338:modes.c       **** //    b31-b28 - NOT_USED
1339:modes.c       ****         status = SPIM_SigmaDSP_read(1);
 2557              		.loc 1 1339 0
 2558 008a 3000     		movs	r0, r6
1332:modes.c       **** //    b3-b0 - 16000Hz                
 2559              		.loc 1 1332 0
 2560 008c A375     		strb	r3, [r4, #22]
1327:modes.c       ****         new_display_data_buffer[13] = 'R';
 2561              		.loc 1 1327 0
 2562 008e 2773     		strb	r7, [r4, #12]
 2563              		.loc 1 1339 0
 2564 0090 FFF7FEFF 		bl	SPIM_SigmaDSP_read
 2565              	.LVL144:
1340:modes.c       **** //    b27-b24 - 31.5Hz
1341:modes.c       ****         new_display_data_buffer[14] = '0' + ((status >> 24) & 0x0000000F);
 2566              		.loc 1 1341 0
 2567 0094 030E     		lsrs	r3, r0, #24
 2568 0096 2B40     		ands	r3, r5
 2569 0098 3033     		adds	r3, r3, #48
 2570 009a A373     		strb	r3, [r4, #14]
1342:modes.c       **** //    b23-b20 - 63Hz
1343:modes.c       ****         new_display_data_buffer[15] = '0' + ((status >> 20) & 0x0000000F);
 2571              		.loc 1 1343 0
 2572 009c 030D     		lsrs	r3, r0, #20
 2573 009e 2B40     		ands	r3, r5
 2574 00a0 3033     		adds	r3, r3, #48
 2575 00a2 E373     		strb	r3, [r4, #15]
1344:modes.c       **** //    b19-b16 - 125Hz
1345:modes.c       ****         new_display_data_buffer[16] = '0' + ((status >> 16) & 0x0000000F);
 2576              		.loc 1 1345 0
 2577 00a4 030C     		lsrs	r3, r0, #16
 2578 00a6 2B40     		ands	r3, r5
 2579 00a8 3033     		adds	r3, r3, #48
 2580 00aa 2374     		strb	r3, [r4, #16]
1346:modes.c       **** //    b15-b12 - 250Hz
1347:modes.c       ****         new_display_data_buffer[17] = '0' + ((status >> 12) & 0x0000000F);
 2581              		.loc 1 1347 0
 2582 00ac 030B     		lsrs	r3, r0, #12
 2583 00ae 2B40     		ands	r3, r5
 2584 00b0 3033     		adds	r3, r3, #48
 2585 00b2 6374     		strb	r3, [r4, #17]
1348:modes.c       **** //    b11-b8 - 500Hz
1349:modes.c       ****         new_display_data_buffer[18] = '0' + ((status >> 8) & 0x0000000F);
 2586              		.loc 1 1349 0
 2587 00b4 030A     		lsrs	r3, r0, #8
 2588 00b6 2B40     		ands	r3, r5
ARM GAS  C:\Users\Ala\AppData\Local\Temp\ccPRO05X.s 			page 75


 2589 00b8 3033     		adds	r3, r3, #48
 2590 00ba A374     		strb	r3, [r4, #18]
1350:modes.c       **** //    b7-b4 - 1000Hz        
1351:modes.c       ****         new_display_data_buffer[19] = '0' + ((status >> 4) & 0x0000000F);       
 2591              		.loc 1 1351 0
 2592 00bc 0309     		lsrs	r3, r0, #4
 2593 00be 2B40     		ands	r3, r5
1352:modes.c       **** //    b3-b0 - 2000Hz                
1353:modes.c       ****         new_display_data_buffer[20] = '0' + (status & 0x0000000F);
 2594              		.loc 1 1353 0
 2595 00c0 0540     		ands	r5, r0
1351:modes.c       **** //    b3-b0 - 2000Hz                
 2596              		.loc 1 1351 0
 2597 00c2 3033     		adds	r3, r3, #48
 2598              		.loc 1 1353 0
 2599 00c4 3035     		adds	r5, r5, #48
1351:modes.c       **** //    b3-b0 - 2000Hz                
 2600              		.loc 1 1351 0
 2601 00c6 E374     		strb	r3, [r4, #19]
 2602              		.loc 1 1353 0
 2603 00c8 2575     		strb	r5, [r4, #20]
1354:modes.c       **** 
1355:modes.c       **** // set flag and sent info to display module
1356:modes.c       **** //        new_display_data_flag = 1;
1357:modes.c       ****         
1358:modes.c       ****         break;
 2604              		.loc 1 1358 0
 2605 00ca 34E0     		b	.L259
 2606              	.LVL145:
 2607              	.L260:
1217:modes.c       **** // display data
 2608              		.loc 1 1217 0
 2609 00cc FFF7FEFF 		bl	SPIM_SigmaDSP_read
 2610              	.LVL146:
1229:modes.c       ****         new_display_data_buffer[1] = '9';
 2611              		.loc 1 1229 0
 2612 00d0 3822     		movs	r2, #56
1248:modes.c       ****             }
 2613              		.loc 1 1248 0
 2614 00d2 3127     		movs	r7, #49
1229:modes.c       ****         new_display_data_buffer[1] = '9';
 2615              		.loc 1 1229 0
 2616 00d4 194B     		ldr	r3, .L277
1236:modes.c       ****             {
 2617              		.loc 1 1236 0
 2618 00d6 010A     		lsrs	r1, r0, #8
1229:modes.c       ****         new_display_data_buffer[1] = '9';
 2619              		.loc 1 1229 0
 2620 00d8 1A70     		strb	r2, [r3]
1230:modes.c       ****      
 2621              		.loc 1 1230 0
 2622 00da 0132     		adds	r2, r2, #1
 2623 00dc 5A70     		strb	r2, [r3, #1]
1236:modes.c       ****             {
 2624              		.loc 1 1236 0
 2625 00de C632     		adds	r2, r2, #198
 2626 00e0 1140     		ands	r1, r2
ARM GAS  C:\Users\Ala\AppData\Local\Temp\ccPRO05X.s 			page 76


 2627 00e2 9C1C     		adds	r4, r3, #2
1246:modes.c       ****             {
 2628              		.loc 1 1246 0
 2629 00e4 0240     		ands	r2, r0
 2630              	.LVL147:
 2631              	.L266:
1236:modes.c       ****             {
 2632              		.loc 1 1236 0
 2633 00e6 B142     		cmp	r1, r6
 2634 00e8 04D3     		bcc	.L262
1238:modes.c       ****             }
 2635              		.loc 1 1238 0 discriminator 1
 2636 00ea 3325     		movs	r5, #51
1236:modes.c       ****             {
 2637              		.loc 1 1236 0 discriminator 1
 2638 00ec B242     		cmp	r2, r6
 2639 00ee 06D2     		bcs	.L274
1243:modes.c       ****             }
 2640              		.loc 1 1243 0
 2641 00f0 3225     		movs	r5, #50
 2642 00f2 04E0     		b	.L274
 2643              	.L262:
1246:modes.c       ****             {
 2644              		.loc 1 1246 0 discriminator 1
 2645 00f4 B242     		cmp	r2, r6
 2646 00f6 01D3     		bcc	.L265
1248:modes.c       ****             }
 2647              		.loc 1 1248 0
 2648 00f8 2770     		strb	r7, [r4]
 2649 00fa 01E0     		b	.L264
 2650              	.L265:
1253:modes.c       ****                 }
 2651              		.loc 1 1253 0
 2652 00fc 3025     		movs	r5, #48
 2653              	.L274:
 2654 00fe 2570     		strb	r5, [r4]
 2655              	.L264:
 2656              	.LVL148:
 2657 0100 0136     		adds	r6, r6, #1
 2658              	.LVL149:
 2659 0102 0134     		adds	r4, r4, #1
1233:modes.c       ****         {
 2660              		.loc 1 1233 0 discriminator 2
 2661 0104 142E     		cmp	r6, #20
 2662 0106 EED1     		bne	.L266
1257:modes.c       ****                 
 2663              		.loc 1 1257 0
 2664 0108 3022     		movs	r2, #48
 2665 010a 1324     		movs	r4, #19
1275:modes.c       ****             }
 2666              		.loc 1 1275 0
 2667 010c 3525     		movs	r5, #53
1257:modes.c       ****                 
 2668              		.loc 1 1257 0
 2669 010e 9A70     		strb	r2, [r3, #2]
 2670              	.LVL150:
1273:modes.c       ****             {
ARM GAS  C:\Users\Ala\AppData\Local\Temp\ccPRO05X.s 			page 77


 2671              		.loc 1 1273 0
 2672 0110 C0B2     		uxtb	r0, r0
 2673              	.LVL151:
 2674 0112 1533     		adds	r3, r3, #21
 2675              	.LVL152:
 2676              	.L271:
1263:modes.c       ****             {
 2677              		.loc 1 1263 0
 2678 0114 8C42     		cmp	r4, r1
 2679 0116 05D8     		bhi	.L267
1265:modes.c       ****             }
 2680              		.loc 1 1265 0 discriminator 1
 2681 0118 3726     		movs	r6, #55
1263:modes.c       ****             {
 2682              		.loc 1 1263 0 discriminator 1
 2683 011a 8442     		cmp	r4, r0
 2684 011c 00D9     		bls	.L275
1270:modes.c       ****             }
 2685              		.loc 1 1270 0
 2686 011e 3626     		movs	r6, #54
 2687              	.L275:
 2688 0120 1E70     		strb	r6, [r3]
 2689 0122 04E0     		b	.L269
 2690              	.L267:
1273:modes.c       ****             {
 2691              		.loc 1 1273 0 discriminator 1
 2692 0124 8442     		cmp	r4, r0
 2693 0126 01D8     		bhi	.L270
1275:modes.c       ****             }
 2694              		.loc 1 1275 0
 2695 0128 1D70     		strb	r5, [r3]
 2696 012a 00E0     		b	.L269
 2697              	.L270:
1280:modes.c       ****                 }
 2698              		.loc 1 1280 0
 2699 012c 1A70     		strb	r2, [r3]
 2700              	.L269:
 2701              	.LVL153:
 2702 012e 0134     		adds	r4, r4, #1
 2703              	.LVL154:
 2704 0130 0133     		adds	r3, r3, #1
1260:modes.c       ****         {
 2705              		.loc 1 1260 0 discriminator 2
 2706 0132 162C     		cmp	r4, #22
 2707 0134 EED1     		bne	.L271
 2708              	.L259:
1359:modes.c       ****     }
1360:modes.c       ****     
1361:modes.c       ****     return 0;
1362:modes.c       **** }
 2709              		.loc 1 1362 0
 2710 0136 0020     		movs	r0, #0
 2711              		@ sp needed
 2712 0138 F8BD     		pop	{r3, r4, r5, r6, r7, pc}
 2713              	.L278:
 2714 013a C046     		.align	2
 2715              	.L277:
ARM GAS  C:\Users\Ala\AppData\Local\Temp\ccPRO05X.s 			page 78


 2716 013c 00000000 		.word	.LANCHOR0
 2717              		.cfi_endproc
 2718              	.LFE36:
 2719              		.size	SigmaDSP_to_display, .-SigmaDSP_to_display
 2720              		.section	.text.DATALINK_times,"ax",%progbits
 2721              		.align	1
 2722              		.global	DATALINK_times
 2723              		.code	16
 2724              		.thumb_func
 2725              		.type	DATALINK_times, %function
 2726              	DATALINK_times:
 2727              	.LFB37:
1363:modes.c       **** 
1364:modes.c       **** 
1365:modes.c       **** /*******************************************************************************
1366:modes.c       **** * Function Name: DATALINK_times()
1367:modes.c       **** ********************************************************************************
1368:modes.c       **** * Summary:
1369:modes.c       **** *  Function responsible for producing activity on DATALINK line following
1370:modes.c       **** *  DATALINK standard.
1371:modes.c       **** *   
1372:modes.c       **** * Parameters:
1373:modes.c       **** *  time - 1 for t1 = 3.125mS 
1374:modes.c       **** *         2 for t2 = 6.250mS
1375:modes.c       **** *         3 for t3 = 9.375mS
1376:modes.c       **** *         4 for t4 = 12.500mS
1377:modes.c       **** *         5 for t5 = 15.625mS
1378:modes.c       **** *
1379:modes.c       **** * Return:
1380:modes.c       **** *  1 if all good
1381:modes.c       **** *  0 if there was a clash on datalink port (another device transmitted)
1382:modes.c       **** *
1383:modes.c       **** *******************************************************************************/  
1384:modes.c       **** uint8 DATALINK_times(uint8 time)  
1385:modes.c       **** {
 2728              		.loc 1 1385 0
 2729              		.cfi_startproc
 2730              		@ args = 0, pretend = 0, frame = 0
 2731              		@ frame_needed = 0, uses_anonymous_args = 0
 2732              	.LVL155:
 2733 0000 10B5     		push	{r4, lr}
 2734              		.cfi_def_cfa_offset 8
 2735              		.cfi_offset 4, -8
 2736              		.cfi_offset 14, -4
 2737              		.loc 1 1385 0
 2738 0002 0400     		movs	r4, r0
1386:modes.c       **** // counter used for time t1..t5 commands    
1387:modes.c       ****     uint32 datalink_counter = 0;
1388:modes.c       **** 
1389:modes.c       **** // check if DATALINK is not already engadged (held low by some other device)    
1390:modes.c       ****     if (DATALINK_Read() == 0)
 2739              		.loc 1 1390 0
 2740 0004 FFF7FEFF 		bl	DATALINK_Read
 2741              	.LVL156:
 2742 0008 0028     		cmp	r0, #0
 2743 000a 01D1     		bne	.L280
 2744              	.L288:
ARM GAS  C:\Users\Ala\AppData\Local\Temp\ccPRO05X.s 			page 79


1391:modes.c       ****     {
1392:modes.c       **** // if it is return 0 and stop        
1393:modes.c       ****         return 0;
 2745              		.loc 1 1393 0
 2746 000c 0023     		movs	r3, #0
 2747 000e 45E0     		b	.L281
 2748              	.L280:
 2749              	.LVL157:
 2750              	.LBB4:
 2751              	.LBB5:
1394:modes.c       ****     }
1395:modes.c       ****     else
1396:modes.c       ****         {
1397:modes.c       **** // if it is not then held datalink line low for 1.5625mS
1398:modes.c       ****             DATALINK_Write(0x00);
 2752              		.loc 1 1398 0
 2753 0010 0020     		movs	r0, #0
 2754 0012 FFF7FEFF 		bl	DATALINK_Write
 2755              	.LVL158:
1399:modes.c       ****             CyDelay(1);
 2756              		.loc 1 1399 0
 2757 0016 0120     		movs	r0, #1
 2758 0018 FFF7FEFF 		bl	CyDelay
 2759              	.LVL159:
1400:modes.c       ****             CyDelayUs(562);
 2760              		.loc 1 1400 0
 2761 001c 2048     		ldr	r0, .L316
 2762 001e FFF7FEFF 		bl	CyDelayUs
 2763              	.LVL160:
1401:modes.c       ****             DATALINK_Write(0x01);
 2764              		.loc 1 1401 0
 2765 0022 0120     		movs	r0, #1
 2766 0024 FFF7FEFF 		bl	DATALINK_Write
 2767              	.LVL161:
1402:modes.c       ****         }
1403:modes.c       ****  // wait 10uS for DATALINK pin to settle before checkign its state
1404:modes.c       ****     CyDelayUs(10);
 2768              		.loc 1 1404 0
 2769 0028 0A20     		movs	r0, #10
 2770 002a FFF7FEFF 		bl	CyDelayUs
 2771              	.LVL162:
1405:modes.c       **** 
1406:modes.c       **** // based on input commad hold datalink line high for prescribed amount of time.
1407:modes.c       **** // check if line is high (not taken over by another device) during that period of time
1408:modes.c       **** // if datalink line will go low, stop symbol tranmission and return 0    
1409:modes.c       ****     switch (time)
 2772              		.loc 1 1409 0
 2773 002e 601E     		subs	r0, r4, #1
1410:modes.c       ****         {
1411:modes.c       **** 
1412:modes.c       **** // t1 = 3.125mS 
1413:modes.c       ****         case (1):
1414:modes.c       ****             for (datalink_counter = 0; datalink_counter <=1565 ; datalink_counter++)
1415:modes.c       ****             {
1416:modes.c       ****                 if (DATALINK_Read() == 0x00)
1417:modes.c       ****                 {
1418:modes.c       ****                     return 0;
ARM GAS  C:\Users\Ala\AppData\Local\Temp\ccPRO05X.s 			page 80


1419:modes.c       ****                 }   
1420:modes.c       ****             }
1421:modes.c       ****             break;
1422:modes.c       **** 
1423:modes.c       **** // t2 = 6.250mS
1424:modes.c       ****         case (2):
1425:modes.c       ****             for (datalink_counter = 0; datalink_counter <=4665 ; datalink_counter++)    
1426:modes.c       ****             {
1427:modes.c       ****                 if (DATALINK_Read() == 0x00)
1428:modes.c       ****                 {
1429:modes.c       ****                     return 0;
1430:modes.c       ****                 }   
1431:modes.c       ****             }
1432:modes.c       ****             break;
1433:modes.c       **** 
1434:modes.c       **** // t3 = 9.375mS
1435:modes.c       ****         case (3):            
1436:modes.c       ****             for (datalink_counter = 0; datalink_counter <=7760 ; datalink_counter++)    
1437:modes.c       ****             {
1438:modes.c       ****                 if (DATALINK_Read() == 0x00)
1439:modes.c       ****                 {
1440:modes.c       ****                     return 0;
1441:modes.c       ****                 }   
1442:modes.c       ****             }
1443:modes.c       ****             break;
1444:modes.c       **** 
1445:modes.c       **** // t4 = 12.500mS
1446:modes.c       ****         case (4):
1447:modes.c       ****             for (datalink_counter = 0; datalink_counter <=11000 ; datalink_counter++)    
1448:modes.c       ****             {
1449:modes.c       ****                 if (DATALINK_Read() == 0x00)
1450:modes.c       ****                 {
1451:modes.c       ****                     return 0;
1452:modes.c       ****                 }   
1453:modes.c       ****             }
1454:modes.c       ****             break;
1455:modes.c       **** 
1456:modes.c       **** // t5 = 15.625mS
1457:modes.c       ****             case (5):
1458:modes.c       ****             for (datalink_counter = 0; datalink_counter <=14050 ; datalink_counter++)    
1459:modes.c       ****             {
1460:modes.c       ****                 if (DATALINK_Read() == 0x00)
1461:modes.c       ****                 {
1462:modes.c       ****                     return 0;
1463:modes.c       ****                 }   
1464:modes.c       ****             }
1465:modes.c       ****             break;
1466:modes.c       ****         }
1467:modes.c       **** 
1468:modes.c       **** // return 1 if all good
1469:modes.c       ****     return 1;
 2774              		.loc 1 1469 0
 2775 0030 0123     		movs	r3, #1
1409:modes.c       ****         {
 2776              		.loc 1 1409 0
 2777 0032 0428     		cmp	r0, #4
 2778 0034 32D8     		bhi	.L281
ARM GAS  C:\Users\Ala\AppData\Local\Temp\ccPRO05X.s 			page 81


 2779 0036 FFF7FEFF 		bl	__gnu_thumb1_case_uqi
 2780              	.L283:
 2781 003a 03       		.byte	(.L282-.L283)/2
 2782 003b 0D       		.byte	(.L284-.L283)/2
 2783 003c 16       		.byte	(.L285-.L283)/2
 2784 003d 1F       		.byte	(.L286-.L283)/2
 2785 003e 28       		.byte	(.L287-.L283)/2
 2786 003f 00       		.p2align 1
 2787              	.L282:
 2788 0040 184C     		ldr	r4, .L316+4
 2789              	.LVL163:
 2790              	.L289:
1416:modes.c       ****                 {
 2791              		.loc 1 1416 0
 2792 0042 FFF7FEFF 		bl	DATALINK_Read
 2793              	.LVL164:
 2794 0046 0028     		cmp	r0, #0
 2795 0048 E0D0     		beq	.L288
 2796              	.LVL165:
 2797 004a 013C     		subs	r4, r4, #1
 2798              	.LVL166:
1414:modes.c       ****             {
 2799              		.loc 1 1414 0
 2800 004c 002C     		cmp	r4, #0
 2801 004e F8D1     		bne	.L289
 2802              	.LVL167:
 2803              	.L291:
 2804              		.loc 1 1469 0
 2805 0050 0123     		movs	r3, #1
 2806 0052 23E0     		b	.L281
 2807              	.LVL168:
 2808              	.L284:
1409:modes.c       ****         {
 2809              		.loc 1 1409 0
 2810 0054 144C     		ldr	r4, .L316+8
 2811              	.LVL169:
 2812              	.L290:
1427:modes.c       ****                 {
 2813              		.loc 1 1427 0
 2814 0056 FFF7FEFF 		bl	DATALINK_Read
 2815              	.LVL170:
 2816 005a 0028     		cmp	r0, #0
 2817 005c D6D0     		beq	.L288
 2818              	.LVL171:
 2819 005e 013C     		subs	r4, r4, #1
 2820              	.LVL172:
1425:modes.c       ****             {
 2821              		.loc 1 1425 0
 2822 0060 002C     		cmp	r4, #0
 2823 0062 F8D1     		bne	.L290
 2824 0064 F4E7     		b	.L291
 2825              	.LVL173:
 2826              	.L285:
1409:modes.c       ****         {
 2827              		.loc 1 1409 0
 2828 0066 114C     		ldr	r4, .L316+12
 2829              	.LVL174:
ARM GAS  C:\Users\Ala\AppData\Local\Temp\ccPRO05X.s 			page 82


 2830              	.L292:
1438:modes.c       ****                 {
 2831              		.loc 1 1438 0
 2832 0068 FFF7FEFF 		bl	DATALINK_Read
 2833              	.LVL175:
 2834 006c 0028     		cmp	r0, #0
 2835 006e CDD0     		beq	.L288
 2836              	.LVL176:
 2837 0070 013C     		subs	r4, r4, #1
 2838              	.LVL177:
1436:modes.c       ****             {
 2839              		.loc 1 1436 0
 2840 0072 002C     		cmp	r4, #0
 2841 0074 F8D1     		bne	.L292
 2842 0076 EBE7     		b	.L291
 2843              	.LVL178:
 2844              	.L286:
1409:modes.c       ****         {
 2845              		.loc 1 1409 0
 2846 0078 0D4C     		ldr	r4, .L316+16
 2847              	.LVL179:
 2848              	.L293:
1449:modes.c       ****                 {
 2849              		.loc 1 1449 0
 2850 007a FFF7FEFF 		bl	DATALINK_Read
 2851              	.LVL180:
 2852 007e 0028     		cmp	r0, #0
 2853 0080 C4D0     		beq	.L288
 2854              	.LVL181:
 2855 0082 013C     		subs	r4, r4, #1
 2856              	.LVL182:
1447:modes.c       ****             {
 2857              		.loc 1 1447 0
 2858 0084 002C     		cmp	r4, #0
 2859 0086 F8D1     		bne	.L293
 2860 0088 E2E7     		b	.L291
 2861              	.LVL183:
 2862              	.L287:
1409:modes.c       ****         {
 2863              		.loc 1 1409 0
 2864 008a 0A4C     		ldr	r4, .L316+20
 2865              	.LVL184:
 2866              	.L294:
1460:modes.c       ****                 {
 2867              		.loc 1 1460 0
 2868 008c FFF7FEFF 		bl	DATALINK_Read
 2869              	.LVL185:
 2870 0090 0028     		cmp	r0, #0
 2871 0092 BBD0     		beq	.L288
 2872              	.LVL186:
 2873 0094 013C     		subs	r4, r4, #1
 2874              	.LVL187:
1458:modes.c       ****             {
 2875              		.loc 1 1458 0
 2876 0096 002C     		cmp	r4, #0
 2877 0098 F8D1     		bne	.L294
 2878 009a D9E7     		b	.L291
ARM GAS  C:\Users\Ala\AppData\Local\Temp\ccPRO05X.s 			page 83


 2879              	.LVL188:
 2880              	.L281:
 2881              	.LBE5:
 2882              	.LBE4:
1470:modes.c       **** }
 2883              		.loc 1 1470 0
 2884 009c 1800     		movs	r0, r3
 2885              		@ sp needed
 2886 009e 10BD     		pop	{r4, pc}
 2887              	.L317:
 2888              		.align	2
 2889              	.L316:
 2890 00a0 32020000 		.word	562
 2891 00a4 1E060000 		.word	1566
 2892 00a8 3A120000 		.word	4666
 2893 00ac 511E0000 		.word	7761
 2894 00b0 F92A0000 		.word	11001
 2895 00b4 E3360000 		.word	14051
 2896              		.cfi_endproc
 2897              	.LFE37:
 2898              		.size	DATALINK_times, .-DATALINK_times
 2899              		.section	.text.DATALINK_out,"ax",%progbits
 2900              		.align	1
 2901              		.global	DATALINK_out
 2902              		.code	16
 2903              		.thumb_func
 2904              		.type	DATALINK_out, %function
 2905              	DATALINK_out:
 2906              	.LFB38:
1471:modes.c       **** 
1472:modes.c       **** 
1473:modes.c       **** /*******************************************************************************
1474:modes.c       **** * Function Name: DATALINK_out()
1475:modes.c       **** ********************************************************************************
1476:modes.c       **** * Summary:
1477:modes.c       **** *  Function reposnisble for sending data over datalink port. Implementaton is quite 
1478:modes.c       **** *  crude due to the fact that device will require only two commands. Power up 
1479:modes.c       **** *  (in Aux mode) and power down.
1480:modes.c       **** *   
1481:modes.c       **** * Parameters:
1482:modes.c       **** *  command = 0 -> 0 button pressed 
1483:modes.c       **** *          = 1 -> 1 button pressed
1484:modes.c       **** *          = 2 -> 2 button pressed
1485:modes.c       **** *          = 3 -> 3 button pressed
1486:modes.c       **** *          = 4 -> 4 button pressed
1487:modes.c       **** *          = 5 -> 5 button pressed
1488:modes.c       **** *          = 6 -> 6 button pressed
1489:modes.c       **** *          = 7 -> 7 button pressed
1490:modes.c       **** *          = 8 -> 8 button pressed
1491:modes.c       **** *          = 9 -> 9 button pressed
1492:modes.c       **** *          = 10 -> GO button pressed
1493:modes.c       **** *          = 11 -> LIST button pressed
1494:modes.c       **** *          = 12 -> POWER DOWN from aux devices 
1495:modes.c       **** *
1496:modes.c       **** * Return:
1497:modes.c       **** *  0 = conflict on DATALINK port was recorded function didn't finish its 
1498:modes.c       **** *      command transmission
ARM GAS  C:\Users\Ala\AppData\Local\Temp\ccPRO05X.s 			page 84


1499:modes.c       **** *  1 = command sent succesfully (no confilct on DATALINK line)
1500:modes.c       **** *
1501:modes.c       **** *******************************************************************************/  
1502:modes.c       **** uint8 DATALINK_out(uint8 command)  
1503:modes.c       **** {
 2907              		.loc 1 1503 0
 2908              		.cfi_startproc
 2909              		@ args = 0, pretend = 0, frame = 0
 2910              		@ frame_needed = 0, uses_anonymous_args = 0
 2911              	.LVL189:
 2912 0000 10B5     		push	{r4, lr}
 2913              		.cfi_def_cfa_offset 8
 2914              		.cfi_offset 4, -8
 2915              		.cfi_offset 14, -4
1504:modes.c       ****     switch (command)
 2916              		.loc 1 1504 0
 2917 0002 0C28     		cmp	r0, #12
 2918 0004 00D9     		bls	.LCB2646
 2919 0006 E2E3     		b	.L333	@long jump
 2920              	.LCB2646:
 2921 0008 FFF7FEFF 		bl	__gnu_thumb1_case_uhi
 2922              	.L321:
 2923 000c 0D00     		.2byte	(.L320-.L321)/2
 2924 000e 8200     		.2byte	(.L322-.L321)/2
 2925 0010 EF00     		.2byte	(.L323-.L321)/2
 2926 0012 6501     		.2byte	(.L324-.L321)/2
 2927 0014 B701     		.2byte	(.L325-.L321)/2
 2928 0016 2102     		.2byte	(.L326-.L321)/2
 2929 0018 E103     		.2byte	(.L333-.L321)/2
 2930 001a E103     		.2byte	(.L333-.L321)/2
 2931 001c E103     		.2byte	(.L333-.L321)/2
 2932 001e E103     		.2byte	(.L333-.L321)/2
 2933 0020 9702     		.2byte	(.L327-.L321)/2
 2934 0022 0703     		.2byte	(.L328-.L321)/2
 2935 0024 7103     		.2byte	(.L329-.L321)/2
 2936              		.p2align 1
 2937              	.L320:
1505:modes.c       ****         {
1506:modes.c       **** // 0 button pressed 
1507:modes.c       ****         case (0):
1508:modes.c       ****             DATALINK_INTRRUPT_Disable();
 2938              		.loc 1 1508 0
 2939 0026 FFF7FEFF 		bl	DATALINK_INTRRUPT_Disable
 2940              	.LVL190:
1509:modes.c       **** // START 1151 
1510:modes.c       ****             if (DATALINK_times(1) == 0) { return 0; }
 2941              		.loc 1 1510 0
 2942 002a 0120     		movs	r0, #1
 2943 002c FFF7FEFF 		bl	DATALINK_times
 2944              	.LVL191:
 2945 0030 0028     		cmp	r0, #0
 2946 0032 01D1     		bne	.L330
 2947              	.L331:
 2948 0034 0020     		movs	r0, #0
 2949 0036 CBE3     		b	.L319
 2950              	.L330:
1511:modes.c       ****             if (DATALINK_times(1) == 0) { return 0; }
ARM GAS  C:\Users\Ala\AppData\Local\Temp\ccPRO05X.s 			page 85


 2951              		.loc 1 1511 0
 2952 0038 0120     		movs	r0, #1
 2953 003a FFF7FEFF 		bl	DATALINK_times
 2954              	.LVL192:
 2955 003e 0028     		cmp	r0, #0
 2956 0040 F8D0     		beq	.L331
1512:modes.c       ****             if (DATALINK_times(5) == 0) { return 0; }
 2957              		.loc 1 1512 0
 2958 0042 0520     		movs	r0, #5
 2959 0044 FFF7FEFF 		bl	DATALINK_times
 2960              	.LVL193:
 2961 0048 0028     		cmp	r0, #0
 2962 004a F3D0     		beq	.L331
1513:modes.c       ****             if (DATALINK_times(1) == 0) { return 0; }
 2963              		.loc 1 1513 0
 2964 004c 0120     		movs	r0, #1
 2965 004e FFF7FEFF 		bl	DATALINK_times
 2966              	.LVL194:
 2967 0052 0028     		cmp	r0, #0
 2968 0054 EED0     		beq	.L331
1514:modes.c       **** // DATA
1515:modes.c       **** // 2222  
1516:modes.c       ****             if (DATALINK_times(2) == 0) { return 0; }
 2969              		.loc 1 1516 0
 2970 0056 0220     		movs	r0, #2
 2971 0058 FFF7FEFF 		bl	DATALINK_times
 2972              	.LVL195:
 2973 005c 0028     		cmp	r0, #0
 2974 005e E9D0     		beq	.L331
1517:modes.c       ****             if (DATALINK_times(2) == 0) { return 0; }
 2975              		.loc 1 1517 0
 2976 0060 0220     		movs	r0, #2
 2977 0062 FFF7FEFF 		bl	DATALINK_times
 2978              	.LVL196:
 2979 0066 0028     		cmp	r0, #0
 2980 0068 E4D0     		beq	.L331
1518:modes.c       ****             if (DATALINK_times(2) == 0) { return 0; }
 2981              		.loc 1 1518 0
 2982 006a 0220     		movs	r0, #2
 2983 006c FFF7FEFF 		bl	DATALINK_times
 2984              	.LVL197:
 2985 0070 0028     		cmp	r0, #0
 2986 0072 DFD0     		beq	.L331
1519:modes.c       ****             if (DATALINK_times(2) == 0) { return 0; }
 2987              		.loc 1 1519 0
 2988 0074 0220     		movs	r0, #2
 2989 0076 FFF7FEFF 		bl	DATALINK_times
 2990              	.LVL198:
 2991 007a 0028     		cmp	r0, #0
 2992 007c DAD0     		beq	.L331
1520:modes.c       **** // 2223  
1521:modes.c       ****             if (DATALINK_times(2) == 0) { return 0; }
 2993              		.loc 1 1521 0
 2994 007e 0220     		movs	r0, #2
 2995 0080 FFF7FEFF 		bl	DATALINK_times
 2996              	.LVL199:
 2997 0084 0028     		cmp	r0, #0
ARM GAS  C:\Users\Ala\AppData\Local\Temp\ccPRO05X.s 			page 86


 2998 0086 D5D0     		beq	.L331
1522:modes.c       ****             if (DATALINK_times(2) == 0) { return 0; }
 2999              		.loc 1 1522 0
 3000 0088 0220     		movs	r0, #2
 3001 008a FFF7FEFF 		bl	DATALINK_times
 3002              	.LVL200:
 3003 008e 0028     		cmp	r0, #0
 3004 0090 D0D0     		beq	.L331
1523:modes.c       ****             if (DATALINK_times(2) == 0) { return 0; }
 3005              		.loc 1 1523 0
 3006 0092 0220     		movs	r0, #2
 3007 0094 FFF7FEFF 		bl	DATALINK_times
 3008              	.LVL201:
 3009 0098 0028     		cmp	r0, #0
 3010 009a CBD0     		beq	.L331
1524:modes.c       ****             if (DATALINK_times(3) == 0) { return 0; }
 3011              		.loc 1 1524 0
 3012 009c 0320     		movs	r0, #3
 3013 009e FFF7FEFF 		bl	DATALINK_times
 3014              	.LVL202:
 3015 00a2 0028     		cmp	r0, #0
 3016 00a4 C6D0     		beq	.L331
1525:modes.c       **** // 1222 
1526:modes.c       ****             if (DATALINK_times(1) == 0) { return 0; }
 3017              		.loc 1 1526 0
 3018 00a6 0120     		movs	r0, #1
 3019 00a8 FFF7FEFF 		bl	DATALINK_times
 3020              	.LVL203:
 3021 00ac 0028     		cmp	r0, #0
 3022 00ae C1D0     		beq	.L331
1527:modes.c       ****             if (DATALINK_times(2) == 0) { return 0; }
 3023              		.loc 1 1527 0
 3024 00b0 0220     		movs	r0, #2
 3025 00b2 FFF7FEFF 		bl	DATALINK_times
 3026              	.LVL204:
 3027 00b6 0028     		cmp	r0, #0
 3028 00b8 BCD0     		beq	.L331
1528:modes.c       ****             if (DATALINK_times(2) == 0) { return 0; }
 3029              		.loc 1 1528 0
 3030 00ba 0220     		movs	r0, #2
 3031 00bc FFF7FEFF 		bl	DATALINK_times
 3032              	.LVL205:
 3033 00c0 0028     		cmp	r0, #0
 3034 00c2 B7D0     		beq	.L331
1529:modes.c       ****             if (DATALINK_times(2) == 0) { return 0; }
 3035              		.loc 1 1529 0
 3036 00c4 0220     		movs	r0, #2
 3037 00c6 FFF7FEFF 		bl	DATALINK_times
 3038              	.LVL206:
 3039 00ca 0028     		cmp	r0, #0
 3040 00cc B2D0     		beq	.L331
1530:modes.c       **** // 2222 
1531:modes.c       ****             if (DATALINK_times(2) == 0) { return 0; }
 3041              		.loc 1 1531 0
 3042 00ce 0220     		movs	r0, #2
 3043 00d0 FFF7FEFF 		bl	DATALINK_times
 3044              	.LVL207:
ARM GAS  C:\Users\Ala\AppData\Local\Temp\ccPRO05X.s 			page 87


 3045 00d4 0028     		cmp	r0, #0
 3046 00d6 ADD0     		beq	.L331
1532:modes.c       ****             if (DATALINK_times(2) == 0) { return 0; }
 3047              		.loc 1 1532 0
 3048 00d8 0220     		movs	r0, #2
 3049              	.L964:
 3050 00da FFF7FEFF 		bl	DATALINK_times
 3051              	.LVL208:
 3052 00de 0028     		cmp	r0, #0
 3053 00e0 A8D0     		beq	.L331
1533:modes.c       ****             if (DATALINK_times(2) == 0) { return 0; }
 3054              		.loc 1 1533 0
 3055 00e2 0220     		movs	r0, #2
 3056              	.L954:
 3057 00e4 FFF7FEFF 		bl	DATALINK_times
 3058              	.LVL209:
 3059 00e8 0028     		cmp	r0, #0
 3060 00ea A3D0     		beq	.L331
1534:modes.c       ****             if (DATALINK_times(2) == 0) { return 0; }
 3061              		.loc 1 1534 0
 3062 00ec 0220     		movs	r0, #2
 3063              	.L947:
 3064 00ee FFF7FEFF 		bl	DATALINK_times
 3065              	.LVL210:
 3066 00f2 0028     		cmp	r0, #0
 3067 00f4 9ED0     		beq	.L331
1535:modes.c       **** // 41  
1536:modes.c       ****             if (DATALINK_times(4) == 0) { return 0; }
 3068              		.loc 1 1536 0
 3069 00f6 0420     		movs	r0, #4
 3070 00f8 FFF7FEFF 		bl	DATALINK_times
 3071              	.LVL211:
 3072 00fc 0028     		cmp	r0, #0
 3073 00fe 99D0     		beq	.L331
1537:modes.c       ****             if (DATALINK_times(1) == 0) { return 0; }
 3074              		.loc 1 1537 0
 3075 0100 0120     		movs	r0, #1
 3076 0102 FFF7FEFF 		bl	DATALINK_times
 3077              	.LVL212:
 3078 0106 0028     		cmp	r0, #0
 3079 0108 94D0     		beq	.L331
1538:modes.c       ****      
1539:modes.c       ****             DATALINK_INTRRUPT_Enable();
 3080              		.loc 1 1539 0
 3081 010a FFF7FEFF 		bl	DATALINK_INTRRUPT_Enable
 3082              	.LVL213:
 3083 010e 5EE3     		b	.L333
 3084              	.LVL214:
 3085              	.L322:
1540:modes.c       ****             
1541:modes.c       ****             break;
1542:modes.c       ****             
1543:modes.c       **** // 1 button pressed
1544:modes.c       ****         case (1):
1545:modes.c       ****             DATALINK_INTRRUPT_Disable();
 3086              		.loc 1 1545 0
 3087 0110 FFF7FEFF 		bl	DATALINK_INTRRUPT_Disable
ARM GAS  C:\Users\Ala\AppData\Local\Temp\ccPRO05X.s 			page 88


 3088              	.LVL215:
1546:modes.c       **** // START 1151 
1547:modes.c       ****             if (DATALINK_times(1) == 0) { return 0; }
 3089              		.loc 1 1547 0
 3090 0114 0120     		movs	r0, #1
 3091 0116 FFF7FEFF 		bl	DATALINK_times
 3092              	.LVL216:
 3093 011a 0028     		cmp	r0, #0
 3094 011c 8AD0     		beq	.L331
1548:modes.c       ****             if (DATALINK_times(1) == 0) { return 0; }
 3095              		.loc 1 1548 0
 3096 011e 0120     		movs	r0, #1
 3097 0120 FFF7FEFF 		bl	DATALINK_times
 3098              	.LVL217:
 3099 0124 0028     		cmp	r0, #0
 3100 0126 85D0     		beq	.L331
1549:modes.c       ****             if (DATALINK_times(5) == 0) { return 0; }
 3101              		.loc 1 1549 0
 3102 0128 0520     		movs	r0, #5
 3103 012a FFF7FEFF 		bl	DATALINK_times
 3104              	.LVL218:
 3105 012e 0028     		cmp	r0, #0
 3106 0130 80D0     		beq	.L331
1550:modes.c       ****             if (DATALINK_times(1) == 0) { return 0; }
 3107              		.loc 1 1550 0
 3108 0132 0120     		movs	r0, #1
 3109 0134 FFF7FEFF 		bl	DATALINK_times
 3110              	.LVL219:
 3111 0138 0028     		cmp	r0, #0
 3112 013a 00D1     		bne	.LCB2807
 3113 013c 7AE7     		b	.L331	@long jump
 3114              	.LCB2807:
1551:modes.c       **** // DATA
1552:modes.c       **** // 2222  
1553:modes.c       ****             if (DATALINK_times(2) == 0) { return 0; }
 3115              		.loc 1 1553 0
 3116 013e 0220     		movs	r0, #2
 3117 0140 FFF7FEFF 		bl	DATALINK_times
 3118              	.LVL220:
 3119 0144 0028     		cmp	r0, #0
 3120 0146 00D1     		bne	.LCB2812
 3121 0148 74E7     		b	.L331	@long jump
 3122              	.LCB2812:
1554:modes.c       ****             if (DATALINK_times(2) == 0) { return 0; }
 3123              		.loc 1 1554 0
 3124 014a 0220     		movs	r0, #2
 3125 014c FFF7FEFF 		bl	DATALINK_times
 3126              	.LVL221:
 3127 0150 0028     		cmp	r0, #0
 3128 0152 00D1     		bne	.LCB2817
 3129 0154 6EE7     		b	.L331	@long jump
 3130              	.LCB2817:
1555:modes.c       ****             if (DATALINK_times(2) == 0) { return 0; }
 3131              		.loc 1 1555 0
 3132 0156 0220     		movs	r0, #2
 3133 0158 FFF7FEFF 		bl	DATALINK_times
 3134              	.LVL222:
ARM GAS  C:\Users\Ala\AppData\Local\Temp\ccPRO05X.s 			page 89


 3135 015c 0028     		cmp	r0, #0
 3136 015e 00D1     		bne	.LCB2822
 3137 0160 68E7     		b	.L331	@long jump
 3138              	.LCB2822:
1556:modes.c       ****             if (DATALINK_times(2) == 0) { return 0; }
 3139              		.loc 1 1556 0
 3140 0162 0220     		movs	r0, #2
 3141 0164 FFF7FEFF 		bl	DATALINK_times
 3142              	.LVL223:
 3143 0168 0028     		cmp	r0, #0
 3144 016a 00D1     		bne	.LCB2827
 3145 016c 62E7     		b	.L331	@long jump
 3146              	.LCB2827:
1557:modes.c       **** // 2223  
1558:modes.c       ****             if (DATALINK_times(2) == 0) { return 0; }
 3147              		.loc 1 1558 0
 3148 016e 0220     		movs	r0, #2
 3149 0170 FFF7FEFF 		bl	DATALINK_times
 3150              	.LVL224:
 3151 0174 0028     		cmp	r0, #0
 3152 0176 00D1     		bne	.LCB2832
 3153 0178 5CE7     		b	.L331	@long jump
 3154              	.LCB2832:
1559:modes.c       ****             if (DATALINK_times(2) == 0) { return 0; }
 3155              		.loc 1 1559 0
 3156 017a 0220     		movs	r0, #2
 3157 017c FFF7FEFF 		bl	DATALINK_times
 3158              	.LVL225:
 3159 0180 0028     		cmp	r0, #0
 3160 0182 00D1     		bne	.LCB2837
 3161 0184 56E7     		b	.L331	@long jump
 3162              	.LCB2837:
1560:modes.c       ****             if (DATALINK_times(2) == 0) { return 0; }
 3163              		.loc 1 1560 0
 3164 0186 0220     		movs	r0, #2
 3165 0188 FFF7FEFF 		bl	DATALINK_times
 3166              	.LVL226:
 3167 018c 0028     		cmp	r0, #0
 3168 018e 00D1     		bne	.LCB2842
 3169 0190 50E7     		b	.L331	@long jump
 3170              	.LCB2842:
1561:modes.c       ****             if (DATALINK_times(3) == 0) { return 0; }
 3171              		.loc 1 1561 0
 3172 0192 0320     		movs	r0, #3
 3173 0194 FFF7FEFF 		bl	DATALINK_times
 3174              	.LVL227:
 3175 0198 0028     		cmp	r0, #0
 3176 019a 00D1     		bne	.LCB2847
 3177 019c 4AE7     		b	.L331	@long jump
 3178              	.LCB2847:
1562:modes.c       **** // 1222 
1563:modes.c       ****             if (DATALINK_times(1) == 0) { return 0; }
 3179              		.loc 1 1563 0
 3180 019e 0120     		movs	r0, #1
 3181 01a0 FFF7FEFF 		bl	DATALINK_times
 3182              	.LVL228:
 3183 01a4 0028     		cmp	r0, #0
ARM GAS  C:\Users\Ala\AppData\Local\Temp\ccPRO05X.s 			page 90


 3184 01a6 00D1     		bne	.LCB2852
 3185 01a8 44E7     		b	.L331	@long jump
 3186              	.LCB2852:
1564:modes.c       ****             if (DATALINK_times(2) == 0) { return 0; }
 3187              		.loc 1 1564 0
 3188 01aa 0220     		movs	r0, #2
 3189 01ac FFF7FEFF 		bl	DATALINK_times
 3190              	.LVL229:
 3191 01b0 0028     		cmp	r0, #0
 3192 01b2 00D1     		bne	.LCB2857
 3193 01b4 3EE7     		b	.L331	@long jump
 3194              	.LCB2857:
1565:modes.c       ****             if (DATALINK_times(2) == 0) { return 0; }
 3195              		.loc 1 1565 0
 3196 01b6 0220     		movs	r0, #2
 3197 01b8 FFF7FEFF 		bl	DATALINK_times
 3198              	.LVL230:
 3199 01bc 0028     		cmp	r0, #0
 3200 01be 00D1     		bne	.LCB2862
 3201 01c0 38E7     		b	.L331	@long jump
 3202              	.LCB2862:
1566:modes.c       ****             if (DATALINK_times(2) == 0) { return 0; }
 3203              		.loc 1 1566 0
 3204 01c2 0220     		movs	r0, #2
 3205 01c4 FFF7FEFF 		bl	DATALINK_times
 3206              	.LVL231:
 3207 01c8 0028     		cmp	r0, #0
 3208 01ca 00D1     		bne	.LCB2867
 3209 01cc 32E7     		b	.L331	@long jump
 3210              	.LCB2867:
1567:modes.c       **** // 2223 
1568:modes.c       ****             if (DATALINK_times(2) == 0) { return 0; }
 3211              		.loc 1 1568 0
 3212 01ce 0220     		movs	r0, #2
 3213 01d0 FFF7FEFF 		bl	DATALINK_times
 3214              	.LVL232:
 3215 01d4 0028     		cmp	r0, #0
 3216 01d6 00D1     		bne	.LCB2872
 3217 01d8 2CE7     		b	.L331	@long jump
 3218              	.LCB2872:
1569:modes.c       ****             if (DATALINK_times(2) == 0) { return 0; }
 3219              		.loc 1 1569 0
 3220 01da 0220     		movs	r0, #2
 3221 01dc FFF7FEFF 		bl	DATALINK_times
 3222              	.LVL233:
 3223 01e0 0028     		cmp	r0, #0
 3224 01e2 00D1     		bne	.LCB2877
 3225 01e4 26E7     		b	.L331	@long jump
 3226              	.LCB2877:
1570:modes.c       ****             if (DATALINK_times(2) == 0) { return 0; }
 3227              		.loc 1 1570 0
 3228 01e6 0220     		movs	r0, #2
 3229 01e8 A0E1     		b	.L962
 3230              	.LVL234:
 3231              	.L323:
1571:modes.c       ****             if (DATALINK_times(3) == 0) { return 0; }
1572:modes.c       **** // 41  
ARM GAS  C:\Users\Ala\AppData\Local\Temp\ccPRO05X.s 			page 91


1573:modes.c       ****             if (DATALINK_times(4) == 0) { return 0; }
1574:modes.c       ****             if (DATALINK_times(1) == 0) { return 0; }
1575:modes.c       ****          
1576:modes.c       ****             DATALINK_INTRRUPT_Enable();
1577:modes.c       **** 
1578:modes.c       ****             break;
1579:modes.c       **** 
1580:modes.c       **** // 2 button pressed
1581:modes.c       ****         case (2):
1582:modes.c       ****             DATALINK_INTRRUPT_Disable();
 3232              		.loc 1 1582 0
 3233 01ea FFF7FEFF 		bl	DATALINK_INTRRUPT_Disable
 3234              	.LVL235:
1583:modes.c       **** // START 1151 
1584:modes.c       ****             if (DATALINK_times(1) == 0) { return 0; }
 3235              		.loc 1 1584 0
 3236 01ee 0120     		movs	r0, #1
 3237 01f0 FFF7FEFF 		bl	DATALINK_times
 3238              	.LVL236:
 3239 01f4 0028     		cmp	r0, #0
 3240 01f6 00D1     		bne	.LCB2891
 3241 01f8 1CE7     		b	.L331	@long jump
 3242              	.LCB2891:
1585:modes.c       ****             if (DATALINK_times(1) == 0) { return 0; }
 3243              		.loc 1 1585 0
 3244 01fa 0120     		movs	r0, #1
 3245 01fc FFF7FEFF 		bl	DATALINK_times
 3246              	.LVL237:
 3247 0200 0028     		cmp	r0, #0
 3248 0202 00D1     		bne	.LCB2896
 3249 0204 16E7     		b	.L331	@long jump
 3250              	.LCB2896:
1586:modes.c       ****             if (DATALINK_times(5) == 0) { return 0; }
 3251              		.loc 1 1586 0
 3252 0206 0520     		movs	r0, #5
 3253 0208 FFF7FEFF 		bl	DATALINK_times
 3254              	.LVL238:
 3255 020c 0028     		cmp	r0, #0
 3256 020e 00D1     		bne	.LCB2901
 3257 0210 10E7     		b	.L331	@long jump
 3258              	.LCB2901:
1587:modes.c       ****             if (DATALINK_times(1) == 0) { return 0; }
 3259              		.loc 1 1587 0
 3260 0212 0120     		movs	r0, #1
 3261 0214 FFF7FEFF 		bl	DATALINK_times
 3262              	.LVL239:
 3263 0218 0028     		cmp	r0, #0
 3264 021a 00D1     		bne	.LCB2906
 3265 021c 0AE7     		b	.L331	@long jump
 3266              	.LCB2906:
1588:modes.c       **** // DATA
1589:modes.c       **** // 2222  
1590:modes.c       ****             if (DATALINK_times(2) == 0) { return 0; }
 3267              		.loc 1 1590 0
 3268 021e 0220     		movs	r0, #2
 3269 0220 FFF7FEFF 		bl	DATALINK_times
 3270              	.LVL240:
ARM GAS  C:\Users\Ala\AppData\Local\Temp\ccPRO05X.s 			page 92


 3271 0224 0028     		cmp	r0, #0
 3272 0226 00D1     		bne	.LCB2911
 3273 0228 04E7     		b	.L331	@long jump
 3274              	.LCB2911:
1591:modes.c       ****             if (DATALINK_times(2) == 0) { return 0; }
 3275              		.loc 1 1591 0
 3276 022a 0220     		movs	r0, #2
 3277 022c FFF7FEFF 		bl	DATALINK_times
 3278              	.LVL241:
 3279 0230 0028     		cmp	r0, #0
 3280 0232 00D1     		bne	.LCB2916
 3281 0234 FEE6     		b	.L331	@long jump
 3282              	.LCB2916:
1592:modes.c       ****             if (DATALINK_times(2) == 0) { return 0; }
 3283              		.loc 1 1592 0
 3284 0236 0220     		movs	r0, #2
 3285 0238 FFF7FEFF 		bl	DATALINK_times
 3286              	.LVL242:
 3287 023c 0028     		cmp	r0, #0
 3288 023e 00D1     		bne	.LCB2921
 3289 0240 F8E6     		b	.L331	@long jump
 3290              	.LCB2921:
1593:modes.c       ****             if (DATALINK_times(2) == 0) { return 0; }
 3291              		.loc 1 1593 0
 3292 0242 0220     		movs	r0, #2
 3293 0244 FFF7FEFF 		bl	DATALINK_times
 3294              	.LVL243:
 3295 0248 0028     		cmp	r0, #0
 3296 024a 00D1     		bne	.LCB2926
 3297 024c F2E6     		b	.L331	@long jump
 3298              	.LCB2926:
1594:modes.c       **** // 2223  
1595:modes.c       ****             if (DATALINK_times(2) == 0) { return 0; }
 3299              		.loc 1 1595 0
 3300 024e 0220     		movs	r0, #2
 3301 0250 FFF7FEFF 		bl	DATALINK_times
 3302              	.LVL244:
 3303 0254 0028     		cmp	r0, #0
 3304 0256 00D1     		bne	.LCB2931
 3305 0258 ECE6     		b	.L331	@long jump
 3306              	.LCB2931:
1596:modes.c       ****             if (DATALINK_times(2) == 0) { return 0; }
 3307              		.loc 1 1596 0
 3308 025a 0220     		movs	r0, #2
 3309 025c FFF7FEFF 		bl	DATALINK_times
 3310              	.LVL245:
 3311 0260 0028     		cmp	r0, #0
 3312 0262 00D1     		bne	.LCB2936
 3313 0264 E6E6     		b	.L331	@long jump
 3314              	.LCB2936:
1597:modes.c       ****             if (DATALINK_times(2) == 0) { return 0; }
 3315              		.loc 1 1597 0
 3316 0266 0220     		movs	r0, #2
 3317 0268 FFF7FEFF 		bl	DATALINK_times
 3318              	.LVL246:
 3319 026c 0028     		cmp	r0, #0
 3320 026e 00D1     		bne	.LCB2941
ARM GAS  C:\Users\Ala\AppData\Local\Temp\ccPRO05X.s 			page 93


 3321 0270 E0E6     		b	.L331	@long jump
 3322              	.LCB2941:
1598:modes.c       ****             if (DATALINK_times(3) == 0) { return 0; }
 3323              		.loc 1 1598 0
 3324 0272 0320     		movs	r0, #3
 3325 0274 FFF7FEFF 		bl	DATALINK_times
 3326              	.LVL247:
 3327 0278 0028     		cmp	r0, #0
 3328 027a 00D1     		bne	.LCB2946
 3329 027c DAE6     		b	.L331	@long jump
 3330              	.LCB2946:
1599:modes.c       **** // 1222 
1600:modes.c       ****             if (DATALINK_times(1) == 0) { return 0; }
 3331              		.loc 1 1600 0
 3332 027e 0120     		movs	r0, #1
 3333 0280 FFF7FEFF 		bl	DATALINK_times
 3334              	.LVL248:
 3335 0284 0028     		cmp	r0, #0
 3336 0286 00D1     		bne	.LCB2951
 3337 0288 D4E6     		b	.L331	@long jump
 3338              	.LCB2951:
1601:modes.c       ****             if (DATALINK_times(2) == 0) { return 0; }
 3339              		.loc 1 1601 0
 3340 028a 0220     		movs	r0, #2
 3341 028c FFF7FEFF 		bl	DATALINK_times
 3342              	.LVL249:
 3343 0290 0028     		cmp	r0, #0
 3344 0292 00D1     		bne	.LCB2956
 3345 0294 CEE6     		b	.L331	@long jump
 3346              	.LCB2956:
1602:modes.c       ****             if (DATALINK_times(2) == 0) { return 0; }
 3347              		.loc 1 1602 0
 3348 0296 0220     		movs	r0, #2
 3349 0298 FFF7FEFF 		bl	DATALINK_times
 3350              	.LVL250:
 3351 029c 0028     		cmp	r0, #0
 3352 029e 00D1     		bne	.LCB2961
 3353 02a0 C8E6     		b	.L331	@long jump
 3354              	.LCB2961:
1603:modes.c       ****             if (DATALINK_times(2) == 0) { return 0; }
 3355              		.loc 1 1603 0
 3356 02a2 0220     		movs	r0, #2
 3357 02a4 FFF7FEFF 		bl	DATALINK_times
 3358              	.LVL251:
 3359 02a8 0028     		cmp	r0, #0
 3360 02aa 00D1     		bne	.LCB2966
 3361 02ac C2E6     		b	.L331	@long jump
 3362              	.LCB2966:
1604:modes.c       **** // 2231 
1605:modes.c       ****             if (DATALINK_times(2) == 0) { return 0; }
 3363              		.loc 1 1605 0
 3364 02ae 0220     		movs	r0, #2
 3365 02b0 FFF7FEFF 		bl	DATALINK_times
 3366              	.LVL252:
 3367 02b4 0028     		cmp	r0, #0
 3368 02b6 00D1     		bne	.LCB2971
 3369 02b8 BCE6     		b	.L331	@long jump
ARM GAS  C:\Users\Ala\AppData\Local\Temp\ccPRO05X.s 			page 94


 3370              	.LCB2971:
1606:modes.c       ****             if (DATALINK_times(2) == 0) { return 0; }
 3371              		.loc 1 1606 0
 3372 02ba 0220     		movs	r0, #2
 3373 02bc FFF7FEFF 		bl	DATALINK_times
 3374              	.LVL253:
 3375 02c0 0028     		cmp	r0, #0
 3376 02c2 00D1     		bne	.LCB2976
 3377 02c4 B6E6     		b	.L331	@long jump
 3378              	.LCB2976:
1607:modes.c       ****             if (DATALINK_times(3) == 0) { return 0; }
 3379              		.loc 1 1607 0
 3380 02c6 0320     		movs	r0, #3
 3381 02c8 FFF7FEFF 		bl	DATALINK_times
 3382              	.LVL254:
 3383 02cc 0028     		cmp	r0, #0
 3384 02ce 00D1     		bne	.LCB2981
 3385 02d0 B0E6     		b	.L331	@long jump
 3386              	.LCB2981:
1608:modes.c       ****             if (DATALINK_times(1) == 0) { return 0; }
 3387              		.loc 1 1608 0
 3388 02d2 0120     		movs	r0, #1
 3389 02d4 0BE7     		b	.L947
 3390              	.LVL255:
 3391              	.L324:
1609:modes.c       **** // 41  
1610:modes.c       ****             if (DATALINK_times(4) == 0) { return 0; }
1611:modes.c       ****             if (DATALINK_times(1) == 0) { return 0; }
1612:modes.c       ****          
1613:modes.c       ****             DATALINK_INTRRUPT_Enable();
1614:modes.c       **** 
1615:modes.c       ****             break;
1616:modes.c       **** 
1617:modes.c       **** // 3 button pressed
1618:modes.c       ****         case (3):
1619:modes.c       ****             DATALINK_INTRRUPT_Disable();
 3392              		.loc 1 1619 0
 3393 02d6 FFF7FEFF 		bl	DATALINK_INTRRUPT_Disable
 3394              	.LVL256:
1620:modes.c       **** // START 1151 
1621:modes.c       ****             if (DATALINK_times(1) == 0) { return 0; }
 3395              		.loc 1 1621 0
 3396 02da 0120     		movs	r0, #1
 3397 02dc FFF7FEFF 		bl	DATALINK_times
 3398              	.LVL257:
 3399 02e0 0028     		cmp	r0, #0
 3400 02e2 00D1     		bne	.LCB2995
 3401 02e4 A6E6     		b	.L331	@long jump
 3402              	.LCB2995:
1622:modes.c       ****             if (DATALINK_times(1) == 0) { return 0; }
 3403              		.loc 1 1622 0
 3404 02e6 0120     		movs	r0, #1
 3405 02e8 FFF7FEFF 		bl	DATALINK_times
 3406              	.LVL258:
 3407 02ec 0028     		cmp	r0, #0
 3408 02ee 00D1     		bne	.LCB3000
 3409 02f0 A0E6     		b	.L331	@long jump
ARM GAS  C:\Users\Ala\AppData\Local\Temp\ccPRO05X.s 			page 95


 3410              	.LCB3000:
1623:modes.c       ****             if (DATALINK_times(5) == 0) { return 0; }
 3411              		.loc 1 1623 0
 3412 02f2 0520     		movs	r0, #5
 3413 02f4 FFF7FEFF 		bl	DATALINK_times
 3414              	.LVL259:
 3415 02f8 0028     		cmp	r0, #0
 3416 02fa 00D1     		bne	.LCB3005
 3417 02fc 9AE6     		b	.L331	@long jump
 3418              	.LCB3005:
1624:modes.c       ****             if (DATALINK_times(1) == 0) { return 0; }
 3419              		.loc 1 1624 0
 3420 02fe 0120     		movs	r0, #1
 3421 0300 FFF7FEFF 		bl	DATALINK_times
 3422              	.LVL260:
 3423 0304 0028     		cmp	r0, #0
 3424 0306 00D1     		bne	.LCB3010
 3425 0308 94E6     		b	.L331	@long jump
 3426              	.LCB3010:
1625:modes.c       **** // DATA
1626:modes.c       **** // 2222  
1627:modes.c       ****             if (DATALINK_times(2) == 0) { return 0; }
 3427              		.loc 1 1627 0
 3428 030a 0220     		movs	r0, #2
 3429 030c FFF7FEFF 		bl	DATALINK_times
 3430              	.LVL261:
 3431 0310 0028     		cmp	r0, #0
 3432 0312 00D1     		bne	.LCB3015
 3433 0314 8EE6     		b	.L331	@long jump
 3434              	.LCB3015:
1628:modes.c       ****             if (DATALINK_times(2) == 0) { return 0; }
 3435              		.loc 1 1628 0
 3436 0316 0220     		movs	r0, #2
 3437 0318 FFF7FEFF 		bl	DATALINK_times
 3438              	.LVL262:
 3439 031c 0028     		cmp	r0, #0
 3440 031e 00D1     		bne	.LCB3020
 3441 0320 88E6     		b	.L331	@long jump
 3442              	.LCB3020:
1629:modes.c       ****             if (DATALINK_times(2) == 0) { return 0; }
 3443              		.loc 1 1629 0
 3444 0322 0220     		movs	r0, #2
 3445 0324 FFF7FEFF 		bl	DATALINK_times
 3446              	.LVL263:
 3447 0328 0028     		cmp	r0, #0
 3448 032a 00D1     		bne	.LCB3025
 3449 032c 82E6     		b	.L331	@long jump
 3450              	.LCB3025:
1630:modes.c       ****             if (DATALINK_times(2) == 0) { return 0; }
 3451              		.loc 1 1630 0
 3452 032e 0220     		movs	r0, #2
 3453 0330 FFF7FEFF 		bl	DATALINK_times
 3454              	.LVL264:
 3455 0334 0028     		cmp	r0, #0
 3456 0336 00D1     		bne	.LCB3030
 3457 0338 7CE6     		b	.L331	@long jump
 3458              	.LCB3030:
ARM GAS  C:\Users\Ala\AppData\Local\Temp\ccPRO05X.s 			page 96


1631:modes.c       **** // 2223  
1632:modes.c       ****             if (DATALINK_times(2) == 0) { return 0; }
 3459              		.loc 1 1632 0
 3460 033a 0220     		movs	r0, #2
 3461 033c FFF7FEFF 		bl	DATALINK_times
 3462              	.LVL265:
 3463 0340 0028     		cmp	r0, #0
 3464 0342 00D1     		bne	.LCB3035
 3465 0344 76E6     		b	.L331	@long jump
 3466              	.LCB3035:
1633:modes.c       ****             if (DATALINK_times(2) == 0) { return 0; }
 3467              		.loc 1 1633 0
 3468 0346 0220     		movs	r0, #2
 3469 0348 FFF7FEFF 		bl	DATALINK_times
 3470              	.LVL266:
 3471 034c 0028     		cmp	r0, #0
 3472 034e 00D1     		bne	.LCB3040
 3473 0350 70E6     		b	.L331	@long jump
 3474              	.LCB3040:
1634:modes.c       ****             if (DATALINK_times(2) == 0) { return 0; }
 3475              		.loc 1 1634 0
 3476 0352 0220     		movs	r0, #2
 3477 0354 FFF7FEFF 		bl	DATALINK_times
 3478              	.LVL267:
 3479 0358 0028     		cmp	r0, #0
 3480 035a 00D1     		bne	.LCB3045
 3481 035c 6AE6     		b	.L331	@long jump
 3482              	.LCB3045:
1635:modes.c       ****             if (DATALINK_times(3) == 0) { return 0; }
 3483              		.loc 1 1635 0
 3484 035e 0320     		movs	r0, #3
 3485 0360 FFF7FEFF 		bl	DATALINK_times
 3486              	.LVL268:
 3487 0364 0028     		cmp	r0, #0
 3488 0366 00D1     		bne	.LCB3050
 3489 0368 64E6     		b	.L331	@long jump
 3490              	.LCB3050:
1636:modes.c       **** // 1222 
1637:modes.c       ****             if (DATALINK_times(1) == 0) { return 0; }
 3491              		.loc 1 1637 0
 3492 036a 0120     		movs	r0, #1
 3493 036c FFF7FEFF 		bl	DATALINK_times
 3494              	.LVL269:
 3495 0370 0028     		cmp	r0, #0
 3496 0372 00D1     		bne	.LCB3055
 3497 0374 5EE6     		b	.L331	@long jump
 3498              	.LCB3055:
1638:modes.c       ****             if (DATALINK_times(2) == 0) { return 0; }
 3499              		.loc 1 1638 0
 3500 0376 0220     		movs	r0, #2
 3501 0378 30E1     		b	.L978
 3502              	.LVL270:
 3503              	.L325:
1639:modes.c       ****             if (DATALINK_times(2) == 0) { return 0; }
1640:modes.c       ****             if (DATALINK_times(2) == 0) { return 0; }
1641:modes.c       **** // 2232 
1642:modes.c       ****             if (DATALINK_times(2) == 0) { return 0; }
ARM GAS  C:\Users\Ala\AppData\Local\Temp\ccPRO05X.s 			page 97


1643:modes.c       ****             if (DATALINK_times(2) == 0) { return 0; }
1644:modes.c       ****             if (DATALINK_times(3) == 0) { return 0; }
1645:modes.c       ****             if (DATALINK_times(2) == 0) { return 0; }
1646:modes.c       **** // 41  
1647:modes.c       ****             if (DATALINK_times(4) == 0) { return 0; }
1648:modes.c       ****             if (DATALINK_times(1) == 0) { return 0; }
1649:modes.c       ****          
1650:modes.c       ****             DATALINK_INTRRUPT_Enable();
1651:modes.c       **** 
1652:modes.c       ****             break;            
1653:modes.c       **** 
1654:modes.c       **** // 4 button pressed
1655:modes.c       ****         case (4):
1656:modes.c       ****             DATALINK_INTRRUPT_Disable();
 3504              		.loc 1 1656 0
 3505 037a FFF7FEFF 		bl	DATALINK_INTRRUPT_Disable
 3506              	.LVL271:
1657:modes.c       **** // START 1151 
1658:modes.c       ****             if (DATALINK_times(1) == 0) { return 0; }
 3507              		.loc 1 1658 0
 3508 037e 0120     		movs	r0, #1
 3509 0380 FFF7FEFF 		bl	DATALINK_times
 3510              	.LVL272:
 3511 0384 0028     		cmp	r0, #0
 3512 0386 00D1     		bne	.LCB3069
 3513 0388 54E6     		b	.L331	@long jump
 3514              	.LCB3069:
1659:modes.c       ****             if (DATALINK_times(1) == 0) { return 0; }
 3515              		.loc 1 1659 0
 3516 038a 0120     		movs	r0, #1
 3517 038c FFF7FEFF 		bl	DATALINK_times
 3518              	.LVL273:
 3519 0390 0028     		cmp	r0, #0
 3520 0392 00D1     		bne	.LCB3074
 3521 0394 4EE6     		b	.L331	@long jump
 3522              	.LCB3074:
1660:modes.c       ****             if (DATALINK_times(5) == 0) { return 0; }
 3523              		.loc 1 1660 0
 3524 0396 0520     		movs	r0, #5
 3525 0398 FFF7FEFF 		bl	DATALINK_times
 3526              	.LVL274:
 3527 039c 0028     		cmp	r0, #0
 3528 039e 00D1     		bne	.LCB3079
 3529 03a0 48E6     		b	.L331	@long jump
 3530              	.LCB3079:
1661:modes.c       ****             if (DATALINK_times(1) == 0) { return 0; }
 3531              		.loc 1 1661 0
 3532 03a2 0120     		movs	r0, #1
 3533 03a4 FFF7FEFF 		bl	DATALINK_times
 3534              	.LVL275:
 3535 03a8 0028     		cmp	r0, #0
 3536 03aa 00D1     		bne	.LCB3084
 3537 03ac 42E6     		b	.L331	@long jump
 3538              	.LCB3084:
1662:modes.c       **** // DATA
1663:modes.c       **** // 2222  
1664:modes.c       ****             if (DATALINK_times(2) == 0) { return 0; }
ARM GAS  C:\Users\Ala\AppData\Local\Temp\ccPRO05X.s 			page 98


 3539              		.loc 1 1664 0
 3540 03ae 0220     		movs	r0, #2
 3541 03b0 FFF7FEFF 		bl	DATALINK_times
 3542              	.LVL276:
 3543 03b4 0028     		cmp	r0, #0
 3544 03b6 00D1     		bne	.LCB3089
 3545 03b8 3CE6     		b	.L331	@long jump
 3546              	.LCB3089:
1665:modes.c       ****             if (DATALINK_times(2) == 0) { return 0; }
 3547              		.loc 1 1665 0
 3548 03ba 0220     		movs	r0, #2
 3549 03bc FFF7FEFF 		bl	DATALINK_times
 3550              	.LVL277:
 3551 03c0 0028     		cmp	r0, #0
 3552 03c2 00D1     		bne	.LCB3094
 3553 03c4 36E6     		b	.L331	@long jump
 3554              	.LCB3094:
1666:modes.c       ****             if (DATALINK_times(2) == 0) { return 0; }
 3555              		.loc 1 1666 0
 3556 03c6 0220     		movs	r0, #2
 3557 03c8 FFF7FEFF 		bl	DATALINK_times
 3558              	.LVL278:
 3559 03cc 0028     		cmp	r0, #0
 3560 03ce 00D1     		bne	.LCB3099
 3561 03d0 30E6     		b	.L331	@long jump
 3562              	.LCB3099:
1667:modes.c       ****             if (DATALINK_times(2) == 0) { return 0; }
 3563              		.loc 1 1667 0
 3564 03d2 0220     		movs	r0, #2
 3565 03d4 FFF7FEFF 		bl	DATALINK_times
 3566              	.LVL279:
 3567 03d8 0028     		cmp	r0, #0
 3568 03da 00D1     		bne	.LCB3104
 3569 03dc 2AE6     		b	.L331	@long jump
 3570              	.LCB3104:
1668:modes.c       **** // 2223  
1669:modes.c       ****             if (DATALINK_times(2) == 0) { return 0; }
 3571              		.loc 1 1669 0
 3572 03de 0220     		movs	r0, #2
 3573 03e0 FFF7FEFF 		bl	DATALINK_times
 3574              	.LVL280:
 3575 03e4 0028     		cmp	r0, #0
 3576 03e6 00D1     		bne	.LCB3109
 3577 03e8 24E6     		b	.L331	@long jump
 3578              	.LCB3109:
1670:modes.c       ****             if (DATALINK_times(2) == 0) { return 0; }
 3579              		.loc 1 1670 0
 3580 03ea 0220     		movs	r0, #2
 3581 03ec FFF7FEFF 		bl	DATALINK_times
 3582              	.LVL281:
 3583 03f0 0028     		cmp	r0, #0
 3584 03f2 00D1     		bne	.LCB3114
 3585 03f4 1EE6     		b	.L331	@long jump
 3586              	.LCB3114:
1671:modes.c       ****             if (DATALINK_times(2) == 0) { return 0; }
 3587              		.loc 1 1671 0
 3588 03f6 0220     		movs	r0, #2
ARM GAS  C:\Users\Ala\AppData\Local\Temp\ccPRO05X.s 			page 99


 3589 03f8 FFF7FEFF 		bl	DATALINK_times
 3590              	.LVL282:
 3591 03fc 0028     		cmp	r0, #0
 3592 03fe 00D1     		bne	.LCB3119
 3593 0400 18E6     		b	.L331	@long jump
 3594              	.LCB3119:
1672:modes.c       ****             if (DATALINK_times(3) == 0) { return 0; }
 3595              		.loc 1 1672 0
 3596 0402 0320     		movs	r0, #3
 3597 0404 FFF7FEFF 		bl	DATALINK_times
 3598              	.LVL283:
 3599 0408 0028     		cmp	r0, #0
 3600 040a 00D1     		bne	.LCB3124
 3601 040c 12E6     		b	.L331	@long jump
 3602              	.LCB3124:
1673:modes.c       **** // 1222 
1674:modes.c       ****             if (DATALINK_times(1) == 0) { return 0; }
 3603              		.loc 1 1674 0
 3604 040e 0120     		movs	r0, #1
 3605 0410 FFF7FEFF 		bl	DATALINK_times
 3606              	.LVL284:
 3607 0414 0028     		cmp	r0, #0
 3608 0416 00D1     		bne	.LCB3129
 3609 0418 0CE6     		b	.L331	@long jump
 3610              	.LCB3129:
1675:modes.c       ****             if (DATALINK_times(2) == 0) { return 0; }
 3611              		.loc 1 1675 0
 3612 041a 0220     		movs	r0, #2
 3613 041c FFF7FEFF 		bl	DATALINK_times
 3614              	.LVL285:
 3615 0420 0028     		cmp	r0, #0
 3616 0422 00D1     		bne	.LCB3134
 3617 0424 06E6     		b	.L331	@long jump
 3618              	.LCB3134:
