ARM GAS  C:\Users\Ala\AppData\Local\Temp\ccPRO05X.s 			page 1


   1              		.syntax unified
   2              		.cpu cortex-m0
   3              		.fpu softvfp
   4              		.eabi_attribute 20, 1
   5              		.eabi_attribute 21, 1
   6              		.eabi_attribute 23, 3
   7              		.eabi_attribute 24, 1
   8              		.eabi_attribute 25, 1
   9              		.eabi_attribute 26, 1
  10              		.eabi_attribute 30, 4
  11              		.eabi_attribute 34, 0
  12              		.eabi_attribute 18, 4
  13              		.thumb
  14              		.syntax unified
  15              		.file	"modes.c"
  16              		.text
  17              	.Ltext0:
  18              		.cfi_sections	.debug_frame
  19              		.section	.text.psu_config,"ax",%progbits
  20              		.align	1
  21              		.global	psu_config
  22              		.code	16
  23              		.thumb_func
  24              		.type	psu_config, %function
  25              	psu_config:
  26              	.LFB34:
  27              		.file 1 "modes.c"
   1:modes.c       **** /* ========================================
   2:modes.c       ****  *
   3:modes.c       ****  * Copyright HEMI, 2020
   4:modes.c       ****  * All Rights Reserved
   5:modes.c       ****  * UNPUBLISHED, LICENSED SOFTWARE.
   6:modes.c       ****  * 
   7:modes.c       ****  * Functions used by BeoModern main PSoC to switch unit into different states including
   8:modes.c       ****  * OFF, Clock, Player, iRadio, RDS/FM display, DAB radio, BT Rx, BT Tx, AuxIN
   9:modes.c       ****  *
  10:modes.c       ****  * CONFIDENTIAL AND PROPRIETARY INFORMATION
  11:modes.c       ****  * WHICH IS THE PROPERTY OF HEMI.
  12:modes.c       ****  *
  13:modes.c       ****  * ========================================
  14:modes.c       **** */
  15:modes.c       **** 
  16:modes.c       **** #include <project.h>
  17:modes.c       **** #include <modes.h>
  18:modes.c       **** #include <inputs.h>
  19:modes.c       **** #include <spi_int.h>
  20:modes.c       **** 
  21:modes.c       **** 
  22:modes.c       **** uint8 SYSTEM_STATE = 0;    // variable used to store whole system state    
  23:modes.c       **** uint8 DISPLAY_STATE = 0;   // variable used to store display state 
  24:modes.c       **** uint8 BT_Tx_STATE = 0;     // variable used to store BT Tx state   
  25:modes.c       **** 
  26:modes.c       **** // flag used to indicate new data ready to be sent over SPI to display module
  27:modes.c       **** uint8 new_display_data_flag = 0;
  28:modes.c       **** // new data that needs to be sent over SPI to display module
  29:modes.c       **** uint8 new_display_data_buffer[24] = {"........................"};
  30:modes.c       **** uint8 new_disp_ctrl1 = 0;
ARM GAS  C:\Users\Ala\AppData\Local\Temp\ccPRO05X.s 			page 2


  31:modes.c       **** uint8 new_disp_ctrl2 = 0;
  32:modes.c       **** 
  33:modes.c       **** /*******************************************************************************
  34:modes.c       **** * Function Name: buttons_check()
  35:modes.c       **** ********************************************************************************
  36:modes.c       **** * Summary:
  37:modes.c       **** *  Button press funciton that checkc button actions. It also initialize state
  38:modes.c       **** *  of main system to the latest one stored in emulated EEPROM space. 
  39:modes.c       **** *   
  40:modes.c       **** * Parameters:
  41:modes.c       **** *  None
  42:modes.c       **** *
  43:modes.c       **** * Return:
  44:modes.c       **** *  1 if button was pressed
  45:modes.c       **** *  0 if no button were pressed
  46:modes.c       **** *
  47:modes.c       **** *******************************************************************************/  
  48:modes.c       **** uint8 buttons_check()
  49:modes.c       **** {
  50:modes.c       ****     
  51:modes.c       **** // system state array stored in EEPROM
  52:modes.c       **** // [0] = SYSTEM_STATE 
  53:modes.c       **** // [1] = DISPLAY_STATE
  54:modes.c       **** // [2] = BT_Tx_STATE
  55:modes.c       **** uint8 array[]= { 0x00, 0x00, 0x00 };
  56:modes.c       **** 
  57:modes.c       **** // check if power button was pressed for short time      
  58:modes.c       ****     if (PWR_OK_SHORT_V == 1)
  59:modes.c       ****     {
  60:modes.c       **** // check if system is in power down state
  61:modes.c       ****         if (SYSTEM_STATE == 0)
  62:modes.c       ****         {
  63:modes.c       **** // if in power down state - restore system to last saved state
  64:modes.c       **** // Read data from emulated EEPROM
  65:modes.c       ****             Em_EEPROM_Read(LOGICAL_EEPROM_START, eepromArray, LOGICAL_EEPROM_SIZE);         
  66:modes.c       **** // set variables based on read data
  67:modes.c       ****             SYSTEM_STATE = eepromArray[0];
  68:modes.c       ****             DISPLAY_STATE = eepromArray[1];
  69:modes.c       ****             BT_Tx_STATE = eepromArray[2];
  70:modes.c       **** // start with system state in 1 to avoid infinite loop in system state 0
  71:modes.c       ****             if (SYSTEM_STATE == 0)
  72:modes.c       ****             {
  73:modes.c       ****                 SYSTEM_STATE = 1;
  74:modes.c       ****             }
  75:modes.c       **** // clear push button variable
  76:modes.c       ****             PWR_OK_SHORT_V = 0;
  77:modes.c       ****         }
  78:modes.c       ****         else
  79:modes.c       **** // if system not in power down state, move to next system state based on PWR_OK button press
  80:modes.c       ****             {           
  81:modes.c       ****                 SYSTEM_STATE = SYSTEM_STATE + 1;
  82:modes.c       ****                 if (SYSTEM_STATE >= 9)
  83:modes.c       ****                 {
  84:modes.c       ****                     SYSTEM_STATE = 1;
  85:modes.c       ****                 }
  86:modes.c       **** // clear push button variable
  87:modes.c       ****                 PWR_OK_SHORT_V = 0;
ARM GAS  C:\Users\Ala\AppData\Local\Temp\ccPRO05X.s 			page 3


  88:modes.c       ****             }
  89:modes.c       **** // return 1 indicating that button has been pressed
  90:modes.c       ****         return 1;
  91:modes.c       ****     }
  92:modes.c       ****  
  93:modes.c       ****     
  94:modes.c       **** // check if power button was pressed for long time (1 second)        
  95:modes.c       ****     if (PWR_OK_LONG_V == 1)
  96:modes.c       ****     {
  97:modes.c       **** // if it was, prepare array to write it to the EEPROM location
  98:modes.c       ****         array[0] =  SYSTEM_STATE;
  99:modes.c       ****         array[1] =  DISPLAY_STATE;
 100:modes.c       ****         array[2] =  BT_Tx_STATE;
 101:modes.c       ****  // Write data to emulated EEPROM
 102:modes.c       ****         Em_EEPROM_Write(LOGICAL_EEPROM_START, array, LOGICAL_EEPROM_SIZE);         
 103:modes.c       ****         
 104:modes.c       **** // set system state to power down mode
 105:modes.c       ****         SYSTEM_STATE = 0;
 106:modes.c       **** // set display state to power down
 107:modes.c       ****         DISPLAY_STATE = 0;
 108:modes.c       **** // clear push button variable
 109:modes.c       ****         PWR_OK_LONG_V = 0;
 110:modes.c       **** // return 1 indicating button press action
 111:modes.c       ****         return 1;
 112:modes.c       ****     }
 113:modes.c       ****     
 114:modes.c       **** // check if MODE button was pressed for short time 
 115:modes.c       ****     if (MODE_SHORT_V == 1)
 116:modes.c       ****     {
 117:modes.c       **** // operate function based on current state of the system    
 118:modes.c       ****         switch (SYSTEM_STATE)
 119:modes.c       ****         {
 120:modes.c       **** 
 121:modes.c       **** // SYSTEM_STATE = 0 - system in power down mode
 122:modes.c       **** // System shuld react only to display changes in this mode  
 123:modes.c       **** // no interaction from systme in power down state   
 124:modes.c       ****         case (0):
 125:modes.c       ****             break;
 126:modes.c       **** 
 127:modes.c       **** // SYSTEM_STATE = 1 - system in Player mode
 128:modes.c       **** // System reacts to commands:
 129:modes.c       **** // push button MODE Short = next song (DOWN and OK)
 130:modes.c       ****         case (1):
 131:modes.c       **** //  1 = Button: MODE SHORT  
 132:modes.c       ****             if (MODE_SHORT_V == 1)
 133:modes.c       ****             {
 134:modes.c       ****                 UART_UartPutString("-UP+");
 135:modes.c       ****                 CyDelay(100);  
 136:modes.c       ****                 UART_UartPutString("-GO+");
 137:modes.c       ****                 MODE_SHORT_V = 0;
 138:modes.c       ****             }
 139:modes.c       ****             break;
 140:modes.c       ****     
 141:modes.c       **** // SYSTEM_STATE = 2 - system in iRadio mode    
 142:modes.c       **** // System reacts to commands:
 143:modes.c       **** // push button MODE Short = next radio station (DOWN)
 144:modes.c       ****         case(2):
ARM GAS  C:\Users\Ala\AppData\Local\Temp\ccPRO05X.s 			page 4


 145:modes.c       **** //  1 = Button: MODE SHORT  
 146:modes.c       ****             if (MODE_SHORT_V == 1)
 147:modes.c       ****             {
 148:modes.c       ****                 UART_UartPutString("-UP+");
 149:modes.c       ****                 CyDelay(100);  
 150:modes.c       ****                 UART_UartPutString("-GO+");
 151:modes.c       ****                 MODE_SHORT_V = 0;
 152:modes.c       ****             }
 153:modes.c       ****             break;
 154:modes.c       ****         
 155:modes.c       **** // SYSTEM_STATE = 3 - system in DAB Radio mode
 156:modes.c       **** // System reacts to commands:
 157:modes.c       **** // push button MODE Short = next radio station (DOWN)
 158:modes.c       ****         case(3):
 159:modes.c       **** //  1 = Button: MODE SHORT  
 160:modes.c       ****             if (MODE_SHORT_V == 1)
 161:modes.c       ****             {
 162:modes.c       ****                 UART_UartPutString("-UP+");
 163:modes.c       ****                 CyDelay(100);  
 164:modes.c       ****                 UART_UartPutString("-GO+");
 165:modes.c       ****                 MODE_SHORT_V = 0;
 166:modes.c       ****             }
 167:modes.c       ****             break;
 168:modes.c       **** 
 169:modes.c       **** // SYSTEM_STATE = 4 - system in AuxIn mode    
 170:modes.c       **** // System shuld react only to display changes in this mode  
 171:modes.c       **** // no interaction from MODE button in AuxIN state    
 172:modes.c       ****         case (4):
 173:modes.c       ****             break;
 174:modes.c       ****     
 175:modes.c       ****     
 176:modes.c       **** // SYSTEM_STATE = 5 - Clock
 177:modes.c       **** // System shuld react only to intercepted datalink commands with 
 178:modes.c       **** // FM station numbers. No interaction from MODE button in AuxIN state    
 179:modes.c       ****         case (5):
 180:modes.c       ****             break;
 181:modes.c       ****     
 182:modes.c       **** // SYSTEM_STATE = 6 - system in RDS/FM mode
 183:modes.c       **** // System shuld react only to intercepted datalink commands with 
 184:modes.c       **** // FM station numbers. No interaction from MODE button in AuxIN state    
 185:modes.c       ****         case (6):
 186:modes.c       ****             break;    
 187:modes.c       ****     
 188:modes.c       **** // SYSTEM_STATE = 7 - system in BlueTooth Rx mode
 189:modes.c       ****         case (7):
 190:modes.c       **** // System reacts to push button MODE Short = re-connecting
 191:modes.c       **** //  1 = Button: MODE SHORT  
 192:modes.c       ****             if (MODE_SHORT_V == 1)
 193:modes.c       ****             {
 194:modes.c       **** // BlueTooth start pairing        
 195:modes.c       ****                 BT_control(2, 1); 
 196:modes.c       ****                 MODE_SHORT_V = 0;
 197:modes.c       ****             }
 198:modes.c       ****             break;
 199:modes.c       ****     
 200:modes.c       **** // SYSTEM_STATE = 8 - system in BlueTooth Tx mode
 201:modes.c       ****         case (8):
ARM GAS  C:\Users\Ala\AppData\Local\Temp\ccPRO05X.s 			page 5


 202:modes.c       **** // System reacts to push button MODE Short = re-connecting
 203:modes.c       **** //  1 = Button: MODE SHORT        
 204:modes.c       ****             if (MODE_SHORT_V == 1)
 205:modes.c       ****             {
 206:modes.c       **** // BlueTooth start pairing        
 207:modes.c       ****                 BT_control(1, 1); 
 208:modes.c       ****                 MODE_SHORT_V = 0;
 209:modes.c       ****             }
 210:modes.c       ****             break;      
 211:modes.c       **** 
 212:modes.c       ****         default:
 213:modes.c       **** // DEFAULT STATEMENT        
 214:modes.c       ****             break;
 215:modes.c       **** 
 216:modes.c       **** // clear flag            
 217:modes.c       ****         MODE_SHORT_V = 0;
 218:modes.c       **** // return 1 indicating button press action
 219:modes.c       ****         return 1;
 220:modes.c       ****         }
 221:modes.c       ****     }
 222:modes.c       **** 
 223:modes.c       ****     
 224:modes.c       **** // check if MODE button was pressed for long time 
 225:modes.c       ****     if (MODE_LONG_V == 1)
 226:modes.c       ****     {
 227:modes.c       **** // check if system is not in power down state
 228:modes.c       ****         if (SYSTEM_STATE != 0)
 229:modes.c       ****         {
 230:modes.c       **** // if it is not then move to next display state
 231:modes.c       ****         DISPLAY_STATE = DISPLAY_STATE + 1;
 232:modes.c       ****             if (DISPLAY_STATE >= 7)
 233:modes.c       ****             {
 234:modes.c       ****                 DISPLAY_STATE = 1;
 235:modes.c       ****             }
 236:modes.c       ****         }
 237:modes.c       **** // clear push button variable
 238:modes.c       ****         MODE_LONG_V = 0;
 239:modes.c       **** // return 1 indicating button press action
 240:modes.c       ****         return 1;
 241:modes.c       ****     }
 242:modes.c       **** 
 243:modes.c       **** // return 0 indicating no button press action
 244:modes.c       ****     return 0;
 245:modes.c       **** } 
 246:modes.c       **** 
 247:modes.c       ****     
 248:modes.c       **** 
 249:modes.c       **** 
 250:modes.c       **** /*******************************************************************************
 251:modes.c       **** * Function Name: BT_control()
 252:modes.c       **** ********************************************************************************
 253:modes.c       **** * Summary:
 254:modes.c       **** *  BlueTooth control funciton. Allows set all available bluetooth functions 
 255:modes.c       **** *  as well as it reads back BlueTooth module current status
 256:modes.c       **** *   
 257:modes.c       **** * Parameters:
 258:modes.c       **** *  mode:
ARM GAS  C:\Users\Ala\AppData\Local\Temp\ccPRO05X.s 			page 6


 259:modes.c       **** *    0 = report back status only
 260:modes.c       **** *    1 = switch to Tx
 261:modes.c       **** *    2 = switch to Rx
 262:modes.c       **** *  action:
 263:modes.c       **** *    0 = report back status only
 264:modes.c       **** *    1 = start pairing
 265:modes.c       **** *    2 = re-connect
 266:modes.c       **** *    3 = clear all recorded devices
 267:modes.c       **** *    4 = pause/mute
 268:modes.c       **** *    5 = back (in Rx mode, previus song)
 269:modes.c       **** *    6 = next (in Rx mode, next song)
 270:modes.c       **** *
 271:modes.c       **** * Return:
 272:modes.c       **** *    0 = power down
 273:modes.c       **** *    1 = connected
 274:modes.c       **** *    2 = searching
 275:modes.c       **** *    3 = sleep
 276:modes.c       **** *    4 = SBC
 277:modes.c       **** *    5 = AAC
 278:modes.c       **** *    6 = aptX
 279:modes.c       **** *    7 = aptxHD
 280:modes.c       **** *    8 = aptxLL
 281:modes.c       **** *
 282:modes.c       **** *******************************************************************************/  
 283:modes.c       **** uint8 BT_control(uint8 mode, uint8 action)  
 284:modes.c       **** {
 285:modes.c       ****     uint8 BT_status = 0;
 286:modes.c       ****     uint8 swCounter = 0;
 287:modes.c       ****     uint8 loopCounter = 0;
 288:modes.c       **** // mode == 1 Tx state
 289:modes.c       ****     if (mode == 1)
 290:modes.c       ****     {
 291:modes.c       **** // enable Tx state        
 292:modes.c       ****         BT_Tx_Rx_Write(0);
 293:modes.c       **** //    1 = start pairing - double click pairing button      
 294:modes.c       ****         if (action == 1)
 295:modes.c       ****         {
 296:modes.c       **** // SENT OVER SPI informaiton about BlueTooth Tx Pairing status            
 297:modes.c       **** // new data that needs to be sent over SPI to display module
 298:modes.c       ****             strcpy((char*)new_display_data_buffer, "BT Pairing - name BT-B20");
 299:modes.c       **** // CTRL0.6 - Clear BT Rx indicator 
 300:modes.c       ****             new_disp_ctrl1 = new_disp_ctrl1 & 0xBF;
 301:modes.c       **** // CTRL1.0 - set BT Tx indicator 
 302:modes.c       ****             new_disp_ctrl2 = new_disp_ctrl2 | 0x01;
 303:modes.c       ****             new_display_data_flag = 1;
 304:modes.c       **** // ensure pairing signal is low            
 305:modes.c       ****             BT_RE_CONNECT_Write(0);
 306:modes.c       **** // set pairing signal to high             
 307:modes.c       ****             BT_RE_CONNECT_Write(1);
 308:modes.c       **** // wait 100 ms 
 309:modes.c       ****             CyDelay(100);            
 310:modes.c       **** // set pairing signal to low                   
 311:modes.c       ****             BT_RE_CONNECT_Write(0);
 312:modes.c       **** // wait 100 ms 
 313:modes.c       ****             CyDelay(100);            
 314:modes.c       **** // set pairing signal to high             
 315:modes.c       ****             BT_RE_CONNECT_Write(1);
ARM GAS  C:\Users\Ala\AppData\Local\Temp\ccPRO05X.s 			page 7


 316:modes.c       **** // wait 100 ms 
 317:modes.c       ****             CyDelay(100);            
 318:modes.c       **** // set pairing signal to low                   
 319:modes.c       ****             BT_RE_CONNECT_Write(0);   
 320:modes.c       ****         }
 321:modes.c       **** 
 322:modes.c       **** //    2 = re-connect - single click pairing button
 323:modes.c       ****         if (action == 2)
 324:modes.c       ****         {
 325:modes.c       **** // SENT OVER SPI informaiton about BlueTooth Rx Reconnecting status
 326:modes.c       **** // new data that needs to be sent over SPI to display module
 327:modes.c       ****             strcpy((char*)new_display_data_buffer, "BlueTooth reconnecting  ");
 328:modes.c       **** // CTRL0.6 - Clear BT Rx indicator 
 329:modes.c       ****             new_disp_ctrl1 = new_disp_ctrl1 & 0xBF;
 330:modes.c       **** // CTRL1.0 - set BT Tx indicator 
 331:modes.c       ****             new_disp_ctrl2 = new_disp_ctrl2 | 0x01;
 332:modes.c       ****             new_display_data_flag = 1;
 333:modes.c       **** // ensure pairing signal is low            
 334:modes.c       ****             BT_RE_CONNECT_Write(0);
 335:modes.c       **** // set pairing signal to high             
 336:modes.c       ****             BT_RE_CONNECT_Write(1);
 337:modes.c       **** // wait 100 ms 
 338:modes.c       ****             CyDelay(100);            
 339:modes.c       **** // set pairing signal to low                   
 340:modes.c       ****             BT_RE_CONNECT_Write(0);          
 341:modes.c       ****         }
 342:modes.c       ****         
 343:modes.c       **** //    3 = clear all recorded devices
 344:modes.c       ****         if (action == 3)
 345:modes.c       ****         {
 346:modes.c       **** // SENT OVER SPI informaiton about BlueTooth Tx clearing status
 347:modes.c       **** // new data that needs to be sent over SPI to display module
 348:modes.c       ****             strcpy((char*)new_display_data_buffer, "BlueTooth clearing ...  ");
 349:modes.c       **** // CTRL0.6 - Clear BT Rx indicator 
 350:modes.c       ****             new_disp_ctrl1 = new_disp_ctrl1 & 0xBF;
 351:modes.c       **** // CTRL1.0 - set BT Tx indicator 
 352:modes.c       ****             new_disp_ctrl2 = new_disp_ctrl2 | 0x01;
 353:modes.c       ****             new_display_data_flag = 1;
 354:modes.c       **** // ensure pairing signal is low            
 355:modes.c       ****             BT_RE_CONNECT_Write(0);
 356:modes.c       **** // set pairing signal to high             
 357:modes.c       ****             BT_RE_CONNECT_Write(1);
 358:modes.c       **** // wait 9 seconds 
 359:modes.c       ****             CyDelay(9000);            
 360:modes.c       **** // set pairing signal to low                   
 361:modes.c       ****             BT_RE_CONNECT_Write(0);            
 362:modes.c       ****             
 363:modes.c       ****         }
 364:modes.c       **** //    4 = pause/mute   
 365:modes.c       ****         if (action == 4)
 366:modes.c       ****         {
 367:modes.c       **** // SENT OVER SPI informaiton about BlueTooth Tx mute status
 368:modes.c       **** // new data that needs to be sent over SPI to display module
 369:modes.c       ****             strcpy((char*)new_display_data_buffer, "BlueTooth mute audio    ");
 370:modes.c       **** // CTRL0.6 - Clear BT Rx indicator 
 371:modes.c       ****             new_disp_ctrl1 = new_disp_ctrl1 & 0xBF;
 372:modes.c       **** // CTRL1.0 - set BT Tx indicator 
ARM GAS  C:\Users\Ala\AppData\Local\Temp\ccPRO05X.s 			page 8


 373:modes.c       ****             new_disp_ctrl2 = new_disp_ctrl2 | 0x01;
 374:modes.c       ****             new_display_data_flag = 1;
 375:modes.c       **** // ensure pause signal is low            
 376:modes.c       ****             BT_PAUSE_Write(0);
 377:modes.c       **** // set pause signal to high             
 378:modes.c       ****             BT_PAUSE_Write(1);
 379:modes.c       **** // wait 100 ms 
 380:modes.c       ****             CyDelay(100);            
 381:modes.c       **** // set pause signal to low                   
 382:modes.c       ****             BT_PAUSE_Write(0);               
 383:modes.c       ****         }
 384:modes.c       ****     }
 385:modes.c       ****     
 386:modes.c       ****     
 387:modes.c       **** // mode == 2 Rx state
 388:modes.c       ****     else if (mode == 2)
 389:modes.c       ****     {
 390:modes.c       **** // enable Rx state        
 391:modes.c       ****         BT_Tx_Rx_Write(1);
 392:modes.c       ****  //    1 = start pairing - double click pairing button      
 393:modes.c       ****         if (action == 1)
 394:modes.c       ****         {
 395:modes.c       **** // SENT OVER SPI informaiton about BlueTooth Rx Pairing status
 396:modes.c       **** // new data that needs to be sent over SPI to display module
 397:modes.c       ****             strcpy((char*)new_display_data_buffer, "BT Pairing search BT-B20");
 398:modes.c       ****             new_disp_ctrl1 = 0x40;
 399:modes.c       **** // CTRL1.0 - Clear BT Tx indicator 
 400:modes.c       ****             new_disp_ctrl2 = new_disp_ctrl2 & 0xFE;
 401:modes.c       ****             new_display_data_flag = 1;
 402:modes.c       ****             
 403:modes.c       **** // ensure pairing signal is low            
 404:modes.c       ****             BT_RE_CONNECT_Write(0);
 405:modes.c       **** // set pairing signal to high             
 406:modes.c       ****             BT_RE_CONNECT_Write(1);
 407:modes.c       **** // wait 100 ms 
 408:modes.c       ****             CyDelay(100);            
 409:modes.c       **** // set pairing signal to low                   
 410:modes.c       ****             BT_RE_CONNECT_Write(0);
 411:modes.c       **** // wait 100 ms 
 412:modes.c       ****             CyDelay(100);            
 413:modes.c       **** // set pairing signal to high             
 414:modes.c       ****             BT_RE_CONNECT_Write(1);
 415:modes.c       **** // wait 100 ms 
 416:modes.c       ****             CyDelay(100);            
 417:modes.c       **** // set pairing signal to low                   
 418:modes.c       ****             BT_RE_CONNECT_Write(0);   
 419:modes.c       ****         }
 420:modes.c       **** 
 421:modes.c       **** //    2 = re-connect - single click pairing button
 422:modes.c       ****         if (action == 2)
 423:modes.c       ****         {
 424:modes.c       **** // SENT OVER SPI informaiton about BlueTooth Rx reconnecting status
 425:modes.c       **** // new data that needs to be sent over SPI to display module
 426:modes.c       ****             strcpy((char*)new_display_data_buffer, "BlueTooth reconnecting  ");
 427:modes.c       ****             new_disp_ctrl1 = 0x40;
 428:modes.c       **** // CTRL1.0 - Clear BT Tx indicator 
 429:modes.c       ****             new_disp_ctrl2 = new_disp_ctrl2 & 0xFE;
ARM GAS  C:\Users\Ala\AppData\Local\Temp\ccPRO05X.s 			page 9


 430:modes.c       ****             new_display_data_flag = 1;
 431:modes.c       ****      
 432:modes.c       **** // ensure pairing signal is low            
 433:modes.c       ****             BT_RE_CONNECT_Write(0);
 434:modes.c       **** // set pairing signal to high             
 435:modes.c       ****             BT_RE_CONNECT_Write(1);
 436:modes.c       **** // wait 100 ms 
 437:modes.c       ****             CyDelay(100);            
 438:modes.c       **** // set pairing signal to low                   
 439:modes.c       ****             BT_RE_CONNECT_Write(0);          
 440:modes.c       ****         }
 441:modes.c       ****         
 442:modes.c       **** //    3 = clear all recorded devices
 443:modes.c       ****         if (action == 3)
 444:modes.c       ****         {
 445:modes.c       **** // SENT OVER SPI informaiton about BlueTooth clearing Rx devices
 446:modes.c       **** // new data that needs to be sent over SPI to display module
 447:modes.c       ****             strcpy((char*)new_display_data_buffer, "BlueTooth clearing ...  ");
 448:modes.c       ****             new_disp_ctrl1 = 0x40;
 449:modes.c       **** // CTRL1.0 - Clear BT Tx indicator 
 450:modes.c       ****             new_disp_ctrl2 = new_disp_ctrl2 & 0xFE;
 451:modes.c       ****             new_display_data_flag = 1;       
 452:modes.c       **** // ensure pairing signal is low            
 453:modes.c       ****             BT_RE_CONNECT_Write(0);
 454:modes.c       **** // set pairing signal to high             
 455:modes.c       ****             BT_RE_CONNECT_Write(1);
 456:modes.c       **** // wait 9 seconds 
 457:modes.c       ****             CyDelay(9000);            
 458:modes.c       **** // set pairing signal to low                   
 459:modes.c       ****             BT_RE_CONNECT_Write(0);            
 460:modes.c       ****         }
 461:modes.c       ****         
 462:modes.c       **** //    4 = pause/mute   
 463:modes.c       ****         if (action == 4)
 464:modes.c       ****         {
 465:modes.c       **** // SENT OVER SPI informaiton about BlueTooth Rx pause status
 466:modes.c       **** // new data that needs to be sent over SPI to display module
 467:modes.c       ****             strcpy((char*)new_display_data_buffer, "BlueTooth PAUSE song    ");
 468:modes.c       ****             new_disp_ctrl1 = 0x40;
 469:modes.c       **** // CTRL1.0 - Clear BT Tx indicator 
 470:modes.c       ****             new_disp_ctrl2 = new_disp_ctrl2 & 0xFE;
 471:modes.c       ****             new_display_data_flag = 1;
 472:modes.c       **** // ensure pause signal is low            
 473:modes.c       ****             BT_PAUSE_Write(0);
 474:modes.c       **** // set pause signal to high             
 475:modes.c       ****             BT_PAUSE_Write(1);
 476:modes.c       **** // wait 100 ms 
 477:modes.c       ****             CyDelay(100);            
 478:modes.c       **** // set pause signal to low                   
 479:modes.c       ****             BT_PAUSE_Write(0);               
 480:modes.c       ****         }
 481:modes.c       ****         
 482:modes.c       **** //    5 = back (in Rx mode, previus song)
 483:modes.c       ****         if (action == 5)
 484:modes.c       ****         {
 485:modes.c       **** // SENT OVER SPI informaiton about BlueTooth Rx previus song
 486:modes.c       **** // new data that needs to be sent over SPI to display module
ARM GAS  C:\Users\Ala\AppData\Local\Temp\ccPRO05X.s 			page 10


 487:modes.c       ****             strcpy((char*)new_display_data_buffer, "BlueTooth PREVIUS song  ");
 488:modes.c       ****             new_disp_ctrl1 = 0x40;
 489:modes.c       **** // CTRL1.0 - Clear BT Tx indicator 
 490:modes.c       ****             new_disp_ctrl2 = new_disp_ctrl2 & 0xFE;
 491:modes.c       ****             new_display_data_flag = 1;
 492:modes.c       **** // ensure previus signal is low            
 493:modes.c       ****             BT_PREVIOUS_Write(0);
 494:modes.c       **** // set previus signal to high             
 495:modes.c       ****             BT_PREVIOUS_Write(1);
 496:modes.c       **** // wait 100 ms 
 497:modes.c       ****             CyDelay(100);            
 498:modes.c       **** // set previous signal to low                   
 499:modes.c       ****             BT_PREVIOUS_Write(0);               
 500:modes.c       ****         }
 501:modes.c       ****         
 502:modes.c       **** //    6 = next (in Rx mode, next song)
 503:modes.c       ****         if (action == 6)
 504:modes.c       ****         {
 505:modes.c       **** // SENT OVER SPI informaiton about BlueTooth Rx next song
 506:modes.c       **** // new data that needs to be sent over SPI to display module
 507:modes.c       ****             strcpy((char*)new_display_data_buffer, "BlueTooth NEXT song     ");
 508:modes.c       ****             new_disp_ctrl1 = 0x40;
 509:modes.c       **** // CTRL1.0 - Clear BT Tx indicator 
 510:modes.c       ****             new_disp_ctrl2 = new_disp_ctrl2 & 0xFE;
 511:modes.c       ****             new_display_data_flag = 1; 
 512:modes.c       **** // ensure next signal is low            
 513:modes.c       ****             BT_NEXT_Write(0);
 514:modes.c       **** // set next signal to high             
 515:modes.c       ****             BT_NEXT_Write(1);
 516:modes.c       **** // wait 100 ms 
 517:modes.c       ****             CyDelay(100);            
 518:modes.c       **** // set next signal to low                   
 519:modes.c       ****             BT_NEXT_Write(0);               
 520:modes.c       ****         }
 521:modes.c       ****     }
 522:modes.c       ****     
 523:modes.c       **** // mode == 0 (or any other) report state only
 524:modes.c       ****     else
 525:modes.c       ****     {
 526:modes.c       ****  // read back current PSU state    
 527:modes.c       ****         current_PSUstate = psu_config(2, current_PSUstate);    
 528:modes.c       ****  // check if BT module is powered up
 529:modes.c       ****         if (current_PSUstate.BlueTooth_PWR == 0)
 530:modes.c       ****         {
 531:modes.c       **** // if it is not return power down status            
 532:modes.c       ****             BT_status = 0;
 533:modes.c       ****         }
 534:modes.c       **** // if it is powered up, check its current state        
 535:modes.c       ****         else
 536:modes.c       ****             {
 537:modes.c       **** // check if BT statuts = SBC codec
 538:modes.c       ****                 if (BT_SBC_Read())
 539:modes.c       ****                 {
 540:modes.c       ****                     BT_status = 4;   
 541:modes.c       **** // SENT OVER SPI informaiton about BlueTooth codec info
 542:modes.c       **** // new data that needs to be sent over SPI to display module
 543:modes.c       ****                     strcpy((char*)new_display_data_buffer, "BlueTooth SBC codec     ");
ARM GAS  C:\Users\Ala\AppData\Local\Temp\ccPRO05X.s 			page 11


 544:modes.c       ****                     new_display_data_flag = 1; 
 545:modes.c       ****                 }
 546:modes.c       **** // check if BT status = AAC codec - reading back state of the pin directly
 547:modes.c       ****                 if (CY_SYS_PINS_READ_PIN(CYREG_PRT4_PS,3) == 1)
 548:modes.c       ****                 {
 549:modes.c       ****                     BT_status = 5;    
 550:modes.c       **** // SENT OVER SPI informaiton about BlueTooth codec info
 551:modes.c       **** // new data that needs to be sent over SPI to display module
 552:modes.c       ****                     strcpy((char*)new_display_data_buffer, "BlueTooth AAC codec     ");
 553:modes.c       ****                     new_display_data_flag = 1; 
 554:modes.c       ****                 }
 555:modes.c       **** // check if BT statuts = APTx codec
 556:modes.c       ****                 if (BT_APTX_Read())
 557:modes.c       ****                 {
 558:modes.c       ****                     BT_status = 6;    
 559:modes.c       **** // SENT OVER SPI informaiton about BlueTooth codec info
 560:modes.c       **** // new data that needs to be sent over SPI to display module
 561:modes.c       ****                     strcpy((char*)new_display_data_buffer, "BlueTooth aptX codec    ");
 562:modes.c       ****                     new_display_data_flag = 1; 
 563:modes.c       ****                 }                
 564:modes.c       **** // check if BT statuts = APTx HD codec
 565:modes.c       ****                 if (BT_HD_Read())
 566:modes.c       ****                 {
 567:modes.c       ****                     BT_status = 7;    
 568:modes.c       **** // SENT OVER SPI informaiton about BlueTooth codec info
 569:modes.c       **** // new data that needs to be sent over SPI to display module
 570:modes.c       ****                     strcpy((char*)new_display_data_buffer, "BlueTooth aptX HD codec ");
 571:modes.c       ****                     new_display_data_flag = 1; 
 572:modes.c       ****                 }                
 573:modes.c       **** // check if BT statuts = APTx LL codec
 574:modes.c       ****                 if (BT_LL_Read())
 575:modes.c       ****                 {
 576:modes.c       ****                     BT_status = 8;    
 577:modes.c       **** // SENT OVER SPI informaiton about BlueTooth codec info
 578:modes.c       **** // new data that needs to be sent over SPI to display module
 579:modes.c       ****                     strcpy((char*)new_display_data_buffer, "BlueTooth aptX LL codec ");
 580:modes.c       ****                     new_display_data_flag = 1; 
 581:modes.c       **** 
 582:modes.c       ****                 }   
 583:modes.c       **** // check if any BT connection is established (by checking codec status)
 584:modes.c       ****                 if (BT_status < 4)
 585:modes.c       ****                 {
 586:modes.c       **** // if not established check state of BT link
 587:modes.c       **** // BT_PAIRING - ON all the time - link established
 588:modes.c       **** // BT_PAIRING - ON and OFF every 300..500mS  - searching for device
 589:modes.c       **** // BT_PAIRING - ON for 300..500mS every 2 seconds - sleep state
 590:modes.c       **** // read back pin state for 1 second and calculate nubmer of 1 states                    
 591:modes.c       ****                     for (loopCounter = 0; loopCounter < 150; ++loopCounter)
 592:modes.c       ****                     {
 593:modes.c       **** // read back pairing state pin                    
 594:modes.c       ****                         if (!(BT_PAIRING_Read()))
 595:modes.c       ****                         {
 596:modes.c       **** // increase swCounter when 1                        
 597:modes.c       ****                             swCounter++;
 598:modes.c       ****                         }
 599:modes.c       **** // Provide a 10 ms delay to make the counter approximately periodic every 10 ms 
 600:modes.c       ****                         CyDelay(10);
ARM GAS  C:\Users\Ala\AppData\Local\Temp\ccPRO05X.s 			page 12


 601:modes.c       ****                     }
 602:modes.c       **** // if all redbacks of pin state are 1                    
 603:modes.c       ****                     if(swCounter >= 149)
 604:modes.c       ****                     {
 605:modes.c       **** // BT is connected                        
 606:modes.c       ****                         BT_status = 1;
 607:modes.c       **** // SENT OVER SPI informaiton about BlueTooth status
 608:modes.c       **** // new data that needs to be sent over SPI to display module
 609:modes.c       ****                         strcpy((char*)new_display_data_buffer, "BlueTooth connected     ");
 610:modes.c       ****                         new_display_data_flag = 1; 
 611:modes.c       **** 
 612:modes.c       **** // REPLACE with SPI transfer 
 613:modes.c       **** 
 614:modes.c       ****                     }
 615:modes.c       **** // if more than 50% and less than a 100%   
 616:modes.c       ****                     else if ((swCounter < 149) & (swCounter > 50))
 617:modes.c       ****                     {
 618:modes.c       **** // BT is searching                 
 619:modes.c       ****                         BT_status = 2;
 620:modes.c       **** // SENT OVER SPI informaiton about BlueTooth status
 621:modes.c       **** // new data that needs to be sent over SPI to display module
 622:modes.c       ****                         strcpy((char*)new_display_data_buffer, "BlueTooth searching ... ");
 623:modes.c       ****                         new_display_data_flag = 1; 
 624:modes.c       ****                     }                 
 625:modes.c       **** // if less than 30% 
 626:modes.c       ****                     else
 627:modes.c       ****                         {
 628:modes.c       **** // BT in sleep state                               
 629:modes.c       ****                             BT_status = 3;
 630:modes.c       **** // SENT OVER SPI informaiton about BlueTooth status
 631:modes.c       **** // new data that needs to be sent over SPI to display module
 632:modes.c       ****                         strcpy((char*)new_display_data_buffer, "BlueTooth in sleep state");
 633:modes.c       ****                         new_display_data_flag = 1; 
 634:modes.c       **** 
 635:modes.c       ****                         }
 636:modes.c       **** // clear counter                        
 637:modes.c       ****                     swCounter = 0;
 638:modes.c       ****                 }
 639:modes.c       ****             }
 640:modes.c       ****     }
 641:modes.c       ****     return BT_status;
 642:modes.c       **** }
 643:modes.c       **** 
 644:modes.c       **** 
 645:modes.c       **** 
 646:modes.c       **** 
 647:modes.c       **** /*******************************************************************************
 648:modes.c       **** * Function Name: psu_config()
 649:modes.c       **** ********************************************************************************
 650:modes.c       **** * Summary:
 651:modes.c       **** *  Power supply control funciton that enables/disables differnt BeoModern blocks
 652:modes.c       **** *  and reports back their current state.
 653:modes.c       **** *  It controls power supplies to:
 654:modes.c       **** *  - Raspberry Pi
 655:modes.c       **** *     - it reads back and reports state of RPi GPIO indicatign its state ON/OFF
 656:modes.c       **** *  - SigmaDSP EVB
 657:modes.c       **** *  - BlueTooth module
ARM GAS  C:\Users\Ala\AppData\Local\Temp\ccPRO05X.s 			page 13


 658:modes.c       **** *  - Display module
 659:modes.c       **** *   
 660:modes.c       **** * Parameters:
 661:modes.c       **** *  switch - if 1, PSU states to be set, if other than 1 return current state
 662:modes.c       **** *  structure with expected stated of controlled blocks 
 663:modes.c       **** *
 664:modes.c       **** * Return:
 665:modes.c       **** *  structure with current states of controlled blocks 
 666:modes.c       **** *
 667:modes.c       **** *******************************************************************************/  
 668:modes.c       **** psuState psu_config(uint8 action, psuState new_PSUstate)  
 669:modes.c       **** {
  28              		.loc 1 669 0
  29              		.cfi_startproc
  30              		@ args = 0, pretend = 0, frame = 8
  31              		@ frame_needed = 0, uses_anonymous_args = 0
  32              	.LVL0:
  33 0000 F7B5     		push	{r0, r1, r2, r4, r5, r6, r7, lr}
  34              		.cfi_def_cfa_offset 32
  35              		.cfi_offset 0, -32
  36              		.cfi_offset 1, -28
  37              		.cfi_offset 2, -24
  38              		.cfi_offset 4, -20
  39              		.cfi_offset 5, -16
  40              		.cfi_offset 6, -12
  41              		.cfi_offset 7, -8
  42              		.cfi_offset 14, -4
  43              	.LVL1:
  44              		.loc 1 669 0
  45 0002 0400     		movs	r4, r0
  46 0004 0092     		str	r2, [sp]
  47              	.LVL2:
  48 0006 0193     		str	r3, [sp, #4]
  49              	.LVL3:
 670:modes.c       **** // action == 1 indicates setting PSU
 671:modes.c       ****     if (action == 1)
  50              		.loc 1 671 0
  51 0008 0129     		cmp	r1, #1
  52 000a 0FD1     		bne	.L2
  53 000c 6B46     		mov	r3, sp
  54 000e DF78     		ldrb	r7, [r3, #3]
  55 0010 9E78     		ldrb	r6, [r3, #2]
 672:modes.c       ****     {
 673:modes.c       **** // enabling (1) or disabling (0) power supply for display module
 674:modes.c       ****         PWR_DISP_Write (new_PSUstate.Display_PWR); 
  56              		.loc 1 674 0
  57 0012 1879     		ldrb	r0, [r3, #4]
  58              	.LVL4:
  59 0014 1D78     		ldrb	r5, [r3]
  60 0016 FFF7FEFF 		bl	PWR_DISP_Write
  61              	.LVL5:
 675:modes.c       **** // enabling (1) or disabling (0) power supply for bluetooth module
 676:modes.c       ****         PWR_BT_Write (new_PSUstate.BlueTooth_PWR); 
  62              		.loc 1 676 0
  63 001a 3800     		movs	r0, r7
  64 001c FFF7FEFF 		bl	PWR_BT_Write
  65              	.LVL6:
ARM GAS  C:\Users\Ala\AppData\Local\Temp\ccPRO05X.s 			page 14


 677:modes.c       **** // enabling (1) or disabling (0) power supply for SigmaDSP EVB
 678:modes.c       ****         PWR_SDSP_Write (new_PSUstate.SigmaDSP_PWR);
  66              		.loc 1 678 0
  67 0020 3000     		movs	r0, r6
  68 0022 FFF7FEFF 		bl	PWR_SDSP_Write
  69              	.LVL7:
 679:modes.c       **** // enabling (1) or disabling (0) power supply for Raspberry Pi 
 680:modes.c       ****         PWR_RPI_Write (new_PSUstate.RPI_PWR);
  70              		.loc 1 680 0
  71 0026 2800     		movs	r0, r5
  72 0028 FFF7FEFF 		bl	PWR_RPI_Write
  73              	.LVL8:
  74              	.L2:
 681:modes.c       ****     }
 682:modes.c       **** // reading back state of display enable/disable pin
 683:modes.c       ****     new_PSUstate.Display_PWR = PWR_DISP_ReadDataReg();
  75              		.loc 1 683 0
  76 002c FFF7FEFF 		bl	PWR_DISP_ReadDataReg
  77              	.LVL9:
  78 0030 0500     		movs	r5, r0
  79              	.LVL10:
 684:modes.c       **** // reading back state of BlueTooth enable/disable pin
 685:modes.c       ****     new_PSUstate.BlueTooth_PWR = PWR_BT_ReadDataReg(); 
  80              		.loc 1 685 0
  81 0032 FFF7FEFF 		bl	PWR_BT_ReadDataReg
  82              	.LVL11:
  83 0036 0600     		movs	r6, r0
  84              	.LVL12:
 686:modes.c       **** // reading back state of SigmaDSP enable/disable pin
 687:modes.c       ****     new_PSUstate.SigmaDSP_PWR = PWR_SDSP_ReadDataReg();
  85              		.loc 1 687 0
  86 0038 FFF7FEFF 		bl	PWR_SDSP_ReadDataReg
  87              	.LVL13:
  88 003c 0700     		movs	r7, r0
  89              	.LVL14:
 688:modes.c       **** // reading back state of Raspberry Pi enable/disable pin
 689:modes.c       ****     new_PSUstate.RPI_PWR = PWR_RPI_ReadDataReg();
  90              		.loc 1 689 0
  91 003e FFF7FEFF 		bl	PWR_RPI_ReadDataReg
  92              	.LVL15:
 690:modes.c       **** // reading back status pin that indicates Raspberry Pi state (1 = ON, 0 = OFF)
 691:modes.c       ****     new_PSUstate.RPi_GPIO_state = CY_SYS_PINS_READ_PIN(CYREG_PRT4_PS,2);
  93              		.loc 1 691 0
  94 0042 054B     		ldr	r3, .L4
 692:modes.c       **** // returning current state of PSU controls
 693:modes.c       ****     return new_PSUstate;
 694:modes.c       **** }
  95              		.loc 1 694 0
  96              		@ sp needed
 691:modes.c       **** // returning current state of PSU controls
  97              		.loc 1 691 0
  98 0044 1B68     		ldr	r3, [r3]
  99              	.LVL16:
 693:modes.c       **** }
 100              		.loc 1 693 0
 101 0046 2070     		strb	r0, [r4]
 102 0048 5B07     		lsls	r3, r3, #29
ARM GAS  C:\Users\Ala\AppData\Local\Temp\ccPRO05X.s 			page 15


 103              	.LVL17:
 104 004a DB0F     		lsrs	r3, r3, #31
 105 004c A770     		strb	r7, [r4, #2]
 106 004e E670     		strb	r6, [r4, #3]
 107 0050 2571     		strb	r5, [r4, #4]
 108              		.loc 1 694 0
 109 0052 2000     		movs	r0, r4
 110              	.LVL18:
 693:modes.c       **** }
 111              		.loc 1 693 0
 112 0054 6370     		strb	r3, [r4, #1]
 113              	.LVL19:
 114              	.LVL20:
 115              	.LVL21:
 116              	.LVL22:
 117              		.loc 1 694 0
 118 0056 FEBD     		pop	{r1, r2, r3, r4, r5, r6, r7, pc}
 119              	.L5:
 120              		.align	2
 121              	.L4:
 122 0058 04040440 		.word	1074004996
 123              		.cfi_endproc
 124              	.LFE34:
 125              		.size	psu_config, .-psu_config
 126              		.section	.text.BT_control,"ax",%progbits
 127              		.align	1
 128              		.global	BT_control
 129              		.code	16
 130              		.thumb_func
 131              		.type	BT_control, %function
 132              	BT_control:
 133              	.LFB33:
 284:modes.c       ****     uint8 BT_status = 0;
 134              		.loc 1 284 0
 135              		.cfi_startproc
 136              		@ args = 0, pretend = 0, frame = 8
 137              		@ frame_needed = 0, uses_anonymous_args = 0
 138              	.LVL23:
 139 0000 37B5     		push	{r0, r1, r2, r4, r5, lr}
 140              		.cfi_def_cfa_offset 24
 141              		.cfi_offset 0, -24
 142              		.cfi_offset 1, -20
 143              		.cfi_offset 2, -16
 144              		.cfi_offset 4, -12
 145              		.cfi_offset 5, -8
 146              		.cfi_offset 14, -4
 284:modes.c       ****     uint8 BT_status = 0;
 147              		.loc 1 284 0
 148 0002 0500     		movs	r5, r0
 149 0004 0C00     		movs	r4, r1
 289:modes.c       ****     {
 150              		.loc 1 289 0
 151 0006 0128     		cmp	r0, #1
 152 0008 55D1     		bne	.L7
 292:modes.c       **** //    1 = start pairing - double click pairing button      
 153              		.loc 1 292 0
 154 000a 0020     		movs	r0, #0
ARM GAS  C:\Users\Ala\AppData\Local\Temp\ccPRO05X.s 			page 16


 155              	.LVL24:
 156 000c FFF7FEFF 		bl	BT_Tx_Rx_Write
 157              	.LVL25:
 294:modes.c       ****         {
 158              		.loc 1 294 0
 159 0010 012C     		cmp	r4, #1
 160 0012 0BD1     		bne	.L8
 298:modes.c       **** // CTRL0.6 - Clear BT Rx indicator 
 161              		.loc 1 298 0
 162 0014 BA49     		ldr	r1, .L52
 163 0016 BB48     		ldr	r0, .L52+4
 164 0018 FFF7FEFF 		bl	strcpy
 165              	.LVL26:
 300:modes.c       **** // CTRL1.0 - set BT Tx indicator 
 166              		.loc 1 300 0
 167 001c 4021     		movs	r1, #64
 168 001e BA4B     		ldr	r3, .L52+8
 169 0020 1A78     		ldrb	r2, [r3]
 170 0022 8A43     		bics	r2, r1
 171 0024 1A70     		strb	r2, [r3]
 302:modes.c       ****             new_display_data_flag = 1;
 172              		.loc 1 302 0
 173 0026 5A78     		ldrb	r2, [r3, #1]
 174 0028 2243     		orrs	r2, r4
 175 002a 55E0     		b	.L46
 176              	.L8:
 323:modes.c       ****         {
 177              		.loc 1 323 0
 178 002c 022C     		cmp	r4, #2
 179 002e 11D1     		bne	.L10
 327:modes.c       **** // CTRL0.6 - Clear BT Rx indicator 
 180              		.loc 1 327 0
 181 0030 B649     		ldr	r1, .L52+12
 182 0032 B448     		ldr	r0, .L52+4
 183 0034 FFF7FEFF 		bl	strcpy
 184              	.LVL27:
 329:modes.c       **** // CTRL1.0 - set BT Tx indicator 
 185              		.loc 1 329 0
 186 0038 4021     		movs	r1, #64
 187 003a B34B     		ldr	r3, .L52+8
 334:modes.c       **** // set pairing signal to high             
 188              		.loc 1 334 0
 189 003c 0020     		movs	r0, #0
 329:modes.c       **** // CTRL1.0 - set BT Tx indicator 
 190              		.loc 1 329 0
 191 003e 1A78     		ldrb	r2, [r3]
 332:modes.c       **** // ensure pairing signal is low            
 192              		.loc 1 332 0
 193 0040 9D70     		strb	r5, [r3, #2]
 329:modes.c       **** // CTRL1.0 - set BT Tx indicator 
 194              		.loc 1 329 0
 195 0042 8A43     		bics	r2, r1
 196 0044 1A70     		strb	r2, [r3]
 331:modes.c       ****             new_display_data_flag = 1;
 197              		.loc 1 331 0
 198 0046 5A78     		ldrb	r2, [r3, #1]
 199 0048 2A43     		orrs	r2, r5
ARM GAS  C:\Users\Ala\AppData\Local\Temp\ccPRO05X.s 			page 17


 200 004a 5A70     		strb	r2, [r3, #1]
 334:modes.c       **** // set pairing signal to high             
 201              		.loc 1 334 0
 202 004c FFF7FEFF 		bl	BT_RE_CONNECT_Write
 203              	.LVL28:
 336:modes.c       **** // wait 100 ms 
 204              		.loc 1 336 0
 205 0050 2800     		movs	r0, r5
 206 0052 65E0     		b	.L50
 207              	.L10:
 344:modes.c       ****         {
 208              		.loc 1 344 0
 209 0054 032C     		cmp	r4, #3
 210 0056 19D1     		bne	.L12
 348:modes.c       **** // CTRL0.6 - Clear BT Rx indicator 
 211              		.loc 1 348 0
 212 0058 AD49     		ldr	r1, .L52+16
 213 005a AA48     		ldr	r0, .L52+4
 214 005c FFF7FEFF 		bl	strcpy
 215              	.LVL29:
 350:modes.c       **** // CTRL1.0 - set BT Tx indicator 
 216              		.loc 1 350 0
 217 0060 4021     		movs	r1, #64
 218 0062 A94B     		ldr	r3, .L52+8
 355:modes.c       **** // set pairing signal to high             
 219              		.loc 1 355 0
 220 0064 0020     		movs	r0, #0
 350:modes.c       **** // CTRL1.0 - set BT Tx indicator 
 221              		.loc 1 350 0
 222 0066 1A78     		ldrb	r2, [r3]
 353:modes.c       **** // ensure pairing signal is low            
 223              		.loc 1 353 0
 224 0068 9D70     		strb	r5, [r3, #2]
 350:modes.c       **** // CTRL1.0 - set BT Tx indicator 
 225              		.loc 1 350 0
 226 006a 8A43     		bics	r2, r1
 227 006c 1A70     		strb	r2, [r3]
 352:modes.c       ****             new_display_data_flag = 1;
 228              		.loc 1 352 0
 229 006e 5A78     		ldrb	r2, [r3, #1]
 230 0070 2A43     		orrs	r2, r5
 231 0072 5A70     		strb	r2, [r3, #1]
 355:modes.c       **** // set pairing signal to high             
 232              		.loc 1 355 0
 233 0074 FFF7FEFF 		bl	BT_RE_CONNECT_Write
 234              	.LVL30:
 357:modes.c       **** // wait 9 seconds 
 235              		.loc 1 357 0
 236 0078 2800     		movs	r0, r5
 237              	.L51:
 238 007a FFF7FEFF 		bl	BT_RE_CONNECT_Write
 239              	.LVL31:
 359:modes.c       **** // set pairing signal to low                   
 240              		.loc 1 359 0
 241 007e A548     		ldr	r0, .L52+20
 242              	.L48:
 243 0080 FFF7FEFF 		bl	CyDelay
ARM GAS  C:\Users\Ala\AppData\Local\Temp\ccPRO05X.s 			page 18


 244              	.LVL32:
 361:modes.c       ****             
 245              		.loc 1 361 0
 246 0084 0020     		movs	r0, #0
 247 0086 FFF7FEFF 		bl	BT_RE_CONNECT_Write
 248              	.LVL33:
 249 008a 95E0     		b	.L47
 250              	.L12:
 365:modes.c       ****         {
 251              		.loc 1 365 0
 252 008c 042C     		cmp	r4, #4
 253 008e 00D0     		beq	.LCB203
 254 0090 92E0     		b	.L47	@long jump
 255              	.LCB203:
 369:modes.c       **** // CTRL0.6 - Clear BT Rx indicator 
 256              		.loc 1 369 0
 257 0092 A149     		ldr	r1, .L52+24
 258 0094 9B48     		ldr	r0, .L52+4
 259 0096 FFF7FEFF 		bl	strcpy
 260              	.LVL34:
 371:modes.c       **** // CTRL1.0 - set BT Tx indicator 
 261              		.loc 1 371 0
 262 009a 4021     		movs	r1, #64
 263 009c 9A4B     		ldr	r3, .L52+8
 376:modes.c       **** // set pause signal to high             
 264              		.loc 1 376 0
 265 009e 0020     		movs	r0, #0
 371:modes.c       **** // CTRL1.0 - set BT Tx indicator 
 266              		.loc 1 371 0
 267 00a0 1A78     		ldrb	r2, [r3]
 374:modes.c       **** // ensure pause signal is low            
 268              		.loc 1 374 0
 269 00a2 9D70     		strb	r5, [r3, #2]
 371:modes.c       **** // CTRL1.0 - set BT Tx indicator 
 270              		.loc 1 371 0
 271 00a4 8A43     		bics	r2, r1
 272 00a6 1A70     		strb	r2, [r3]
 373:modes.c       ****             new_display_data_flag = 1;
 273              		.loc 1 373 0
 274 00a8 5A78     		ldrb	r2, [r3, #1]
 275 00aa 2A43     		orrs	r2, r5
 276 00ac 5A70     		strb	r2, [r3, #1]
 376:modes.c       **** // set pause signal to high             
 277              		.loc 1 376 0
 278 00ae FFF7FEFF 		bl	BT_PAUSE_Write
 279              	.LVL35:
 378:modes.c       **** // wait 100 ms 
 280              		.loc 1 378 0
 281 00b2 2800     		movs	r0, r5
 282 00b4 5DE0     		b	.L49
 283              	.LVL36:
 284              	.L7:
 388:modes.c       ****     {
 285              		.loc 1 388 0
 286 00b6 0228     		cmp	r0, #2
 287 00b8 00D0     		beq	.LCB228
 288 00ba 9AE0     		b	.L14	@long jump
ARM GAS  C:\Users\Ala\AppData\Local\Temp\ccPRO05X.s 			page 19


 289              	.LCB228:
 391:modes.c       ****  //    1 = start pairing - double click pairing button      
 290              		.loc 1 391 0
 291 00bc 0120     		movs	r0, #1
 292              	.LVL37:
 293 00be FFF7FEFF 		bl	BT_Tx_Rx_Write
 294              	.LVL38:
 393:modes.c       ****         {
 295              		.loc 1 393 0
 296 00c2 012C     		cmp	r4, #1
 297 00c4 1AD1     		bne	.L15
 397:modes.c       ****             new_disp_ctrl1 = 0x40;
 298              		.loc 1 397 0
 299 00c6 9549     		ldr	r1, .L52+28
 300 00c8 8E48     		ldr	r0, .L52+4
 301 00ca FFF7FEFF 		bl	strcpy
 302              	.LVL39:
 398:modes.c       **** // CTRL1.0 - Clear BT Tx indicator 
 303              		.loc 1 398 0
 304 00ce 4022     		movs	r2, #64
 305 00d0 8D4B     		ldr	r3, .L52+8
 306 00d2 1A70     		strb	r2, [r3]
 400:modes.c       ****             new_display_data_flag = 1;
 307              		.loc 1 400 0
 308 00d4 5A78     		ldrb	r2, [r3, #1]
 309 00d6 A243     		bics	r2, r4
 310              	.L46:
 404:modes.c       **** // set pairing signal to high             
 311              		.loc 1 404 0
 312 00d8 0020     		movs	r0, #0
 400:modes.c       ****             new_display_data_flag = 1;
 313              		.loc 1 400 0
 314 00da 5A70     		strb	r2, [r3, #1]
 401:modes.c       ****             
 315              		.loc 1 401 0
 316 00dc 9C70     		strb	r4, [r3, #2]
 404:modes.c       **** // set pairing signal to high             
 317              		.loc 1 404 0
 318 00de FFF7FEFF 		bl	BT_RE_CONNECT_Write
 319              	.LVL40:
 406:modes.c       **** // wait 100 ms 
 320              		.loc 1 406 0
 321 00e2 2000     		movs	r0, r4
 322 00e4 FFF7FEFF 		bl	BT_RE_CONNECT_Write
 323              	.LVL41:
 408:modes.c       **** // set pairing signal to low                   
 324              		.loc 1 408 0
 325 00e8 6420     		movs	r0, #100
 326 00ea FFF7FEFF 		bl	CyDelay
 327              	.LVL42:
 410:modes.c       **** // wait 100 ms 
 328              		.loc 1 410 0
 329 00ee 0020     		movs	r0, #0
 330 00f0 FFF7FEFF 		bl	BT_RE_CONNECT_Write
 331              	.LVL43:
 412:modes.c       **** // set pairing signal to high             
 332              		.loc 1 412 0
ARM GAS  C:\Users\Ala\AppData\Local\Temp\ccPRO05X.s 			page 20


 333 00f4 6420     		movs	r0, #100
 334 00f6 FFF7FEFF 		bl	CyDelay
 335              	.LVL44:
 336 00fa 10E0     		b	.L44
 337              	.L15:
 422:modes.c       ****         {
 338              		.loc 1 422 0
 339 00fc 022C     		cmp	r4, #2
 340 00fe 13D1     		bne	.L17
 426:modes.c       ****             new_disp_ctrl1 = 0x40;
 341              		.loc 1 426 0
 342 0100 8249     		ldr	r1, .L52+12
 343 0102 8048     		ldr	r0, .L52+4
 344 0104 FFF7FEFF 		bl	strcpy
 345              	.LVL45:
 427:modes.c       **** // CTRL1.0 - Clear BT Tx indicator 
 346              		.loc 1 427 0
 347 0108 4022     		movs	r2, #64
 348 010a 7F4B     		ldr	r3, .L52+8
 429:modes.c       ****             new_display_data_flag = 1;
 349              		.loc 1 429 0
 350 010c 013C     		subs	r4, r4, #1
 427:modes.c       **** // CTRL1.0 - Clear BT Tx indicator 
 351              		.loc 1 427 0
 352 010e 1A70     		strb	r2, [r3]
 429:modes.c       ****             new_display_data_flag = 1;
 353              		.loc 1 429 0
 354 0110 5A78     		ldrb	r2, [r3, #1]
 433:modes.c       **** // set pairing signal to high             
 355              		.loc 1 433 0
 356 0112 0020     		movs	r0, #0
 429:modes.c       ****             new_display_data_flag = 1;
 357              		.loc 1 429 0
 358 0114 A243     		bics	r2, r4
 359 0116 5A70     		strb	r2, [r3, #1]
 430:modes.c       ****      
 360              		.loc 1 430 0
 361 0118 9C70     		strb	r4, [r3, #2]
 433:modes.c       **** // set pairing signal to high             
 362              		.loc 1 433 0
 363 011a FFF7FEFF 		bl	BT_RE_CONNECT_Write
 364              	.LVL46:
 365              	.L44:
 435:modes.c       **** // wait 100 ms 
 366              		.loc 1 435 0
 367 011e 2000     		movs	r0, r4
 368              	.L50:
 369 0120 FFF7FEFF 		bl	BT_RE_CONNECT_Write
 370              	.LVL47:
 437:modes.c       **** // set pairing signal to low                   
 371              		.loc 1 437 0
 372 0124 6420     		movs	r0, #100
 373 0126 ABE7     		b	.L48
 374              	.L17:
 443:modes.c       ****         {
 375              		.loc 1 443 0
 376 0128 032C     		cmp	r4, #3
ARM GAS  C:\Users\Ala\AppData\Local\Temp\ccPRO05X.s 			page 21


 377 012a 10D1     		bne	.L18
 447:modes.c       ****             new_disp_ctrl1 = 0x40;
 378              		.loc 1 447 0
 379 012c 7849     		ldr	r1, .L52+16
 380 012e 7548     		ldr	r0, .L52+4
 381 0130 FFF7FEFF 		bl	strcpy
 382              	.LVL48:
 448:modes.c       **** // CTRL1.0 - Clear BT Tx indicator 
 383              		.loc 1 448 0
 384 0134 4022     		movs	r2, #64
 385 0136 744B     		ldr	r3, .L52+8
 450:modes.c       ****             new_display_data_flag = 1;       
 386              		.loc 1 450 0
 387 0138 023C     		subs	r4, r4, #2
 448:modes.c       **** // CTRL1.0 - Clear BT Tx indicator 
 388              		.loc 1 448 0
 389 013a 1A70     		strb	r2, [r3]
 450:modes.c       ****             new_display_data_flag = 1;       
 390              		.loc 1 450 0
 391 013c 5A78     		ldrb	r2, [r3, #1]
 453:modes.c       **** // set pairing signal to high             
 392              		.loc 1 453 0
 393 013e 0020     		movs	r0, #0
 450:modes.c       ****             new_display_data_flag = 1;       
 394              		.loc 1 450 0
 395 0140 A243     		bics	r2, r4
 396 0142 5A70     		strb	r2, [r3, #1]
 451:modes.c       **** // ensure pairing signal is low            
 397              		.loc 1 451 0
 398 0144 9C70     		strb	r4, [r3, #2]
 453:modes.c       **** // set pairing signal to high             
 399              		.loc 1 453 0
 400 0146 FFF7FEFF 		bl	BT_RE_CONNECT_Write
 401              	.LVL49:
 455:modes.c       **** // wait 9 seconds 
 402              		.loc 1 455 0
 403 014a 2000     		movs	r0, r4
 404 014c 95E7     		b	.L51
 405              	.L18:
 463:modes.c       ****         {
 406              		.loc 1 463 0
 407 014e 042C     		cmp	r4, #4
 408 0150 18D1     		bne	.L19
 467:modes.c       ****             new_disp_ctrl1 = 0x40;
 409              		.loc 1 467 0
 410 0152 7349     		ldr	r1, .L52+32
 411 0154 6B48     		ldr	r0, .L52+4
 412 0156 FFF7FEFF 		bl	strcpy
 413              	.LVL50:
 468:modes.c       **** // CTRL1.0 - Clear BT Tx indicator 
 414              		.loc 1 468 0
 415 015a 4022     		movs	r2, #64
 416 015c 6A4B     		ldr	r3, .L52+8
 470:modes.c       ****             new_display_data_flag = 1;
 417              		.loc 1 470 0
 418 015e 033C     		subs	r4, r4, #3
 468:modes.c       **** // CTRL1.0 - Clear BT Tx indicator 
ARM GAS  C:\Users\Ala\AppData\Local\Temp\ccPRO05X.s 			page 22


 419              		.loc 1 468 0
 420 0160 1A70     		strb	r2, [r3]
 470:modes.c       ****             new_display_data_flag = 1;
 421              		.loc 1 470 0
 422 0162 5A78     		ldrb	r2, [r3, #1]
 473:modes.c       **** // set pause signal to high             
 423              		.loc 1 473 0
 424 0164 0020     		movs	r0, #0
 470:modes.c       ****             new_display_data_flag = 1;
 425              		.loc 1 470 0
 426 0166 A243     		bics	r2, r4
 427 0168 5A70     		strb	r2, [r3, #1]
 471:modes.c       **** // ensure pause signal is low            
 428              		.loc 1 471 0
 429 016a 9C70     		strb	r4, [r3, #2]
 473:modes.c       **** // set pause signal to high             
 430              		.loc 1 473 0
 431 016c FFF7FEFF 		bl	BT_PAUSE_Write
 432              	.LVL51:
 475:modes.c       **** // wait 100 ms 
 433              		.loc 1 475 0
 434 0170 2000     		movs	r0, r4
 435              	.L49:
 436 0172 FFF7FEFF 		bl	BT_PAUSE_Write
 437              	.LVL52:
 477:modes.c       **** // set pause signal to low                   
 438              		.loc 1 477 0
 439 0176 6420     		movs	r0, #100
 440 0178 FFF7FEFF 		bl	CyDelay
 441              	.LVL53:
 479:modes.c       ****         }
 442              		.loc 1 479 0
 443 017c 0020     		movs	r0, #0
 444 017e FFF7FEFF 		bl	BT_PAUSE_Write
 445              	.LVL54:
 446 0182 19E0     		b	.L47
 447              	.L19:
 483:modes.c       ****         {
 448              		.loc 1 483 0
 449 0184 052C     		cmp	r4, #5
 450 0186 19D1     		bne	.L16
 487:modes.c       ****             new_disp_ctrl1 = 0x40;
 451              		.loc 1 487 0
 452 0188 6649     		ldr	r1, .L52+36
 453 018a 5E48     		ldr	r0, .L52+4
 454 018c FFF7FEFF 		bl	strcpy
 455              	.LVL55:
 488:modes.c       **** // CTRL1.0 - Clear BT Tx indicator 
 456              		.loc 1 488 0
 457 0190 4022     		movs	r2, #64
 458 0192 5D4B     		ldr	r3, .L52+8
 490:modes.c       ****             new_display_data_flag = 1;
 459              		.loc 1 490 0
 460 0194 043C     		subs	r4, r4, #4
 488:modes.c       **** // CTRL1.0 - Clear BT Tx indicator 
 461              		.loc 1 488 0
 462 0196 1A70     		strb	r2, [r3]
ARM GAS  C:\Users\Ala\AppData\Local\Temp\ccPRO05X.s 			page 23


 490:modes.c       ****             new_display_data_flag = 1;
 463              		.loc 1 490 0
 464 0198 5A78     		ldrb	r2, [r3, #1]
 493:modes.c       **** // set previus signal to high             
 465              		.loc 1 493 0
 466 019a 0020     		movs	r0, #0
 490:modes.c       ****             new_display_data_flag = 1;
 467              		.loc 1 490 0
 468 019c A243     		bics	r2, r4
 469 019e 5A70     		strb	r2, [r3, #1]
 491:modes.c       **** // ensure previus signal is low            
 470              		.loc 1 491 0
 471 01a0 9C70     		strb	r4, [r3, #2]
 493:modes.c       **** // set previus signal to high             
 472              		.loc 1 493 0
 473 01a2 FFF7FEFF 		bl	BT_PREVIOUS_Write
 474              	.LVL56:
 495:modes.c       **** // wait 100 ms 
 475              		.loc 1 495 0
 476 01a6 2000     		movs	r0, r4
 477 01a8 FFF7FEFF 		bl	BT_PREVIOUS_Write
 478              	.LVL57:
 497:modes.c       **** // set previous signal to low                   
 479              		.loc 1 497 0
 480 01ac 6420     		movs	r0, #100
 481 01ae FFF7FEFF 		bl	CyDelay
 482              	.LVL58:
 499:modes.c       ****         }
 483              		.loc 1 499 0
 484 01b2 0020     		movs	r0, #0
 485 01b4 FFF7FEFF 		bl	BT_PREVIOUS_Write
 486              	.LVL59:
 487              	.L47:
 285:modes.c       ****     uint8 swCounter = 0;
 488              		.loc 1 285 0
 489 01b8 0024     		movs	r4, #0
 490 01ba 9FE0     		b	.L11
 491              	.L16:
 503:modes.c       ****         {
 492              		.loc 1 503 0
 493 01bc 062C     		cmp	r4, #6
 494 01be FBD1     		bne	.L47
 507:modes.c       ****             new_disp_ctrl1 = 0x40;
 495              		.loc 1 507 0
 496 01c0 5949     		ldr	r1, .L52+40
 497 01c2 5048     		ldr	r0, .L52+4
 498 01c4 FFF7FEFF 		bl	strcpy
 499              	.LVL60:
 508:modes.c       **** // CTRL1.0 - Clear BT Tx indicator 
 500              		.loc 1 508 0
 501 01c8 4022     		movs	r2, #64
 502 01ca 4F4B     		ldr	r3, .L52+8
 510:modes.c       ****             new_display_data_flag = 1; 
 503              		.loc 1 510 0
 504 01cc 053C     		subs	r4, r4, #5
 508:modes.c       **** // CTRL1.0 - Clear BT Tx indicator 
 505              		.loc 1 508 0
ARM GAS  C:\Users\Ala\AppData\Local\Temp\ccPRO05X.s 			page 24


 506 01ce 1A70     		strb	r2, [r3]
 510:modes.c       ****             new_display_data_flag = 1; 
 507              		.loc 1 510 0
 508 01d0 5A78     		ldrb	r2, [r3, #1]
 513:modes.c       **** // set next signal to high             
 509              		.loc 1 513 0
 510 01d2 0020     		movs	r0, #0
 510:modes.c       ****             new_display_data_flag = 1; 
 511              		.loc 1 510 0
 512 01d4 A243     		bics	r2, r4
 513 01d6 5A70     		strb	r2, [r3, #1]
 511:modes.c       **** // ensure next signal is low            
 514              		.loc 1 511 0
 515 01d8 9C70     		strb	r4, [r3, #2]
 513:modes.c       **** // set next signal to high             
 516              		.loc 1 513 0
 517 01da FFF7FEFF 		bl	BT_NEXT_Write
 518              	.LVL61:
 515:modes.c       **** // wait 100 ms 
 519              		.loc 1 515 0
 520 01de 2000     		movs	r0, r4
 521 01e0 FFF7FEFF 		bl	BT_NEXT_Write
 522              	.LVL62:
 517:modes.c       **** // set next signal to low                   
 523              		.loc 1 517 0
 524 01e4 6420     		movs	r0, #100
 525 01e6 FFF7FEFF 		bl	CyDelay
 526              	.LVL63:
 519:modes.c       ****         }
 527              		.loc 1 519 0
 528 01ea 0020     		movs	r0, #0
 529 01ec FFF7FEFF 		bl	BT_NEXT_Write
 530              	.LVL64:
 531 01f0 E2E7     		b	.L47
 532              	.LVL65:
 533              	.L14:
 527:modes.c       ****  // check if BT module is powered up
 534              		.loc 1 527 0
 535 01f2 4E4C     		ldr	r4, .L52+44
 536 01f4 6378     		ldrb	r3, [r4, #1]
 537 01f6 2078     		ldrb	r0, [r4]
 538              	.LVL66:
 539 01f8 A278     		ldrb	r2, [r4, #2]
 540 01fa 1B02     		lsls	r3, r3, #8
 541 01fc 0343     		orrs	r3, r0
 542 01fe 1204     		lsls	r2, r2, #16
 543 0200 1900     		movs	r1, r3
 544              	.LVL67:
 545 0202 1300     		movs	r3, r2
 546 0204 E278     		ldrb	r2, [r4, #3]
 547 0206 0B43     		orrs	r3, r1
 548 0208 1206     		lsls	r2, r2, #24
 549 020a 1A43     		orrs	r2, r3
 550 020c 0221     		movs	r1, #2
 551 020e 2379     		ldrb	r3, [r4, #4]
 552 0210 6846     		mov	r0, sp
 553 0212 FFF7FEFF 		bl	psu_config
ARM GAS  C:\Users\Ala\AppData\Local\Temp\ccPRO05X.s 			page 25


 554              	.LVL68:
 555 0216 0522     		movs	r2, #5
 556 0218 6946     		mov	r1, sp
 557 021a 2000     		movs	r0, r4
 558 021c FFF7FEFF 		bl	memcpy
 559              	.LVL69:
 529:modes.c       ****         {
 560              		.loc 1 529 0
 561 0220 E378     		ldrb	r3, [r4, #3]
 562 0222 002B     		cmp	r3, #0
 563 0224 C8D0     		beq	.L47
 538:modes.c       ****                 {
 564              		.loc 1 538 0
 565 0226 FFF7FEFF 		bl	BT_SBC_Read
 566              	.LVL70:
 285:modes.c       ****     uint8 swCounter = 0;
 567              		.loc 1 285 0
 568 022a 0024     		movs	r4, #0
 538:modes.c       ****                 {
 569              		.loc 1 538 0
 570 022c A042     		cmp	r0, r4
 571 022e 07D0     		beq	.L20
 572              	.LVL71:
 543:modes.c       ****                     new_display_data_flag = 1; 
 573              		.loc 1 543 0
 574 0230 3F49     		ldr	r1, .L52+48
 575 0232 3448     		ldr	r0, .L52+4
 576 0234 FFF7FEFF 		bl	strcpy
 577              	.LVL72:
 544:modes.c       ****                 }
 578              		.loc 1 544 0
 579 0238 0122     		movs	r2, #1
 580 023a 334B     		ldr	r3, .L52+8
 540:modes.c       **** // SENT OVER SPI informaiton about BlueTooth codec info
 581              		.loc 1 540 0
 582 023c 0434     		adds	r4, r4, #4
 544:modes.c       ****                 }
 583              		.loc 1 544 0
 584 023e 9A70     		strb	r2, [r3, #2]
 585              	.LVL73:
 586              	.L20:
 547:modes.c       ****                 {
 587              		.loc 1 547 0
 588 0240 3C4B     		ldr	r3, .L52+52
 589 0242 1B68     		ldr	r3, [r3]
 590 0244 1B07     		lsls	r3, r3, #28
 591 0246 07D5     		bpl	.L21
 592              	.LVL74:
 552:modes.c       ****                     new_display_data_flag = 1; 
 593              		.loc 1 552 0
 594 0248 3B49     		ldr	r1, .L52+56
 595 024a 2E48     		ldr	r0, .L52+4
 596 024c FFF7FEFF 		bl	strcpy
 597              	.LVL75:
 553:modes.c       ****                 }
 598              		.loc 1 553 0
 599 0250 0122     		movs	r2, #1
ARM GAS  C:\Users\Ala\AppData\Local\Temp\ccPRO05X.s 			page 26


 549:modes.c       **** // SENT OVER SPI informaiton about BlueTooth codec info
 600              		.loc 1 549 0
 601 0252 0524     		movs	r4, #5
 553:modes.c       ****                 }
 602              		.loc 1 553 0
 603 0254 2C4B     		ldr	r3, .L52+8
 604 0256 9A70     		strb	r2, [r3, #2]
 605              	.LVL76:
 606              	.L21:
 556:modes.c       ****                 {
 607              		.loc 1 556 0
 608 0258 FFF7FEFF 		bl	BT_APTX_Read
 609              	.LVL77:
 610 025c 0028     		cmp	r0, #0
 611 025e 07D0     		beq	.L22
 612              	.LVL78:
 561:modes.c       ****                     new_display_data_flag = 1; 
 613              		.loc 1 561 0
 614 0260 3649     		ldr	r1, .L52+60
 615 0262 2848     		ldr	r0, .L52+4
 616 0264 FFF7FEFF 		bl	strcpy
 617              	.LVL79:
 562:modes.c       ****                 }                
 618              		.loc 1 562 0
 619 0268 0122     		movs	r2, #1
 558:modes.c       **** // SENT OVER SPI informaiton about BlueTooth codec info
 620              		.loc 1 558 0
 621 026a 0624     		movs	r4, #6
 562:modes.c       ****                 }                
 622              		.loc 1 562 0
 623 026c 264B     		ldr	r3, .L52+8
 624 026e 9A70     		strb	r2, [r3, #2]
 625              	.LVL80:
 626              	.L22:
 565:modes.c       ****                 {
 627              		.loc 1 565 0
 628 0270 FFF7FEFF 		bl	BT_HD_Read
 629              	.LVL81:
 630 0274 0028     		cmp	r0, #0
 631 0276 07D0     		beq	.L23
 632              	.LVL82:
 570:modes.c       ****                     new_display_data_flag = 1; 
 633              		.loc 1 570 0
 634 0278 3149     		ldr	r1, .L52+64
 635 027a 2248     		ldr	r0, .L52+4
 636 027c FFF7FEFF 		bl	strcpy
 637              	.LVL83:
 571:modes.c       ****                 }                
 638              		.loc 1 571 0
 639 0280 0122     		movs	r2, #1
 567:modes.c       **** // SENT OVER SPI informaiton about BlueTooth codec info
 640              		.loc 1 567 0
 641 0282 0724     		movs	r4, #7
 571:modes.c       ****                 }                
 642              		.loc 1 571 0
 643 0284 204B     		ldr	r3, .L52+8
 644 0286 9A70     		strb	r2, [r3, #2]
ARM GAS  C:\Users\Ala\AppData\Local\Temp\ccPRO05X.s 			page 27


 645              	.LVL84:
 646              	.L23:
 574:modes.c       ****                 {
 647              		.loc 1 574 0
 648 0288 FFF7FEFF 		bl	BT_LL_Read
 649              	.LVL85:
 650 028c 0028     		cmp	r0, #0
 651 028e 08D0     		beq	.L24
 652              	.LVL86:
 579:modes.c       ****                     new_display_data_flag = 1; 
 653              		.loc 1 579 0
 654 0290 2C49     		ldr	r1, .L52+68
 655 0292 1C48     		ldr	r0, .L52+4
 656 0294 FFF7FEFF 		bl	strcpy
 657              	.LVL87:
 580:modes.c       **** 
 658              		.loc 1 580 0
 659 0298 0122     		movs	r2, #1
 660 029a 1B4B     		ldr	r3, .L52+8
 576:modes.c       **** // SENT OVER SPI informaiton about BlueTooth codec info
 661              		.loc 1 576 0
 662 029c 0824     		movs	r4, #8
 580:modes.c       **** 
 663              		.loc 1 580 0
 664 029e 9A70     		strb	r2, [r3, #2]
 665 02a0 2CE0     		b	.L11
 666              	.LVL88:
 667              	.L24:
 584:modes.c       ****                 {
 668              		.loc 1 584 0
 669 02a2 032C     		cmp	r4, #3
 670 02a4 2AD8     		bhi	.L11
 671 02a6 9625     		movs	r5, #150
 672 02a8 0400     		movs	r4, r0
 673              	.LVL89:
 674              	.L26:
 594:modes.c       ****                         {
 675              		.loc 1 594 0
 676 02aa FFF7FEFF 		bl	BT_PAIRING_Read
 677              	.LVL90:
 678 02ae 0028     		cmp	r0, #0
 679 02b0 01D1     		bne	.L25
 597:modes.c       ****                         }
 680              		.loc 1 597 0
 681 02b2 631C     		adds	r3, r4, #1
 682 02b4 DCB2     		uxtb	r4, r3
 683              	.LVL91:
 684              	.L25:
 685 02b6 013D     		subs	r5, r5, #1
 686              	.LVL92:
 600:modes.c       ****                     }
 687              		.loc 1 600 0 discriminator 2
 688 02b8 0A20     		movs	r0, #10
 689 02ba EDB2     		uxtb	r5, r5
 690 02bc FFF7FEFF 		bl	CyDelay
 691              	.LVL93:
 591:modes.c       ****                     {
ARM GAS  C:\Users\Ala\AppData\Local\Temp\ccPRO05X.s 			page 28


 692              		.loc 1 591 0 discriminator 2
 693 02c0 002D     		cmp	r5, #0
 694 02c2 F2D1     		bne	.L26
 695 02c4 0F48     		ldr	r0, .L52+4
 696 02c6 104D     		ldr	r5, .L52+8
 603:modes.c       ****                     {
 697              		.loc 1 603 0
 698 02c8 942C     		cmp	r4, #148
 699 02ca 05D9     		bls	.L27
 700              	.LVL94:
 610:modes.c       **** 
 701              		.loc 1 610 0
 702 02cc 0124     		movs	r4, #1
 703              	.LVL95:
 609:modes.c       ****                         new_display_data_flag = 1; 
 704              		.loc 1 609 0
 705 02ce 1E49     		ldr	r1, .L52+72
 706 02d0 FFF7FEFF 		bl	strcpy
 707              	.LVL96:
 610:modes.c       **** 
 708              		.loc 1 610 0
 709 02d4 AC70     		strb	r4, [r5, #2]
 710 02d6 11E0     		b	.L11
 711              	.LVL97:
 712              	.L27:
 616:modes.c       ****                     {
 713              		.loc 1 616 0
 714 02d8 2300     		movs	r3, r4
 715 02da 333B     		subs	r3, r3, #51
 716 02dc DBB2     		uxtb	r3, r3
 717 02de 612B     		cmp	r3, #97
 718 02e0 06D8     		bhi	.L28
 719              	.LVL98:
 622:modes.c       ****                         new_display_data_flag = 1; 
 720              		.loc 1 622 0
 721 02e2 1A49     		ldr	r1, .L52+76
 722 02e4 FFF7FEFF 		bl	strcpy
 723              	.LVL99:
 623:modes.c       ****                     }                 
 724              		.loc 1 623 0
 725 02e8 0123     		movs	r3, #1
 619:modes.c       **** // SENT OVER SPI informaiton about BlueTooth status
 726              		.loc 1 619 0
 727 02ea 0224     		movs	r4, #2
 728              	.LVL100:
 623:modes.c       ****                     }                 
 729              		.loc 1 623 0
 730 02ec AB70     		strb	r3, [r5, #2]
 731 02ee 05E0     		b	.L11
 732              	.LVL101:
 733              	.L28:
 632:modes.c       ****                         new_display_data_flag = 1; 
 734              		.loc 1 632 0
 735 02f0 1749     		ldr	r1, .L52+80
 736 02f2 FFF7FEFF 		bl	strcpy
 737              	.LVL102:
 633:modes.c       **** 
ARM GAS  C:\Users\Ala\AppData\Local\Temp\ccPRO05X.s 			page 29


 738              		.loc 1 633 0
 739 02f6 0123     		movs	r3, #1
 629:modes.c       **** // SENT OVER SPI informaiton about BlueTooth status
 740              		.loc 1 629 0
 741 02f8 0324     		movs	r4, #3
 742              	.LVL103:
 633:modes.c       **** 
 743              		.loc 1 633 0
 744 02fa AB70     		strb	r3, [r5, #2]
 745              	.LVL104:
 746              	.L11:
 642:modes.c       **** 
 747              		.loc 1 642 0
 748 02fc 2000     		movs	r0, r4
 749              		@ sp needed
 750              	.LVL105:
 751 02fe 3EBD     		pop	{r1, r2, r3, r4, r5, pc}
 752              	.L53:
 753              		.align	2
 754              	.L52:
 755 0300 00000000 		.word	.LC0
 756 0304 00000000 		.word	.LANCHOR0
 757 0308 00000000 		.word	.LANCHOR1
 758 030c 19000000 		.word	.LC4
 759 0310 32000000 		.word	.LC6
 760 0314 28230000 		.word	9000
 761 0318 4B000000 		.word	.LC8
 762 031c 64000000 		.word	.LC10
 763 0320 7D000000 		.word	.LC12
 764 0324 96000000 		.word	.LC14
 765 0328 AF000000 		.word	.LC16
 766 032c 00000000 		.word	current_PSUstate
 767 0330 C8000000 		.word	.LC19
 768 0334 04040440 		.word	1074004996
 769 0338 E1000000 		.word	.LC21
 770 033c FA000000 		.word	.LC23
 771 0340 13010000 		.word	.LC25
 772 0344 2C010000 		.word	.LC27
 773 0348 45010000 		.word	.LC29
 774 034c 5E010000 		.word	.LC31
 775 0350 77010000 		.word	.LC33
 776              		.cfi_endproc
 777              	.LFE33:
 778              		.size	BT_control, .-BT_control
 779              		.section	.text.buttons_check,"ax",%progbits
 780              		.align	1
 781              		.global	buttons_check
 782              		.code	16
 783              		.thumb_func
 784              		.type	buttons_check, %function
 785              	buttons_check:
 786              	.LFB32:
  49:modes.c       ****     
 787              		.loc 1 49 0
 788              		.cfi_startproc
 789              		@ args = 0, pretend = 0, frame = 8
 790              		@ frame_needed = 0, uses_anonymous_args = 0
ARM GAS  C:\Users\Ala\AppData\Local\Temp\ccPRO05X.s 			page 30


 791 0000 F7B5     		push	{r0, r1, r2, r4, r5, r6, r7, lr}
 792              		.cfi_def_cfa_offset 32
 793              		.cfi_offset 0, -32
 794              		.cfi_offset 1, -28
 795              		.cfi_offset 2, -24
 796              		.cfi_offset 4, -20
 797              		.cfi_offset 5, -16
 798              		.cfi_offset 6, -12
 799              		.cfi_offset 7, -8
 800              		.cfi_offset 14, -4
  55:modes.c       **** 
 801              		.loc 1 55 0
 802 0002 0025     		movs	r5, #0
  58:modes.c       ****     {
 803              		.loc 1 58 0
 804 0004 384E     		ldr	r6, .L79
  55:modes.c       **** 
 805              		.loc 1 55 0
 806 0006 01A9     		add	r1, sp, #4
  58:modes.c       ****     {
 807              		.loc 1 58 0
 808 0008 3478     		ldrb	r4, [r6]
  55:modes.c       **** 
 809              		.loc 1 55 0
 810 000a 0D70     		strb	r5, [r1]
 811 000c 4D70     		strb	r5, [r1, #1]
 812 000e 8D70     		strb	r5, [r1, #2]
  58:modes.c       ****     {
 813              		.loc 1 58 0
 814 0010 012C     		cmp	r4, #1
 815 0012 1CD1     		bne	.L55
  61:modes.c       ****         {
 816              		.loc 1 61 0
 817 0014 354D     		ldr	r5, .L79+4
 818 0016 E878     		ldrb	r0, [r5, #3]
 819 0018 0028     		cmp	r0, #0
 820 001a 12D1     		bne	.L56
  65:modes.c       **** // set variables based on read data
 821              		.loc 1 65 0
 822 001c 344F     		ldr	r7, .L79+8
 823 001e 354B     		ldr	r3, .L79+12
 824 0020 0322     		movs	r2, #3
 825 0022 3900     		movs	r1, r7
 826 0024 FFF7FEFF 		bl	Cy_Em_EEPROM_Read
 827              	.LVL106:
  67:modes.c       ****             DISPLAY_STATE = eepromArray[1];
 828              		.loc 1 67 0
 829 0028 3B78     		ldrb	r3, [r7]
 830 002a EB70     		strb	r3, [r5, #3]
  68:modes.c       ****             BT_Tx_STATE = eepromArray[2];
 831              		.loc 1 68 0
 832 002c 7A78     		ldrb	r2, [r7, #1]
 833 002e 2A71     		strb	r2, [r5, #4]
  69:modes.c       **** // start with system state in 1 to avoid infinite loop in system state 0
 834              		.loc 1 69 0
 835 0030 BA78     		ldrb	r2, [r7, #2]
 836 0032 6A71     		strb	r2, [r5, #5]
ARM GAS  C:\Users\Ala\AppData\Local\Temp\ccPRO05X.s 			page 31


  71:modes.c       ****             {
 837              		.loc 1 71 0
 838 0034 002B     		cmp	r3, #0
 839 0036 01D1     		bne	.L58
 840              	.L57:
  73:modes.c       ****             }
 841              		.loc 1 73 0
 842 0038 0123     		movs	r3, #1
 843 003a EB70     		strb	r3, [r5, #3]
 844              	.L58:
  76:modes.c       ****         }
 845              		.loc 1 76 0
 846 003c 0023     		movs	r3, #0
 847 003e 3370     		strb	r3, [r6]
 848 0040 50E0     		b	.L59
 849              	.L56:
  81:modes.c       ****                 if (SYSTEM_STATE >= 9)
 850              		.loc 1 81 0
 851 0042 0130     		adds	r0, r0, #1
 852 0044 C0B2     		uxtb	r0, r0
 853 0046 E870     		strb	r0, [r5, #3]
  82:modes.c       ****                 {
 854              		.loc 1 82 0
 855 0048 0828     		cmp	r0, #8
 856 004a F5D8     		bhi	.L57
 857 004c F6E7     		b	.L58
 858              	.L55:
  95:modes.c       ****     {
 859              		.loc 1 95 0
 860 004e 2A4F     		ldr	r7, .L79+16
 861 0050 3C78     		ldrb	r4, [r7]
 862 0052 012C     		cmp	r4, #1
 863 0054 0FD1     		bne	.L61
  98:modes.c       ****         array[1] =  DISPLAY_STATE;
 864              		.loc 1 98 0
 865 0056 254E     		ldr	r6, .L79+4
 102:modes.c       ****         
 866              		.loc 1 102 0
 867 0058 0322     		movs	r2, #3
  98:modes.c       ****         array[1] =  DISPLAY_STATE;
 868              		.loc 1 98 0
 869 005a F378     		ldrb	r3, [r6, #3]
 102:modes.c       ****         
 870              		.loc 1 102 0
 871 005c 2800     		movs	r0, r5
  98:modes.c       ****         array[1] =  DISPLAY_STATE;
 872              		.loc 1 98 0
 873 005e 0B70     		strb	r3, [r1]
  99:modes.c       ****         array[2] =  BT_Tx_STATE;
 874              		.loc 1 99 0
 875 0060 3379     		ldrb	r3, [r6, #4]
 876 0062 4B70     		strb	r3, [r1, #1]
 100:modes.c       ****  // Write data to emulated EEPROM
 877              		.loc 1 100 0
 878 0064 7379     		ldrb	r3, [r6, #5]
 879 0066 8B70     		strb	r3, [r1, #2]
 102:modes.c       ****         
ARM GAS  C:\Users\Ala\AppData\Local\Temp\ccPRO05X.s 			page 32


 880              		.loc 1 102 0
 881 0068 224B     		ldr	r3, .L79+12
 882 006a FFF7FEFF 		bl	Cy_Em_EEPROM_Write
 883              	.LVL107:
 105:modes.c       **** // set display state to power down
 884              		.loc 1 105 0
 885 006e F570     		strb	r5, [r6, #3]
 107:modes.c       **** // clear push button variable
 886              		.loc 1 107 0
 887 0070 3571     		strb	r5, [r6, #4]
 109:modes.c       **** // return 1 indicating button press action
 888              		.loc 1 109 0
 889 0072 3D70     		strb	r5, [r7]
 111:modes.c       ****     }
 890              		.loc 1 111 0
 891 0074 36E0     		b	.L59
 892              	.L61:
 115:modes.c       ****     {
 893              		.loc 1 115 0
 894 0076 214C     		ldr	r4, .L79+20
 895 0078 2378     		ldrb	r3, [r4]
 896 007a 012B     		cmp	r3, #1
 897 007c 1DD1     		bne	.L62
 118:modes.c       ****         {
 898              		.loc 1 118 0
 899 007e 1B4B     		ldr	r3, .L79+4
 900 0080 D878     		ldrb	r0, [r3, #3]
 901 0082 0138     		subs	r0, r0, #1
 902 0084 0728     		cmp	r0, #7
 903 0086 18D8     		bhi	.L62
 904 0088 FFF7FEFF 		bl	__gnu_thumb1_case_uqi
 905              	.L64:
 906 008c 04       		.byte	(.L66-.L64)/2
 907 008d 04       		.byte	(.L66-.L64)/2
 908 008e 04       		.byte	(.L66-.L64)/2
 909 008f 17       		.byte	(.L62-.L64)/2
 910 0090 17       		.byte	(.L62-.L64)/2
 911 0091 17       		.byte	(.L62-.L64)/2
 912 0092 0E       		.byte	(.L67-.L64)/2
 913 0093 11       		.byte	(.L68-.L64)/2
 914              		.p2align 1
 915              	.L66:
 162:modes.c       ****                 CyDelay(100);  
 916              		.loc 1 162 0
 917 0094 1A48     		ldr	r0, .L79+24
 918 0096 FFF7FEFF 		bl	UART_UartPutString
 919              	.LVL108:
 163:modes.c       ****                 UART_UartPutString("-GO+");
 920              		.loc 1 163 0
 921 009a 6420     		movs	r0, #100
 922 009c FFF7FEFF 		bl	CyDelay
 923              	.LVL109:
 164:modes.c       ****                 MODE_SHORT_V = 0;
 924              		.loc 1 164 0
 925 00a0 1848     		ldr	r0, .L79+28
 926 00a2 FFF7FEFF 		bl	UART_UartPutString
 927              	.LVL110:
ARM GAS  C:\Users\Ala\AppData\Local\Temp\ccPRO05X.s 			page 33


 928 00a6 06E0     		b	.L77
 929              	.L67:
 195:modes.c       ****                 MODE_SHORT_V = 0;
 930              		.loc 1 195 0
 931 00a8 0121     		movs	r1, #1
 932 00aa 0220     		movs	r0, #2
 933 00ac 01E0     		b	.L78
 934              	.L68:
 207:modes.c       ****                 MODE_SHORT_V = 0;
 935              		.loc 1 207 0
 936 00ae 0121     		movs	r1, #1
 937 00b0 0800     		movs	r0, r1
 938              	.L78:
 939 00b2 FFF7FEFF 		bl	BT_control
 940              	.LVL111:
 941              	.L77:
 208:modes.c       ****             }
 942              		.loc 1 208 0
 943 00b6 0023     		movs	r3, #0
 944 00b8 2370     		strb	r3, [r4]
 945              	.L62:
 225:modes.c       ****     {
 946              		.loc 1 225 0
 947 00ba 134B     		ldr	r3, .L79+32
 948 00bc 1C78     		ldrb	r4, [r3]
 949 00be 1A00     		movs	r2, r3
 950 00c0 012C     		cmp	r4, #1
 951 00c2 0ED1     		bne	.L73
 228:modes.c       ****         {
 952              		.loc 1 228 0
 953 00c4 0949     		ldr	r1, .L79+4
 954 00c6 CB78     		ldrb	r3, [r1, #3]
 955 00c8 002B     		cmp	r3, #0
 956 00ca 07D0     		beq	.L70
 231:modes.c       ****             if (DISPLAY_STATE >= 7)
 957              		.loc 1 231 0
 958 00cc 0B79     		ldrb	r3, [r1, #4]
 959 00ce 0133     		adds	r3, r3, #1
 960 00d0 DBB2     		uxtb	r3, r3
 232:modes.c       ****             {
 961              		.loc 1 232 0
 962 00d2 062B     		cmp	r3, #6
 963 00d4 01D8     		bhi	.L71
 231:modes.c       ****             if (DISPLAY_STATE >= 7)
 964              		.loc 1 231 0
 965 00d6 0B71     		strb	r3, [r1, #4]
 966 00d8 00E0     		b	.L70
 967              	.L71:
 234:modes.c       ****             }
 968              		.loc 1 234 0
 969 00da 0C71     		strb	r4, [r1, #4]
 970              	.L70:
 238:modes.c       **** // return 1 indicating button press action
 971              		.loc 1 238 0
 972 00dc 0023     		movs	r3, #0
 973 00de 1370     		strb	r3, [r2]
 240:modes.c       ****     }
ARM GAS  C:\Users\Ala\AppData\Local\Temp\ccPRO05X.s 			page 34


 974              		.loc 1 240 0
 975 00e0 00E0     		b	.L59
 976              	.L73:
 244:modes.c       **** } 
 977              		.loc 1 244 0
 978 00e2 0024     		movs	r4, #0
 979              	.L59:
 245:modes.c       **** 
 980              		.loc 1 245 0
 981 00e4 2000     		movs	r0, r4
 982              		@ sp needed
 983 00e6 FEBD     		pop	{r1, r2, r3, r4, r5, r6, r7, pc}
 984              	.L80:
 985              		.align	2
 986              	.L79:
 987 00e8 00000000 		.word	PWR_OK_SHORT_V
 988 00ec 00000000 		.word	.LANCHOR1
 989 00f0 00000000 		.word	eepromArray
 990 00f4 00000000 		.word	Em_EEPROM_context
 991 00f8 00000000 		.word	PWR_OK_LONG_V
 992 00fc 00000000 		.word	MODE_SHORT_V
 993 0100 90010000 		.word	.LC42
 994 0104 95010000 		.word	.LC44
 995 0108 00000000 		.word	MODE_LONG_V
 996              		.cfi_endproc
 997              	.LFE32:
 998              		.size	buttons_check, .-buttons_check
 999              		.global	__aeabi_idiv
 1000              		.global	__aeabi_lmul
 1001              		.section	.text.datalink_decoder,"ax",%progbits
 1002              		.align	1
 1003              		.global	datalink_decoder
 1004              		.code	16
 1005              		.thumb_func
 1006              		.type	datalink_decoder, %function
 1007              	datalink_decoder:
 1008              	.LFB35:
 695:modes.c       **** 
 696:modes.c       **** 
 697:modes.c       **** 
 698:modes.c       **** 
 699:modes.c       **** /*******************************************************************************
 700:modes.c       **** * Function Name: datalink_decoder()
 701:modes.c       **** ********************************************************************************
 702:modes.c       **** * Summary:
 703:modes.c       **** *  Function responsible for encoding raw datalink timing informaiton into
 704:modes.c       **** *  commands
 705:modes.c       **** *   
 706:modes.c       **** * Parameters:
 707:modes.c       **** *  No parameters as input. Function operates on global varaibles set by interrupt 
 708:modes.c       **** *  routine
 709:modes.c       **** *
 710:modes.c       **** * Return:
 711:modes.c       **** *  code represents error or decoded command as follow:
 712:modes.c       **** *   0 - no new command
 713:modes.c       **** *   1 - incorrect start and/or stop value
 714:modes.c       **** *   2 - if t = 0 and t+1 = t1 -> error or t = 1 and t+1 = t3 -> error
ARM GAS  C:\Users\Ala\AppData\Local\Temp\ccPRO05X.s 			page 35


 715:modes.c       **** *  10 - only Aux button pressed - power up to last state
 716:modes.c       **** *  11 - Aux button pressed plus one digit number 1 or nubmer one to any of five aux devices
 717:modes.c       **** *  12 - Aux button pressed plus one digit number 2 or nubmer two  to any of five aux devices
 718:modes.c       **** *  13 - Aux button pressed plus one digit number 3 or nubmer three to any of five aux devices
 719:modes.c       **** *  14 - Aux button pressed plus one digit number 4 or nubmer four to any of five aux devices
 720:modes.c       **** *  15 - Aux button pressed plus one digit number 5 or nubmer five to any of five aux devices
 721:modes.c       **** *  16 - Digit number 6 to any of five aux devices
 722:modes.c       **** *  17 - Digit number 7 to any of five aux devices
 723:modes.c       **** *  18 - Digit number 8 to any of five aux devices
 724:modes.c       **** *  20 - OK/GO/PLAY to any of five aux devices
 725:modes.c       **** *  21 - UP/STEP > to any of five aux devices
 726:modes.c       **** *  22 - DOWN/< STEP to any of five aux devices
 727:modes.c       **** *  23 - LEFT/<< to any of five aux devices
 728:modes.c       **** *  24 - RIGHT/>> to any of five aux devices
 729:modes.c       **** *  25 - STOP to any of five aux devices
 730:modes.c       **** *  26 - POWER OFF to any of five aux devices
 731:modes.c       **** *  27 - MENU(onBeo4)/TURN(on MCP) to any of five aux devices
 732:modes.c       **** *  28 - EXIT(on Beo4)/RESET(on MCP) to any of five aux devices
 733:modes.c       **** *  31 - DISPLAY or yellow to any of five aux devices
 734:modes.c       **** *  32 - green to any of five aux devices
 735:modes.c       **** *  41 - FM Radio station 1
 736:modes.c       **** *  42 - FM Radio station 2
 737:modes.c       **** *  43 - FM Radio station 3
 738:modes.c       **** *  44 - FM Radio station 4
 739:modes.c       **** *  45 - FM Radio station 5
 740:modes.c       **** *  46 - FM Radio station 6
 741:modes.c       **** *  47 - FM Radio station 7
 742:modes.c       **** *  48 - FM Radio station 8
 743:modes.c       **** *  49 - FM Radio station 9
 744:modes.c       **** *  50 - FM Radio station 10
 745:modes.c       **** *  51 - FM Radio station 11
 746:modes.c       **** *  52 - FM Radio station 12
 747:modes.c       **** *  53 - FM Radio station 13
 748:modes.c       **** *  54 - FM Radio station 14
 749:modes.c       **** *  55 - FM Radio station 15
 750:modes.c       **** *  56 - FM Radio station 16
 751:modes.c       **** *  57 - FM Radio station 17
 752:modes.c       **** *  58 - FM Radio station 18
 753:modes.c       **** *  59 - FM Radio station 19
 754:modes.c       **** *  60 - FM Radio station 20
 755:modes.c       **** *
 756:modes.c       **** *******************************************************************************/  
 757:modes.c       **** uint8 datalink_decoder()  
 758:modes.c       **** {
 1009              		.loc 1 758 0
 1010              		.cfi_startproc
 1011              		@ args = 0, pretend = 0, frame = 136
 1012              		@ frame_needed = 0, uses_anonymous_args = 0
 1013              	.LVL112:
 1014 0000 F0B5     		push	{r4, r5, r6, r7, lr}
 1015              		.cfi_def_cfa_offset 20
 1016              		.cfi_offset 4, -20
 1017              		.cfi_offset 5, -16
 1018              		.cfi_offset 6, -12
 1019              		.cfi_offset 7, -8
 1020              		.cfi_offset 14, -4
 1021 0002 A3B0     		sub	sp, sp, #140
ARM GAS  C:\Users\Ala\AppData\Local\Temp\ccPRO05X.s 			page 36


 1022              		.cfi_def_cfa_offset 160
 759:modes.c       **** // variable used to scan thru DATALINK readback time string 
 760:modes.c       ****     uint8 command_counter = 0;  
 761:modes.c       **** // variable used when converting bits to hex 
 762:modes.c       ****     uint64 hex_weight = 1;  
 763:modes.c       **** // variable used to scan thru DATALINK readback time string 
 764:modes.c       ****     uint8 decoded_command_table_size = 0;  
 765:modes.c       **** // table to store decoded command    
 766:modes.c       ****     uint8 TIME_TABLE[64] = {0};
 1023              		.loc 1 766 0
 1024 0004 4022     		movs	r2, #64
 1025 0006 0021     		movs	r1, #0
 1026 0008 02A8     		add	r0, sp, #8
 1027 000a FFF7FEFF 		bl	memset
 1028              	.LVL113:
 767:modes.c       **** // table to store decoded command    
 768:modes.c       ****     uint8 COMMAND_TABLE[64] = {0};
 1029              		.loc 1 768 0
 1030 000e 4022     		movs	r2, #64
 1031 0010 0021     		movs	r1, #0
 1032 0012 12A8     		add	r0, sp, #72
 1033 0014 FFF7FEFF 		bl	memset
 1034              	.LVL114:
 769:modes.c       **** // table to store commands in hex format    
 770:modes.c       ****     uint64 COMMAND_HEX = 0;
 771:modes.c       **** // variable to store return status
 772:modes.c       ****     uint8 status = 0;
 773:modes.c       **** 
 774:modes.c       **** // check if new command is available to decode    
 775:modes.c       ****     if (DATALINK_TABLE_COUNTER_MAX != 0)
 1035              		.loc 1 775 0
 1036 0018 5C4B     		ldr	r3, .L249
 1037 001a 1F78     		ldrb	r7, [r3]
 772:modes.c       **** 
 1038              		.loc 1 772 0
 1039 001c 0023     		movs	r3, #0
 1040 001e 0093     		str	r3, [sp]
 1041              		.loc 1 775 0
 1042 0020 9F42     		cmp	r7, r3
 1043 0022 01D1     		bne	.LCB879
 1044 0024 00F09FFC 		bl	.L82	@far jump
 1045              	.LCB879:
 776:modes.c       ****     {
 777:modes.c       **** // check if new time string has correct start and stop characters        
 778:modes.c       ****         if ( (80 - DATALINK_TABLE[1] >= 0) & 
 1046              		.loc 1 778 0
 1047 0028 5022     		movs	r2, #80
 1048 002a 0E20     		movs	r0, #14
 1049 002c 0021     		movs	r1, #0
 1050 002e 584C     		ldr	r4, .L249+4
 1051 0030 0D00     		movs	r5, r1
 1052 0032 6378     		ldrb	r3, [r4, #1]
 1053 0034 D31A     		subs	r3, r2, r3
 1054 0036 9842     		cmp	r0, r3
 1055 0038 4941     		adcs	r1, r1, r1
 1056 003a 0B00     		movs	r3, r1
 1057 003c A178     		ldrb	r1, [r4, #2]
ARM GAS  C:\Users\Ala\AppData\Local\Temp\ccPRO05X.s 			page 37


 1058 003e 511A     		subs	r1, r2, r1
 1059 0040 8842     		cmp	r0, r1
 1060 0042 6D41     		adcs	r5, r5, r5
 1061 0044 2900     		movs	r1, r5
 1062 0046 1940     		ands	r1, r3
 1063 0048 E378     		ldrb	r3, [r4, #3]
 1064 004a D21A     		subs	r2, r2, r3
 1065 004c 0123     		movs	r3, #1
 1066 004e 3F2A     		cmp	r2, #63
 1067 0050 01DC     		bgt	.L83
 1068 0052 6B46     		mov	r3, sp
 1069 0054 1B78     		ldrb	r3, [r3]
 1070              	.L83:
 1071 0056 0026     		movs	r6, #0
 1072 0058 5025     		movs	r5, #80
 1073 005a 0B40     		ands	r3, r1
 1074 005c 3000     		movs	r0, r6
 1075 005e 0E21     		movs	r1, #14
 1076 0060 2279     		ldrb	r2, [r4, #4]
 1077 0062 AA1A     		subs	r2, r5, r2
 1078 0064 9142     		cmp	r1, r2
 1079 0066 7041     		adcs	r0, r0, r6
 1080 0068 0340     		ands	r3, r0
 1081 006a DB07     		lsls	r3, r3, #31
 1082 006c 01D4     		bmi	.LCB919
 1083 006e 00F0DEFB 		bl	.L120	@far jump
 1084              	.LCB919:
 1085 0072 1022     		movs	r2, #16
 1086 0074 3100     		movs	r1, r6
 1087 0076 E35D     		ldrb	r3, [r4, r7]
 1088 0078 EB1A     		subs	r3, r5, r3
 1089 007a 2F3B     		subs	r3, r3, #47
 1090 007c 9A42     		cmp	r2, r3
 1091 007e 7141     		adcs	r1, r1, r6
 1092 0080 CBB2     		uxtb	r3, r1
 1093 0082 B342     		cmp	r3, r6
 1094 0084 00D1     		bne	.LCB928
 1095 0086 D2E3     		b	.L120	@long jump
 1096              	.LCB928:
 1097 0088 0196     		str	r6, [sp, #4]
 1098              	.LVL115:
 1099              	.L84:
 779:modes.c       ****              (80 - DATALINK_TABLE[1] < 15) &
 780:modes.c       ****              (80 - DATALINK_TABLE[2] >= 0) & 
 781:modes.c       ****              (80 - DATALINK_TABLE[2] < 15) &
 782:modes.c       ****              (80 - DATALINK_TABLE[3] >= 64) & 
 783:modes.c       ****              (80 - DATALINK_TABLE[3] <= 80) &
 784:modes.c       ****              (80 - DATALINK_TABLE[4] >= 0) & 
 785:modes.c       ****              (80 - DATALINK_TABLE[4] < 15) &
 786:modes.c       ****              (80 - DATALINK_TABLE[DATALINK_TABLE_COUNTER_MAX] >= 47) & 
 787:modes.c       ****              (80 - DATALINK_TABLE[DATALINK_TABLE_COUNTER_MAX] < 64) )
 788:modes.c       ****         {
 789:modes.c       **** // scan thru time table and convert measured time informations 
 790:modes.c       **** // into string of t1 = 1 ,t2 = 2, t3 = 3 time designators
 791:modes.c       ****             for (command_counter = 4 ; command_counter <= ( DATALINK_TABLE_COUNTER_MAX - 1 ); ++com
 1100              		.loc 1 791 0 discriminator 1
 1101 008a 019B     		ldr	r3, [sp, #4]
ARM GAS  C:\Users\Ala\AppData\Local\Temp\ccPRO05X.s 			page 38


 1102 008c 0433     		adds	r3, r3, #4
 1103 008e DBB2     		uxtb	r3, r3
 1104 0090 9F42     		cmp	r7, r3
 1105 0092 0EDD     		ble	.L246
 792:modes.c       ****             {    
 793:modes.c       **** // invert convert number (down-count from 80) to number of DATALINK clock (5120Hz) ticks
 794:modes.c       **** // divide them by 15 and add 1 to get t1 = 1 ,t2 = 2, t3 = 3 times
 795:modes.c       ****                 TIME_TABLE[command_counter - 4] = ((80 - DATALINK_TABLE[command_counter]) / 15) + 1
 1106              		.loc 1 795 0 discriminator 3
 1107 0094 E05C     		ldrb	r0, [r4, r3]
 1108 0096 02AA     		add	r2, sp, #8
 1109 0098 281A     		subs	r0, r5, r0
 1110 009a 0F21     		movs	r1, #15
 1111 009c 9E18     		adds	r6, r3, r2
 1112 009e FFF7FEFF 		bl	__aeabi_idiv
 1113              	.LVL116:
 1114 00a2 043E     		subs	r6, r6, #4
 1115 00a4 0130     		adds	r0, r0, #1
 1116 00a6 3070     		strb	r0, [r6]
 796:modes.c       ****                 
 797:modes.c       **** // increase size of counter that will determine table size with decoded word
 798:modes.c       ****                 decoded_command_table_size = decoded_command_table_size + 1;
 1117              		.loc 1 798 0 discriminator 3
 1118 00a8 019E     		ldr	r6, [sp, #4]
 1119 00aa 0136     		adds	r6, r6, #1
 1120 00ac F3B2     		uxtb	r3, r6
 1121 00ae 0193     		str	r3, [sp, #4]
 1122              	.LVL117:
 1123 00b0 EBE7     		b	.L84
 1124              	.L246:
 1125 00b2 4122     		movs	r2, #65
 1126 00b4 02AB     		add	r3, sp, #8
 1127 00b6 D218     		adds	r2, r2, r3
 791:modes.c       ****             {    
 1128              		.loc 1 791 0
 1129 00b8 0023     		movs	r3, #0
 799:modes.c       ****             }
 800:modes.c       **** 
 801:modes.c       ****             COMMAND_TABLE[0] = 0;
 802:modes.c       **** 
 803:modes.c       **** // scan thru t1,t2,t3 table and encode it to 10 data following DATALINK spec
 804:modes.c       ****             for (command_counter = 0 ; command_counter < decoded_command_table_size; ++command_coun
 805:modes.c       ****             {
 806:modes.c       **** // if t = 0 and t+1 = t1 -> error 
 807:modes.c       ****                 if ( (COMMAND_TABLE[command_counter] == 0) & (TIME_TABLE[command_counter + 1] == 1)
 808:modes.c       ****                 {
 809:modes.c       ****                     status = 2;
 810:modes.c       ****                 }
 811:modes.c       **** // if t = 0 and t+1 = t2 -> 0
 812:modes.c       ****                 else if ( (COMMAND_TABLE[command_counter] == 0) & (TIME_TABLE[command_counter + 1] 
 813:modes.c       ****                 {
 814:modes.c       ****                     COMMAND_TABLE[command_counter + 1] = 0;
 815:modes.c       ****                 }
 816:modes.c       **** // if t = 0 and t+1 = t3 -> 1
 817:modes.c       ****                 else if ( (COMMAND_TABLE[command_counter] == 0) & (TIME_TABLE[command_counter + 1] 
 818:modes.c       ****                 {
 819:modes.c       ****                     COMMAND_TABLE[command_counter + 1] = 1;
ARM GAS  C:\Users\Ala\AppData\Local\Temp\ccPRO05X.s 			page 39


 820:modes.c       ****                 }
 821:modes.c       **** // if t = 1 and t+1 = t1 -> 1
 822:modes.c       ****                 else if ( (COMMAND_TABLE[command_counter] == 1) & (TIME_TABLE[command_counter + 1] 
 823:modes.c       ****                 {
 824:modes.c       ****                     COMMAND_TABLE[command_counter + 1] = 0;
 1130              		.loc 1 824 0
 1131 00ba 9C46     		mov	ip, r3
 791:modes.c       ****             {    
 1132              		.loc 1 791 0
 1133 00bc 0093     		str	r3, [sp]
 1134              	.LVL118:
 1135              	.L86:
 804:modes.c       ****             {
 1136              		.loc 1 804 0 discriminator 1
 1137 00be 0198     		ldr	r0, [sp, #4]
 1138 00c0 D9B2     		uxtb	r1, r3
 1139 00c2 8842     		cmp	r0, r1
 1140 00c4 39D9     		bls	.L247
 807:modes.c       ****                 {
 1141              		.loc 1 807 0
 1142 00c6 12A9     		add	r1, sp, #72
 1143 00c8 585C     		ldrb	r0, [r3, r1]
 1144 00ca 02AD     		add	r5, sp, #8
 1145 00cc 4442     		rsbs	r4, r0, #0
 1146 00ce 4441     		adcs	r4, r4, r0
 1147 00d0 5919     		adds	r1, r3, r5
 1148 00d2 4978     		ldrb	r1, [r1, #1]
 1149 00d4 E4B2     		uxtb	r4, r4
 1150 00d6 4F1E     		subs	r7, r1, #1
 1151 00d8 7D42     		rsbs	r5, r7, #0
 1152 00da 6F41     		adcs	r7, r7, r5
 1153 00dc FFB2     		uxtb	r7, r7
 1154 00de 002C     		cmp	r4, #0
 1155 00e0 01D0     		beq	.L163
 1156 00e2 002F     		cmp	r7, #0
 1157 00e4 24D1     		bne	.L122
 1158              	.L163:
 812:modes.c       ****                 {
 1159              		.loc 1 812 0
 1160 00e6 8D1E     		subs	r5, r1, #2
 1161 00e8 6E42     		rsbs	r6, r5, #0
 1162 00ea 7541     		adcs	r5, r5, r6
 1163 00ec EDB2     		uxtb	r5, r5
 1164 00ee 002C     		cmp	r4, #0
 1165 00f0 01D0     		beq	.L89
 1166 00f2 002D     		cmp	r5, #0
 1167 00f4 0FD1     		bne	.L245
 1168              	.L89:
 817:modes.c       ****                 {
 1169              		.loc 1 817 0
 1170 00f6 0339     		subs	r1, r1, #3
 1171 00f8 4E42     		rsbs	r6, r1, #0
 1172 00fa 4E41     		adcs	r6, r6, r1
 1173 00fc F6B2     		uxtb	r6, r6
 1174 00fe 002C     		cmp	r4, #0
 1175 0100 01D0     		beq	.L90
 1176 0102 002E     		cmp	r6, #0
ARM GAS  C:\Users\Ala\AppData\Local\Temp\ccPRO05X.s 			page 40


 1177 0104 0DD1     		bne	.L243
 1178              	.L90:
 822:modes.c       ****                 {
 1179              		.loc 1 822 0
 1180 0106 0138     		subs	r0, r0, #1
 1181 0108 4142     		rsbs	r1, r0, #0
 1182 010a 4141     		adcs	r1, r1, r0
 1183 010c C9B2     		uxtb	r1, r1
 1184 010e 002F     		cmp	r7, #0
 1185 0110 03D0     		beq	.L91
 1186 0112 0029     		cmp	r1, #0
 1187 0114 01D0     		beq	.L91
 1188              	.L245:
 1189              		.loc 1 824 0
 1190 0116 6146     		mov	r1, ip
 1191 0118 04E0     		b	.L242
 1192              	.L91:
 825:modes.c       ****                 }
 826:modes.c       **** // if t = 1 and t+1 = t2 -> 1
 827:modes.c       ****                 else if ( (COMMAND_TABLE[command_counter] == 1) & (TIME_TABLE[command_counter + 1] 
 1193              		.loc 1 827 0
 1194 011a 002D     		cmp	r5, #0
 1195 011c 04D0     		beq	.L92
 1196 011e 0029     		cmp	r1, #0
 1197 0120 02D0     		beq	.L92
 1198              	.L243:
 828:modes.c       ****                 {
 829:modes.c       ****                     COMMAND_TABLE[command_counter + 1] = 1;
 1199              		.loc 1 829 0
 1200 0122 0121     		movs	r1, #1
 1201              	.L242:
 1202 0124 1170     		strb	r1, [r2]
 1203              	.LVL119:
 1204 0126 05E0     		b	.L87
 1205              	.LVL120:
 1206              	.L92:
 830:modes.c       ****                 }
 831:modes.c       **** // if t = 1 and t+1 = t3 -> error
 832:modes.c       ****                 else if ( (COMMAND_TABLE[command_counter] == 1) & (TIME_TABLE[command_counter + 1] 
 1207              		.loc 1 832 0
 1208 0128 002E     		cmp	r6, #0
 1209 012a 03D0     		beq	.L87
 1210 012c 0029     		cmp	r1, #0
 1211 012e 01D0     		beq	.L87
 1212              	.L122:
 833:modes.c       ****                 {
 834:modes.c       ****                      status = 2;
 1213              		.loc 1 834 0
 1214 0130 0221     		movs	r1, #2
 1215 0132 0091     		str	r1, [sp]
 1216              	.LVL121:
 1217              	.L87:
 1218 0134 0133     		adds	r3, r3, #1
 1219              	.LVL122:
 1220 0136 0132     		adds	r2, r2, #1
 1221 0138 C1E7     		b	.L86
 1222              	.LVL123:
ARM GAS  C:\Users\Ala\AppData\Local\Temp\ccPRO05X.s 			page 41


 1223              	.L247:
 835:modes.c       ****                 }
 836:modes.c       ****             }
 837:modes.c       **** 
 838:modes.c       **** // convert table with bit informaiton into 64 bits number for easier manipulation later on 
 839:modes.c       ****             if (decoded_command_table_size > 0)
 1224              		.loc 1 839 0
 1225 013a 0028     		cmp	r0, #0
 1226 013c 2AD0     		beq	.L123
 840:modes.c       ****             {
 841:modes.c       **** // scan thru table with bits starting from LSB                
 842:modes.c       ****                 for (command_counter = decoded_command_table_size-1 ; command_counter > 0 ; --comma
 1227              		.loc 1 842 0
 1228 013e 0600     		movs	r6, r0
 1229 0140 013E     		subs	r6, r6, #1
 1230 0142 F3B2     		uxtb	r3, r6
 1231              	.LVL124:
 770:modes.c       **** // variable to store return status
 1232              		.loc 1 770 0
 1233 0144 0024     		movs	r4, #0
 1234 0146 0025     		movs	r5, #0
 762:modes.c       **** // variable used to scan thru DATALINK readback time string 
 1235              		.loc 1 762 0
 1236 0148 0126     		movs	r6, #1
 1237 014a 0027     		movs	r7, #0
 1238              		.loc 1 842 0
 1239 014c 0193     		str	r3, [sp, #4]
 1240              	.LVL125:
 1241              	.L96:
 1242              		.loc 1 842 0 is_stmt 0 discriminator 1
 1243 014e 019B     		ldr	r3, [sp, #4]
 1244 0150 002B     		cmp	r3, #0
 1245 0152 10D0     		beq	.L248
 843:modes.c       ****                 {
 844:modes.c       **** // add bits values and its weight into one nubmer                    
 845:modes.c       ****                     COMMAND_HEX = COMMAND_HEX + COMMAND_TABLE[command_counter] * hex_weight; 
 1246              		.loc 1 845 0 is_stmt 1 discriminator 3
 1247 0154 019A     		ldr	r2, [sp, #4]
 1248 0156 12AB     		add	r3, sp, #72
 1249 0158 985C     		ldrb	r0, [r3, r2]
 1250 015a 0021     		movs	r1, #0
 1251 015c 3B00     		movs	r3, r7
 1252 015e 3200     		movs	r2, r6
 1253 0160 FFF7FEFF 		bl	__aeabi_lmul
 1254              	.LVL126:
 842:modes.c       ****                 {
 1255              		.loc 1 842 0 discriminator 3
 1256 0164 019B     		ldr	r3, [sp, #4]
 1257              		.loc 1 845 0 discriminator 3
 1258 0166 2418     		adds	r4, r4, r0
 1259 0168 4D41     		adcs	r5, r5, r1
 1260              	.LVL127:
 842:modes.c       ****                 {
 1261              		.loc 1 842 0 discriminator 3
 1262 016a 013B     		subs	r3, r3, #1
 1263 016c DBB2     		uxtb	r3, r3
 846:modes.c       **** // increase weight value                    
ARM GAS  C:\Users\Ala\AppData\Local\Temp\ccPRO05X.s 			page 42


 847:modes.c       ****                     hex_weight = 2 * hex_weight;
 1264              		.loc 1 847 0 discriminator 3
 1265 016e B619     		adds	r6, r6, r6
 1266 0170 7F41     		adcs	r7, r7, r7
 1267              	.LVL128:
 842:modes.c       ****                 {
 1268              		.loc 1 842 0 discriminator 3
 1269 0172 0193     		str	r3, [sp, #4]
 1270              	.LVL129:
 1271 0174 EBE7     		b	.L96
 1272              	.L248:
 848:modes.c       ****                 }
 849:modes.c       ****             }
 850:modes.c       ****             
 851:modes.c       **** // Map remote control buttons to BeoModern commads
 852:modes.c       **** // BeoModern will respond to commands sent to Aux 1/2/3/4/5 inputs
 853:modes.c       **** // it will react to nubmers from 0-7, arrows up/down/let/right, power on/off,
 854:modes.c       **** // OK, stop/pause and display/color_buttons(toggle display mode)
 855:modes.c       **** 
 856:modes.c       **** // only Aux button pressed - power up to last state - return code 10
 857:modes.c       ****             if (COMMAND_HEX == 0x000003BC35000000)
 1273              		.loc 1 857 0
 1274 0176 D423     		movs	r3, #212
 1275 0178 9B05     		lsls	r3, r3, #22
 1276 017a 9C42     		cmp	r4, r3
 1277 017c 0CD1     		bne	.L95
 1278 017e EF23     		movs	r3, #239
 1279 0180 9B00     		lsls	r3, r3, #2
 1280 0182 9D42     		cmp	r5, r3
 1281 0184 00D1     		bne	.LCB1123
 1282 0186 54E3     		b	.L221	@long jump
 1283              	.LCB1123:
 1284 0188 06E0     		b	.L95
 1285              	.L250:
 1286 018a C046     		.align	2
 1287              	.L249:
 1288 018c 00000000 		.word	DATALINK_TABLE_COUNTER_MAX
 1289 0190 00000000 		.word	DATALINK_TABLE
 1290              	.LVL130:
 1291              	.L123:
 770:modes.c       **** // variable to store return status
 1292              		.loc 1 770 0
 1293 0194 0024     		movs	r4, #0
 1294 0196 0025     		movs	r5, #0
 1295              	.LVL131:
 1296              	.L95:
 858:modes.c       ****             {        
 859:modes.c       ****                 status = 10;
 860:modes.c       ****             }
 861:modes.c       **** // Aux button pressed plus one digit number 1 or nubmer one to any of five
 862:modes.c       **** // aux devices - return code 11
 863:modes.c       ****             else if ( (COMMAND_HEX == 0x000003BC05000000) | 
 1297              		.loc 1 863 0
 1298 0198 A022     		movs	r2, #160
 1299 019a EF26     		movs	r6, #239
 1300 019c 0120     		movs	r0, #1
 1301 019e D204     		lsls	r2, r2, #19
ARM GAS  C:\Users\Ala\AppData\Local\Temp\ccPRO05X.s 			page 43


 1302 01a0 B600     		lsls	r6, r6, #2
 1303 01a2 6240     		eors	r2, r4
 1304 01a4 6E40     		eors	r6, r5
 1305 01a6 6040     		eors	r0, r4
 1306 01a8 3243     		orrs	r2, r6
 1307 01aa 2843     		orrs	r0, r5
 1308 01ac 4142     		rsbs	r1, r0, #0
 1309 01ae 4841     		adcs	r0, r0, r1
 1310 01b0 5142     		rsbs	r1, r2, #0
 1311 01b2 4A41     		adcs	r2, r2, r1
 1312 01b4 0243     		orrs	r2, r0
 1313 01b6 1100     		movs	r1, r2
 1314 01b8 E04A     		ldr	r2, .L251
 1315 01ba 2B00     		movs	r3, r5
 1316 01bc 6240     		eors	r2, r4
 1317 01be 2A43     		orrs	r2, r5
 1318 01c0 5042     		rsbs	r0, r2, #0
 1319 01c2 4241     		adcs	r2, r2, r0
 1320 01c4 0A43     		orrs	r2, r1
 1321 01c6 DE49     		ldr	r1, .L251+4
 1322 01c8 6140     		eors	r1, r4
 1323 01ca 2943     		orrs	r1, r5
 1324 01cc 4842     		rsbs	r0, r1, #0
 1325 01ce 4141     		adcs	r1, r1, r0
 1326 01d0 0A43     		orrs	r2, r1
 1327 01d2 00D0     		beq	.LCB1173
 1328 01d4 30E3     		b	.L125	@long jump
 1329              	.LCB1173:
 1330 01d6 0121     		movs	r1, #1
 1331 01d8 DA48     		ldr	r0, .L251+8
 1332 01da 4942     		rsbs	r1, r1, #0
 1333 01dc 0019     		adds	r0, r0, r4
 1334 01de 6941     		adcs	r1, r1, r5
 1335 01e0 D94A     		ldr	r2, .L251+12
 1336 01e2 1040     		ands	r0, r2
 1337 01e4 0143     		orrs	r1, r0
 1338 01e6 00D1     		bne	.LCB1184
 1339 01e8 26E3     		b	.L125	@long jump
 1340              	.LCB1184:
 864:modes.c       ****                     (COMMAND_HEX == 0x0000000000000001) |
 865:modes.c       ****                     (COMMAND_HEX == 0x0000000000000501) |
 866:modes.c       ****                     (COMMAND_HEX == 0x0000000000000A01) |
 867:modes.c       ****                     (COMMAND_HEX == 0x0000000000000601) |
 868:modes.c       ****                     (COMMAND_HEX == 0x0000000000012901) )
 869:modes.c       ****                 {        
 870:modes.c       ****                     status = 11;
 871:modes.c       ****                 }
 872:modes.c       **** 
 873:modes.c       **** // Aux button pressed plus one digit number 2 or nubmer two to any of five
 874:modes.c       **** // aux devices - return code 12
 875:modes.c       ****             else if ( (COMMAND_HEX == 0x000003BC55000000) |
 1341              		.loc 1 875 0
 1342 01ea AA21     		movs	r1, #170
 1343 01ec 0227     		movs	r7, #2
 1344 01ee C905     		lsls	r1, r1, #23
 1345 01f0 6140     		eors	r1, r4
 1346 01f2 6740     		eors	r7, r4
ARM GAS  C:\Users\Ala\AppData\Local\Temp\ccPRO05X.s 			page 44


 1347 01f4 3143     		orrs	r1, r6
 1348 01f6 2F43     		orrs	r7, r5
 1349 01f8 7842     		rsbs	r0, r7, #0
 1350 01fa 4741     		adcs	r7, r7, r0
 1351 01fc 4842     		rsbs	r0, r1, #0
 1352 01fe 4141     		adcs	r1, r1, r0
 1353 0200 3943     		orrs	r1, r7
 1354 0202 0800     		movs	r0, r1
 1355 0204 D149     		ldr	r1, .L251+16
 1356 0206 6140     		eors	r1, r4
 1357 0208 2943     		orrs	r1, r5
 1358 020a 4F42     		rsbs	r7, r1, #0
 1359 020c 7941     		adcs	r1, r1, r7
 1360 020e 0143     		orrs	r1, r0
 1361 0210 CF48     		ldr	r0, .L251+20
 1362 0212 6040     		eors	r0, r4
 1363 0214 2843     		orrs	r0, r5
 1364 0216 4742     		rsbs	r7, r0, #0
 1365 0218 7841     		adcs	r0, r0, r7
 1366 021a 0143     		orrs	r1, r0
 1367 021c 00D0     		beq	.LCB1209
 1368 021e 0DE3     		b	.L126	@long jump
 1369              	.LCB1209:
 1370 0220 0121     		movs	r1, #1
 1371 0222 CC48     		ldr	r0, .L251+24
 1372 0224 4942     		rsbs	r1, r1, #0
 1373 0226 0019     		adds	r0, r0, r4
 1374 0228 6941     		adcs	r1, r1, r5
 1375 022a 1040     		ands	r0, r2
 1376 022c 0143     		orrs	r1, r0
 1377 022e 00D1     		bne	.LCB1219
 1378 0230 04E3     		b	.L126	@long jump
 1379              	.LCB1219:
 876:modes.c       ****                     (COMMAND_HEX == 0x0000000000000002) |
 877:modes.c       ****                     (COMMAND_HEX == 0x0000000000000502) |
 878:modes.c       ****                     (COMMAND_HEX == 0x0000000000000A02) |
 879:modes.c       ****                     (COMMAND_HEX == 0x0000000000000602) |
 880:modes.c       ****                     (COMMAND_HEX == 0x0000000000012902) )
 881:modes.c       ****                 {        
 882:modes.c       ****                     status = 12;
 883:modes.c       ****                 }
 884:modes.c       **** 
 885:modes.c       **** // Aux button pressed plus one digit number 3 or nubmer three to any of five
 886:modes.c       **** // aux devices - return code 13
 887:modes.c       ****             else if ( (COMMAND_HEX == 0x000003BCA5000000) |
 1380              		.loc 1 887 0
 1381 0232 A521     		movs	r1, #165
 1382 0234 0327     		movs	r7, #3
 1383 0236 0906     		lsls	r1, r1, #24
 1384 0238 6140     		eors	r1, r4
 1385 023a 6740     		eors	r7, r4
 1386 023c 3143     		orrs	r1, r6
 1387 023e 2F43     		orrs	r7, r5
 1388 0240 7842     		rsbs	r0, r7, #0
 1389 0242 4741     		adcs	r7, r7, r0
 1390 0244 4842     		rsbs	r0, r1, #0
 1391 0246 4141     		adcs	r1, r1, r0
ARM GAS  C:\Users\Ala\AppData\Local\Temp\ccPRO05X.s 			page 45


 1392 0248 3943     		orrs	r1, r7
 1393 024a 0800     		movs	r0, r1
 1394 024c C249     		ldr	r1, .L251+28
 1395 024e 6140     		eors	r1, r4
 1396 0250 2943     		orrs	r1, r5
 1397 0252 4F42     		rsbs	r7, r1, #0
 1398 0254 7941     		adcs	r1, r1, r7
 1399 0256 0143     		orrs	r1, r0
 1400 0258 C048     		ldr	r0, .L251+32
 1401 025a 6040     		eors	r0, r4
 1402 025c 2843     		orrs	r0, r5
 1403 025e 4742     		rsbs	r7, r0, #0
 1404 0260 7841     		adcs	r0, r0, r7
 1405 0262 0143     		orrs	r1, r0
 1406 0264 00D0     		beq	.LCB1243
 1407 0266 EBE2     		b	.L127	@long jump
 1408              	.LCB1243:
 1409 0268 0121     		movs	r1, #1
 1410 026a BD48     		ldr	r0, .L251+36
 1411 026c 4942     		rsbs	r1, r1, #0
 1412 026e 0019     		adds	r0, r0, r4
 1413 0270 6941     		adcs	r1, r1, r5
 1414 0272 1040     		ands	r0, r2
 1415 0274 0143     		orrs	r1, r0
 1416 0276 00D1     		bne	.LCB1253
 1417 0278 E2E2     		b	.L127	@long jump
 1418              	.LCB1253:
 888:modes.c       ****                     (COMMAND_HEX == 0x0000000000000003) |
 889:modes.c       ****                     (COMMAND_HEX == 0x0000000000000503) |
 890:modes.c       ****                     (COMMAND_HEX == 0x0000000000000A03) |
 891:modes.c       ****                     (COMMAND_HEX == 0x0000000000000603) |
 892:modes.c       ****                     (COMMAND_HEX == 0x0000000000012903) )
 893:modes.c       ****                 {        
 894:modes.c       ****                     status = 13;
 895:modes.c       ****                 }
 896:modes.c       **** 
 897:modes.c       **** // Aux button pressed plus one digit number 4 or nubmer four to any of five
 898:modes.c       **** // aux devices - return code 14
 899:modes.c       ****             else if ( (COMMAND_HEX == 0x000003BC65000000) |
 1419              		.loc 1 899 0
 1420 027a CA21     		movs	r1, #202
 1421 027c 0427     		movs	r7, #4
 1422 027e C905     		lsls	r1, r1, #23
 1423 0280 6140     		eors	r1, r4
 1424 0282 6740     		eors	r7, r4
 1425 0284 3143     		orrs	r1, r6
 1426 0286 2F43     		orrs	r7, r5
 1427 0288 7842     		rsbs	r0, r7, #0
 1428 028a 4741     		adcs	r7, r7, r0
 1429 028c 4842     		rsbs	r0, r1, #0
 1430 028e 4141     		adcs	r1, r1, r0
 1431 0290 3943     		orrs	r1, r7
 1432 0292 0800     		movs	r0, r1
 1433 0294 B349     		ldr	r1, .L251+40
 1434 0296 6140     		eors	r1, r4
 1435 0298 2943     		orrs	r1, r5
 1436 029a 4F42     		rsbs	r7, r1, #0
ARM GAS  C:\Users\Ala\AppData\Local\Temp\ccPRO05X.s 			page 46


 1437 029c 7941     		adcs	r1, r1, r7
 1438 029e 0143     		orrs	r1, r0
 1439 02a0 B148     		ldr	r0, .L251+44
 1440 02a2 6040     		eors	r0, r4
 1441 02a4 2843     		orrs	r0, r5
 1442 02a6 4742     		rsbs	r7, r0, #0
 1443 02a8 7841     		adcs	r0, r0, r7
 1444 02aa 0143     		orrs	r1, r0
 1445 02ac 00D0     		beq	.LCB1277
 1446 02ae C9E2     		b	.L128	@long jump
 1447              	.LCB1277:
 1448 02b0 0121     		movs	r1, #1
 1449 02b2 AE48     		ldr	r0, .L251+48
 1450 02b4 4942     		rsbs	r1, r1, #0
 1451 02b6 0019     		adds	r0, r0, r4
 1452 02b8 6941     		adcs	r1, r1, r5
 1453 02ba 1040     		ands	r0, r2
 1454 02bc 0143     		orrs	r1, r0
 1455 02be 00D1     		bne	.LCB1287
 1456 02c0 C0E2     		b	.L128	@long jump
 1457              	.LCB1287:
 900:modes.c       ****                     (COMMAND_HEX == 0x0000000000000004) |
 901:modes.c       ****                     (COMMAND_HEX == 0x0000000000000504) |
 902:modes.c       ****                     (COMMAND_HEX == 0x0000000000000A04) |
 903:modes.c       ****                     (COMMAND_HEX == 0x0000000000000604) |
 904:modes.c       ****                     (COMMAND_HEX == 0x0000000000012904) )
 905:modes.c       ****                 {        
 906:modes.c       ****                     status = 14;
 907:modes.c       ****                 }
 908:modes.c       **** 
 909:modes.c       **** // Aux button pressed plus one digit number 5 or nubmer five to any of five
 910:modes.c       **** // aux devices - return code 15
 911:modes.c       ****             else if ( (COMMAND_HEX == 0x000003BC85000000) |
 1458              		.loc 1 911 0
 1459 02c2 8521     		movs	r1, #133
 1460 02c4 0527     		movs	r7, #5
 1461 02c6 0906     		lsls	r1, r1, #24
 1462 02c8 6140     		eors	r1, r4
 1463 02ca 6740     		eors	r7, r4
 1464 02cc 0E43     		orrs	r6, r1
 1465 02ce 2F43     		orrs	r7, r5
 1466 02d0 7842     		rsbs	r0, r7, #0
 1467 02d2 4741     		adcs	r7, r7, r0
 1468 02d4 7042     		rsbs	r0, r6, #0
 1469 02d6 4641     		adcs	r6, r6, r0
 1470 02d8 3E43     		orrs	r6, r7
 1471 02da A54F     		ldr	r7, .L251+52
 1472 02dc A549     		ldr	r1, .L251+56
 1473 02de 6740     		eors	r7, r4
 1474 02e0 6140     		eors	r1, r4
 1475 02e2 2F43     		orrs	r7, r5
 1476 02e4 7842     		rsbs	r0, r7, #0
 1477 02e6 7841     		adcs	r0, r0, r7
 1478 02e8 0B43     		orrs	r3, r1
 1479 02ea 5942     		rsbs	r1, r3, #0
 1480 02ec 5941     		adcs	r1, r1, r3
 1481 02ee 0643     		orrs	r6, r0
ARM GAS  C:\Users\Ala\AppData\Local\Temp\ccPRO05X.s 			page 47


 1482 02f0 3143     		orrs	r1, r6
 1483 02f2 00D0     		beq	.LCB1310
 1484 02f4 A8E2     		b	.L129	@long jump
 1485              	.LCB1310:
 1486 02f6 0121     		movs	r1, #1
 1487 02f8 9F48     		ldr	r0, .L251+60
 1488 02fa 4942     		rsbs	r1, r1, #0
 1489 02fc 0019     		adds	r0, r0, r4
 1490 02fe 6941     		adcs	r1, r1, r5
 1491 0300 0300     		movs	r3, r0
 1492 0302 1340     		ands	r3, r2
 1493 0304 0B43     		orrs	r3, r1
 1494 0306 00D1     		bne	.LCB1321
 1495 0308 9EE2     		b	.L129	@long jump
 1496              	.LCB1321:
 912:modes.c       ****                     (COMMAND_HEX == 0x0000000000000005) |
 913:modes.c       ****                     (COMMAND_HEX == 0x0000000000000505) |
 914:modes.c       ****                     (COMMAND_HEX == 0x0000000000000A05) |
 915:modes.c       ****                     (COMMAND_HEX == 0x0000000000000605) |
 916:modes.c       ****                     (COMMAND_HEX == 0x0000000000012905) )
 917:modes.c       ****                 {        
 918:modes.c       ****                     status = 15;
 919:modes.c       ****                 }        
 920:modes.c       **** 
 921:modes.c       **** // Digit number 6 to any of five aux devices - return code 16
 922:modes.c       ****             else if ( (COMMAND_HEX == 0x0000000000000006) |
 1497              		.loc 1 922 0
 1498 030a 0621     		movs	r1, #6
 1499 030c 6140     		eors	r1, r4
 1500 030e 2943     		orrs	r1, r5
 1501 0310 4842     		rsbs	r0, r1, #0
 1502 0312 4141     		adcs	r1, r1, r0
 1503 0314 9948     		ldr	r0, .L251+64
 1504 0316 2B00     		movs	r3, r5
 1505 0318 6040     		eors	r0, r4
 1506 031a 2843     		orrs	r0, r5
 1507 031c 4642     		rsbs	r6, r0, #0
 1508 031e 7041     		adcs	r0, r0, r6
 1509 0320 0143     		orrs	r1, r0
 1510 0322 9748     		ldr	r0, .L251+68
 1511 0324 6040     		eors	r0, r4
 1512 0326 2843     		orrs	r0, r5
 1513 0328 4642     		rsbs	r6, r0, #0
 1514 032a 7041     		adcs	r0, r0, r6
 1515 032c 0143     		orrs	r1, r0
 1516 032e 00D0     		beq	.LCB1339
 1517 0330 8CE2     		b	.L130	@long jump
 1518              	.LCB1339:
 1519 0332 0121     		movs	r1, #1
 1520 0334 9348     		ldr	r0, .L251+72
 1521 0336 4942     		rsbs	r1, r1, #0
 1522 0338 0019     		adds	r0, r0, r4
 1523 033a 6941     		adcs	r1, r1, r5
 1524 033c 1040     		ands	r0, r2
 1525 033e 1600     		movs	r6, r2
 1526 0340 0143     		orrs	r1, r0
 1527 0342 00D1     		bne	.LCB1350
ARM GAS  C:\Users\Ala\AppData\Local\Temp\ccPRO05X.s 			page 48


 1528 0344 82E2     		b	.L130	@long jump
 1529              	.LCB1350:
 923:modes.c       ****                     (COMMAND_HEX == 0x0000000000000506) |
 924:modes.c       ****                     (COMMAND_HEX == 0x0000000000000A06) |
 925:modes.c       ****                     (COMMAND_HEX == 0x0000000000000606) |
 926:modes.c       ****                     (COMMAND_HEX == 0x0000000000012906) )
 927:modes.c       ****                 {        
 928:modes.c       ****                     status = 16;
 929:modes.c       ****                 }        
 930:modes.c       **** 
 931:modes.c       **** // Digit number 7 to any of five aux devices - return code 17
 932:modes.c       ****             else if ( (COMMAND_HEX == 0x0000000000000007) |
 1530              		.loc 1 932 0
 1531 0346 0721     		movs	r1, #7
 1532 0348 6140     		eors	r1, r4
 1533 034a 2943     		orrs	r1, r5
 1534 034c 4842     		rsbs	r0, r1, #0
 1535 034e 4141     		adcs	r1, r1, r0
 1536 0350 8D48     		ldr	r0, .L251+76
 1537 0352 6040     		eors	r0, r4
 1538 0354 2843     		orrs	r0, r5
 1539 0356 4742     		rsbs	r7, r0, #0
 1540 0358 7841     		adcs	r0, r0, r7
 1541 035a 0143     		orrs	r1, r0
 1542 035c 8B48     		ldr	r0, .L251+80
 1543 035e 6040     		eors	r0, r4
 1544 0360 2843     		orrs	r0, r5
 1545 0362 4742     		rsbs	r7, r0, #0
 1546 0364 7841     		adcs	r0, r0, r7
 1547 0366 0143     		orrs	r1, r0
 1548 0368 00D0     		beq	.LCB1367
 1549 036a 71E2     		b	.L131	@long jump
 1550              	.LCB1367:
 1551 036c 0121     		movs	r1, #1
 1552 036e 8848     		ldr	r0, .L251+84
 1553 0370 4942     		rsbs	r1, r1, #0
 1554 0372 0019     		adds	r0, r0, r4
 1555 0374 6941     		adcs	r1, r1, r5
 1556 0376 1040     		ands	r0, r2
 1557 0378 0143     		orrs	r1, r0
 1558 037a 00D1     		bne	.LCB1377
 1559 037c 68E2     		b	.L131	@long jump
 1560              	.LCB1377:
 933:modes.c       ****                     (COMMAND_HEX == 0x0000000000000507) |
 934:modes.c       ****                     (COMMAND_HEX == 0x0000000000000A07) |
 935:modes.c       ****                     (COMMAND_HEX == 0x0000000000000607) |
 936:modes.c       ****                     (COMMAND_HEX == 0x0000000000012907) )
 937:modes.c       ****                 {        
 938:modes.c       ****                     status = 17;
 939:modes.c       ****                 }        
 940:modes.c       **** 
 941:modes.c       **** // Digit number 8 to any of five aux devices - return code 18
 942:modes.c       ****             else if ( (COMMAND_HEX == 0x0000000000000008) |
 1561              		.loc 1 942 0
 1562 037e 0821     		movs	r1, #8
 1563 0380 6140     		eors	r1, r4
 1564 0382 2943     		orrs	r1, r5
ARM GAS  C:\Users\Ala\AppData\Local\Temp\ccPRO05X.s 			page 49


 1565 0384 4842     		rsbs	r0, r1, #0
 1566 0386 4141     		adcs	r1, r1, r0
 1567 0388 8248     		ldr	r0, .L251+88
 1568 038a 6040     		eors	r0, r4
 1569 038c 2843     		orrs	r0, r5
 1570 038e 4742     		rsbs	r7, r0, #0
 1571 0390 7841     		adcs	r0, r0, r7
 1572 0392 0143     		orrs	r1, r0
 1573 0394 8048     		ldr	r0, .L251+92
 1574 0396 6040     		eors	r0, r4
 1575 0398 2843     		orrs	r0, r5
 1576 039a 4742     		rsbs	r7, r0, #0
 1577 039c 7841     		adcs	r0, r0, r7
 1578 039e 0143     		orrs	r1, r0
 1579 03a0 00D0     		beq	.LCB1394
 1580 03a2 57E2     		b	.L132	@long jump
 1581              	.LCB1394:
 1582 03a4 0121     		movs	r1, #1
 1583 03a6 7D48     		ldr	r0, .L251+96
 1584 03a8 4942     		rsbs	r1, r1, #0
 1585 03aa 0019     		adds	r0, r0, r4
 1586 03ac 6941     		adcs	r1, r1, r5
 1587 03ae 1040     		ands	r0, r2
 1588 03b0 0143     		orrs	r1, r0
 1589 03b2 00D1     		bne	.LCB1404
 1590 03b4 4EE2     		b	.L132	@long jump
 1591              	.LCB1404:
 943:modes.c       ****                     (COMMAND_HEX == 0x0000000000000508) |
 944:modes.c       ****                     (COMMAND_HEX == 0x0000000000000A08) |
 945:modes.c       ****                     (COMMAND_HEX == 0x0000000000000608) |
 946:modes.c       ****                     (COMMAND_HEX == 0x0000000000012908) )
 947:modes.c       ****                 {        
 948:modes.c       ****                     status = 18;
 949:modes.c       ****                 } 
 950:modes.c       ****                 
 951:modes.c       **** // OK/GO/PLAY to any of five aux devices - return code 20
 952:modes.c       ****             else if ( (COMMAND_HEX == 0x0000000000000035) |
 1592              		.loc 1 952 0
 1593 03b6 3521     		movs	r1, #53
 1594 03b8 6140     		eors	r1, r4
 1595 03ba 2943     		orrs	r1, r5
 1596 03bc 4842     		rsbs	r0, r1, #0
 1597 03be 4141     		adcs	r1, r1, r0
 1598 03c0 7748     		ldr	r0, .L251+100
 1599 03c2 6040     		eors	r0, r4
 1600 03c4 2843     		orrs	r0, r5
 1601 03c6 4742     		rsbs	r7, r0, #0
 1602 03c8 7841     		adcs	r0, r0, r7
 1603 03ca 0143     		orrs	r1, r0
 1604 03cc 7548     		ldr	r0, .L251+104
 1605 03ce 6040     		eors	r0, r4
 1606 03d0 2843     		orrs	r0, r5
 1607 03d2 4742     		rsbs	r7, r0, #0
 1608 03d4 7841     		adcs	r0, r0, r7
 1609 03d6 0143     		orrs	r1, r0
 1610 03d8 00D0     		beq	.LCB1421
 1611 03da 3DE2     		b	.L133	@long jump
ARM GAS  C:\Users\Ala\AppData\Local\Temp\ccPRO05X.s 			page 50


 1612              	.LCB1421:
 1613 03dc 0121     		movs	r1, #1
 1614 03de 7248     		ldr	r0, .L251+108
 1615 03e0 4942     		rsbs	r1, r1, #0
 1616 03e2 0019     		adds	r0, r0, r4
 1617 03e4 6941     		adcs	r1, r1, r5
 1618 03e6 1040     		ands	r0, r2
 1619 03e8 0143     		orrs	r1, r0
 1620 03ea 00D1     		bne	.LCB1431
 1621 03ec 34E2     		b	.L133	@long jump
 1622              	.LCB1431:
 953:modes.c       ****                     (COMMAND_HEX == 0x0000000000000535) |
 954:modes.c       ****                     (COMMAND_HEX == 0x0000000000000A35) |
 955:modes.c       ****                     (COMMAND_HEX == 0x0000000000000635) |
 956:modes.c       ****                     (COMMAND_HEX == 0x0000000000012935) )
 957:modes.c       ****                 {        
 958:modes.c       ****                     status = 20;
 959:modes.c       ****                 } 
 960:modes.c       **** 
 961:modes.c       **** // UP/STEP > to any of five aux devices - return code 21
 962:modes.c       ****             else if ( (COMMAND_HEX == 0x000000000000001E) |
 1623              		.loc 1 962 0
 1624 03ee 1E21     		movs	r1, #30
 1625 03f0 6140     		eors	r1, r4
 1626 03f2 2943     		orrs	r1, r5
 1627 03f4 4842     		rsbs	r0, r1, #0
 1628 03f6 4141     		adcs	r1, r1, r0
 1629 03f8 6C48     		ldr	r0, .L251+112
 1630 03fa 6040     		eors	r0, r4
 1631 03fc 2843     		orrs	r0, r5
 1632 03fe 0700     		movs	r7, r0
 1633 0400 7842     		rsbs	r0, r7, #0
 1634 0402 7841     		adcs	r0, r0, r7
 1635 0404 0843     		orrs	r0, r1
 1636 0406 6A49     		ldr	r1, .L251+116
 1637 0408 6140     		eors	r1, r4
 1638 040a 0B43     		orrs	r3, r1
 1639 040c 5942     		rsbs	r1, r3, #0
 1640 040e 5941     		adcs	r1, r1, r3
 1641 0410 0143     		orrs	r1, r0
 1642 0412 00D0     		beq	.LCB1449
 1643 0414 22E2     		b	.L134	@long jump
 1644              	.LCB1449:
 1645 0416 0121     		movs	r1, #1
 1646 0418 6648     		ldr	r0, .L251+120
 1647 041a 4942     		rsbs	r1, r1, #0
 1648 041c 0019     		adds	r0, r0, r4
 1649 041e 6941     		adcs	r1, r1, r5
 1650 0420 0640     		ands	r6, r0
 1651 0422 0E43     		orrs	r6, r1
 1652 0424 00D1     		bne	.LCB1459
 1653 0426 19E2     		b	.L134	@long jump
 1654              	.LCB1459:
 963:modes.c       ****                     (COMMAND_HEX == 0x000000000000051E) |
 964:modes.c       ****                     (COMMAND_HEX == 0x0000000000000A1E) |
 965:modes.c       ****                     (COMMAND_HEX == 0x000000000000061E) |
 966:modes.c       ****                     (COMMAND_HEX == 0x000000000001291E) )
ARM GAS  C:\Users\Ala\AppData\Local\Temp\ccPRO05X.s 			page 51


 967:modes.c       ****                 {        
 968:modes.c       ****                     status = 21;
 969:modes.c       ****                 }         
 970:modes.c       ****         
 971:modes.c       **** // DOWN/< STEP to any of five aux devices - return code 22
 972:modes.c       ****             else if ( (COMMAND_HEX == 0x000000000000001F) |
 1655              		.loc 1 972 0
 1656 0428 1F21     		movs	r1, #31
 1657 042a 6140     		eors	r1, r4
 1658 042c 2943     		orrs	r1, r5
 1659 042e 4842     		rsbs	r0, r1, #0
 1660 0430 4141     		adcs	r1, r1, r0
 1661 0432 6148     		ldr	r0, .L251+124
 1662 0434 2B00     		movs	r3, r5
 1663 0436 6040     		eors	r0, r4
 1664 0438 2843     		orrs	r0, r5
 1665 043a 4642     		rsbs	r6, r0, #0
 1666 043c 7041     		adcs	r0, r0, r6
 1667 043e 0143     		orrs	r1, r0
 1668 0440 5E48     		ldr	r0, .L251+128
 1669 0442 6040     		eors	r0, r4
 1670 0444 2843     		orrs	r0, r5
 1671 0446 4642     		rsbs	r6, r0, #0
 1672 0448 7041     		adcs	r0, r0, r6
 1673 044a 0143     		orrs	r1, r0
 1674 044c 00D0     		beq	.LCB1477
 1675 044e 07E2     		b	.L135	@long jump
 1676              	.LCB1477:
 1677 0450 0121     		movs	r1, #1
 1678 0452 5B48     		ldr	r0, .L251+132
 1679 0454 4942     		rsbs	r1, r1, #0
 1680 0456 0019     		adds	r0, r0, r4
 1681 0458 6941     		adcs	r1, r1, r5
 1682 045a 1040     		ands	r0, r2
 1683 045c 1600     		movs	r6, r2
 1684 045e 0143     		orrs	r1, r0
 1685 0460 00D1     		bne	.LCB1488
 1686 0462 FDE1     		b	.L135	@long jump
 1687              	.LCB1488:
 973:modes.c       ****                     (COMMAND_HEX == 0x000000000000051F) |
 974:modes.c       ****                     (COMMAND_HEX == 0x0000000000000A1F) |
 975:modes.c       ****                     (COMMAND_HEX == 0x000000000000061F) |
 976:modes.c       ****                     (COMMAND_HEX == 0x000000000001291F) )
 977:modes.c       ****                 {        
 978:modes.c       ****                     status = 22;
 979:modes.c       ****                 } 
 980:modes.c       **** 
 981:modes.c       **** // LEFT/<< to any of five aux devices - return code 23
 982:modes.c       ****             else if ( (COMMAND_HEX == 0x0000000000000032) |
 1688              		.loc 1 982 0
 1689 0464 3221     		movs	r1, #50
 1690 0466 6140     		eors	r1, r4
 1691 0468 2943     		orrs	r1, r5
 1692 046a 4842     		rsbs	r0, r1, #0
 1693 046c 4141     		adcs	r1, r1, r0
 1694 046e 5548     		ldr	r0, .L251+136
 1695 0470 6040     		eors	r0, r4
ARM GAS  C:\Users\Ala\AppData\Local\Temp\ccPRO05X.s 			page 52


 1696 0472 2843     		orrs	r0, r5
 1697 0474 4742     		rsbs	r7, r0, #0
 1698 0476 7841     		adcs	r0, r0, r7
 1699 0478 0143     		orrs	r1, r0
 1700 047a 5348     		ldr	r0, .L251+140
 1701 047c 6040     		eors	r0, r4
 1702 047e 2843     		orrs	r0, r5
 1703 0480 4742     		rsbs	r7, r0, #0
 1704 0482 7841     		adcs	r0, r0, r7
 1705 0484 0143     		orrs	r1, r0
 1706 0486 00D0     		beq	.LCB1505
 1707 0488 ECE1     		b	.L136	@long jump
 1708              	.LCB1505:
 1709 048a 0121     		movs	r1, #1
 1710 048c 4F48     		ldr	r0, .L251+144
 1711 048e 4942     		rsbs	r1, r1, #0
 1712 0490 0019     		adds	r0, r0, r4
 1713 0492 6941     		adcs	r1, r1, r5
 1714 0494 1040     		ands	r0, r2
 1715 0496 0143     		orrs	r1, r0
 1716 0498 00D1     		bne	.LCB1515
 1717 049a E3E1     		b	.L136	@long jump
 1718              	.LCB1515:
 983:modes.c       ****                     (COMMAND_HEX == 0x0000000000000532) |
 984:modes.c       ****                     (COMMAND_HEX == 0x0000000000000A32) |
 985:modes.c       ****                     (COMMAND_HEX == 0x0000000000000632) |
 986:modes.c       ****                     (COMMAND_HEX == 0x0000000000012932) )
 987:modes.c       ****                 {        
 988:modes.c       ****                     status = 23;
 989:modes.c       ****                 } 
 990:modes.c       **** 
 991:modes.c       **** // RIGHT/>> to any of five aux devices - return code 24
 992:modes.c       ****             else if ( (COMMAND_HEX == 0x0000000000000034) |
 1719              		.loc 1 992 0
 1720 049c 3421     		movs	r1, #52
 1721 049e 6140     		eors	r1, r4
 1722 04a0 2943     		orrs	r1, r5
 1723 04a2 4842     		rsbs	r0, r1, #0
 1724 04a4 4141     		adcs	r1, r1, r0
 1725 04a6 4A48     		ldr	r0, .L251+148
 1726 04a8 6040     		eors	r0, r4
 1727 04aa 2843     		orrs	r0, r5
 1728 04ac 4742     		rsbs	r7, r0, #0
 1729 04ae 7841     		adcs	r0, r0, r7
 1730 04b0 0143     		orrs	r1, r0
 1731 04b2 4848     		ldr	r0, .L251+152
 1732 04b4 6040     		eors	r0, r4
 1733 04b6 2843     		orrs	r0, r5
 1734 04b8 4742     		rsbs	r7, r0, #0
 1735 04ba 7841     		adcs	r0, r0, r7
 1736 04bc 0143     		orrs	r1, r0
 1737 04be 00D0     		beq	.LCB1532
 1738 04c0 D2E1     		b	.L137	@long jump
 1739              	.LCB1532:
 1740 04c2 0121     		movs	r1, #1
 1741 04c4 4448     		ldr	r0, .L251+156
 1742 04c6 4942     		rsbs	r1, r1, #0
ARM GAS  C:\Users\Ala\AppData\Local\Temp\ccPRO05X.s 			page 53


 1743 04c8 0019     		adds	r0, r0, r4
 1744 04ca 6941     		adcs	r1, r1, r5
 1745 04cc 1040     		ands	r0, r2
 1746 04ce 0143     		orrs	r1, r0
 1747 04d0 00D1     		bne	.LCB1542
 1748 04d2 C9E1     		b	.L137	@long jump
 1749              	.LCB1542:
 993:modes.c       ****                     (COMMAND_HEX == 0x0000000000000534) |
 994:modes.c       ****                     (COMMAND_HEX == 0x0000000000000A34) |
 995:modes.c       ****                     (COMMAND_HEX == 0x0000000000000634) |
 996:modes.c       ****                     (COMMAND_HEX == 0x0000000000012934) )
 997:modes.c       ****                 {        
 998:modes.c       ****                     status = 24;
 999:modes.c       ****                 } 
1000:modes.c       **** 
1001:modes.c       **** // STOP to any of five aux devices - return code 25
1002:modes.c       ****             else if ( (COMMAND_HEX == 0x0000000000000036) |
 1750              		.loc 1 1002 0
 1751 04d4 3621     		movs	r1, #54
 1752 04d6 6140     		eors	r1, r4
 1753 04d8 2943     		orrs	r1, r5
 1754 04da 4842     		rsbs	r0, r1, #0
 1755 04dc 4141     		adcs	r1, r1, r0
 1756 04de 3F48     		ldr	r0, .L251+160
 1757 04e0 6040     		eors	r0, r4
 1758 04e2 2843     		orrs	r0, r5
 1759 04e4 0700     		movs	r7, r0
 1760 04e6 7842     		rsbs	r0, r7, #0
 1761 04e8 7841     		adcs	r0, r0, r7
 1762 04ea 0843     		orrs	r0, r1
 1763 04ec 3C49     		ldr	r1, .L251+164
 1764 04ee 6140     		eors	r1, r4
 1765 04f0 0B43     		orrs	r3, r1
 1766 04f2 5942     		rsbs	r1, r3, #0
 1767 04f4 5941     		adcs	r1, r1, r3
 1768 04f6 0143     		orrs	r1, r0
 1769 04f8 00D0     		beq	.LCB1560
 1770 04fa B7E1     		b	.L138	@long jump
 1771              	.LCB1560:
 1772 04fc 0121     		movs	r1, #1
 1773 04fe 3948     		ldr	r0, .L251+168
 1774 0500 4942     		rsbs	r1, r1, #0
 1775 0502 0019     		adds	r0, r0, r4
 1776 0504 6941     		adcs	r1, r1, r5
 1777 0506 0640     		ands	r6, r0
 1778 0508 0E43     		orrs	r6, r1
 1779 050a 00D1     		bne	.LCB1570
 1780 050c AEE1     		b	.L138	@long jump
 1781              	.LCB1570:
1003:modes.c       ****                     (COMMAND_HEX == 0x0000000000000536) |
1004:modes.c       ****                     (COMMAND_HEX == 0x0000000000000A36) |
1005:modes.c       ****                     (COMMAND_HEX == 0x0000000000000636) |
1006:modes.c       ****                     (COMMAND_HEX == 0x0000000000012936) )
1007:modes.c       ****                 {        
1008:modes.c       ****                     status = 25;
1009:modes.c       ****                 } 
1010:modes.c       **** 
ARM GAS  C:\Users\Ala\AppData\Local\Temp\ccPRO05X.s 			page 54


1011:modes.c       **** // POWER OFF to any of five aux devices - return code 26
1012:modes.c       ****             else if ( COMMAND_HEX == 0x0000003BC1400200 )
 1782              		.loc 1 1012 0
 1783 050e 364B     		ldr	r3, .L251+172
 1784 0510 9C42     		cmp	r4, r3
 1785 0512 02D1     		bne	.L164
 1786 0514 3B2D     		cmp	r5, #59
 1787 0516 00D1     		bne	.LCB1575
 1788 0518 AAE1     		b	.L222	@long jump
 1789              	.LCB1575:
 1790              	.L164:
1013:modes.c       ****                 {        
1014:modes.c       ****                     status = 26;
1015:modes.c       ****                 } 
1016:modes.c       **** 
1017:modes.c       **** // MENU(onBeo4)/TURN(on MCP) to any of five aux devices - return code 27
1018:modes.c       ****             else if ( (COMMAND_HEX == 0x000000000000005C) |
 1791              		.loc 1 1018 0
 1792 051a 5C26     		movs	r6, #92
 1793 051c 3349     		ldr	r1, .L251+176
 1794 051e 6640     		eors	r6, r4
 1795 0520 6140     		eors	r1, r4
 1796 0522 2E43     		orrs	r6, r5
 1797 0524 2943     		orrs	r1, r5
 1798 0526 4F42     		rsbs	r7, r1, #0
 1799 0528 7941     		adcs	r1, r1, r7
 1800 052a 7742     		rsbs	r7, r6, #0
 1801 052c 7E41     		adcs	r6, r6, r7
 1802 052e 3048     		ldr	r0, .L251+180
 1803 0530 0E43     		orrs	r6, r1
 1804 0532 6040     		eors	r0, r4
 1805 0534 2843     		orrs	r0, r5
 1806 0536 4621     		movs	r1, #70
 1807 0538 3700     		movs	r7, r6
 1808 053a 5BE0     		b	.L252
 1809              	.L253:
 1810              		.align	2
 1811              	.L251:
 1812 053c 010A0000 		.word	2561
 1813 0540 01290100 		.word	76033
 1814 0544 FFFAFFFF 		.word	-1281
 1815 0548 FFFEFFFF 		.word	-257
 1816 054c 020A0000 		.word	2562
 1817 0550 02290100 		.word	76034
 1818 0554 FEFAFFFF 		.word	-1282
 1819 0558 030A0000 		.word	2563
 1820 055c 03290100 		.word	76035
 1821 0560 FDFAFFFF 		.word	-1283
 1822 0564 040A0000 		.word	2564
 1823 0568 04290100 		.word	76036
 1824 056c FCFAFFFF 		.word	-1284
 1825 0570 050A0000 		.word	2565
 1826 0574 05290100 		.word	76037
 1827 0578 FBFAFFFF 		.word	-1285
 1828 057c 060A0000 		.word	2566
 1829 0580 06290100 		.word	76038
 1830 0584 FAFAFFFF 		.word	-1286
ARM GAS  C:\Users\Ala\AppData\Local\Temp\ccPRO05X.s 			page 55


 1831 0588 070A0000 		.word	2567
 1832 058c 07290100 		.word	76039
 1833 0590 F9FAFFFF 		.word	-1287
 1834 0594 080A0000 		.word	2568
 1835 0598 08290100 		.word	76040
 1836 059c F8FAFFFF 		.word	-1288
 1837 05a0 350A0000 		.word	2613
 1838 05a4 35290100 		.word	76085
 1839 05a8 CBFAFFFF 		.word	-1333
 1840 05ac 1E0A0000 		.word	2590
 1841 05b0 1E290100 		.word	76062
 1842 05b4 E2FAFFFF 		.word	-1310
 1843 05b8 1F0A0000 		.word	2591
 1844 05bc 1F290100 		.word	76063
 1845 05c0 E1FAFFFF 		.word	-1311
 1846 05c4 320A0000 		.word	2610
 1847 05c8 32290100 		.word	76082
 1848 05cc CEFAFFFF 		.word	-1330
 1849 05d0 340A0000 		.word	2612
 1850 05d4 34290100 		.word	76084
 1851 05d8 CCFAFFFF 		.word	-1332
 1852 05dc 360A0000 		.word	2614
 1853 05e0 36290100 		.word	76086
 1854 05e4 CAFAFFFF 		.word	-1334
 1855 05e8 000240C1 		.word	-1052769792
 1856 05ec 5C0A0000 		.word	2652
 1857 05f0 5C290100 		.word	76124
 1858              	.L252:
 1859 05f4 4642     		rsbs	r6, r0, #0
 1860 05f6 7041     		adcs	r0, r0, r6
 1861 05f8 6140     		eors	r1, r4
 1862 05fa 3843     		orrs	r0, r7
 1863 05fc 2943     		orrs	r1, r5
 1864 05fe 0600     		movs	r6, r0
 1865 0600 4842     		rsbs	r0, r1, #0
 1866 0602 4141     		adcs	r1, r1, r0
 1867 0604 B14F     		ldr	r7, .L254
 1868 0606 3143     		orrs	r1, r6
 1869 0608 6740     		eors	r7, r4
 1870 060a 2F43     		orrs	r7, r5
 1871 060c 0800     		movs	r0, r1
 1872 060e 7942     		rsbs	r1, r7, #0
 1873 0610 4F41     		adcs	r7, r7, r1
 1874 0612 3900     		movs	r1, r7
 1875 0614 AE4F     		ldr	r7, .L254+4
 1876 0616 0143     		orrs	r1, r0
 1877 0618 6740     		eors	r7, r4
 1878 061a 2F43     		orrs	r7, r5
 1879 061c 7842     		rsbs	r0, r7, #0
 1880 061e 4741     		adcs	r7, r7, r0
 1881 0620 0F43     		orrs	r7, r1
 1882 0622 0121     		movs	r1, #1
 1883 0624 AB48     		ldr	r0, .L254+8
 1884 0626 4942     		rsbs	r1, r1, #0
 1885 0628 0019     		adds	r0, r0, r4
 1886 062a 6941     		adcs	r1, r1, r5
 1887 062c 0240     		ands	r2, r0
ARM GAS  C:\Users\Ala\AppData\Local\Temp\ccPRO05X.s 			page 56


 1888 062e 0A43     		orrs	r2, r1
 1889 0630 5142     		rsbs	r1, r2, #0
 1890 0632 4A41     		adcs	r2, r2, r1
 1891 0634 2B00     		movs	r3, r5
 1892 0636 A84E     		ldr	r6, .L254+12
 1893 0638 1743     		orrs	r7, r2
 1894 063a 00D0     		beq	.LCB1676
 1895 063c 1AE1     		b	.L140	@long jump
 1896              	.LCB1676:
 1897 063e 0121     		movs	r1, #1
 1898 0640 A648     		ldr	r0, .L254+16
 1899 0642 4942     		rsbs	r1, r1, #0
 1900 0644 0019     		adds	r0, r0, r4
 1901 0646 6941     		adcs	r1, r1, r5
 1902 0648 0200     		movs	r2, r0
 1903 064a 3240     		ands	r2, r6
 1904 064c 0A43     		orrs	r2, r1
 1905 064e 00D1     		bne	.LCB1687
 1906 0650 10E1     		b	.L140	@long jump
 1907              	.LCB1687:
1019:modes.c       ****                     (COMMAND_HEX == 0x000000000000055C) |
1020:modes.c       ****                     (COMMAND_HEX == 0x0000000000000A5C) |
1021:modes.c       ****                     (COMMAND_HEX == 0x000000000000065C) |
1022:modes.c       ****                     (COMMAND_HEX == 0x000000000001295C) |
1023:modes.c       ****                     (COMMAND_HEX == 0x0000000000000046) |
1024:modes.c       ****                     (COMMAND_HEX == 0x0000000000000546) |
1025:modes.c       ****                     (COMMAND_HEX == 0x0000000000000A46) |
1026:modes.c       ****                     (COMMAND_HEX == 0x0000000000000646) |
1027:modes.c       ****                     (COMMAND_HEX == 0x0000000000012946) )
1028:modes.c       ****                 {        
1029:modes.c       ****                     status = 27;
1030:modes.c       ****                 } 
1031:modes.c       **** 
1032:modes.c       **** // EXIT(on Beo4)/RESET(on MCP) to any of five aux devices - return code 28
1033:modes.c       ****             else if ( (COMMAND_HEX == 0x000000000000007F) |
 1908              		.loc 1 1033 0
 1909 0652 7F22     		movs	r2, #127
 1910 0654 A248     		ldr	r0, .L254+20
 1911 0656 6240     		eors	r2, r4
 1912 0658 6040     		eors	r0, r4
 1913 065a 2A43     		orrs	r2, r5
 1914 065c 2843     		orrs	r0, r5
 1915 065e 4142     		rsbs	r1, r0, #0
 1916 0660 4841     		adcs	r0, r0, r1
 1917 0662 5142     		rsbs	r1, r2, #0
 1918 0664 4A41     		adcs	r2, r2, r1
 1919 0666 0243     		orrs	r2, r0
 1920 0668 1100     		movs	r1, r2
 1921 066a 9E4A     		ldr	r2, .L254+24
 1922 066c 6240     		eors	r2, r4
 1923 066e 2A43     		orrs	r2, r5
 1924 0670 5042     		rsbs	r0, r2, #0
 1925 0672 4241     		adcs	r2, r2, r0
 1926 0674 0A43     		orrs	r2, r1
 1927 0676 9C49     		ldr	r1, .L254+28
 1928 0678 6140     		eors	r1, r4
 1929 067a 0800     		movs	r0, r1
ARM GAS  C:\Users\Ala\AppData\Local\Temp\ccPRO05X.s 			page 57


 1930 067c 3B21     		movs	r1, #59
 1931 067e 6940     		eors	r1, r5
 1932 0680 0143     		orrs	r1, r0
 1933 0682 4842     		rsbs	r0, r1, #0
 1934 0684 4141     		adcs	r1, r1, r0
 1935 0686 0A43     		orrs	r2, r1
 1936 0688 00D0     		beq	.LCB1713
 1937 068a F5E0     		b	.L141	@long jump
 1938              	.LCB1713:
 1939 068c 0121     		movs	r1, #1
 1940 068e 9748     		ldr	r0, .L254+32
 1941 0690 4942     		rsbs	r1, r1, #0
 1942 0692 0019     		adds	r0, r0, r4
 1943 0694 6941     		adcs	r1, r1, r5
 1944 0696 0200     		movs	r2, r0
 1945 0698 3240     		ands	r2, r6
 1946 069a 0A43     		orrs	r2, r1
 1947 069c 00D1     		bne	.LCB1724
 1948 069e EBE0     		b	.L141	@long jump
 1949              	.LCB1724:
1034:modes.c       ****                     (COMMAND_HEX == 0x000000000000057F) |
1035:modes.c       ****                     (COMMAND_HEX == 0x0000000000000A7F) |
1036:modes.c       ****                     (COMMAND_HEX == 0x000000000000067F) |
1037:modes.c       ****                     (COMMAND_HEX == 0x000000000001297F) |
1038:modes.c       ****                     (COMMAND_HEX == 0x0000003BC348741A) )
1039:modes.c       ****                 {        
1040:modes.c       ****                     status = 28;
1041:modes.c       ****                 } 
1042:modes.c       ****             
1043:modes.c       **** // DISPLAY or yellow to any of five aux devices - return code 31
1044:modes.c       ****             else if ( (COMMAND_HEX == 0x0000000000000059) |
 1950              		.loc 1 1044 0
 1951 06a0 5937     		adds	r7, r7, #89
 1952 06a2 6740     		eors	r7, r4
 1953 06a4 2F43     		orrs	r7, r5
 1954 06a6 7A42     		rsbs	r2, r7, #0
 1955 06a8 5741     		adcs	r7, r7, r2
 1956 06aa 9149     		ldr	r1, .L254+36
 1957 06ac 9148     		ldr	r0, .L254+40
 1958 06ae 6140     		eors	r1, r4
 1959 06b0 2943     		orrs	r1, r5
 1960 06b2 4A42     		rsbs	r2, r1, #0
 1961 06b4 5141     		adcs	r1, r1, r2
 1962 06b6 3A00     		movs	r2, r7
 1963 06b8 6040     		eors	r0, r4
 1964 06ba 0A43     		orrs	r2, r1
 1965 06bc 2843     		orrs	r0, r5
 1966 06be D421     		movs	r1, #212
 1967 06c0 4742     		rsbs	r7, r0, #0
 1968 06c2 7841     		adcs	r0, r0, r7
 1969 06c4 6140     		eors	r1, r4
 1970 06c6 1043     		orrs	r0, r2
 1971 06c8 2943     		orrs	r1, r5
 1972 06ca 0700     		movs	r7, r0
 1973 06cc 4842     		rsbs	r0, r1, #0
 1974 06ce 4141     		adcs	r1, r1, r0
 1975 06d0 894A     		ldr	r2, .L254+44
ARM GAS  C:\Users\Ala\AppData\Local\Temp\ccPRO05X.s 			page 58


 1976 06d2 3943     		orrs	r1, r7
 1977 06d4 6240     		eors	r2, r4
 1978 06d6 2A43     		orrs	r2, r5
 1979 06d8 0800     		movs	r0, r1
 1980 06da 5142     		rsbs	r1, r2, #0
 1981 06dc 4A41     		adcs	r2, r2, r1
 1982 06de 0243     		orrs	r2, r0
 1983 06e0 1100     		movs	r1, r2
 1984 06e2 864A     		ldr	r2, .L254+48
 1985 06e4 6240     		eors	r2, r4
 1986 06e6 2A43     		orrs	r2, r5
 1987 06e8 5042     		rsbs	r0, r2, #0
 1988 06ea 4241     		adcs	r2, r2, r0
 1989 06ec 0A43     		orrs	r2, r1
 1990 06ee 0121     		movs	r1, #1
 1991 06f0 8348     		ldr	r0, .L254+52
 1992 06f2 4942     		rsbs	r1, r1, #0
 1993 06f4 0019     		adds	r0, r0, r4
 1994 06f6 6941     		adcs	r1, r1, r5
 1995 06f8 3040     		ands	r0, r6
 1996 06fa 0143     		orrs	r1, r0
 1997 06fc 4842     		rsbs	r0, r1, #0
 1998 06fe 4141     		adcs	r1, r1, r0
 1999 0700 0A43     		orrs	r2, r1
 2000 0702 00D0     		beq	.LCB1768
 2001 0704 BAE0     		b	.L142	@long jump
 2002              	.LCB1768:
 2003 0706 0121     		movs	r1, #1
 2004 0708 7E48     		ldr	r0, .L254+56
 2005 070a 4942     		rsbs	r1, r1, #0
 2006 070c 0019     		adds	r0, r0, r4
 2007 070e 6941     		adcs	r1, r1, r5
 2008 0710 0200     		movs	r2, r0
 2009 0712 3240     		ands	r2, r6
 2010 0714 0A43     		orrs	r2, r1
 2011 0716 00D1     		bne	.LCB1779
 2012 0718 B0E0     		b	.L142	@long jump
 2013              	.LCB1779:
1045:modes.c       ****                     (COMMAND_HEX == 0x0000000000000559) |
1046:modes.c       ****                     (COMMAND_HEX == 0x0000000000000A59) |
1047:modes.c       ****                     (COMMAND_HEX == 0x0000000000000659) |
1048:modes.c       ****                     (COMMAND_HEX == 0x0000000000012959) |
1049:modes.c       ****                     (COMMAND_HEX == 0x00000000000000D4) |
1050:modes.c       ****                     (COMMAND_HEX == 0x00000000000005D4) |
1051:modes.c       ****                     (COMMAND_HEX == 0x0000000000000AD4) |
1052:modes.c       ****                     (COMMAND_HEX == 0x00000000000006D4) |
1053:modes.c       ****                     (COMMAND_HEX == 0x00000000000129D4) )
1054:modes.c       ****             {        
1055:modes.c       ****                 status = 31;
1056:modes.c       ****             } 
1057:modes.c       **** 
1058:modes.c       **** // green to any of five aux devices - return code 32
1059:modes.c       ****             else if ( (COMMAND_HEX == 0x00000000000000D5) |
 2014              		.loc 1 1059 0
 2015 071a D522     		movs	r2, #213
 2016 071c 7A48     		ldr	r0, .L254+60
 2017 071e 6240     		eors	r2, r4
ARM GAS  C:\Users\Ala\AppData\Local\Temp\ccPRO05X.s 			page 59


 2018 0720 6040     		eors	r0, r4
 2019 0722 2A43     		orrs	r2, r5
 2020 0724 2843     		orrs	r0, r5
 2021 0726 5142     		rsbs	r1, r2, #0
 2022 0728 4A41     		adcs	r2, r2, r1
 2023 072a 4142     		rsbs	r1, r0, #0
 2024 072c 4141     		adcs	r1, r1, r0
 2025 072e 1143     		orrs	r1, r2
 2026 0730 764A     		ldr	r2, .L254+64
 2027 0732 6240     		eors	r2, r4
 2028 0734 1343     		orrs	r3, r2
 2029 0736 5A42     		rsbs	r2, r3, #0
 2030 0738 5A41     		adcs	r2, r2, r3
 2031 073a 0A43     		orrs	r2, r1
 2032 073c 00D0     		beq	.LCB1796
 2033 073e 9FE0     		b	.L143	@long jump
 2034              	.LCB1796:
 2035 0740 0123     		movs	r3, #1
 2036 0742 734A     		ldr	r2, .L254+68
 2037 0744 5B42     		rsbs	r3, r3, #0
 2038 0746 1219     		adds	r2, r2, r4
 2039 0748 6B41     		adcs	r3, r3, r5
 2040 074a 1640     		ands	r6, r2
 2041 074c 1E43     		orrs	r6, r3
 2042 074e 00D1     		bne	.LCB1806
 2043 0750 96E0     		b	.L143	@long jump
 2044              	.LCB1806:
1060:modes.c       ****                     (COMMAND_HEX == 0x00000000000005D5) |
1061:modes.c       ****                     (COMMAND_HEX == 0x0000000000000AD5) |
1062:modes.c       ****                     (COMMAND_HEX == 0x00000000000006D5) |
1063:modes.c       ****                     (COMMAND_HEX == 0x00000000000129D5) )
1064:modes.c       ****             {        
1065:modes.c       ****                 status = 32;
1066:modes.c       ****             } 
1067:modes.c       **** 
1068:modes.c       **** // FM Radio station 1 - return code 41
1069:modes.c       ****             else if ( COMMAND_HEX == 0x0000003BC1400001 )
 2045              		.loc 1 1069 0
 2046 0752 704B     		ldr	r3, .L254+72
 2047 0754 9C42     		cmp	r4, r3
 2048 0756 02D1     		bne	.L165
 2049 0758 3B2D     		cmp	r5, #59
 2050 075a 00D1     		bne	.LCB1811
 2051 075c 92E0     		b	.L223	@long jump
 2052              	.LCB1811:
 2053              	.L165:
1070:modes.c       ****             {        
1071:modes.c       ****                 status = 41;
1072:modes.c       ****             }             
1073:modes.c       **** // FM Radio station 2 - return code 42
1074:modes.c       ****             else if ( COMMAND_HEX == 0x0000003BC1400002 )
 2054              		.loc 1 1074 0
 2055 075e 6E4B     		ldr	r3, .L254+76
 2056 0760 9C42     		cmp	r4, r3
 2057 0762 02D1     		bne	.L166
 2058 0764 3B2D     		cmp	r5, #59
 2059 0766 00D1     		bne	.LCB1817
ARM GAS  C:\Users\Ala\AppData\Local\Temp\ccPRO05X.s 			page 60


 2060 0768 8EE0     		b	.L224	@long jump
 2061              	.LCB1817:
 2062              	.L166:
1075:modes.c       ****             {        
1076:modes.c       ****                 status = 42;
1077:modes.c       ****             }             
1078:modes.c       **** // FM Radio station 3 - return code 43
1079:modes.c       ****             else if ( COMMAND_HEX == 0x0000003BC1400003 )
 2063              		.loc 1 1079 0
 2064 076a 6C4B     		ldr	r3, .L254+80
 2065 076c 9C42     		cmp	r4, r3
 2066 076e 02D1     		bne	.L167
 2067 0770 3B2D     		cmp	r5, #59
 2068 0772 00D1     		bne	.LCB1823
 2069 0774 8AE0     		b	.L225	@long jump
 2070              	.LCB1823:
 2071              	.L167:
1080:modes.c       ****             {        
1081:modes.c       ****                 status = 43;
1082:modes.c       ****             }             
1083:modes.c       **** // FM Radio station 4 - return code 44
1084:modes.c       ****             else if ( COMMAND_HEX == 0x0000003BC1400004 )
 2072              		.loc 1 1084 0
 2073 0776 6A4B     		ldr	r3, .L254+84
 2074 0778 9C42     		cmp	r4, r3
 2075 077a 02D1     		bne	.L168
 2076 077c 3B2D     		cmp	r5, #59
 2077 077e 00D1     		bne	.LCB1829
 2078 0780 86E0     		b	.L226	@long jump
 2079              	.LCB1829:
 2080              	.L168:
1085:modes.c       ****             {        
1086:modes.c       ****                 status = 44;
1087:modes.c       ****             }             
1088:modes.c       **** // FM Radio station 5 - return code 45
1089:modes.c       ****             else if ( COMMAND_HEX == 0x0000003BC1400005 )
 2081              		.loc 1 1089 0
 2082 0782 684B     		ldr	r3, .L254+88
 2083 0784 9C42     		cmp	r4, r3
 2084 0786 02D1     		bne	.L169
 2085 0788 3B2D     		cmp	r5, #59
 2086 078a 00D1     		bne	.LCB1835
 2087 078c 82E0     		b	.L227	@long jump
 2088              	.LCB1835:
 2089              	.L169:
1090:modes.c       ****             {        
1091:modes.c       ****                 status = 45;
1092:modes.c       ****             }             
1093:modes.c       **** // FM Radio station 6 - return code 46
1094:modes.c       ****             else if ( COMMAND_HEX == 0x0000003BC1400006 )
 2090              		.loc 1 1094 0
 2091 078e 664B     		ldr	r3, .L254+92
 2092 0790 9C42     		cmp	r4, r3
 2093 0792 01D1     		bne	.L170
 2094 0794 3B2D     		cmp	r5, #59
 2095 0796 7FD0     		beq	.L228
 2096              	.L170:
ARM GAS  C:\Users\Ala\AppData\Local\Temp\ccPRO05X.s 			page 61


1095:modes.c       ****             {        
1096:modes.c       ****                 status = 46;
1097:modes.c       ****             }             
1098:modes.c       **** // FM Radio station 7 - return code 47
1099:modes.c       ****             else if ( COMMAND_HEX == 0x0000003BC1400007 )
 2097              		.loc 1 1099 0
 2098 0798 644B     		ldr	r3, .L254+96
 2099 079a 9C42     		cmp	r4, r3
 2100 079c 01D1     		bne	.L171
 2101 079e 3B2D     		cmp	r5, #59
 2102 07a0 7CD0     		beq	.L229
 2103              	.L171:
1100:modes.c       ****             {        
1101:modes.c       ****                 status = 47;
1102:modes.c       ****             }             
1103:modes.c       **** // FM Radio station 8 - return code 48
1104:modes.c       ****             else if ( COMMAND_HEX == 0x0000003BC1400008 )
 2104              		.loc 1 1104 0
 2105 07a2 634B     		ldr	r3, .L254+100
 2106 07a4 9C42     		cmp	r4, r3
 2107 07a6 01D1     		bne	.L172
 2108 07a8 3B2D     		cmp	r5, #59
 2109 07aa 79D0     		beq	.L230
 2110              	.L172:
1105:modes.c       ****             {        
1106:modes.c       ****                 status = 48;
1107:modes.c       ****             }             
1108:modes.c       **** // FM Radio station 9 - return code 49
1109:modes.c       ****             else if ( COMMAND_HEX == 0x0000003BC1400009 )
 2111              		.loc 1 1109 0
 2112 07ac 614B     		ldr	r3, .L254+104
 2113 07ae 9C42     		cmp	r4, r3
 2114 07b0 01D1     		bne	.L173
 2115 07b2 3B2D     		cmp	r5, #59
 2116 07b4 76D0     		beq	.L231
 2117              	.L173:
1110:modes.c       ****             {        
1111:modes.c       ****                 status = 49;
1112:modes.c       ****             }             
1113:modes.c       **** // FM Radio station 10 - return code 50
1114:modes.c       ****             else if ( COMMAND_HEX == 0x0000003BC140000A )
 2118              		.loc 1 1114 0
 2119 07b6 604B     		ldr	r3, .L254+108
 2120 07b8 9C42     		cmp	r4, r3
 2121 07ba 01D1     		bne	.L174
 2122 07bc 3B2D     		cmp	r5, #59
 2123 07be 73D0     		beq	.L232
 2124              	.L174:
1115:modes.c       ****             {        
1116:modes.c       ****                 status = 50;
1117:modes.c       ****             }             
1118:modes.c       **** // FM Radio station 11 - return code 51
1119:modes.c       ****             else if ( COMMAND_HEX == 0x0000003BC140000B )
 2125              		.loc 1 1119 0
 2126 07c0 5E4B     		ldr	r3, .L254+112
 2127 07c2 9C42     		cmp	r4, r3
 2128 07c4 01D1     		bne	.L175
ARM GAS  C:\Users\Ala\AppData\Local\Temp\ccPRO05X.s 			page 62


 2129 07c6 3B2D     		cmp	r5, #59
 2130 07c8 70D0     		beq	.L233
 2131              	.L175:
1120:modes.c       ****             {        
1121:modes.c       ****                 status = 51;
1122:modes.c       ****             }             
1123:modes.c       **** // FM Radio station 12 - return code 52
1124:modes.c       ****             else if ( COMMAND_HEX == 0x0000003BC140000C )
 2132              		.loc 1 1124 0
 2133 07ca 5D4B     		ldr	r3, .L254+116
 2134 07cc 9C42     		cmp	r4, r3
 2135 07ce 01D1     		bne	.L176
 2136 07d0 3B2D     		cmp	r5, #59
 2137 07d2 6DD0     		beq	.L234
 2138              	.L176:
1125:modes.c       ****             {        
1126:modes.c       ****                 status = 52;
1127:modes.c       ****             }             
1128:modes.c       **** // FM Radio station 13 - return code 53
1129:modes.c       ****             else if ( COMMAND_HEX == 0x0000003BC140000D )
 2139              		.loc 1 1129 0
 2140 07d4 5B4B     		ldr	r3, .L254+120
 2141 07d6 9C42     		cmp	r4, r3
 2142 07d8 01D1     		bne	.L177
 2143 07da 3B2D     		cmp	r5, #59
 2144 07dc 6AD0     		beq	.L235
 2145              	.L177:
1130:modes.c       ****             {        
1131:modes.c       ****                 status = 53;
1132:modes.c       ****             }             
1133:modes.c       **** // FM Radio station 14 - return code 54
1134:modes.c       ****             else if ( COMMAND_HEX == 0x0000003BC140000E )
 2146              		.loc 1 1134 0
 2147 07de 5A4B     		ldr	r3, .L254+124
 2148 07e0 9C42     		cmp	r4, r3
 2149 07e2 01D1     		bne	.L178
 2150 07e4 3B2D     		cmp	r5, #59
 2151 07e6 67D0     		beq	.L236
 2152              	.L178:
1135:modes.c       ****             {        
1136:modes.c       ****                 status = 54;
1137:modes.c       ****             }             
1138:modes.c       **** // FM Radio station 15 - return code 55
1139:modes.c       ****             else if ( COMMAND_HEX == 0x0000003BC140000F )
 2153              		.loc 1 1139 0
 2154 07e8 584B     		ldr	r3, .L254+128
 2155 07ea 9C42     		cmp	r4, r3
 2156 07ec 01D1     		bne	.L179
 2157 07ee 3B2D     		cmp	r5, #59
 2158 07f0 64D0     		beq	.L237
 2159              	.L179:
1140:modes.c       ****             {        
1141:modes.c       ****                 status = 55;
1142:modes.c       ****             }             
1143:modes.c       **** // FM Radio station 16 - return code 56
1144:modes.c       ****             else if ( COMMAND_HEX == 0x0000003BC1400010 )
 2160              		.loc 1 1144 0
ARM GAS  C:\Users\Ala\AppData\Local\Temp\ccPRO05X.s 			page 63


 2161 07f2 574B     		ldr	r3, .L254+132
 2162 07f4 9C42     		cmp	r4, r3
 2163 07f6 01D1     		bne	.L180
 2164 07f8 3B2D     		cmp	r5, #59
 2165 07fa 61D0     		beq	.L238
 2166              	.L180:
1145:modes.c       ****             {        
1146:modes.c       ****                 status = 56;
1147:modes.c       ****             }             
1148:modes.c       **** // FM Radio station 17 - return code 57
1149:modes.c       ****             else if ( COMMAND_HEX == 0x0000003BC1400011 )
 2167              		.loc 1 1149 0
 2168 07fc 554B     		ldr	r3, .L254+136
 2169 07fe 9C42     		cmp	r4, r3
 2170 0800 01D1     		bne	.L181
 2171 0802 3B2D     		cmp	r5, #59
 2172 0804 5ED0     		beq	.L239
 2173              	.L181:
1150:modes.c       ****             {        
1151:modes.c       ****                 status = 57;
1152:modes.c       ****             }             
1153:modes.c       **** // FM Radio station 18 - return code 58
1154:modes.c       ****             else if ( COMMAND_HEX == 0x0000003BC1400012 )
 2174              		.loc 1 1154 0
 2175 0806 544B     		ldr	r3, .L254+140
 2176 0808 9C42     		cmp	r4, r3
 2177 080a 01D1     		bne	.L182
 2178 080c 3B2D     		cmp	r5, #59
 2179 080e 5BD0     		beq	.L240
 2180              	.L182:
1155:modes.c       ****             {        
1156:modes.c       ****                 status = 58;
1157:modes.c       ****             }             
1158:modes.c       **** // FM Radio station 19 - return code 59
1159:modes.c       ****             else if ( COMMAND_HEX == 0x0000003BC1400013 )
 2181              		.loc 1 1159 0
 2182 0810 524B     		ldr	r3, .L254+144
 2183 0812 9C42     		cmp	r4, r3
 2184 0814 02D1     		bne	.L183
 2185 0816 3B2D     		cmp	r5, #59
 2186 0818 00D1     		bne	.LCB1919
 2187 081a A3E0     		b	.L241	@long jump
 2188              	.LCB1919:
 2189              	.L183:
1160:modes.c       ****             {        
1161:modes.c       ****                 status = 59;
1162:modes.c       ****             }             
1163:modes.c       **** // FM Radio station 20 - return code 60
1164:modes.c       ****             else if ( COMMAND_HEX == 0x0000003BC1400014 )
 2190              		.loc 1 1164 0
 2191 081c 504B     		ldr	r3, .L254+148
 2192 081e 9C42     		cmp	r4, r3
 2193 0820 00D0     		beq	.LCB1923
 2194 0822 A0E0     		b	.L82	@long jump
 2195              	.LCB1923:
1165:modes.c       ****             {        
1166:modes.c       ****                 status = 60;
ARM GAS  C:\Users\Ala\AppData\Local\Temp\ccPRO05X.s 			page 64


 2196              		.loc 1 1166 0
 2197 0824 3C23     		movs	r3, #60
1164:modes.c       ****             {        
 2198              		.loc 1 1164 0
 2199 0826 3B2D     		cmp	r5, #59
 2200 0828 00D0     		beq	.LCB1926
 2201 082a 9CE0     		b	.L82	@long jump
 2202              	.LCB1926:
 2203 082c 02E0     		b	.L244
 2204              	.LVL132:
 2205              	.L120:
1167:modes.c       ****             }             
1168:modes.c       ****         }
1169:modes.c       ****         else
1170:modes.c       ****             {
1171:modes.c       **** // incorrect start and/or stop value - return 1 value
1172:modes.c       ****             status = 1;
 2206              		.loc 1 1172 0
 2207 082e 0123     		movs	r3, #1
 2208 0830 00E0     		b	.L244
 2209              	.LVL133:
 2210              	.L221:
 859:modes.c       ****             }
 2211              		.loc 1 859 0
 2212 0832 0A23     		movs	r3, #10
 2213              	.LVL134:
 2214              	.L244:
 2215 0834 0093     		str	r3, [sp]
 2216 0836 96E0     		b	.L82
 2217              	.LVL135:
 2218              	.L125:
 870:modes.c       ****                 }
 2219              		.loc 1 870 0
 2220 0838 0B23     		movs	r3, #11
 2221 083a FBE7     		b	.L244
 2222              	.L126:
 882:modes.c       ****                 }
 2223              		.loc 1 882 0
 2224 083c 0C23     		movs	r3, #12
 2225 083e F9E7     		b	.L244
 2226              	.L127:
 894:modes.c       ****                 }
 2227              		.loc 1 894 0
 2228 0840 0D23     		movs	r3, #13
 2229 0842 F7E7     		b	.L244
 2230              	.L128:
 906:modes.c       ****                 }
 2231              		.loc 1 906 0
 2232 0844 0E23     		movs	r3, #14
 2233 0846 F5E7     		b	.L244
 2234              	.L129:
 918:modes.c       ****                 }        
 2235              		.loc 1 918 0
 2236 0848 0F23     		movs	r3, #15
 2237 084a F3E7     		b	.L244
 2238              	.L130:
 928:modes.c       ****                 }        
ARM GAS  C:\Users\Ala\AppData\Local\Temp\ccPRO05X.s 			page 65


 2239              		.loc 1 928 0
 2240 084c 1023     		movs	r3, #16
 2241 084e F1E7     		b	.L244
 2242              	.L131:
 938:modes.c       ****                 }        
 2243              		.loc 1 938 0
 2244 0850 1123     		movs	r3, #17
 2245 0852 EFE7     		b	.L244
 2246              	.L132:
 948:modes.c       ****                 } 
 2247              		.loc 1 948 0
 2248 0854 1223     		movs	r3, #18
 2249 0856 EDE7     		b	.L244
 2250              	.L133:
 958:modes.c       ****                 } 
 2251              		.loc 1 958 0
 2252 0858 1423     		movs	r3, #20
 2253 085a EBE7     		b	.L244
 2254              	.L134:
 968:modes.c       ****                 }         
 2255              		.loc 1 968 0
 2256 085c 1523     		movs	r3, #21
 2257 085e E9E7     		b	.L244
 2258              	.L135:
 978:modes.c       ****                 } 
 2259              		.loc 1 978 0
 2260 0860 1623     		movs	r3, #22
 2261 0862 E7E7     		b	.L244
 2262              	.L136:
 988:modes.c       ****                 } 
 2263              		.loc 1 988 0
 2264 0864 1723     		movs	r3, #23
 2265 0866 E5E7     		b	.L244
 2266              	.L137:
 998:modes.c       ****                 } 
 2267              		.loc 1 998 0
 2268 0868 1823     		movs	r3, #24
 2269 086a E3E7     		b	.L244
 2270              	.L138:
1008:modes.c       ****                 } 
 2271              		.loc 1 1008 0
 2272 086c 1923     		movs	r3, #25
 2273 086e E1E7     		b	.L244
 2274              	.L222:
1014:modes.c       ****                 } 
 2275              		.loc 1 1014 0
 2276 0870 1A23     		movs	r3, #26
 2277 0872 DFE7     		b	.L244
 2278              	.L140:
1029:modes.c       ****                 } 
 2279              		.loc 1 1029 0
 2280 0874 1B23     		movs	r3, #27
 2281 0876 DDE7     		b	.L244
 2282              	.L141:
1040:modes.c       ****                 } 
 2283              		.loc 1 1040 0
 2284 0878 1C23     		movs	r3, #28
ARM GAS  C:\Users\Ala\AppData\Local\Temp\ccPRO05X.s 			page 66


 2285 087a DBE7     		b	.L244
 2286              	.L142:
1055:modes.c       ****             } 
 2287              		.loc 1 1055 0
 2288 087c 1F23     		movs	r3, #31
 2289 087e D9E7     		b	.L244
 2290              	.L143:
1065:modes.c       ****             } 
 2291              		.loc 1 1065 0
 2292 0880 2023     		movs	r3, #32
 2293 0882 D7E7     		b	.L244
 2294              	.L223:
1071:modes.c       ****             }             
 2295              		.loc 1 1071 0
 2296 0884 2923     		movs	r3, #41
 2297 0886 D5E7     		b	.L244
 2298              	.L224:
1076:modes.c       ****             }             
 2299              		.loc 1 1076 0
 2300 0888 2A23     		movs	r3, #42
 2301 088a D3E7     		b	.L244
 2302              	.L225:
1081:modes.c       ****             }             
 2303              		.loc 1 1081 0
 2304 088c 2B23     		movs	r3, #43
 2305 088e D1E7     		b	.L244
 2306              	.L226:
1086:modes.c       ****             }             
 2307              		.loc 1 1086 0
 2308 0890 2C23     		movs	r3, #44
 2309 0892 CFE7     		b	.L244
 2310              	.L227:
1091:modes.c       ****             }             
 2311              		.loc 1 1091 0
 2312 0894 2D23     		movs	r3, #45
 2313 0896 CDE7     		b	.L244
 2314              	.L228:
1096:modes.c       ****             }             
 2315              		.loc 1 1096 0
 2316 0898 2E23     		movs	r3, #46
 2317 089a CBE7     		b	.L244
 2318              	.L229:
1101:modes.c       ****             }             
 2319              		.loc 1 1101 0
 2320 089c 2F23     		movs	r3, #47
 2321 089e C9E7     		b	.L244
 2322              	.L230:
1106:modes.c       ****             }             
 2323              		.loc 1 1106 0
 2324 08a0 3023     		movs	r3, #48
 2325 08a2 C7E7     		b	.L244
 2326              	.L231:
1111:modes.c       ****             }             
 2327              		.loc 1 1111 0
 2328 08a4 3123     		movs	r3, #49
 2329 08a6 C5E7     		b	.L244
 2330              	.L232:
ARM GAS  C:\Users\Ala\AppData\Local\Temp\ccPRO05X.s 			page 67


1116:modes.c       ****             }             
 2331              		.loc 1 1116 0
 2332 08a8 3223     		movs	r3, #50
 2333 08aa C3E7     		b	.L244
 2334              	.L233:
1121:modes.c       ****             }             
 2335              		.loc 1 1121 0
 2336 08ac 3323     		movs	r3, #51
 2337 08ae C1E7     		b	.L244
 2338              	.L234:
1126:modes.c       ****             }             
 2339              		.loc 1 1126 0
 2340 08b0 3423     		movs	r3, #52
 2341 08b2 BFE7     		b	.L244
 2342              	.L235:
1131:modes.c       ****             }             
 2343              		.loc 1 1131 0
 2344 08b4 3523     		movs	r3, #53
 2345 08b6 BDE7     		b	.L244
 2346              	.L236:
1136:modes.c       ****             }             
 2347              		.loc 1 1136 0
 2348 08b8 3623     		movs	r3, #54
 2349 08ba BBE7     		b	.L244
 2350              	.L237:
1141:modes.c       ****             }             
 2351              		.loc 1 1141 0
 2352 08bc 3723     		movs	r3, #55
 2353 08be B9E7     		b	.L244
 2354              	.L238:
1146:modes.c       ****             }             
 2355              		.loc 1 1146 0
 2356 08c0 3823     		movs	r3, #56
 2357 08c2 B7E7     		b	.L244
 2358              	.L239:
1151:modes.c       ****             }             
 2359              		.loc 1 1151 0
 2360 08c4 3923     		movs	r3, #57
 2361 08c6 B5E7     		b	.L244
 2362              	.L240:
1156:modes.c       ****             }             
 2363              		.loc 1 1156 0
 2364 08c8 3A23     		movs	r3, #58
 2365 08ca B3E7     		b	.L244
 2366              	.L255:
 2367              		.align	2
 2368              	.L254:
 2369 08cc 460A0000 		.word	2630
 2370 08d0 46290100 		.word	76102
 2371 08d4 A4FAFFFF 		.word	-1372
 2372 08d8 FFFEFFFF 		.word	-257
 2373 08dc BAFAFFFF 		.word	-1350
 2374 08e0 7F0A0000 		.word	2687
 2375 08e4 7F290100 		.word	76159
 2376 08e8 1A7448C3 		.word	-1018661862
 2377 08ec 81FAFFFF 		.word	-1407
 2378 08f0 590A0000 		.word	2649
ARM GAS  C:\Users\Ala\AppData\Local\Temp\ccPRO05X.s 			page 68


 2379 08f4 59290100 		.word	76121
 2380 08f8 D40A0000 		.word	2772
 2381 08fc D4290100 		.word	76244
 2382 0900 A7FAFFFF 		.word	-1369
 2383 0904 2CFAFFFF 		.word	-1492
 2384 0908 D50A0000 		.word	2773
 2385 090c D5290100 		.word	76245
 2386 0910 2BFAFFFF 		.word	-1493
 2387 0914 010040C1 		.word	-1052770303
 2388 0918 020040C1 		.word	-1052770302
 2389 091c 030040C1 		.word	-1052770301
 2390 0920 040040C1 		.word	-1052770300
 2391 0924 050040C1 		.word	-1052770299
 2392 0928 060040C1 		.word	-1052770298
 2393 092c 070040C1 		.word	-1052770297
 2394 0930 080040C1 		.word	-1052770296
 2395 0934 090040C1 		.word	-1052770295
 2396 0938 0A0040C1 		.word	-1052770294
 2397 093c 0B0040C1 		.word	-1052770293
 2398 0940 0C0040C1 		.word	-1052770292
 2399 0944 0D0040C1 		.word	-1052770291
 2400 0948 0E0040C1 		.word	-1052770290
 2401 094c 0F0040C1 		.word	-1052770289
 2402 0950 100040C1 		.word	-1052770288
 2403 0954 110040C1 		.word	-1052770287
 2404 0958 120040C1 		.word	-1052770286
 2405 095c 130040C1 		.word	-1052770285
 2406 0960 140040C1 		.word	-1052770284
 2407              	.L241:
1161:modes.c       ****             }             
 2408              		.loc 1 1161 0
 2409 0964 0095     		str	r5, [sp]
 2410              	.LVL136:
 2411              	.L82:
1173:modes.c       ****             }
1174:modes.c       ****     }
1175:modes.c       **** 
1176:modes.c       **** // reset time string table indicating readiness for decoding of new command                        
1177:modes.c       ****         DATALINK_TABLE_COUNTER_MAX = 0;
 2412              		.loc 1 1177 0
 2413 0966 0022     		movs	r2, #0
 2414 0968 024B     		ldr	r3, .L256
1178:modes.c       **** // no new command - return 0 value
1179:modes.c       ****         return status;
1180:modes.c       **** }
 2415              		.loc 1 1180 0
 2416 096a 0098     		ldr	r0, [sp]
1177:modes.c       **** // no new command - return 0 value
 2417              		.loc 1 1177 0
 2418 096c 1A70     		strb	r2, [r3]
 2419              		.loc 1 1180 0
 2420 096e 23B0     		add	sp, sp, #140
 2421              	.LVL137:
 2422              		@ sp needed
 2423 0970 F0BD     		pop	{r4, r5, r6, r7, pc}
 2424              	.L257:
 2425 0972 C046     		.align	2
ARM GAS  C:\Users\Ala\AppData\Local\Temp\ccPRO05X.s 			page 69


 2426              	.L256:
 2427 0974 00000000 		.word	DATALINK_TABLE_COUNTER_MAX
 2428              		.cfi_endproc
 2429              	.LFE35:
 2430              		.size	datalink_decoder, .-datalink_decoder
 2431              		.section	.text.SigmaDSP_to_display,"ax",%progbits
 2432              		.align	1
 2433              		.global	SigmaDSP_to_display
 2434              		.code	16
 2435              		.thumb_func
 2436              		.type	SigmaDSP_to_display, %function
 2437              	SigmaDSP_to_display:
 2438              	.LFB36:
1181:modes.c       **** 
1182:modes.c       **** 
1183:modes.c       **** 
1184:modes.c       **** 
1185:modes.c       **** /*******************************************************************************
1186:modes.c       **** * Function Name: SigmaDSP_to_display()
1187:modes.c       **** ********************************************************************************
1188:modes.c       **** * Summary:
1189:modes.c       **** *  Function 
1190:modes.c       **** *   
1191:modes.c       **** * Parameters:
1192:modes.c       **** *  0 - read back signal level values and encode them into information sent to 
1193:modes.c       **** *      display module
1194:modes.c       **** *  1 - read back spectrum analyser info and encode it into informaiton sent to
1195:modes.c       **** *      display module
1196:modes.c       **** *
1197:modes.c       **** * Return:
1198:modes.c       **** *  Funciton returns zero value
1199:modes.c       **** *
1200:modes.c       **** *******************************************************************************/  
1201:modes.c       **** uint8 SigmaDSP_to_display(uint8 mode)  
1202:modes.c       **** {
 2439              		.loc 1 1202 0
 2440              		.cfi_startproc
 2441              		@ args = 0, pretend = 0, frame = 0
 2442              		@ frame_needed = 0, uses_anonymous_args = 0
 2443              	.LVL138:
 2444 0000 F8B5     		push	{r3, r4, r5, r6, r7, lr}
 2445              		.cfi_def_cfa_offset 24
 2446              		.cfi_offset 3, -24
 2447              		.cfi_offset 4, -20
 2448              		.cfi_offset 5, -16
 2449              		.cfi_offset 6, -12
 2450              		.cfi_offset 7, -8
 2451              		.cfi_offset 14, -4
 2452              		.loc 1 1202 0
 2453 0002 061E     		subs	r6, r0, #0
1203:modes.c       **** // variable used to store values returned from SigmaDSP 
1204:modes.c       ****     uint32 status = 0;
1205:modes.c       **** // variable used to produce level informaiton on display
1206:modes.c       ****     uint8 display_counter = 0;
1207:modes.c       ****     
1208:modes.c       ****     
1209:modes.c       **** // execute sequence based on mode informaiton
ARM GAS  C:\Users\Ala\AppData\Local\Temp\ccPRO05X.s 			page 70


1210:modes.c       ****     switch (mode)
 2454              		.loc 1 1210 0
 2455 0004 62D0     		beq	.L260
 2456 0006 0128     		cmp	r0, #1
 2457 0008 00D0     		beq	.LCB2241
 2458 000a 94E0     		b	.L259	@long jump
 2459              	.LCB2241:
1211:modes.c       ****     {    
1212:modes.c       **** // 0 = LEVEL
1213:modes.c       ****     case (0):
1214:modes.c       **** // 0 = LEVEL info -> 0x0000aabb
1215:modes.c       **** //    -> aa - 0x00 - 0x10 - left channel 
1216:modes.c       **** //    -> bb - 0x00 - 0x10 - right channel
1217:modes.c       ****         status = SPIM_SigmaDSP_read(0);
1218:modes.c       **** // display data
1219:modes.c       **** // 0 = empty display
1220:modes.c       **** // 1 = bottom (right) empty square
1221:modes.c       **** // 2 = top (left) empty square
1222:modes.c       **** // 3 = both bottom and top (left and right) empty squares        
1223:modes.c       **** // 5 = bottom (right) full square
1224:modes.c       **** // 6 = top (left) full square
1225:modes.c       **** // 7 = both bottom and top (left and right) full squares        
1226:modes.c       **** // 8 = arrow left
1227:modes.c       **** // 9 = arrow right
1228:modes.c       **** // prepare status header for display    
1229:modes.c       ****         new_display_data_buffer[0] = '8';
1230:modes.c       ****         new_display_data_buffer[1] = '9';
1231:modes.c       ****      
1232:modes.c       **** // check and display signals below 0dB        
1233:modes.c       ****         for (display_counter = 0; display_counter<=0x13; display_counter++)
1234:modes.c       ****         {
1235:modes.c       **** // left and right channel info            
1236:modes.c       ****             if ( (((status >> 8) & 0x000000FF) >= display_counter) && ((status & 0x000000FF) >= dis
1237:modes.c       ****             {
1238:modes.c       ****                 new_display_data_buffer[display_counter+2] = '3';
1239:modes.c       ****             }
1240:modes.c       **** // left channel info
1241:modes.c       ****             else if ( (((status >> 8) & 0x000000FF) >= display_counter) && ((status & 0x000000FF) <
1242:modes.c       ****             {
1243:modes.c       ****                 new_display_data_buffer[display_counter+2] = '2';
1244:modes.c       ****             }
1245:modes.c       **** // right channel info
1246:modes.c       ****             else if ( (((status >> 8) & 0x000000FF) < display_counter) && ((status & 0x000000FF) >=
1247:modes.c       ****             {
1248:modes.c       ****                 new_display_data_buffer[display_counter+2] = '1';
1249:modes.c       ****             }
1250:modes.c       ****             else 
1251:modes.c       **** // fill remining places with zeros            
1252:modes.c       ****                 {
1253:modes.c       ****                     new_display_data_buffer[display_counter+2] = '0';
1254:modes.c       ****                 }
1255:modes.c       ****         }
1256:modes.c       ****                 
1257:modes.c       ****         new_display_data_buffer[2] = '0';
1258:modes.c       ****                 
1259:modes.c       **** // check and display signals below and 0dB and above
1260:modes.c       ****         for (display_counter = 0x13; display_counter<=0x15; display_counter++)
ARM GAS  C:\Users\Ala\AppData\Local\Temp\ccPRO05X.s 			page 71


1261:modes.c       ****         {
1262:modes.c       **** // left and right channel info            
1263:modes.c       ****             if ( (((status >> 8) & 0x000000FF) >= display_counter) && ((status & 0x000000FF) >= dis
1264:modes.c       ****             {
1265:modes.c       ****                 new_display_data_buffer[display_counter+2] = '7';
1266:modes.c       ****             }
1267:modes.c       **** // left channel info
1268:modes.c       ****             else if ( (((status >> 8) & 0x000000FF) >= display_counter) && ((status & 0x000000FF) <
1269:modes.c       ****             {
1270:modes.c       ****                 new_display_data_buffer[display_counter+2] = '6';
1271:modes.c       ****             }
1272:modes.c       **** // right channel info
1273:modes.c       ****             else if ( (((status >> 8) & 0x000000FF) < display_counter) && ((status & 0x000000FF) >=
1274:modes.c       ****             {
1275:modes.c       ****                 new_display_data_buffer[display_counter+2] = '5';
1276:modes.c       ****             }
1277:modes.c       ****             else 
1278:modes.c       **** // fill remining places with zeros            
1279:modes.c       ****                 {
1280:modes.c       ****                     new_display_data_buffer[display_counter+2] = '0';
1281:modes.c       ****                 }
1282:modes.c       ****         }
1283:modes.c       ****         
1284:modes.c       **** // set flag and sent info to display module
1285:modes.c       **** //        new_display_data_flag = 1;
1286:modes.c       ****         break;
1287:modes.c       **** 
1288:modes.c       ****         
1289:modes.c       **** // 1 = spectrum analyser        
1290:modes.c       ****     case (1):
1291:modes.c       **** // prepare headers to indicate levt and right channels 
1292:modes.c       ****         new_display_data_buffer[0] = ' ';
1293:modes.c       ****         new_display_data_buffer[1] = 'L';
 2460              		.loc 1 1293 0
 2461 000c 4C23     		movs	r3, #76
1292:modes.c       ****         new_display_data_buffer[1] = 'L';
 2462              		.loc 1 1292 0
 2463 000e 2027     		movs	r7, #32
 2464 0010 4A4C     		ldr	r4, .L277
1294:modes.c       **** // read back 
1295:modes.c       **** // 2 = Spectrum analyzer -> Left 
1296:modes.c       **** //    b31-b28 - NOT_USED
1297:modes.c       ****         status = SPIM_SigmaDSP_read(2);
 2465              		.loc 1 1297 0
 2466 0012 0220     		movs	r0, #2
 2467              	.LVL139:
1293:modes.c       **** // read back 
 2468              		.loc 1 1293 0
 2469 0014 6370     		strb	r3, [r4, #1]
1292:modes.c       ****         new_display_data_buffer[1] = 'L';
 2470              		.loc 1 1292 0
 2471 0016 2770     		strb	r7, [r4]
 2472              		.loc 1 1297 0
 2473 0018 FFF7FEFF 		bl	SPIM_SigmaDSP_read
 2474              	.LVL140:
1298:modes.c       **** //    b27-b24 - 31.5Hz
1299:modes.c       ****         new_display_data_buffer[2] = '0' + ((status >> 24) & 0x0000000F);
ARM GAS  C:\Users\Ala\AppData\Local\Temp\ccPRO05X.s 			page 72


 2475              		.loc 1 1299 0
 2476 001c 0F25     		movs	r5, #15
 2477 001e 030E     		lsrs	r3, r0, #24
 2478 0020 2B40     		ands	r3, r5
 2479 0022 3033     		adds	r3, r3, #48
 2480 0024 A370     		strb	r3, [r4, #2]
1300:modes.c       **** //    b23-b20 - 63Hz
1301:modes.c       ****         new_display_data_buffer[3] = '0' + ((status >> 20) & 0x0000000F);
 2481              		.loc 1 1301 0
 2482 0026 030D     		lsrs	r3, r0, #20
 2483 0028 2B40     		ands	r3, r5
 2484 002a 3033     		adds	r3, r3, #48
 2485 002c E370     		strb	r3, [r4, #3]
1302:modes.c       **** //    b19-b16 - 125Hz
1303:modes.c       ****         new_display_data_buffer[4] = '0' + ((status >> 16) & 0x0000000F);
 2486              		.loc 1 1303 0
 2487 002e 030C     		lsrs	r3, r0, #16
 2488 0030 2B40     		ands	r3, r5
 2489 0032 3033     		adds	r3, r3, #48
 2490 0034 2371     		strb	r3, [r4, #4]
1304:modes.c       **** //    b15-b12 - 250Hz
1305:modes.c       ****         new_display_data_buffer[5] = '0' + ((status >> 12) & 0x0000000F);
 2491              		.loc 1 1305 0
 2492 0036 030B     		lsrs	r3, r0, #12
 2493 0038 2B40     		ands	r3, r5
 2494 003a 3033     		adds	r3, r3, #48
 2495 003c 6371     		strb	r3, [r4, #5]
1306:modes.c       **** //    b11-b8 - 500Hz
1307:modes.c       ****         new_display_data_buffer[6] = '0' + ((status >> 8) & 0x0000000F);
 2496              		.loc 1 1307 0
 2497 003e 030A     		lsrs	r3, r0, #8
 2498 0040 2B40     		ands	r3, r5
 2499 0042 3033     		adds	r3, r3, #48
 2500 0044 A371     		strb	r3, [r4, #6]
1308:modes.c       **** //    b7-b4 - 1000Hz        
1309:modes.c       ****         new_display_data_buffer[7] = '0' + ((status >> 4) & 0x0000000F);       
 2501              		.loc 1 1309 0
 2502 0046 0309     		lsrs	r3, r0, #4
1310:modes.c       **** //    b3-b0 - 2000Hz                
1311:modes.c       ****         new_display_data_buffer[8] = '0' + (status & 0x0000000F);
 2503              		.loc 1 1311 0
 2504 0048 2840     		ands	r0, r5
 2505              	.LVL141:
1309:modes.c       **** //    b3-b0 - 2000Hz                
 2506              		.loc 1 1309 0
 2507 004a 2B40     		ands	r3, r5
 2508              		.loc 1 1311 0
 2509 004c 3030     		adds	r0, r0, #48
1309:modes.c       **** //    b3-b0 - 2000Hz                
 2510              		.loc 1 1309 0
 2511 004e 3033     		adds	r3, r3, #48
 2512              		.loc 1 1311 0
 2513 0050 2072     		strb	r0, [r4, #8]
1312:modes.c       **** 
1313:modes.c       **** // read back
1314:modes.c       **** // 3 = Spectrum analyzer -> Left&Right 
1315:modes.c       **** //    b31-b28 - NOT_USED
ARM GAS  C:\Users\Ala\AppData\Local\Temp\ccPRO05X.s 			page 73


1316:modes.c       **** //    b15-b12 - NOT_USED
1317:modes.c       ****         status = SPIM_SigmaDSP_read(3);        
 2514              		.loc 1 1317 0
 2515 0052 0320     		movs	r0, #3
1309:modes.c       **** //    b3-b0 - 2000Hz                
 2516              		.loc 1 1309 0
 2517 0054 E371     		strb	r3, [r4, #7]
 2518              		.loc 1 1317 0
 2519 0056 FFF7FEFF 		bl	SPIM_SigmaDSP_read
 2520              	.LVL142:
1318:modes.c       **** //    LEFT
1319:modes.c       **** //    b27-b24 - 4000Hz
1320:modes.c       ****        new_display_data_buffer[9] = '0' + ((status >> 24) & 0x0000000F);
 2521              		.loc 1 1320 0
 2522 005a 030E     		lsrs	r3, r0, #24
 2523 005c 2B40     		ands	r3, r5
 2524 005e 3033     		adds	r3, r3, #48
 2525 0060 6372     		strb	r3, [r4, #9]
1321:modes.c       **** //    b23-b20 - 8000Hz
1322:modes.c       ****         new_display_data_buffer[10] = '0' + ((status >> 20) & 0x0000000F);
 2526              		.loc 1 1322 0
 2527 0062 030D     		lsrs	r3, r0, #20
 2528 0064 2B40     		ands	r3, r5
 2529 0066 3033     		adds	r3, r3, #48
 2530 0068 A372     		strb	r3, [r4, #10]
1323:modes.c       **** //    b19-b16 - 16000Hz
1324:modes.c       ****         new_display_data_buffer[11] = '0' + ((status >> 16) & 0x0000000F);
 2531              		.loc 1 1324 0
 2532 006a 030C     		lsrs	r3, r0, #16
 2533 006c 2B40     		ands	r3, r5
 2534 006e 3033     		adds	r3, r3, #48
 2535 0070 E372     		strb	r3, [r4, #11]
1325:modes.c       ****         
1326:modes.c       **** //    RIGHT
1327:modes.c       ****         new_display_data_buffer[12] = ' ';
1328:modes.c       ****         new_display_data_buffer[13] = 'R';
 2536              		.loc 1 1328 0
 2537 0072 5223     		movs	r3, #82
 2538 0074 6373     		strb	r3, [r4, #13]
1329:modes.c       **** //    b11-b8 - 4000Hz
1330:modes.c       ****         new_display_data_buffer[21] = '0' + ((status >> 8) & 0x0000000F);
 2539              		.loc 1 1330 0
 2540 0076 030A     		lsrs	r3, r0, #8
 2541 0078 2B40     		ands	r3, r5
 2542 007a 3033     		adds	r3, r3, #48
 2543 007c 6375     		strb	r3, [r4, #21]
1331:modes.c       **** //    b7-b4 - 8000Hz       
1332:modes.c       ****         new_display_data_buffer[22] = '0' + ((status >> 4) & 0x0000000F);       
 2544              		.loc 1 1332 0
 2545 007e 0309     		lsrs	r3, r0, #4
1333:modes.c       **** //    b3-b0 - 16000Hz                
1334:modes.c       ****         new_display_data_buffer[23] = '0' + (status & 0x0000000F);
 2546              		.loc 1 1334 0
 2547 0080 2840     		ands	r0, r5
 2548              	.LVL143:
1332:modes.c       **** //    b3-b0 - 16000Hz                
 2549              		.loc 1 1332 0
ARM GAS  C:\Users\Ala\AppData\Local\Temp\ccPRO05X.s 			page 74


 2550 0082 2B40     		ands	r3, r5
 2551              		.loc 1 1334 0
 2552 0084 3030     		adds	r0, r0, #48
1332:modes.c       **** //    b3-b0 - 16000Hz                
 2553              		.loc 1 1332 0
 2554 0086 3033     		adds	r3, r3, #48
 2555              		.loc 1 1334 0
 2556 0088 E075     		strb	r0, [r4, #23]
1335:modes.c       ****  
1336:modes.c       **** //read back
1337:modes.c       **** // 1 = Spectrum analyzer -> Right 
1338:modes.c       **** //    b31-b28 - NOT_USED
1339:modes.c       ****         status = SPIM_SigmaDSP_read(1);
 2557              		.loc 1 1339 0
 2558 008a 3000     		movs	r0, r6
1332:modes.c       **** //    b3-b0 - 16000Hz                
 2559              		.loc 1 1332 0
 2560 008c A375     		strb	r3, [r4, #22]
1327:modes.c       ****         new_display_data_buffer[13] = 'R';
 2561              		.loc 1 1327 0
 2562 008e 2773     		strb	r7, [r4, #12]
 2563              		.loc 1 1339 0
 2564 0090 FFF7FEFF 		bl	SPIM_SigmaDSP_read
 2565              	.LVL144:
1340:modes.c       **** //    b27-b24 - 31.5Hz
1341:modes.c       ****         new_display_data_buffer[14] = '0' + ((status >> 24) & 0x0000000F);
 2566              		.loc 1 1341 0
 2567 0094 030E     		lsrs	r3, r0, #24
 2568 0096 2B40     		ands	r3, r5
 2569 0098 3033     		adds	r3, r3, #48
 2570 009a A373     		strb	r3, [r4, #14]
1342:modes.c       **** //    b23-b20 - 63Hz
1343:modes.c       ****         new_display_data_buffer[15] = '0' + ((status >> 20) & 0x0000000F);
 2571              		.loc 1 1343 0
 2572 009c 030D     		lsrs	r3, r0, #20
 2573 009e 2B40     		ands	r3, r5
 2574 00a0 3033     		adds	r3, r3, #48
 2575 00a2 E373     		strb	r3, [r4, #15]
1344:modes.c       **** //    b19-b16 - 125Hz
1345:modes.c       ****         new_display_data_buffer[16] = '0' + ((status >> 16) & 0x0000000F);
 2576              		.loc 1 1345 0
 2577 00a4 030C     		lsrs	r3, r0, #16
 2578 00a6 2B40     		ands	r3, r5
 2579 00a8 3033     		adds	r3, r3, #48
 2580 00aa 2374     		strb	r3, [r4, #16]
1346:modes.c       **** //    b15-b12 - 250Hz
1347:modes.c       ****         new_display_data_buffer[17] = '0' + ((status >> 12) & 0x0000000F);
 2581              		.loc 1 1347 0
 2582 00ac 030B     		lsrs	r3, r0, #12
 2583 00ae 2B40     		ands	r3, r5
 2584 00b0 3033     		adds	r3, r3, #48
 2585 00b2 6374     		strb	r3, [r4, #17]
1348:modes.c       **** //    b11-b8 - 500Hz
1349:modes.c       ****         new_display_data_buffer[18] = '0' + ((status >> 8) & 0x0000000F);
 2586              		.loc 1 1349 0
 2587 00b4 030A     		lsrs	r3, r0, #8
 2588 00b6 2B40     		ands	r3, r5
ARM GAS  C:\Users\Ala\AppData\Local\Temp\ccPRO05X.s 			page 75


 2589 00b8 3033     		adds	r3, r3, #48
 2590 00ba A374     		strb	r3, [r4, #18]
1350:modes.c       **** //    b7-b4 - 1000Hz        
1351:modes.c       ****         new_display_data_buffer[19] = '0' + ((status >> 4) & 0x0000000F);       
 2591              		.loc 1 1351 0
 2592 00bc 0309     		lsrs	r3, r0, #4
 2593 00be 2B40     		ands	r3, r5
1352:modes.c       **** //    b3-b0 - 2000Hz                
1353:modes.c       ****         new_display_data_buffer[20] = '0' + (status & 0x0000000F);
 2594              		.loc 1 1353 0
 2595 00c0 0540     		ands	r5, r0
1351:modes.c       **** //    b3-b0 - 2000Hz                
 2596              		.loc 1 1351 0
 2597 00c2 3033     		adds	r3, r3, #48
 2598              		.loc 1 1353 0
 2599 00c4 3035     		adds	r5, r5, #48
1351:modes.c       **** //    b3-b0 - 2000Hz                
 2600              		.loc 1 1351 0
 2601 00c6 E374     		strb	r3, [r4, #19]
 2602              		.loc 1 1353 0
 2603 00c8 2575     		strb	r5, [r4, #20]
1354:modes.c       **** 
1355:modes.c       **** // set flag and sent info to display module
1356:modes.c       **** //        new_display_data_flag = 1;
1357:modes.c       ****         
1358:modes.c       ****         break;
 2604              		.loc 1 1358 0
 2605 00ca 34E0     		b	.L259
 2606              	.LVL145:
 2607              	.L260:
1217:modes.c       **** // display data
 2608              		.loc 1 1217 0
 2609 00cc FFF7FEFF 		bl	SPIM_SigmaDSP_read
 2610              	.LVL146:
1229:modes.c       ****         new_display_data_buffer[1] = '9';
 2611              		.loc 1 1229 0
 2612 00d0 3822     		movs	r2, #56
1248:modes.c       ****             }
 2613              		.loc 1 1248 0
 2614 00d2 3127     		movs	r7, #49
1229:modes.c       ****         new_display_data_buffer[1] = '9';
 2615              		.loc 1 1229 0
 2616 00d4 194B     		ldr	r3, .L277
1236:modes.c       ****             {
 2617              		.loc 1 1236 0
 2618 00d6 010A     		lsrs	r1, r0, #8
1229:modes.c       ****         new_display_data_buffer[1] = '9';
 2619              		.loc 1 1229 0
 2620 00d8 1A70     		strb	r2, [r3]
1230:modes.c       ****      
 2621              		.loc 1 1230 0
 2622 00da 0132     		adds	r2, r2, #1
 2623 00dc 5A70     		strb	r2, [r3, #1]
1236:modes.c       ****             {
 2624              		.loc 1 1236 0
 2625 00de C632     		adds	r2, r2, #198
 2626 00e0 1140     		ands	r1, r2
ARM GAS  C:\Users\Ala\AppData\Local\Temp\ccPRO05X.s 			page 76


 2627 00e2 9C1C     		adds	r4, r3, #2
1246:modes.c       ****             {
 2628              		.loc 1 1246 0
 2629 00e4 0240     		ands	r2, r0
 2630              	.LVL147:
 2631              	.L266:
1236:modes.c       ****             {
 2632              		.loc 1 1236 0
 2633 00e6 B142     		cmp	r1, r6
 2634 00e8 04D3     		bcc	.L262
1238:modes.c       ****             }
 2635              		.loc 1 1238 0 discriminator 1
 2636 00ea 3325     		movs	r5, #51
1236:modes.c       ****             {
 2637              		.loc 1 1236 0 discriminator 1
 2638 00ec B242     		cmp	r2, r6
 2639 00ee 06D2     		bcs	.L274
1243:modes.c       ****             }
 2640              		.loc 1 1243 0
 2641 00f0 3225     		movs	r5, #50
 2642 00f2 04E0     		b	.L274
 2643              	.L262:
1246:modes.c       ****             {
 2644              		.loc 1 1246 0 discriminator 1
 2645 00f4 B242     		cmp	r2, r6
 2646 00f6 01D3     		bcc	.L265
1248:modes.c       ****             }
 2647              		.loc 1 1248 0
 2648 00f8 2770     		strb	r7, [r4]
 2649 00fa 01E0     		b	.L264
 2650              	.L265:
1253:modes.c       ****                 }
 2651              		.loc 1 1253 0
 2652 00fc 3025     		movs	r5, #48
 2653              	.L274:
 2654 00fe 2570     		strb	r5, [r4]
 2655              	.L264:
 2656              	.LVL148:
 2657 0100 0136     		adds	r6, r6, #1
 2658              	.LVL149:
 2659 0102 0134     		adds	r4, r4, #1
1233:modes.c       ****         {
 2660              		.loc 1 1233 0 discriminator 2
 2661 0104 142E     		cmp	r6, #20
 2662 0106 EED1     		bne	.L266
1257:modes.c       ****                 
 2663              		.loc 1 1257 0
 2664 0108 3022     		movs	r2, #48
 2665 010a 1324     		movs	r4, #19
1275:modes.c       ****             }
 2666              		.loc 1 1275 0
 2667 010c 3525     		movs	r5, #53
1257:modes.c       ****                 
 2668              		.loc 1 1257 0
 2669 010e 9A70     		strb	r2, [r3, #2]
 2670              	.LVL150:
1273:modes.c       ****             {
ARM GAS  C:\Users\Ala\AppData\Local\Temp\ccPRO05X.s 			page 77


 2671              		.loc 1 1273 0
 2672 0110 C0B2     		uxtb	r0, r0
 2673              	.LVL151:
 2674 0112 1533     		adds	r3, r3, #21
 2675              	.LVL152:
 2676              	.L271:
1263:modes.c       ****             {
 2677              		.loc 1 1263 0
 2678 0114 8C42     		cmp	r4, r1
 2679 0116 05D8     		bhi	.L267
1265:modes.c       ****             }
 2680              		.loc 1 1265 0 discriminator 1
 2681 0118 3726     		movs	r6, #55
1263:modes.c       ****             {
 2682              		.loc 1 1263 0 discriminator 1
 2683 011a 8442     		cmp	r4, r0
 2684 011c 00D9     		bls	.L275
1270:modes.c       ****             }
 2685              		.loc 1 1270 0
 2686 011e 3626     		movs	r6, #54
 2687              	.L275:
 2688 0120 1E70     		strb	r6, [r3]
 2689 0122 04E0     		b	.L269
 2690              	.L267:
1273:modes.c       ****             {
 2691              		.loc 1 1273 0 discriminator 1
 2692 0124 8442     		cmp	r4, r0
 2693 0126 01D8     		bhi	.L270
1275:modes.c       ****             }
 2694              		.loc 1 1275 0
 2695 0128 1D70     		strb	r5, [r3]
 2696 012a 00E0     		b	.L269
 2697              	.L270:
1280:modes.c       ****                 }
 2698              		.loc 1 1280 0
 2699 012c 1A70     		strb	r2, [r3]
 2700              	.L269:
 2701              	.LVL153:
 2702 012e 0134     		adds	r4, r4, #1
 2703              	.LVL154:
 2704 0130 0133     		adds	r3, r3, #1
1260:modes.c       ****         {
 2705              		.loc 1 1260 0 discriminator 2
 2706 0132 162C     		cmp	r4, #22
 2707 0134 EED1     		bne	.L271
 2708              	.L259:
1359:modes.c       ****     }
1360:modes.c       ****     
1361:modes.c       ****     return 0;
1362:modes.c       **** }
 2709              		.loc 1 1362 0
 2710 0136 0020     		movs	r0, #0
 2711              		@ sp needed
 2712 0138 F8BD     		pop	{r3, r4, r5, r6, r7, pc}
 2713              	.L278:
 2714 013a C046     		.align	2
 2715              	.L277:
ARM GAS  C:\Users\Ala\AppData\Local\Temp\ccPRO05X.s 			page 78


 2716 013c 00000000 		.word	.LANCHOR0
 2717              		.cfi_endproc
 2718              	.LFE36:
 2719              		.size	SigmaDSP_to_display, .-SigmaDSP_to_display
 2720              		.section	.text.DATALINK_times,"ax",%progbits
 2721              		.align	1
 2722              		.global	DATALINK_times
 2723              		.code	16
 2724              		.thumb_func
 2725              		.type	DATALINK_times, %function
 2726              	DATALINK_times:
 2727              	.LFB37:
1363:modes.c       **** 
1364:modes.c       **** 
1365:modes.c       **** /*******************************************************************************
1366:modes.c       **** * Function Name: DATALINK_times()
1367:modes.c       **** ********************************************************************************
1368:modes.c       **** * Summary:
1369:modes.c       **** *  Function responsible for producing activity on DATALINK line following
1370:modes.c       **** *  DATALINK standard.
1371:modes.c       **** *   
1372:modes.c       **** * Parameters:
1373:modes.c       **** *  time - 1 for t1 = 3.125mS 
1374:modes.c       **** *         2 for t2 = 6.250mS
1375:modes.c       **** *         3 for t3 = 9.375mS
1376:modes.c       **** *         4 for t4 = 12.500mS
1377:modes.c       **** *         5 for t5 = 15.625mS
1378:modes.c       **** *
1379:modes.c       **** * Return:
1380:modes.c       **** *  1 if all good
1381:modes.c       **** *  0 if there was a clash on datalink port (another device transmitted)
1382:modes.c       **** *
1383:modes.c       **** *******************************************************************************/  
1384:modes.c       **** uint8 DATALINK_times(uint8 time)  
1385:modes.c       **** {
 2728              		.loc 1 1385 0
 2729              		.cfi_startproc
 2730              		@ args = 0, pretend = 0, frame = 0
 2731              		@ frame_needed = 0, uses_anonymous_args = 0
 2732              	.LVL155:
 2733 0000 10B5     		push	{r4, lr}
 2734              		.cfi_def_cfa_offset 8
 2735              		.cfi_offset 4, -8
 2736              		.cfi_offset 14, -4
 2737              		.loc 1 1385 0
 2738 0002 0400     		movs	r4, r0
1386:modes.c       **** // counter used for time t1..t5 commands    
1387:modes.c       ****     uint32 datalink_counter = 0;
1388:modes.c       **** 
1389:modes.c       **** // check if DATALINK is not already engadged (held low by some other device)    
1390:modes.c       ****     if (DATALINK_Read() == 0)
 2739              		.loc 1 1390 0
 2740 0004 FFF7FEFF 		bl	DATALINK_Read
 2741              	.LVL156:
 2742 0008 0028     		cmp	r0, #0
 2743 000a 01D1     		bne	.L280
 2744              	.L288:
ARM GAS  C:\Users\Ala\AppData\Local\Temp\ccPRO05X.s 			page 79


1391:modes.c       ****     {
1392:modes.c       **** // if it is return 0 and stop        
1393:modes.c       ****         return 0;
 2745              		.loc 1 1393 0
 2746 000c 0023     		movs	r3, #0
 2747 000e 45E0     		b	.L281
 2748              	.L280:
 2749              	.LVL157:
 2750              	.LBB4:
 2751              	.LBB5:
1394:modes.c       ****     }
1395:modes.c       ****     else
1396:modes.c       ****         {
1397:modes.c       **** // if it is not then held datalink line low for 1.5625mS
1398:modes.c       ****             DATALINK_Write(0x00);
 2752              		.loc 1 1398 0
 2753 0010 0020     		movs	r0, #0
 2754 0012 FFF7FEFF 		bl	DATALINK_Write
 2755              	.LVL158:
1399:modes.c       ****             CyDelay(1);
 2756              		.loc 1 1399 0
 2757 0016 0120     		movs	r0, #1
 2758 0018 FFF7FEFF 		bl	CyDelay
 2759              	.LVL159:
1400:modes.c       ****             CyDelayUs(562);
 2760              		.loc 1 1400 0
 2761 001c 2048     		ldr	r0, .L316
 2762 001e FFF7FEFF 		bl	CyDelayUs
 2763              	.LVL160:
1401:modes.c       ****             DATALINK_Write(0x01);
 2764              		.loc 1 1401 0
 2765 0022 0120     		movs	r0, #1
 2766 0024 FFF7FEFF 		bl	DATALINK_Write
 2767              	.LVL161:
1402:modes.c       ****         }
1403:modes.c       ****  // wait 10uS for DATALINK pin to settle before checkign its state
1404:modes.c       ****     CyDelayUs(10);
 2768              		.loc 1 1404 0
 2769 0028 0A20     		movs	r0, #10
 2770 002a FFF7FEFF 		bl	CyDelayUs
 2771              	.LVL162:
1405:modes.c       **** 
1406:modes.c       **** // based on input commad hold datalink line high for prescribed amount of time.
1407:modes.c       **** // check if line is high (not taken over by another device) during that period of time
1408:modes.c       **** // if datalink line will go low, stop symbol tranmission and return 0    
1409:modes.c       ****     switch (time)
 2772              		.loc 1 1409 0
 2773 002e 601E     		subs	r0, r4, #1
1410:modes.c       ****         {
1411:modes.c       **** 
1412:modes.c       **** // t1 = 3.125mS 
1413:modes.c       ****         case (1):
1414:modes.c       ****             for (datalink_counter = 0; datalink_counter <=1565 ; datalink_counter++)
1415:modes.c       ****             {
1416:modes.c       ****                 if (DATALINK_Read() == 0x00)
1417:modes.c       ****                 {
1418:modes.c       ****                     return 0;
ARM GAS  C:\Users\Ala\AppData\Local\Temp\ccPRO05X.s 			page 80


1419:modes.c       ****                 }   
1420:modes.c       ****             }
1421:modes.c       ****             break;
1422:modes.c       **** 
1423:modes.c       **** // t2 = 6.250mS
1424:modes.c       ****         case (2):
1425:modes.c       ****             for (datalink_counter = 0; datalink_counter <=4665 ; datalink_counter++)    
1426:modes.c       ****             {
1427:modes.c       ****                 if (DATALINK_Read() == 0x00)
1428:modes.c       ****                 {
1429:modes.c       ****                     return 0;
1430:modes.c       ****                 }   
1431:modes.c       ****             }
1432:modes.c       ****             break;
1433:modes.c       **** 
1434:modes.c       **** // t3 = 9.375mS
1435:modes.c       ****         case (3):            
1436:modes.c       ****             for (datalink_counter = 0; datalink_counter <=7760 ; datalink_counter++)    
1437:modes.c       ****             {
1438:modes.c       ****                 if (DATALINK_Read() == 0x00)
1439:modes.c       ****                 {
1440:modes.c       ****                     return 0;
1441:modes.c       ****                 }   
1442:modes.c       ****             }
1443:modes.c       ****             break;
1444:modes.c       **** 
1445:modes.c       **** // t4 = 12.500mS
1446:modes.c       ****         case (4):
1447:modes.c       ****             for (datalink_counter = 0; datalink_counter <=11000 ; datalink_counter++)    
1448:modes.c       ****             {
1449:modes.c       ****                 if (DATALINK_Read() == 0x00)
1450:modes.c       ****                 {
1451:modes.c       ****                     return 0;
1452:modes.c       ****                 }   
1453:modes.c       ****             }
1454:modes.c       ****             break;
1455:modes.c       **** 
1456:modes.c       **** // t5 = 15.625mS
1457:modes.c       ****             case (5):
1458:modes.c       ****             for (datalink_counter = 0; datalink_counter <=14050 ; datalink_counter++)    
1459:modes.c       ****             {
1460:modes.c       ****                 if (DATALINK_Read() == 0x00)
1461:modes.c       ****                 {
1462:modes.c       ****                     return 0;
1463:modes.c       ****                 }   
1464:modes.c       ****             }
1465:modes.c       ****             break;
1466:modes.c       ****         }
1467:modes.c       **** 
1468:modes.c       **** // return 1 if all good
1469:modes.c       ****     return 1;
 2774              		.loc 1 1469 0
 2775 0030 0123     		movs	r3, #1
1409:modes.c       ****         {
 2776              		.loc 1 1409 0
 2777 0032 0428     		cmp	r0, #4
 2778 0034 32D8     		bhi	.L281
ARM GAS  C:\Users\Ala\AppData\Local\Temp\ccPRO05X.s 			page 81


 2779 0036 FFF7FEFF 		bl	__gnu_thumb1_case_uqi
 2780              	.L283:
 2781 003a 03       		.byte	(.L282-.L283)/2
 2782 003b 0D       		.byte	(.L284-.L283)/2
 2783 003c 16       		.byte	(.L285-.L283)/2
 2784 003d 1F       		.byte	(.L286-.L283)/2
 2785 003e 28       		.byte	(.L287-.L283)/2
 2786 003f 00       		.p2align 1
 2787              	.L282:
 2788 0040 184C     		ldr	r4, .L316+4
 2789              	.LVL163:
 2790              	.L289:
1416:modes.c       ****                 {
 2791              		.loc 1 1416 0
 2792 0042 FFF7FEFF 		bl	DATALINK_Read
 2793              	.LVL164:
 2794 0046 0028     		cmp	r0, #0
 2795 0048 E0D0     		beq	.L288
 2796              	.LVL165:
 2797 004a 013C     		subs	r4, r4, #1
 2798              	.LVL166:
1414:modes.c       ****             {
 2799              		.loc 1 1414 0
 2800 004c 002C     		cmp	r4, #0
 2801 004e F8D1     		bne	.L289
 2802              	.LVL167:
 2803              	.L291:
 2804              		.loc 1 1469 0
 2805 0050 0123     		movs	r3, #1
 2806 0052 23E0     		b	.L281
 2807              	.LVL168:
 2808              	.L284:
1409:modes.c       ****         {
 2809              		.loc 1 1409 0
 2810 0054 144C     		ldr	r4, .L316+8
 2811              	.LVL169:
 2812              	.L290:
1427:modes.c       ****                 {
 2813              		.loc 1 1427 0
 2814 0056 FFF7FEFF 		bl	DATALINK_Read
 2815              	.LVL170:
 2816 005a 0028     		cmp	r0, #0
 2817 005c D6D0     		beq	.L288
 2818              	.LVL171:
 2819 005e 013C     		subs	r4, r4, #1
 2820              	.LVL172:
1425:modes.c       ****             {
 2821              		.loc 1 1425 0
 2822 0060 002C     		cmp	r4, #0
 2823 0062 F8D1     		bne	.L290
 2824 0064 F4E7     		b	.L291
 2825              	.LVL173:
 2826              	.L285:
1409:modes.c       ****         {
 2827              		.loc 1 1409 0
 2828 0066 114C     		ldr	r4, .L316+12
 2829              	.LVL174:
ARM GAS  C:\Users\Ala\AppData\Local\Temp\ccPRO05X.s 			page 82


 2830              	.L292:
1438:modes.c       ****                 {
 2831              		.loc 1 1438 0
 2832 0068 FFF7FEFF 		bl	DATALINK_Read
 2833              	.LVL175:
 2834 006c 0028     		cmp	r0, #0
 2835 006e CDD0     		beq	.L288
 2836              	.LVL176:
 2837 0070 013C     		subs	r4, r4, #1
 2838              	.LVL177:
1436:modes.c       ****             {
 2839              		.loc 1 1436 0
 2840 0072 002C     		cmp	r4, #0
 2841 0074 F8D1     		bne	.L292
 2842 0076 EBE7     		b	.L291
 2843              	.LVL178:
 2844              	.L286:
1409:modes.c       ****         {
 2845              		.loc 1 1409 0
 2846 0078 0D4C     		ldr	r4, .L316+16
 2847              	.LVL179:
 2848              	.L293:
1449:modes.c       ****                 {
 2849              		.loc 1 1449 0
 2850 007a FFF7FEFF 		bl	DATALINK_Read
 2851              	.LVL180:
 2852 007e 0028     		cmp	r0, #0
 2853 0080 C4D0     		beq	.L288
 2854              	.LVL181:
 2855 0082 013C     		subs	r4, r4, #1
 2856              	.LVL182:
1447:modes.c       ****             {
 2857              		.loc 1 1447 0
 2858 0084 002C     		cmp	r4, #0
 2859 0086 F8D1     		bne	.L293
 2860 0088 E2E7     		b	.L291
 2861              	.LVL183:
 2862              	.L287:
1409:modes.c       ****         {
 2863              		.loc 1 1409 0
 2864 008a 0A4C     		ldr	r4, .L316+20
 2865              	.LVL184:
 2866              	.L294:
1460:modes.c       ****                 {
 2867              		.loc 1 1460 0
 2868 008c FFF7FEFF 		bl	DATALINK_Read
 2869              	.LVL185:
 2870 0090 0028     		cmp	r0, #0
 2871 0092 BBD0     		beq	.L288
 2872              	.LVL186:
 2873 0094 013C     		subs	r4, r4, #1
 2874              	.LVL187:
1458:modes.c       ****             {
 2875              		.loc 1 1458 0
 2876 0096 002C     		cmp	r4, #0
 2877 0098 F8D1     		bne	.L294
 2878 009a D9E7     		b	.L291
ARM GAS  C:\Users\Ala\AppData\Local\Temp\ccPRO05X.s 			page 83


 2879              	.LVL188:
 2880              	.L281:
 2881              	.LBE5:
 2882              	.LBE4:
1470:modes.c       **** }
 2883              		.loc 1 1470 0
 2884 009c 1800     		movs	r0, r3
 2885              		@ sp needed
 2886 009e 10BD     		pop	{r4, pc}
 2887              	.L317:
 2888              		.align	2
 2889              	.L316:
 2890 00a0 32020000 		.word	562
 2891 00a4 1E060000 		.word	1566
 2892 00a8 3A120000 		.word	4666
 2893 00ac 511E0000 		.word	7761
 2894 00b0 F92A0000 		.word	11001
 2895 00b4 E3360000 		.word	14051
 2896              		.cfi_endproc
 2897              	.LFE37:
 2898              		.size	DATALINK_times, .-DATALINK_times
 2899              		.section	.text.DATALINK_out,"ax",%progbits
 2900              		.align	1
 2901              		.global	DATALINK_out
 2902              		.code	16
 2903              		.thumb_func
 2904              		.type	DATALINK_out, %function
 2905              	DATALINK_out:
 2906              	.LFB38:
1471:modes.c       **** 
1472:modes.c       **** 
1473:modes.c       **** /*******************************************************************************
1474:modes.c       **** * Function Name: DATALINK_out()
1475:modes.c       **** ********************************************************************************
1476:modes.c       **** * Summary:
1477:modes.c       **** *  Function reposnisble for sending data over datalink port. Implementaton is quite 
1478:modes.c       **** *  crude due to the fact that device will require only two commands. Power up 
1479:modes.c       **** *  (in Aux mode) and power down.
1480:modes.c       **** *   
1481:modes.c       **** * Parameters:
1482:modes.c       **** *  command = 0 -> 0 button pressed 
1483:modes.c       **** *          = 1 -> 1 button pressed
1484:modes.c       **** *          = 2 -> 2 button pressed
1485:modes.c       **** *          = 3 -> 3 button pressed
1486:modes.c       **** *          = 4 -> 4 button pressed
1487:modes.c       **** *          = 5 -> 5 button pressed
1488:modes.c       **** *          = 6 -> 6 button pressed
1489:modes.c       **** *          = 7 -> 7 button pressed
1490:modes.c       **** *          = 8 -> 8 button pressed
1491:modes.c       **** *          = 9 -> 9 button pressed
1492:modes.c       **** *          = 10 -> GO button pressed
1493:modes.c       **** *          = 11 -> LIST button pressed
1494:modes.c       **** *          = 12 -> POWER DOWN from aux devices 
1495:modes.c       **** *
1496:modes.c       **** * Return:
1497:modes.c       **** *  0 = conflict on DATALINK port was recorded function didn't finish its 
1498:modes.c       **** *      command transmission
ARM GAS  C:\Users\Ala\AppData\Local\Temp\ccPRO05X.s 			page 84


1499:modes.c       **** *  1 = command sent succesfully (no confilct on DATALINK line)
1500:modes.c       **** *
1501:modes.c       **** *******************************************************************************/  
1502:modes.c       **** uint8 DATALINK_out(uint8 command)  
1503:modes.c       **** {
 2907              		.loc 1 1503 0
 2908              		.cfi_startproc
 2909              		@ args = 0, pretend = 0, frame = 0
 2910              		@ frame_needed = 0, uses_anonymous_args = 0
 2911              	.LVL189:
 2912 0000 10B5     		push	{r4, lr}
 2913              		.cfi_def_cfa_offset 8
 2914              		.cfi_offset 4, -8
 2915              		.cfi_offset 14, -4
1504:modes.c       ****     switch (command)
 2916              		.loc 1 1504 0
 2917 0002 0C28     		cmp	r0, #12
 2918 0004 00D9     		bls	.LCB2646
 2919 0006 E2E3     		b	.L333	@long jump
 2920              	.LCB2646:
 2921 0008 FFF7FEFF 		bl	__gnu_thumb1_case_uhi
 2922              	.L321:
 2923 000c 0D00     		.2byte	(.L320-.L321)/2
 2924 000e 8200     		.2byte	(.L322-.L321)/2
 2925 0010 EF00     		.2byte	(.L323-.L321)/2
 2926 0012 6501     		.2byte	(.L324-.L321)/2
 2927 0014 B701     		.2byte	(.L325-.L321)/2
 2928 0016 2102     		.2byte	(.L326-.L321)/2
 2929 0018 E103     		.2byte	(.L333-.L321)/2
 2930 001a E103     		.2byte	(.L333-.L321)/2
 2931 001c E103     		.2byte	(.L333-.L321)/2
 2932 001e E103     		.2byte	(.L333-.L321)/2
 2933 0020 9702     		.2byte	(.L327-.L321)/2
 2934 0022 0703     		.2byte	(.L328-.L321)/2
 2935 0024 7103     		.2byte	(.L329-.L321)/2
 2936              		.p2align 1
 2937              	.L320:
1505:modes.c       ****         {
1506:modes.c       **** // 0 button pressed 
1507:modes.c       ****         case (0):
1508:modes.c       ****             DATALINK_INTRRUPT_Disable();
 2938              		.loc 1 1508 0
 2939 0026 FFF7FEFF 		bl	DATALINK_INTRRUPT_Disable
 2940              	.LVL190:
1509:modes.c       **** // START 1151 
1510:modes.c       ****             if (DATALINK_times(1) == 0) { return 0; }
 2941              		.loc 1 1510 0
 2942 002a 0120     		movs	r0, #1
 2943 002c FFF7FEFF 		bl	DATALINK_times
 2944              	.LVL191:
 2945 0030 0028     		cmp	r0, #0
 2946 0032 01D1     		bne	.L330
 2947              	.L331:
 2948 0034 0020     		movs	r0, #0
 2949 0036 CBE3     		b	.L319
 2950              	.L330:
1511:modes.c       ****             if (DATALINK_times(1) == 0) { return 0; }
ARM GAS  C:\Users\Ala\AppData\Local\Temp\ccPRO05X.s 			page 85


 2951              		.loc 1 1511 0
 2952 0038 0120     		movs	r0, #1
 2953 003a FFF7FEFF 		bl	DATALINK_times
 2954              	.LVL192:
 2955 003e 0028     		cmp	r0, #0
 2956 0040 F8D0     		beq	.L331
1512:modes.c       ****             if (DATALINK_times(5) == 0) { return 0; }
 2957              		.loc 1 1512 0
 2958 0042 0520     		movs	r0, #5
 2959 0044 FFF7FEFF 		bl	DATALINK_times
 2960              	.LVL193:
 2961 0048 0028     		cmp	r0, #0
 2962 004a F3D0     		beq	.L331
1513:modes.c       ****             if (DATALINK_times(1) == 0) { return 0; }
 2963              		.loc 1 1513 0
 2964 004c 0120     		movs	r0, #1
 2965 004e FFF7FEFF 		bl	DATALINK_times
 2966              	.LVL194:
 2967 0052 0028     		cmp	r0, #0
 2968 0054 EED0     		beq	.L331
1514:modes.c       **** // DATA
1515:modes.c       **** // 2222  
1516:modes.c       ****             if (DATALINK_times(2) == 0) { return 0; }
 2969              		.loc 1 1516 0
 2970 0056 0220     		movs	r0, #2
 2971 0058 FFF7FEFF 		bl	DATALINK_times
 2972              	.LVL195:
 2973 005c 0028     		cmp	r0, #0
 2974 005e E9D0     		beq	.L331
1517:modes.c       ****             if (DATALINK_times(2) == 0) { return 0; }
 2975              		.loc 1 1517 0
 2976 0060 0220     		movs	r0, #2
 2977 0062 FFF7FEFF 		bl	DATALINK_times
 2978              	.LVL196:
 2979 0066 0028     		cmp	r0, #0
 2980 0068 E4D0     		beq	.L331
1518:modes.c       ****             if (DATALINK_times(2) == 0) { return 0; }
 2981              		.loc 1 1518 0
 2982 006a 0220     		movs	r0, #2
 2983 006c FFF7FEFF 		bl	DATALINK_times
 2984              	.LVL197:
 2985 0070 0028     		cmp	r0, #0
 2986 0072 DFD0     		beq	.L331
1519:modes.c       ****             if (DATALINK_times(2) == 0) { return 0; }
 2987              		.loc 1 1519 0
 2988 0074 0220     		movs	r0, #2
 2989 0076 FFF7FEFF 		bl	DATALINK_times
 2990              	.LVL198:
 2991 007a 0028     		cmp	r0, #0
 2992 007c DAD0     		beq	.L331
1520:modes.c       **** // 2223  
1521:modes.c       ****             if (DATALINK_times(2) == 0) { return 0; }
 2993              		.loc 1 1521 0
 2994 007e 0220     		movs	r0, #2
 2995 0080 FFF7FEFF 		bl	DATALINK_times
 2996              	.LVL199:
 2997 0084 0028     		cmp	r0, #0
ARM GAS  C:\Users\Ala\AppData\Local\Temp\ccPRO05X.s 			page 86


 2998 0086 D5D0     		beq	.L331
1522:modes.c       ****             if (DATALINK_times(2) == 0) { return 0; }
 2999              		.loc 1 1522 0
 3000 0088 0220     		movs	r0, #2
 3001 008a FFF7FEFF 		bl	DATALINK_times
 3002              	.LVL200:
 3003 008e 0028     		cmp	r0, #0
 3004 0090 D0D0     		beq	.L331
1523:modes.c       ****             if (DATALINK_times(2) == 0) { return 0; }
 3005              		.loc 1 1523 0
 3006 0092 0220     		movs	r0, #2
 3007 0094 FFF7FEFF 		bl	DATALINK_times
 3008              	.LVL201:
 3009 0098 0028     		cmp	r0, #0
 3010 009a CBD0     		beq	.L331
1524:modes.c       ****             if (DATALINK_times(3) == 0) { return 0; }
 3011              		.loc 1 1524 0
 3012 009c 0320     		movs	r0, #3
 3013 009e FFF7FEFF 		bl	DATALINK_times
 3014              	.LVL202:
 3015 00a2 0028     		cmp	r0, #0
 3016 00a4 C6D0     		beq	.L331
1525:modes.c       **** // 1222 
1526:modes.c       ****             if (DATALINK_times(1) == 0) { return 0; }
 3017              		.loc 1 1526 0
 3018 00a6 0120     		movs	r0, #1
 3019 00a8 FFF7FEFF 		bl	DATALINK_times
 3020              	.LVL203:
 3021 00ac 0028     		cmp	r0, #0
 3022 00ae C1D0     		beq	.L331
1527:modes.c       ****             if (DATALINK_times(2) == 0) { return 0; }
 3023              		.loc 1 1527 0
 3024 00b0 0220     		movs	r0, #2
 3025 00b2 FFF7FEFF 		bl	DATALINK_times
 3026              	.LVL204:
 3027 00b6 0028     		cmp	r0, #0
 3028 00b8 BCD0     		beq	.L331
1528:modes.c       ****             if (DATALINK_times(2) == 0) { return 0; }
 3029              		.loc 1 1528 0
 3030 00ba 0220     		movs	r0, #2
 3031 00bc FFF7FEFF 		bl	DATALINK_times
 3032              	.LVL205:
 3033 00c0 0028     		cmp	r0, #0
 3034 00c2 B7D0     		beq	.L331
1529:modes.c       ****             if (DATALINK_times(2) == 0) { return 0; }
 3035              		.loc 1 1529 0
 3036 00c4 0220     		movs	r0, #2
 3037 00c6 FFF7FEFF 		bl	DATALINK_times
 3038              	.LVL206:
 3039 00ca 0028     		cmp	r0, #0
 3040 00cc B2D0     		beq	.L331
1530:modes.c       **** // 2222 
1531:modes.c       ****             if (DATALINK_times(2) == 0) { return 0; }
 3041              		.loc 1 1531 0
 3042 00ce 0220     		movs	r0, #2
 3043 00d0 FFF7FEFF 		bl	DATALINK_times
 3044              	.LVL207:
ARM GAS  C:\Users\Ala\AppData\Local\Temp\ccPRO05X.s 			page 87


 3045 00d4 0028     		cmp	r0, #0
 3046 00d6 ADD0     		beq	.L331
1532:modes.c       ****             if (DATALINK_times(2) == 0) { return 0; }
 3047              		.loc 1 1532 0
 3048 00d8 0220     		movs	r0, #2
 3049              	.L964:
 3050 00da FFF7FEFF 		bl	DATALINK_times
 3051              	.LVL208:
 3052 00de 0028     		cmp	r0, #0
 3053 00e0 A8D0     		beq	.L331
1533:modes.c       ****             if (DATALINK_times(2) == 0) { return 0; }
 3054              		.loc 1 1533 0
 3055 00e2 0220     		movs	r0, #2
 3056              	.L954:
 3057 00e4 FFF7FEFF 		bl	DATALINK_times
 3058              	.LVL209:
 3059 00e8 0028     		cmp	r0, #0
 3060 00ea A3D0     		beq	.L331
1534:modes.c       ****             if (DATALINK_times(2) == 0) { return 0; }
 3061              		.loc 1 1534 0
 3062 00ec 0220     		movs	r0, #2
 3063              	.L947:
 3064 00ee FFF7FEFF 		bl	DATALINK_times
 3065              	.LVL210:
 3066 00f2 0028     		cmp	r0, #0
 3067 00f4 9ED0     		beq	.L331
1535:modes.c       **** // 41  
1536:modes.c       ****             if (DATALINK_times(4) == 0) { return 0; }
 3068              		.loc 1 1536 0
 3069 00f6 0420     		movs	r0, #4
 3070 00f8 FFF7FEFF 		bl	DATALINK_times
 3071              	.LVL211:
 3072 00fc 0028     		cmp	r0, #0
 3073 00fe 99D0     		beq	.L331
1537:modes.c       ****             if (DATALINK_times(1) == 0) { return 0; }
 3074              		.loc 1 1537 0
 3075 0100 0120     		movs	r0, #1
 3076 0102 FFF7FEFF 		bl	DATALINK_times
 3077              	.LVL212:
 3078 0106 0028     		cmp	r0, #0
 3079 0108 94D0     		beq	.L331
1538:modes.c       ****      
1539:modes.c       ****             DATALINK_INTRRUPT_Enable();
 3080              		.loc 1 1539 0
 3081 010a FFF7FEFF 		bl	DATALINK_INTRRUPT_Enable
 3082              	.LVL213:
 3083 010e 5EE3     		b	.L333
 3084              	.LVL214:
 3085              	.L322:
1540:modes.c       ****             
1541:modes.c       ****             break;
1542:modes.c       ****             
1543:modes.c       **** // 1 button pressed
1544:modes.c       ****         case (1):
1545:modes.c       ****             DATALINK_INTRRUPT_Disable();
 3086              		.loc 1 1545 0
 3087 0110 FFF7FEFF 		bl	DATALINK_INTRRUPT_Disable
ARM GAS  C:\Users\Ala\AppData\Local\Temp\ccPRO05X.s 			page 88


 3088              	.LVL215:
1546:modes.c       **** // START 1151 
1547:modes.c       ****             if (DATALINK_times(1) == 0) { return 0; }
 3089              		.loc 1 1547 0
 3090 0114 0120     		movs	r0, #1
 3091 0116 FFF7FEFF 		bl	DATALINK_times
 3092              	.LVL216:
 3093 011a 0028     		cmp	r0, #0
 3094 011c 8AD0     		beq	.L331
1548:modes.c       ****             if (DATALINK_times(1) == 0) { return 0; }
 3095              		.loc 1 1548 0
 3096 011e 0120     		movs	r0, #1
 3097 0120 FFF7FEFF 		bl	DATALINK_times
 3098              	.LVL217:
 3099 0124 0028     		cmp	r0, #0
 3100 0126 85D0     		beq	.L331
1549:modes.c       ****             if (DATALINK_times(5) == 0) { return 0; }
 3101              		.loc 1 1549 0
 3102 0128 0520     		movs	r0, #5
 3103 012a FFF7FEFF 		bl	DATALINK_times
 3104              	.LVL218:
 3105 012e 0028     		cmp	r0, #0
 3106 0130 80D0     		beq	.L331
1550:modes.c       ****             if (DATALINK_times(1) == 0) { return 0; }
 3107              		.loc 1 1550 0
 3108 0132 0120     		movs	r0, #1
 3109 0134 FFF7FEFF 		bl	DATALINK_times
 3110              	.LVL219:
 3111 0138 0028     		cmp	r0, #0
 3112 013a 00D1     		bne	.LCB2807
 3113 013c 7AE7     		b	.L331	@long jump
 3114              	.LCB2807:
1551:modes.c       **** // DATA
1552:modes.c       **** // 2222  
1553:modes.c       ****             if (DATALINK_times(2) == 0) { return 0; }
 3115              		.loc 1 1553 0
 3116 013e 0220     		movs	r0, #2
 3117 0140 FFF7FEFF 		bl	DATALINK_times
 3118              	.LVL220:
 3119 0144 0028     		cmp	r0, #0
 3120 0146 00D1     		bne	.LCB2812
 3121 0148 74E7     		b	.L331	@long jump
 3122              	.LCB2812:
1554:modes.c       ****             if (DATALINK_times(2) == 0) { return 0; }
 3123              		.loc 1 1554 0
 3124 014a 0220     		movs	r0, #2
 3125 014c FFF7FEFF 		bl	DATALINK_times
 3126              	.LVL221:
 3127 0150 0028     		cmp	r0, #0
 3128 0152 00D1     		bne	.LCB2817
 3129 0154 6EE7     		b	.L331	@long jump
 3130              	.LCB2817:
1555:modes.c       ****             if (DATALINK_times(2) == 0) { return 0; }
 3131              		.loc 1 1555 0
 3132 0156 0220     		movs	r0, #2
 3133 0158 FFF7FEFF 		bl	DATALINK_times
 3134              	.LVL222:
ARM GAS  C:\Users\Ala\AppData\Local\Temp\ccPRO05X.s 			page 89


 3135 015c 0028     		cmp	r0, #0
 3136 015e 00D1     		bne	.LCB2822
 3137 0160 68E7     		b	.L331	@long jump
 3138              	.LCB2822:
1556:modes.c       ****             if (DATALINK_times(2) == 0) { return 0; }
 3139              		.loc 1 1556 0
 3140 0162 0220     		movs	r0, #2
 3141 0164 FFF7FEFF 		bl	DATALINK_times
 3142              	.LVL223:
 3143 0168 0028     		cmp	r0, #0
 3144 016a 00D1     		bne	.LCB2827
 3145 016c 62E7     		b	.L331	@long jump
 3146              	.LCB2827:
1557:modes.c       **** // 2223  
1558:modes.c       ****             if (DATALINK_times(2) == 0) { return 0; }
 3147              		.loc 1 1558 0
 3148 016e 0220     		movs	r0, #2
 3149 0170 FFF7FEFF 		bl	DATALINK_times
 3150              	.LVL224:
 3151 0174 0028     		cmp	r0, #0
 3152 0176 00D1     		bne	.LCB2832
 3153 0178 5CE7     		b	.L331	@long jump
 3154              	.LCB2832:
1559:modes.c       ****             if (DATALINK_times(2) == 0) { return 0; }
 3155              		.loc 1 1559 0
 3156 017a 0220     		movs	r0, #2
 3157 017c FFF7FEFF 		bl	DATALINK_times
 3158              	.LVL225:
 3159 0180 0028     		cmp	r0, #0
 3160 0182 00D1     		bne	.LCB2837
 3161 0184 56E7     		b	.L331	@long jump
 3162              	.LCB2837:
1560:modes.c       ****             if (DATALINK_times(2) == 0) { return 0; }
 3163              		.loc 1 1560 0
 3164 0186 0220     		movs	r0, #2
 3165 0188 FFF7FEFF 		bl	DATALINK_times
 3166              	.LVL226:
 3167 018c 0028     		cmp	r0, #0
 3168 018e 00D1     		bne	.LCB2842
 3169 0190 50E7     		b	.L331	@long jump
 3170              	.LCB2842:
1561:modes.c       ****             if (DATALINK_times(3) == 0) { return 0; }
 3171              		.loc 1 1561 0
 3172 0192 0320     		movs	r0, #3
 3173 0194 FFF7FEFF 		bl	DATALINK_times
 3174              	.LVL227:
 3175 0198 0028     		cmp	r0, #0
 3176 019a 00D1     		bne	.LCB2847
 3177 019c 4AE7     		b	.L331	@long jump
 3178              	.LCB2847:
1562:modes.c       **** // 1222 
1563:modes.c       ****             if (DATALINK_times(1) == 0) { return 0; }
 3179              		.loc 1 1563 0
 3180 019e 0120     		movs	r0, #1
 3181 01a0 FFF7FEFF 		bl	DATALINK_times
 3182              	.LVL228:
 3183 01a4 0028     		cmp	r0, #0
ARM GAS  C:\Users\Ala\AppData\Local\Temp\ccPRO05X.s 			page 90


 3184 01a6 00D1     		bne	.LCB2852
 3185 01a8 44E7     		b	.L331	@long jump
 3186              	.LCB2852:
1564:modes.c       ****             if (DATALINK_times(2) == 0) { return 0; }
 3187              		.loc 1 1564 0
 3188 01aa 0220     		movs	r0, #2
 3189 01ac FFF7FEFF 		bl	DATALINK_times
 3190              	.LVL229:
 3191 01b0 0028     		cmp	r0, #0
 3192 01b2 00D1     		bne	.LCB2857
 3193 01b4 3EE7     		b	.L331	@long jump
 3194              	.LCB2857:
1565:modes.c       ****             if (DATALINK_times(2) == 0) { return 0; }
 3195              		.loc 1 1565 0
 3196 01b6 0220     		movs	r0, #2
 3197 01b8 FFF7FEFF 		bl	DATALINK_times
 3198              	.LVL230:
 3199 01bc 0028     		cmp	r0, #0
 3200 01be 00D1     		bne	.LCB2862
 3201 01c0 38E7     		b	.L331	@long jump
 3202              	.LCB2862:
1566:modes.c       ****             if (DATALINK_times(2) == 0) { return 0; }
 3203              		.loc 1 1566 0
 3204 01c2 0220     		movs	r0, #2
 3205 01c4 FFF7FEFF 		bl	DATALINK_times
 3206              	.LVL231:
 3207 01c8 0028     		cmp	r0, #0
 3208 01ca 00D1     		bne	.LCB2867
 3209 01cc 32E7     		b	.L331	@long jump
 3210              	.LCB2867:
1567:modes.c       **** // 2223 
1568:modes.c       ****             if (DATALINK_times(2) == 0) { return 0; }
 3211              		.loc 1 1568 0
 3212 01ce 0220     		movs	r0, #2
 3213 01d0 FFF7FEFF 		bl	DATALINK_times
 3214              	.LVL232:
 3215 01d4 0028     		cmp	r0, #0
 3216 01d6 00D1     		bne	.LCB2872
 3217 01d8 2CE7     		b	.L331	@long jump
 3218              	.LCB2872:
1569:modes.c       ****             if (DATALINK_times(2) == 0) { return 0; }
 3219              		.loc 1 1569 0
 3220 01da 0220     		movs	r0, #2
 3221 01dc FFF7FEFF 		bl	DATALINK_times
 3222              	.LVL233:
 3223 01e0 0028     		cmp	r0, #0
 3224 01e2 00D1     		bne	.LCB2877
 3225 01e4 26E7     		b	.L331	@long jump
 3226              	.LCB2877:
1570:modes.c       ****             if (DATALINK_times(2) == 0) { return 0; }
 3227              		.loc 1 1570 0
 3228 01e6 0220     		movs	r0, #2
 3229 01e8 A0E1     		b	.L962
 3230              	.LVL234:
 3231              	.L323:
1571:modes.c       ****             if (DATALINK_times(3) == 0) { return 0; }
1572:modes.c       **** // 41  
ARM GAS  C:\Users\Ala\AppData\Local\Temp\ccPRO05X.s 			page 91


1573:modes.c       ****             if (DATALINK_times(4) == 0) { return 0; }
1574:modes.c       ****             if (DATALINK_times(1) == 0) { return 0; }
1575:modes.c       ****          
1576:modes.c       ****             DATALINK_INTRRUPT_Enable();
1577:modes.c       **** 
1578:modes.c       ****             break;
1579:modes.c       **** 
1580:modes.c       **** // 2 button pressed
1581:modes.c       ****         case (2):
1582:modes.c       ****             DATALINK_INTRRUPT_Disable();
 3232              		.loc 1 1582 0
 3233 01ea FFF7FEFF 		bl	DATALINK_INTRRUPT_Disable
 3234              	.LVL235:
1583:modes.c       **** // START 1151 
1584:modes.c       ****             if (DATALINK_times(1) == 0) { return 0; }
 3235              		.loc 1 1584 0
 3236 01ee 0120     		movs	r0, #1
 3237 01f0 FFF7FEFF 		bl	DATALINK_times
 3238              	.LVL236:
 3239 01f4 0028     		cmp	r0, #0
 3240 01f6 00D1     		bne	.LCB2891
 3241 01f8 1CE7     		b	.L331	@long jump
 3242              	.LCB2891:
1585:modes.c       ****             if (DATALINK_times(1) == 0) { return 0; }
 3243              		.loc 1 1585 0
 3244 01fa 0120     		movs	r0, #1
 3245 01fc FFF7FEFF 		bl	DATALINK_times
 3246              	.LVL237:
 3247 0200 0028     		cmp	r0, #0
 3248 0202 00D1     		bne	.LCB2896
 3249 0204 16E7     		b	.L331	@long jump
 3250              	.LCB2896:
1586:modes.c       ****             if (DATALINK_times(5) == 0) { return 0; }
 3251              		.loc 1 1586 0
 3252 0206 0520     		movs	r0, #5
 3253 0208 FFF7FEFF 		bl	DATALINK_times
 3254              	.LVL238:
 3255 020c 0028     		cmp	r0, #0
 3256 020e 00D1     		bne	.LCB2901
 3257 0210 10E7     		b	.L331	@long jump
 3258              	.LCB2901:
1587:modes.c       ****             if (DATALINK_times(1) == 0) { return 0; }
 3259              		.loc 1 1587 0
 3260 0212 0120     		movs	r0, #1
 3261 0214 FFF7FEFF 		bl	DATALINK_times
 3262              	.LVL239:
 3263 0218 0028     		cmp	r0, #0
 3264 021a 00D1     		bne	.LCB2906
 3265 021c 0AE7     		b	.L331	@long jump
 3266              	.LCB2906:
1588:modes.c       **** // DATA
1589:modes.c       **** // 2222  
1590:modes.c       ****             if (DATALINK_times(2) == 0) { return 0; }
 3267              		.loc 1 1590 0
 3268 021e 0220     		movs	r0, #2
 3269 0220 FFF7FEFF 		bl	DATALINK_times
 3270              	.LVL240:
ARM GAS  C:\Users\Ala\AppData\Local\Temp\ccPRO05X.s 			page 92


 3271 0224 0028     		cmp	r0, #0
 3272 0226 00D1     		bne	.LCB2911
 3273 0228 04E7     		b	.L331	@long jump
 3274              	.LCB2911:
1591:modes.c       ****             if (DATALINK_times(2) == 0) { return 0; }
 3275              		.loc 1 1591 0
 3276 022a 0220     		movs	r0, #2
 3277 022c FFF7FEFF 		bl	DATALINK_times
 3278              	.LVL241:
 3279 0230 0028     		cmp	r0, #0
 3280 0232 00D1     		bne	.LCB2916
 3281 0234 FEE6     		b	.L331	@long jump
 3282              	.LCB2916:
1592:modes.c       ****             if (DATALINK_times(2) == 0) { return 0; }
 3283              		.loc 1 1592 0
 3284 0236 0220     		movs	r0, #2
 3285 0238 FFF7FEFF 		bl	DATALINK_times
 3286              	.LVL242:
 3287 023c 0028     		cmp	r0, #0
 3288 023e 00D1     		bne	.LCB2921
 3289 0240 F8E6     		b	.L331	@long jump
 3290              	.LCB2921:
1593:modes.c       ****             if (DATALINK_times(2) == 0) { return 0; }
 3291              		.loc 1 1593 0
 3292 0242 0220     		movs	r0, #2
 3293 0244 FFF7FEFF 		bl	DATALINK_times
 3294              	.LVL243:
 3295 0248 0028     		cmp	r0, #0
 3296 024a 00D1     		bne	.LCB2926
 3297 024c F2E6     		b	.L331	@long jump
 3298              	.LCB2926:
1594:modes.c       **** // 2223  
1595:modes.c       ****             if (DATALINK_times(2) == 0) { return 0; }
 3299              		.loc 1 1595 0
 3300 024e 0220     		movs	r0, #2
 3301 0250 FFF7FEFF 		bl	DATALINK_times
 3302              	.LVL244:
 3303 0254 0028     		cmp	r0, #0
 3304 0256 00D1     		bne	.LCB2931
 3305 0258 ECE6     		b	.L331	@long jump
 3306              	.LCB2931:
1596:modes.c       ****             if (DATALINK_times(2) == 0) { return 0; }
 3307              		.loc 1 1596 0
 3308 025a 0220     		movs	r0, #2
 3309 025c FFF7FEFF 		bl	DATALINK_times
 3310              	.LVL245:
 3311 0260 0028     		cmp	r0, #0
 3312 0262 00D1     		bne	.LCB2936
 3313 0264 E6E6     		b	.L331	@long jump
 3314              	.LCB2936:
1597:modes.c       ****             if (DATALINK_times(2) == 0) { return 0; }
 3315              		.loc 1 1597 0
 3316 0266 0220     		movs	r0, #2
 3317 0268 FFF7FEFF 		bl	DATALINK_times
 3318              	.LVL246:
 3319 026c 0028     		cmp	r0, #0
 3320 026e 00D1     		bne	.LCB2941
ARM GAS  C:\Users\Ala\AppData\Local\Temp\ccPRO05X.s 			page 93


 3321 0270 E0E6     		b	.L331	@long jump
 3322              	.LCB2941:
1598:modes.c       ****             if (DATALINK_times(3) == 0) { return 0; }
 3323              		.loc 1 1598 0
 3324 0272 0320     		movs	r0, #3
 3325 0274 FFF7FEFF 		bl	DATALINK_times
 3326              	.LVL247:
 3327 0278 0028     		cmp	r0, #0
 3328 027a 00D1     		bne	.LCB2946
 3329 027c DAE6     		b	.L331	@long jump
 3330              	.LCB2946:
1599:modes.c       **** // 1222 
1600:modes.c       ****             if (DATALINK_times(1) == 0) { return 0; }
 3331              		.loc 1 1600 0
 3332 027e 0120     		movs	r0, #1
 3333 0280 FFF7FEFF 		bl	DATALINK_times
 3334              	.LVL248:
 3335 0284 0028     		cmp	r0, #0
 3336 0286 00D1     		bne	.LCB2951
 3337 0288 D4E6     		b	.L331	@long jump
 3338              	.LCB2951:
1601:modes.c       ****             if (DATALINK_times(2) == 0) { return 0; }
 3339              		.loc 1 1601 0
 3340 028a 0220     		movs	r0, #2
 3341 028c FFF7FEFF 		bl	DATALINK_times
 3342              	.LVL249:
 3343 0290 0028     		cmp	r0, #0
 3344 0292 00D1     		bne	.LCB2956
 3345 0294 CEE6     		b	.L331	@long jump
 3346              	.LCB2956:
1602:modes.c       ****             if (DATALINK_times(2) == 0) { return 0; }
 3347              		.loc 1 1602 0
 3348 0296 0220     		movs	r0, #2
 3349 0298 FFF7FEFF 		bl	DATALINK_times
 3350              	.LVL250:
 3351 029c 0028     		cmp	r0, #0
 3352 029e 00D1     		bne	.LCB2961
 3353 02a0 C8E6     		b	.L331	@long jump
 3354              	.LCB2961:
1603:modes.c       ****             if (DATALINK_times(2) == 0) { return 0; }
 3355              		.loc 1 1603 0
 3356 02a2 0220     		movs	r0, #2
 3357 02a4 FFF7FEFF 		bl	DATALINK_times
 3358              	.LVL251:
 3359 02a8 0028     		cmp	r0, #0
 3360 02aa 00D1     		bne	.LCB2966
 3361 02ac C2E6     		b	.L331	@long jump
 3362              	.LCB2966:
1604:modes.c       **** // 2231 
1605:modes.c       ****             if (DATALINK_times(2) == 0) { return 0; }
 3363              		.loc 1 1605 0
 3364 02ae 0220     		movs	r0, #2
 3365 02b0 FFF7FEFF 		bl	DATALINK_times
 3366              	.LVL252:
 3367 02b4 0028     		cmp	r0, #0
 3368 02b6 00D1     		bne	.LCB2971
 3369 02b8 BCE6     		b	.L331	@long jump
ARM GAS  C:\Users\Ala\AppData\Local\Temp\ccPRO05X.s 			page 94


 3370              	.LCB2971:
1606:modes.c       ****             if (DATALINK_times(2) == 0) { return 0; }
 3371              		.loc 1 1606 0
 3372 02ba 0220     		movs	r0, #2
 3373 02bc FFF7FEFF 		bl	DATALINK_times
 3374              	.LVL253:
 3375 02c0 0028     		cmp	r0, #0
 3376 02c2 00D1     		bne	.LCB2976
 3377 02c4 B6E6     		b	.L331	@long jump
 3378              	.LCB2976:
1607:modes.c       ****             if (DATALINK_times(3) == 0) { return 0; }
 3379              		.loc 1 1607 0
 3380 02c6 0320     		movs	r0, #3
 3381 02c8 FFF7FEFF 		bl	DATALINK_times
 3382              	.LVL254:
 3383 02cc 0028     		cmp	r0, #0
 3384 02ce 00D1     		bne	.LCB2981
 3385 02d0 B0E6     		b	.L331	@long jump
 3386              	.LCB2981:
1608:modes.c       ****             if (DATALINK_times(1) == 0) { return 0; }
 3387              		.loc 1 1608 0
 3388 02d2 0120     		movs	r0, #1
 3389 02d4 0BE7     		b	.L947
 3390              	.LVL255:
 3391              	.L324:
1609:modes.c       **** // 41  
1610:modes.c       ****             if (DATALINK_times(4) == 0) { return 0; }
1611:modes.c       ****             if (DATALINK_times(1) == 0) { return 0; }
1612:modes.c       ****          
1613:modes.c       ****             DATALINK_INTRRUPT_Enable();
1614:modes.c       **** 
1615:modes.c       ****             break;
1616:modes.c       **** 
1617:modes.c       **** // 3 button pressed
1618:modes.c       ****         case (3):
1619:modes.c       ****             DATALINK_INTRRUPT_Disable();
 3392              		.loc 1 1619 0
 3393 02d6 FFF7FEFF 		bl	DATALINK_INTRRUPT_Disable
 3394              	.LVL256:
1620:modes.c       **** // START 1151 
1621:modes.c       ****             if (DATALINK_times(1) == 0) { return 0; }
 3395              		.loc 1 1621 0
 3396 02da 0120     		movs	r0, #1
 3397 02dc FFF7FEFF 		bl	DATALINK_times
 3398              	.LVL257:
 3399 02e0 0028     		cmp	r0, #0
 3400 02e2 00D1     		bne	.LCB2995
 3401 02e4 A6E6     		b	.L331	@long jump
 3402              	.LCB2995:
1622:modes.c       ****             if (DATALINK_times(1) == 0) { return 0; }
 3403              		.loc 1 1622 0
 3404 02e6 0120     		movs	r0, #1
 3405 02e8 FFF7FEFF 		bl	DATALINK_times
 3406              	.LVL258:
 3407 02ec 0028     		cmp	r0, #0
 3408 02ee 00D1     		bne	.LCB3000
 3409 02f0 A0E6     		b	.L331	@long jump
ARM GAS  C:\Users\Ala\AppData\Local\Temp\ccPRO05X.s 			page 95


 3410              	.LCB3000:
1623:modes.c       ****             if (DATALINK_times(5) == 0) { return 0; }
 3411              		.loc 1 1623 0
 3412 02f2 0520     		movs	r0, #5
 3413 02f4 FFF7FEFF 		bl	DATALINK_times
 3414              	.LVL259:
 3415 02f8 0028     		cmp	r0, #0
 3416 02fa 00D1     		bne	.LCB3005
 3417 02fc 9AE6     		b	.L331	@long jump
 3418              	.LCB3005:
1624:modes.c       ****             if (DATALINK_times(1) == 0) { return 0; }
 3419              		.loc 1 1624 0
 3420 02fe 0120     		movs	r0, #1
 3421 0300 FFF7FEFF 		bl	DATALINK_times
 3422              	.LVL260:
 3423 0304 0028     		cmp	r0, #0
 3424 0306 00D1     		bne	.LCB3010
 3425 0308 94E6     		b	.L331	@long jump
 3426              	.LCB3010:
1625:modes.c       **** // DATA
1626:modes.c       **** // 2222  
1627:modes.c       ****             if (DATALINK_times(2) == 0) { return 0; }
 3427              		.loc 1 1627 0
 3428 030a 0220     		movs	r0, #2
 3429 030c FFF7FEFF 		bl	DATALINK_times
 3430              	.LVL261:
 3431 0310 0028     		cmp	r0, #0
 3432 0312 00D1     		bne	.LCB3015
 3433 0314 8EE6     		b	.L331	@long jump
 3434              	.LCB3015:
1628:modes.c       ****             if (DATALINK_times(2) == 0) { return 0; }
 3435              		.loc 1 1628 0
 3436 0316 0220     		movs	r0, #2
 3437 0318 FFF7FEFF 		bl	DATALINK_times
 3438              	.LVL262:
 3439 031c 0028     		cmp	r0, #0
 3440 031e 00D1     		bne	.LCB3020
 3441 0320 88E6     		b	.L331	@long jump
 3442              	.LCB3020:
1629:modes.c       ****             if (DATALINK_times(2) == 0) { return 0; }
 3443              		.loc 1 1629 0
 3444 0322 0220     		movs	r0, #2
 3445 0324 FFF7FEFF 		bl	DATALINK_times
 3446              	.LVL263:
 3447 0328 0028     		cmp	r0, #0
 3448 032a 00D1     		bne	.LCB3025
 3449 032c 82E6     		b	.L331	@long jump
 3450              	.LCB3025:
1630:modes.c       ****             if (DATALINK_times(2) == 0) { return 0; }
 3451              		.loc 1 1630 0
 3452 032e 0220     		movs	r0, #2
 3453 0330 FFF7FEFF 		bl	DATALINK_times
 3454              	.LVL264:
 3455 0334 0028     		cmp	r0, #0
 3456 0336 00D1     		bne	.LCB3030
 3457 0338 7CE6     		b	.L331	@long jump
 3458              	.LCB3030:
ARM GAS  C:\Users\Ala\AppData\Local\Temp\ccPRO05X.s 			page 96


1631:modes.c       **** // 2223  
1632:modes.c       ****             if (DATALINK_times(2) == 0) { return 0; }
 3459              		.loc 1 1632 0
 3460 033a 0220     		movs	r0, #2
 3461 033c FFF7FEFF 		bl	DATALINK_times
 3462              	.LVL265:
 3463 0340 0028     		cmp	r0, #0
 3464 0342 00D1     		bne	.LCB3035
 3465 0344 76E6     		b	.L331	@long jump
 3466              	.LCB3035:
1633:modes.c       ****             if (DATALINK_times(2) == 0) { return 0; }
 3467              		.loc 1 1633 0
 3468 0346 0220     		movs	r0, #2
 3469 0348 FFF7FEFF 		bl	DATALINK_times
 3470              	.LVL266:
 3471 034c 0028     		cmp	r0, #0
 3472 034e 00D1     		bne	.LCB3040
 3473 0350 70E6     		b	.L331	@long jump
 3474              	.LCB3040:
1634:modes.c       ****             if (DATALINK_times(2) == 0) { return 0; }
 3475              		.loc 1 1634 0
 3476 0352 0220     		movs	r0, #2
 3477 0354 FFF7FEFF 		bl	DATALINK_times
 3478              	.LVL267:
 3479 0358 0028     		cmp	r0, #0
 3480 035a 00D1     		bne	.LCB3045
 3481 035c 6AE6     		b	.L331	@long jump
 3482              	.LCB3045:
1635:modes.c       ****             if (DATALINK_times(3) == 0) { return 0; }
 3483              		.loc 1 1635 0
 3484 035e 0320     		movs	r0, #3
 3485 0360 FFF7FEFF 		bl	DATALINK_times
 3486              	.LVL268:
 3487 0364 0028     		cmp	r0, #0
 3488 0366 00D1     		bne	.LCB3050
 3489 0368 64E6     		b	.L331	@long jump
 3490              	.LCB3050:
1636:modes.c       **** // 1222 
1637:modes.c       ****             if (DATALINK_times(1) == 0) { return 0; }
 3491              		.loc 1 1637 0
 3492 036a 0120     		movs	r0, #1
 3493 036c FFF7FEFF 		bl	DATALINK_times
 3494              	.LVL269:
 3495 0370 0028     		cmp	r0, #0
 3496 0372 00D1     		bne	.LCB3055
 3497 0374 5EE6     		b	.L331	@long jump
 3498              	.LCB3055:
1638:modes.c       ****             if (DATALINK_times(2) == 0) { return 0; }
 3499              		.loc 1 1638 0
 3500 0376 0220     		movs	r0, #2
 3501 0378 30E1     		b	.L978
 3502              	.LVL270:
 3503              	.L325:
1639:modes.c       ****             if (DATALINK_times(2) == 0) { return 0; }
1640:modes.c       ****             if (DATALINK_times(2) == 0) { return 0; }
1641:modes.c       **** // 2232 
1642:modes.c       ****             if (DATALINK_times(2) == 0) { return 0; }
ARM GAS  C:\Users\Ala\AppData\Local\Temp\ccPRO05X.s 			page 97


1643:modes.c       ****             if (DATALINK_times(2) == 0) { return 0; }
1644:modes.c       ****             if (DATALINK_times(3) == 0) { return 0; }
1645:modes.c       ****             if (DATALINK_times(2) == 0) { return 0; }
1646:modes.c       **** // 41  
1647:modes.c       ****             if (DATALINK_times(4) == 0) { return 0; }
1648:modes.c       ****             if (DATALINK_times(1) == 0) { return 0; }
1649:modes.c       ****          
1650:modes.c       ****             DATALINK_INTRRUPT_Enable();
1651:modes.c       **** 
1652:modes.c       ****             break;            
1653:modes.c       **** 
1654:modes.c       **** // 4 button pressed
1655:modes.c       ****         case (4):
1656:modes.c       ****             DATALINK_INTRRUPT_Disable();
 3504              		.loc 1 1656 0
 3505 037a FFF7FEFF 		bl	DATALINK_INTRRUPT_Disable
 3506              	.LVL271:
1657:modes.c       **** // START 1151 
1658:modes.c       ****             if (DATALINK_times(1) == 0) { return 0; }
 3507              		.loc 1 1658 0
 3508 037e 0120     		movs	r0, #1
 3509 0380 FFF7FEFF 		bl	DATALINK_times
 3510              	.LVL272:
 3511 0384 0028     		cmp	r0, #0
 3512 0386 00D1     		bne	.LCB3069
 3513 0388 54E6     		b	.L331	@long jump
 3514              	.LCB3069:
1659:modes.c       ****             if (DATALINK_times(1) == 0) { return 0; }
 3515              		.loc 1 1659 0
 3516 038a 0120     		movs	r0, #1
 3517 038c FFF7FEFF 		bl	DATALINK_times
 3518              	.LVL273:
 3519 0390 0028     		cmp	r0, #0
 3520 0392 00D1     		bne	.LCB3074
 3521 0394 4EE6     		b	.L331	@long jump
 3522              	.LCB3074:
1660:modes.c       ****             if (DATALINK_times(5) == 0) { return 0; }
 3523              		.loc 1 1660 0
 3524 0396 0520     		movs	r0, #5
 3525 0398 FFF7FEFF 		bl	DATALINK_times
 3526              	.LVL274:
 3527 039c 0028     		cmp	r0, #0
 3528 039e 00D1     		bne	.LCB3079
 3529 03a0 48E6     		b	.L331	@long jump
 3530              	.LCB3079:
1661:modes.c       ****             if (DATALINK_times(1) == 0) { return 0; }
 3531              		.loc 1 1661 0
 3532 03a2 0120     		movs	r0, #1
 3533 03a4 FFF7FEFF 		bl	DATALINK_times
 3534              	.LVL275:
 3535 03a8 0028     		cmp	r0, #0
 3536 03aa 00D1     		bne	.LCB3084
 3537 03ac 42E6     		b	.L331	@long jump
 3538              	.LCB3084:
1662:modes.c       **** // DATA
1663:modes.c       **** // 2222  
1664:modes.c       ****             if (DATALINK_times(2) == 0) { return 0; }
ARM GAS  C:\Users\Ala\AppData\Local\Temp\ccPRO05X.s 			page 98


 3539              		.loc 1 1664 0
 3540 03ae 0220     		movs	r0, #2
 3541 03b0 FFF7FEFF 		bl	DATALINK_times
 3542              	.LVL276:
 3543 03b4 0028     		cmp	r0, #0
 3544 03b6 00D1     		bne	.LCB3089
 3545 03b8 3CE6     		b	.L331	@long jump
 3546              	.LCB3089:
1665:modes.c       ****             if (DATALINK_times(2) == 0) { return 0; }
 3547              		.loc 1 1665 0
 3548 03ba 0220     		movs	r0, #2
 3549 03bc FFF7FEFF 		bl	DATALINK_times
 3550              	.LVL277:
 3551 03c0 0028     		cmp	r0, #0
 3552 03c2 00D1     		bne	.LCB3094
 3553 03c4 36E6     		b	.L331	@long jump
 3554              	.LCB3094:
1666:modes.c       ****             if (DATALINK_times(2) == 0) { return 0; }
 3555              		.loc 1 1666 0
 3556 03c6 0220     		movs	r0, #2
 3557 03c8 FFF7FEFF 		bl	DATALINK_times
 3558              	.LVL278:
 3559 03cc 0028     		cmp	r0, #0
 3560 03ce 00D1     		bne	.LCB3099
 3561 03d0 30E6     		b	.L331	@long jump
 3562              	.LCB3099:
1667:modes.c       ****             if (DATALINK_times(2) == 0) { return 0; }
 3563              		.loc 1 1667 0
 3564 03d2 0220     		movs	r0, #2
 3565 03d4 FFF7FEFF 		bl	DATALINK_times
 3566              	.LVL279:
 3567 03d8 0028     		cmp	r0, #0
 3568 03da 00D1     		bne	.LCB3104
 3569 03dc 2AE6     		b	.L331	@long jump
 3570              	.LCB3104:
1668:modes.c       **** // 2223  
1669:modes.c       ****             if (DATALINK_times(2) == 0) { return 0; }
 3571              		.loc 1 1669 0
 3572 03de 0220     		movs	r0, #2
 3573 03e0 FFF7FEFF 		bl	DATALINK_times
 3574              	.LVL280:
 3575 03e4 0028     		cmp	r0, #0
 3576 03e6 00D1     		bne	.LCB3109
 3577 03e8 24E6     		b	.L331	@long jump
 3578              	.LCB3109:
1670:modes.c       ****             if (DATALINK_times(2) == 0) { return 0; }
 3579              		.loc 1 1670 0
 3580 03ea 0220     		movs	r0, #2
 3581 03ec FFF7FEFF 		bl	DATALINK_times
 3582              	.LVL281:
 3583 03f0 0028     		cmp	r0, #0
 3584 03f2 00D1     		bne	.LCB3114
 3585 03f4 1EE6     		b	.L331	@long jump
 3586              	.LCB3114:
1671:modes.c       ****             if (DATALINK_times(2) == 0) { return 0; }
 3587              		.loc 1 1671 0
 3588 03f6 0220     		movs	r0, #2
ARM GAS  C:\Users\Ala\AppData\Local\Temp\ccPRO05X.s 			page 99


 3589 03f8 FFF7FEFF 		bl	DATALINK_times
 3590              	.LVL282:
 3591 03fc 0028     		cmp	r0, #0
 3592 03fe 00D1     		bne	.LCB3119
 3593 0400 18E6     		b	.L331	@long jump
 3594              	.LCB3119:
1672:modes.c       ****             if (DATALINK_times(3) == 0) { return 0; }
 3595              		.loc 1 1672 0
 3596 0402 0320     		movs	r0, #3
 3597 0404 FFF7FEFF 		bl	DATALINK_times
 3598              	.LVL283:
 3599 0408 0028     		cmp	r0, #0
 3600 040a 00D1     		bne	.LCB3124
 3601 040c 12E6     		b	.L331	@long jump
 3602              	.LCB3124:
1673:modes.c       **** // 1222 
1674:modes.c       ****             if (DATALINK_times(1) == 0) { return 0; }
 3603              		.loc 1 1674 0
 3604 040e 0120     		movs	r0, #1
 3605 0410 FFF7FEFF 		bl	DATALINK_times
 3606              	.LVL284:
 3607 0414 0028     		cmp	r0, #0
 3608 0416 00D1     		bne	.LCB3129
 3609 0418 0CE6     		b	.L331	@long jump
 3610              	.LCB3129:
1675:modes.c       ****             if (DATALINK_times(2) == 0) { return 0; }
 3611              		.loc 1 1675 0
 3612 041a 0220     		movs	r0, #2
 3613 041c FFF7FEFF 		bl	DATALINK_times
 3614              	.LVL285:
 3615 0420 0028     		cmp	r0, #0
 3616 0422 00D1     		bne	.LCB3134
 3617 0424 06E6     		b	.L331	@long jump
 3618              	.LCB3134:
1676:modes.c       ****             if (DATALINK_times(2) == 0) { return 0; }
 3619              		.loc 1 1676 0
 3620 0426 0220     		movs	r0, #2
 3621 0428 FFF7FEFF 		bl	DATALINK_times
 3622              	.LVL286:
 3623 042c 0028     		cmp	r0, #0
 3624 042e 00D1     		bne	.LCB3139
 3625 0430 00E6     		b	.L331	@long jump
 3626              	.LCB3139:
1677:modes.c       ****             if (DATALINK_times(2) == 0) { return 0; }
 3627              		.loc 1 1677 0
 3628 0432 0220     		movs	r0, #2
 3629 0434 FFF7FEFF 		bl	DATALINK_times
 3630              	.LVL287:
 3631 0438 0028     		cmp	r0, #0
 3632 043a 00D1     		bne	.LCB3144
 3633 043c FAE5     		b	.L331	@long jump
 3634              	.LCB3144:
1678:modes.c       **** // 2312 
1679:modes.c       ****             if (DATALINK_times(2) == 0) { return 0; }
 3635              		.loc 1 1679 0
 3636 043e 0220     		movs	r0, #2
 3637 0440 FFF7FEFF 		bl	DATALINK_times
ARM GAS  C:\Users\Ala\AppData\Local\Temp\ccPRO05X.s 			page 100


 3638              	.LVL288:
 3639 0444 0028     		cmp	r0, #0
 3640 0446 00D1     		bne	.LCB3149
 3641 0448 F4E5     		b	.L331	@long jump
 3642              	.LCB3149:
1680:modes.c       ****             if (DATALINK_times(3) == 0) { return 0; }
 3643              		.loc 1 1680 0
 3644 044a 0320     		movs	r0, #3
 3645 044c B8E1     		b	.L970
 3646              	.LVL289:
 3647              	.L326:
1681:modes.c       ****             if (DATALINK_times(1) == 0) { return 0; }
1682:modes.c       ****             if (DATALINK_times(2) == 0) { return 0; }
1683:modes.c       **** // 41  
1684:modes.c       ****             if (DATALINK_times(4) == 0) { return 0; }
1685:modes.c       ****             if (DATALINK_times(1) == 0) { return 0; }
1686:modes.c       ****          
1687:modes.c       ****             DATALINK_INTRRUPT_Enable();
1688:modes.c       **** 
1689:modes.c       ****             break;     
1690:modes.c       ****             
1691:modes.c       **** // 5 button pressed
1692:modes.c       ****         case (5):
1693:modes.c       ****             DATALINK_INTRRUPT_Disable();
 3648              		.loc 1 1693 0
 3649 044e FFF7FEFF 		bl	DATALINK_INTRRUPT_Disable
 3650              	.LVL290:
1694:modes.c       **** // START 1151 
1695:modes.c       ****             if (DATALINK_times(1) == 0) { return 0; }
 3651              		.loc 1 1695 0
 3652 0452 0120     		movs	r0, #1
 3653 0454 FFF7FEFF 		bl	DATALINK_times
 3654              	.LVL291:
 3655 0458 0028     		cmp	r0, #0
 3656 045a 00D1     		bne	.LCB3163
 3657 045c EAE5     		b	.L331	@long jump
 3658              	.LCB3163:
1696:modes.c       ****             if (DATALINK_times(1) == 0) { return 0; }
 3659              		.loc 1 1696 0
 3660 045e 0120     		movs	r0, #1
 3661 0460 FFF7FEFF 		bl	DATALINK_times
 3662              	.LVL292:
 3663 0464 0028     		cmp	r0, #0
 3664 0466 00D1     		bne	.LCB3168
 3665 0468 E4E5     		b	.L331	@long jump
 3666              	.LCB3168:
1697:modes.c       ****             if (DATALINK_times(5) == 0) { return 0; }
 3667              		.loc 1 1697 0
 3668 046a 0520     		movs	r0, #5
 3669 046c FFF7FEFF 		bl	DATALINK_times
 3670              	.LVL293:
 3671 0470 0028     		cmp	r0, #0
 3672 0472 00D1     		bne	.LCB3173
 3673 0474 DEE5     		b	.L331	@long jump
 3674              	.LCB3173:
1698:modes.c       ****             if (DATALINK_times(1) == 0) { return 0; }
 3675              		.loc 1 1698 0
ARM GAS  C:\Users\Ala\AppData\Local\Temp\ccPRO05X.s 			page 101


 3676 0476 0120     		movs	r0, #1
 3677 0478 FFF7FEFF 		bl	DATALINK_times
 3678              	.LVL294:
 3679 047c 0028     		cmp	r0, #0
 3680 047e 00D1     		bne	.LCB3178
 3681 0480 D8E5     		b	.L331	@long jump
 3682              	.LCB3178:
1699:modes.c       **** // DATA
1700:modes.c       **** // 2222  
1701:modes.c       ****             if (DATALINK_times(2) == 0) { return 0; }
 3683              		.loc 1 1701 0
 3684 0482 0220     		movs	r0, #2
 3685 0484 FFF7FEFF 		bl	DATALINK_times
 3686              	.LVL295:
 3687 0488 0028     		cmp	r0, #0
 3688 048a 00D1     		bne	.LCB3183
 3689 048c D2E5     		b	.L331	@long jump
 3690              	.LCB3183:
1702:modes.c       ****             if (DATALINK_times(2) == 0) { return 0; }
 3691              		.loc 1 1702 0
 3692 048e 0220     		movs	r0, #2
 3693 0490 FFF7FEFF 		bl	DATALINK_times
 3694              	.LVL296:
 3695 0494 0028     		cmp	r0, #0
 3696 0496 00D1     		bne	.LCB3188
 3697 0498 CCE5     		b	.L331	@long jump
 3698              	.LCB3188:
1703:modes.c       ****             if (DATALINK_times(2) == 0) { return 0; }
 3699              		.loc 1 1703 0
 3700 049a 0220     		movs	r0, #2
 3701 049c FFF7FEFF 		bl	DATALINK_times
 3702              	.LVL297:
 3703 04a0 0028     		cmp	r0, #0
 3704 04a2 00D1     		bne	.LCB3193
 3705 04a4 C6E5     		b	.L331	@long jump
 3706              	.LCB3193:
1704:modes.c       ****             if (DATALINK_times(2) == 0) { return 0; }
 3707              		.loc 1 1704 0
 3708 04a6 0220     		movs	r0, #2
 3709 04a8 FFF7FEFF 		bl	DATALINK_times
 3710              	.LVL298:
 3711 04ac 0028     		cmp	r0, #0
 3712 04ae 00D1     		bne	.LCB3198
 3713 04b0 C0E5     		b	.L331	@long jump
 3714              	.LCB3198:
1705:modes.c       **** // 2223  
1706:modes.c       ****             if (DATALINK_times(2) == 0) { return 0; }
 3715              		.loc 1 1706 0
 3716 04b2 0220     		movs	r0, #2
 3717 04b4 FFF7FEFF 		bl	DATALINK_times
 3718              	.LVL299:
 3719 04b8 0028     		cmp	r0, #0
 3720 04ba 00D1     		bne	.LCB3203
 3721 04bc BAE5     		b	.L331	@long jump
 3722              	.LCB3203:
1707:modes.c       ****             if (DATALINK_times(2) == 0) { return 0; }
 3723              		.loc 1 1707 0
ARM GAS  C:\Users\Ala\AppData\Local\Temp\ccPRO05X.s 			page 102


 3724 04be 0220     		movs	r0, #2
 3725 04c0 FFF7FEFF 		bl	DATALINK_times
 3726              	.LVL300:
 3727 04c4 0028     		cmp	r0, #0
 3728 04c6 00D1     		bne	.LCB3208
 3729 04c8 B4E5     		b	.L331	@long jump
 3730              	.LCB3208:
1708:modes.c       ****             if (DATALINK_times(2) == 0) { return 0; }
 3731              		.loc 1 1708 0
 3732 04ca 0220     		movs	r0, #2
 3733 04cc FFF7FEFF 		bl	DATALINK_times
 3734              	.LVL301:
 3735 04d0 0028     		cmp	r0, #0
 3736 04d2 00D1     		bne	.LCB3213
 3737 04d4 AEE5     		b	.L331	@long jump
 3738              	.LCB3213:
1709:modes.c       ****             if (DATALINK_times(3) == 0) { return 0; }
 3739              		.loc 1 1709 0
 3740 04d6 0320     		movs	r0, #3
 3741 04d8 FFF7FEFF 		bl	DATALINK_times
 3742              	.LVL302:
 3743 04dc 0028     		cmp	r0, #0
 3744 04de 00D1     		bne	.LCB3218
 3745 04e0 A8E5     		b	.L331	@long jump
 3746              	.LCB3218:
1710:modes.c       **** // 1222 
1711:modes.c       ****             if (DATALINK_times(1) == 0) { return 0; }
 3747              		.loc 1 1711 0
 3748 04e2 0120     		movs	r0, #1
 3749 04e4 FFF7FEFF 		bl	DATALINK_times
 3750              	.LVL303:
 3751 04e8 0028     		cmp	r0, #0
 3752 04ea 00D1     		bne	.LCB3223
 3753 04ec A2E5     		b	.L331	@long jump
 3754              	.LCB3223:
1712:modes.c       ****             if (DATALINK_times(2) == 0) { return 0; }
 3755              		.loc 1 1712 0
 3756 04ee 0220     		movs	r0, #2
 3757 04f0 FFF7FEFF 		bl	DATALINK_times
 3758              	.LVL304:
 3759 04f4 0028     		cmp	r0, #0
 3760 04f6 00D1     		bne	.LCB3228
 3761 04f8 9CE5     		b	.L331	@long jump
 3762              	.LCB3228:
1713:modes.c       ****             if (DATALINK_times(2) == 0) { return 0; }
 3763              		.loc 1 1713 0
 3764 04fa 0220     		movs	r0, #2
 3765 04fc FFF7FEFF 		bl	DATALINK_times
 3766              	.LVL305:
 3767 0500 0028     		cmp	r0, #0
 3768 0502 00D1     		bne	.LCB3233
 3769 0504 96E5     		b	.L331	@long jump
 3770              	.LCB3233:
1714:modes.c       ****             if (DATALINK_times(2) == 0) { return 0; }
 3771              		.loc 1 1714 0
 3772 0506 0220     		movs	r0, #2
 3773 0508 FFF7FEFF 		bl	DATALINK_times
ARM GAS  C:\Users\Ala\AppData\Local\Temp\ccPRO05X.s 			page 103


 3774              	.LVL306:
 3775 050c 0028     		cmp	r0, #0
 3776 050e 00D1     		bne	.LCB3238
 3777 0510 90E5     		b	.L331	@long jump
 3778              	.LCB3238:
1715:modes.c       **** // 2313 
1716:modes.c       ****             if (DATALINK_times(2) == 0) { return 0; }
 3779              		.loc 1 1716 0
 3780 0512 0220     		movs	r0, #2
 3781 0514 FFF7FEFF 		bl	DATALINK_times
 3782              	.LVL307:
 3783 0518 0028     		cmp	r0, #0
 3784 051a 00D1     		bne	.LCB3243
 3785 051c 8AE5     		b	.L331	@long jump
 3786              	.LCB3243:
1717:modes.c       ****             if (DATALINK_times(3) == 0) { return 0; }
 3787              		.loc 1 1717 0
 3788 051e 0320     		movs	r0, #3
 3789 0520 FFF7FEFF 		bl	DATALINK_times
 3790              	.LVL308:
 3791 0524 0028     		cmp	r0, #0
 3792 0526 00D1     		bne	.LCB3248
 3793 0528 84E5     		b	.L331	@long jump
 3794              	.LCB3248:
1718:modes.c       ****             if (DATALINK_times(1) == 0) { return 0; }
 3795              		.loc 1 1718 0
 3796 052a 0120     		movs	r0, #1
 3797              	.L962:
 3798 052c FFF7FEFF 		bl	DATALINK_times
 3799              	.LVL309:
 3800 0530 0028     		cmp	r0, #0
 3801 0532 00D1     		bne	.LCB3255
 3802 0534 7EE5     		b	.L331	@long jump
 3803              	.LCB3255:
1719:modes.c       ****             if (DATALINK_times(3) == 0) { return 0; }
 3804              		.loc 1 1719 0
 3805 0536 0320     		movs	r0, #3
 3806 0538 D9E5     		b	.L947
 3807              	.LVL310:
 3808              	.L327:
1720:modes.c       **** // 41  
1721:modes.c       ****             if (DATALINK_times(4) == 0) { return 0; }
1722:modes.c       ****             if (DATALINK_times(1) == 0) { return 0; }
1723:modes.c       ****          
1724:modes.c       ****             DATALINK_INTRRUPT_Enable();
1725:modes.c       **** 
1726:modes.c       ****             break;                 
1727:modes.c       **** /*
1728:modes.c       **** // 6 button pressed
1729:modes.c       ****         case (6):
1730:modes.c       ****             DATALINK_INTRRUPT_Disable();
1731:modes.c       **** // START 1151 
1732:modes.c       ****             if (DATALINK_times(1) == 0) { return 0; }
1733:modes.c       ****             if (DATALINK_times(1) == 0) { return 0; }
1734:modes.c       ****             if (DATALINK_times(5) == 0) { return 0; }
1735:modes.c       ****             if (DATALINK_times(1) == 0) { return 0; }
1736:modes.c       **** // DATA
ARM GAS  C:\Users\Ala\AppData\Local\Temp\ccPRO05X.s 			page 104


1737:modes.c       **** // 2222  
1738:modes.c       ****             if (DATALINK_times(2) == 0) { return 0; }
1739:modes.c       ****             if (DATALINK_times(2) == 0) { return 0; }
1740:modes.c       ****             if (DATALINK_times(2) == 0) { return 0; }
1741:modes.c       ****             if (DATALINK_times(2) == 0) { return 0; }
1742:modes.c       **** // 2223  
1743:modes.c       ****             if (DATALINK_times(2) == 0) { return 0; }
1744:modes.c       ****             if (DATALINK_times(2) == 0) { return 0; }
1745:modes.c       ****             if (DATALINK_times(2) == 0) { return 0; }
1746:modes.c       ****             if (DATALINK_times(3) == 0) { return 0; }
1747:modes.c       **** // 1222 
1748:modes.c       ****             if (DATALINK_times(1) == 0) { return 0; }
1749:modes.c       ****             if (DATALINK_times(2) == 0) { return 0; }
1750:modes.c       ****             if (DATALINK_times(2) == 0) { return 0; }
1751:modes.c       ****             if (DATALINK_times(2) == 0) { return 0; }
1752:modes.c       **** // 2321 
1753:modes.c       ****             if (DATALINK_times(2) == 0) { return 0; }
1754:modes.c       ****             if (DATALINK_times(3) == 0) { return 0; }
1755:modes.c       ****             if (DATALINK_times(2) == 0) { return 0; }
1756:modes.c       ****             if (DATALINK_times(1) == 0) { return 0; }
1757:modes.c       **** // 41  
1758:modes.c       ****             if (DATALINK_times(4) == 0) { return 0; }
1759:modes.c       ****             if (DATALINK_times(1) == 0) { return 0; }
1760:modes.c       ****          
1761:modes.c       ****             DATALINK_INTRRUPT_Enable();
1762:modes.c       **** 
1763:modes.c       ****             break;                        
1764:modes.c       **** 
1765:modes.c       **** // 7 button pressed
1766:modes.c       ****         case (7):
1767:modes.c       ****             DATALINK_INTRRUPT_Disable();
1768:modes.c       **** // START 1151 
1769:modes.c       ****             if (DATALINK_times(1) == 0) { return 0; }
1770:modes.c       ****             if (DATALINK_times(1) == 0) { return 0; }
1771:modes.c       ****             if (DATALINK_times(5) == 0) { return 0; }
1772:modes.c       ****             if (DATALINK_times(1) == 0) { return 0; }
1773:modes.c       **** // DATA
1774:modes.c       **** // 2222  
1775:modes.c       ****             if (DATALINK_times(2) == 0) { return 0; }
1776:modes.c       ****             if (DATALINK_times(2) == 0) { return 0; }
1777:modes.c       ****             if (DATALINK_times(2) == 0) { return 0; }
1778:modes.c       ****             if (DATALINK_times(2) == 0) { return 0; }
1779:modes.c       **** // 2223  
1780:modes.c       ****             if (DATALINK_times(2) == 0) { return 0; }
1781:modes.c       ****             if (DATALINK_times(2) == 0) { return 0; }
1782:modes.c       ****             if (DATALINK_times(2) == 0) { return 0; }
1783:modes.c       ****             if (DATALINK_times(3) == 0) { return 0; }
1784:modes.c       **** // 1222 
1785:modes.c       ****             if (DATALINK_times(1) == 0) { return 0; }
1786:modes.c       ****             if (DATALINK_times(2) == 0) { return 0; }
1787:modes.c       ****             if (DATALINK_times(2) == 0) { return 0; }
1788:modes.c       ****             if (DATALINK_times(2) == 0) { return 0; }
1789:modes.c       **** // 2322 
1790:modes.c       ****             if (DATALINK_times(2) == 0) { return 0; }
1791:modes.c       ****             if (DATALINK_times(3) == 0) { return 0; }
1792:modes.c       ****             if (DATALINK_times(2) == 0) { return 0; }
1793:modes.c       ****             if (DATALINK_times(2) == 0) { return 0; }
ARM GAS  C:\Users\Ala\AppData\Local\Temp\ccPRO05X.s 			page 105


1794:modes.c       **** // 41  
1795:modes.c       ****             if (DATALINK_times(4) == 0) { return 0; }
1796:modes.c       ****             if (DATALINK_times(1) == 0) { return 0; }
1797:modes.c       ****          
1798:modes.c       ****             DATALINK_INTRRUPT_Enable();
1799:modes.c       **** 
1800:modes.c       ****             break;                        
1801:modes.c       **** 
1802:modes.c       **** // 8 button pressed
1803:modes.c       ****         case (8):
1804:modes.c       ****             DATALINK_INTRRUPT_Disable();
1805:modes.c       **** // START 1151 
1806:modes.c       ****             if (DATALINK_times(1) == 0) { return 0; }
1807:modes.c       ****             if (DATALINK_times(1) == 0) { return 0; }
1808:modes.c       ****             if (DATALINK_times(5) == 0) { return 0; }
1809:modes.c       ****             if (DATALINK_times(1) == 0) { return 0; }
1810:modes.c       **** // DATA
1811:modes.c       **** // 2222  
1812:modes.c       ****             if (DATALINK_times(2) == 0) { return 0; }
1813:modes.c       ****             if (DATALINK_times(2) == 0) { return 0; }
1814:modes.c       ****             if (DATALINK_times(2) == 0) { return 0; }
1815:modes.c       ****             if (DATALINK_times(2) == 0) { return 0; }
1816:modes.c       **** // 2223  
1817:modes.c       ****             if (DATALINK_times(2) == 0) { return 0; }
1818:modes.c       ****             if (DATALINK_times(2) == 0) { return 0; }
1819:modes.c       ****             if (DATALINK_times(2) == 0) { return 0; }
1820:modes.c       ****             if (DATALINK_times(3) == 0) { return 0; }
1821:modes.c       **** // 1222 
1822:modes.c       ****             if (DATALINK_times(1) == 0) { return 0; }
1823:modes.c       ****             if (DATALINK_times(2) == 0) { return 0; }
1824:modes.c       ****             if (DATALINK_times(2) == 0) { return 0; }
1825:modes.c       ****             if (DATALINK_times(2) == 0) { return 0; }
1826:modes.c       **** // 3122 
1827:modes.c       ****             if (DATALINK_times(3) == 0) { return 0; }
1828:modes.c       ****             if (DATALINK_times(1) == 0) { return 0; }
1829:modes.c       ****             if (DATALINK_times(2) == 0) { return 0; }
1830:modes.c       ****             if (DATALINK_times(2) == 0) { return 0; }
1831:modes.c       **** // 41  
1832:modes.c       ****             if (DATALINK_times(4) == 0) { return 0; }
1833:modes.c       ****             if (DATALINK_times(1) == 0) { return 0; }
1834:modes.c       ****          
1835:modes.c       ****             DATALINK_INTRRUPT_Enable();
1836:modes.c       **** 
1837:modes.c       ****             break;         
1838:modes.c       **** 
1839:modes.c       **** // 9 button pressed
1840:modes.c       ****         case (9):
1841:modes.c       ****             DATALINK_INTRRUPT_Disable();
1842:modes.c       **** // START 1151 
1843:modes.c       ****             if (DATALINK_times(1) == 0) { return 0; }
1844:modes.c       ****             if (DATALINK_times(1) == 0) { return 0; }
1845:modes.c       ****             if (DATALINK_times(5) == 0) { return 0; }
1846:modes.c       ****             if (DATALINK_times(1) == 0) { return 0; }
1847:modes.c       **** // DATA
1848:modes.c       **** // 2222  
1849:modes.c       ****             if (DATALINK_times(2) == 0) { return 0; }
1850:modes.c       ****             if (DATALINK_times(2) == 0) { return 0; }
ARM GAS  C:\Users\Ala\AppData\Local\Temp\ccPRO05X.s 			page 106


1851:modes.c       ****             if (DATALINK_times(2) == 0) { return 0; }
1852:modes.c       ****             if (DATALINK_times(2) == 0) { return 0; }
1853:modes.c       **** // 2223  
1854:modes.c       ****             if (DATALINK_times(2) == 0) { return 0; }
1855:modes.c       ****             if (DATALINK_times(2) == 0) { return 0; }
1856:modes.c       ****             if (DATALINK_times(2) == 0) { return 0; }
1857:modes.c       ****             if (DATALINK_times(3) == 0) { return 0; }
1858:modes.c       **** // 1222 
1859:modes.c       ****             if (DATALINK_times(1) == 0) { return 0; }
1860:modes.c       ****             if (DATALINK_times(2) == 0) { return 0; }
1861:modes.c       ****             if (DATALINK_times(2) == 0) { return 0; }
1862:modes.c       ****             if (DATALINK_times(2) == 0) { return 0; }
1863:modes.c       **** // 3123 
1864:modes.c       ****             if (DATALINK_times(3) == 0) { return 0; }
1865:modes.c       ****             if (DATALINK_times(1) == 0) { return 0; }
1866:modes.c       ****             if (DATALINK_times(2) == 0) { return 0; }
1867:modes.c       ****             if (DATALINK_times(3) == 0) { return 0; }
1868:modes.c       **** // 41  
1869:modes.c       ****             if (DATALINK_times(4) == 0) { return 0; }
1870:modes.c       ****             if (DATALINK_times(1) == 0) { return 0; }
1871:modes.c       ****          
1872:modes.c       ****             DATALINK_INTRRUPT_Enable();
1873:modes.c       **** 
1874:modes.c       ****             break;             
1875:modes.c       **** */            
1876:modes.c       **** // GO button pressed
1877:modes.c       ****         case (10):
1878:modes.c       ****             DATALINK_INTRRUPT_Disable();
 3809              		.loc 1 1878 0
 3810 053a FFF7FEFF 		bl	DATALINK_INTRRUPT_Disable
 3811              	.LVL311:
1879:modes.c       **** // START 1151 
1880:modes.c       ****             if (DATALINK_times(1) == 0) { return 0; }
 3812              		.loc 1 1880 0
 3813 053e 0120     		movs	r0, #1
 3814 0540 FFF7FEFF 		bl	DATALINK_times
 3815              	.LVL312:
 3816 0544 0028     		cmp	r0, #0
 3817 0546 00D1     		bne	.LCB3269
 3818 0548 74E5     		b	.L331	@long jump
 3819              	.LCB3269:
1881:modes.c       ****             if (DATALINK_times(1) == 0) { return 0; }
 3820              		.loc 1 1881 0
 3821 054a 0120     		movs	r0, #1
 3822 054c FFF7FEFF 		bl	DATALINK_times
 3823              	.LVL313:
 3824 0550 0028     		cmp	r0, #0
 3825 0552 00D1     		bne	.LCB3274
 3826 0554 6EE5     		b	.L331	@long jump
 3827              	.LCB3274:
1882:modes.c       ****             if (DATALINK_times(5) == 0) { return 0; }
 3828              		.loc 1 1882 0
 3829 0556 0520     		movs	r0, #5
 3830 0558 FFF7FEFF 		bl	DATALINK_times
 3831              	.LVL314:
 3832 055c 0028     		cmp	r0, #0
 3833 055e 00D1     		bne	.LCB3279
ARM GAS  C:\Users\Ala\AppData\Local\Temp\ccPRO05X.s 			page 107


 3834 0560 68E5     		b	.L331	@long jump
 3835              	.LCB3279:
1883:modes.c       ****             if (DATALINK_times(1) == 0) { return 0; }
 3836              		.loc 1 1883 0
 3837 0562 0120     		movs	r0, #1
 3838 0564 FFF7FEFF 		bl	DATALINK_times
 3839              	.LVL315:
 3840 0568 0028     		cmp	r0, #0
 3841 056a 00D1     		bne	.LCB3284
 3842 056c 62E5     		b	.L331	@long jump
 3843              	.LCB3284:
1884:modes.c       **** // DATA
1885:modes.c       **** // 2222  
1886:modes.c       ****             if (DATALINK_times(2) == 0) { return 0; }
 3844              		.loc 1 1886 0
 3845 056e 0220     		movs	r0, #2
 3846 0570 FFF7FEFF 		bl	DATALINK_times
 3847              	.LVL316:
 3848 0574 0028     		cmp	r0, #0
 3849 0576 00D1     		bne	.LCB3289
 3850 0578 5CE5     		b	.L331	@long jump
 3851              	.LCB3289:
1887:modes.c       ****             if (DATALINK_times(2) == 0) { return 0; }
 3852              		.loc 1 1887 0
 3853 057a 0220     		movs	r0, #2
 3854 057c FFF7FEFF 		bl	DATALINK_times
 3855              	.LVL317:
 3856 0580 0028     		cmp	r0, #0
 3857 0582 00D1     		bne	.LCB3294
 3858 0584 56E5     		b	.L331	@long jump
 3859              	.LCB3294:
1888:modes.c       ****             if (DATALINK_times(2) == 0) { return 0; }
 3860              		.loc 1 1888 0
 3861 0586 0220     		movs	r0, #2
 3862 0588 FFF7FEFF 		bl	DATALINK_times
 3863              	.LVL318:
 3864 058c 0028     		cmp	r0, #0
 3865 058e 00D1     		bne	.LCB3299
 3866 0590 50E5     		b	.L331	@long jump
 3867              	.LCB3299:
1889:modes.c       ****             if (DATALINK_times(2) == 0) { return 0; }
 3868              		.loc 1 1889 0
 3869 0592 0220     		movs	r0, #2
 3870 0594 FFF7FEFF 		bl	DATALINK_times
 3871              	.LVL319:
 3872 0598 0028     		cmp	r0, #0
 3873 059a 00D1     		bne	.LCB3304
 3874 059c 4AE5     		b	.L331	@long jump
 3875              	.LCB3304:
1890:modes.c       **** // 2223  
1891:modes.c       ****             if (DATALINK_times(2) == 0) { return 0; }
 3876              		.loc 1 1891 0
 3877 059e 0220     		movs	r0, #2
 3878 05a0 FFF7FEFF 		bl	DATALINK_times
 3879              	.LVL320:
 3880 05a4 0028     		cmp	r0, #0
 3881 05a6 00D1     		bne	.LCB3309
ARM GAS  C:\Users\Ala\AppData\Local\Temp\ccPRO05X.s 			page 108


 3882 05a8 44E5     		b	.L331	@long jump
 3883              	.LCB3309:
1892:modes.c       ****             if (DATALINK_times(2) == 0) { return 0; }
 3884              		.loc 1 1892 0
 3885 05aa 0220     		movs	r0, #2
 3886 05ac FFF7FEFF 		bl	DATALINK_times
 3887              	.LVL321:
 3888 05b0 0028     		cmp	r0, #0
 3889 05b2 00D1     		bne	.LCB3314
 3890 05b4 3EE5     		b	.L331	@long jump
 3891              	.LCB3314:
1893:modes.c       ****             if (DATALINK_times(2) == 0) { return 0; }
 3892              		.loc 1 1893 0
 3893 05b6 0220     		movs	r0, #2
 3894 05b8 FFF7FEFF 		bl	DATALINK_times
 3895              	.LVL322:
 3896 05bc 0028     		cmp	r0, #0
 3897 05be 00D1     		bne	.LCB3319
 3898 05c0 38E5     		b	.L331	@long jump
 3899              	.LCB3319:
1894:modes.c       ****             if (DATALINK_times(3) == 0) { return 0; }
 3900              		.loc 1 1894 0
 3901 05c2 0320     		movs	r0, #3
 3902 05c4 FFF7FEFF 		bl	DATALINK_times
 3903              	.LVL323:
 3904 05c8 0028     		cmp	r0, #0
 3905 05ca 00D1     		bne	.LCB3324
 3906 05cc 32E5     		b	.L331	@long jump
 3907              	.LCB3324:
1895:modes.c       **** // 2122 
1896:modes.c       ****             if (DATALINK_times(2) == 0) { return 0; }
 3908              		.loc 1 1896 0
 3909 05ce 0220     		movs	r0, #2
 3910 05d0 FFF7FEFF 		bl	DATALINK_times
 3911              	.LVL324:
 3912 05d4 0028     		cmp	r0, #0
 3913 05d6 00D1     		bne	.LCB3329
 3914 05d8 2CE5     		b	.L331	@long jump
 3915              	.LCB3329:
1897:modes.c       ****             if (DATALINK_times(1) == 0) { return 0; }
 3916              		.loc 1 1897 0
 3917 05da 0120     		movs	r0, #1
 3918              	.L978:
 3919 05dc FFF7FEFF 		bl	DATALINK_times
 3920              	.LVL325:
 3921 05e0 0028     		cmp	r0, #0
 3922 05e2 00D1     		bne	.LCB3336
 3923 05e4 26E5     		b	.L331	@long jump
 3924              	.LCB3336:
1898:modes.c       ****             if (DATALINK_times(2) == 0) { return 0; }
 3925              		.loc 1 1898 0
 3926 05e6 0220     		movs	r0, #2
 3927 05e8 FFF7FEFF 		bl	DATALINK_times
 3928              	.LVL326:
 3929 05ec 0028     		cmp	r0, #0
 3930 05ee 00D1     		bne	.LCB3341
 3931 05f0 20E5     		b	.L331	@long jump
ARM GAS  C:\Users\Ala\AppData\Local\Temp\ccPRO05X.s 			page 109


 3932              	.LCB3341:
1899:modes.c       ****             if (DATALINK_times(2) == 0) { return 0; }
 3933              		.loc 1 1899 0
 3934 05f2 0220     		movs	r0, #2
 3935 05f4 FFF7FEFF 		bl	DATALINK_times
 3936              	.LVL327:
 3937 05f8 0028     		cmp	r0, #0
 3938 05fa 00D1     		bne	.LCB3346
 3939 05fc 1AE5     		b	.L331	@long jump
 3940              	.LCB3346:
1900:modes.c       **** // 2232 
1901:modes.c       ****             if (DATALINK_times(2) == 0) { return 0; }
 3941              		.loc 1 1901 0
 3942 05fe 0220     		movs	r0, #2
 3943 0600 FFF7FEFF 		bl	DATALINK_times
 3944              	.LVL328:
 3945 0604 0028     		cmp	r0, #0
 3946 0606 00D1     		bne	.LCB3351
 3947 0608 14E5     		b	.L331	@long jump
 3948              	.LCB3351:
1902:modes.c       ****             if (DATALINK_times(2) == 0) { return 0; }
 3949              		.loc 1 1902 0
 3950 060a 0220     		movs	r0, #2
 3951 060c FFF7FEFF 		bl	DATALINK_times
 3952              	.LVL329:
 3953 0610 0028     		cmp	r0, #0
 3954 0612 00D1     		bne	.LCB3356
 3955 0614 0EE5     		b	.L331	@long jump
 3956              	.LCB3356:
1903:modes.c       ****             if (DATALINK_times(3) == 0) { return 0; }
 3957              		.loc 1 1903 0
 3958 0616 0320     		movs	r0, #3
 3959 0618 64E5     		b	.L954
 3960              	.LVL330:
 3961              	.L328:
1904:modes.c       ****             if (DATALINK_times(2) == 0) { return 0; }
1905:modes.c       **** // 41  
1906:modes.c       ****             if (DATALINK_times(4) == 0) { return 0; }
1907:modes.c       ****             if (DATALINK_times(1) == 0) { return 0; }
1908:modes.c       ****          
1909:modes.c       ****             DATALINK_INTRRUPT_Enable();
1910:modes.c       ****               
1911:modes.c       ****             break;
1912:modes.c       ****             
1913:modes.c       **** // LIST button pressed
1914:modes.c       ****         case (11):
1915:modes.c       ****             DATALINK_INTRRUPT_Disable();
 3962              		.loc 1 1915 0
 3963 061a FFF7FEFF 		bl	DATALINK_INTRRUPT_Disable
 3964              	.LVL331:
1916:modes.c       **** // START 1151 
1917:modes.c       ****             if (DATALINK_times(1) == 0) { return 0; }
 3965              		.loc 1 1917 0
 3966 061e 0120     		movs	r0, #1
 3967 0620 FFF7FEFF 		bl	DATALINK_times
 3968              	.LVL332:
 3969 0624 0028     		cmp	r0, #0
ARM GAS  C:\Users\Ala\AppData\Local\Temp\ccPRO05X.s 			page 110


 3970 0626 00D1     		bne	.LCB3370
 3971 0628 04E5     		b	.L331	@long jump
 3972              	.LCB3370:
1918:modes.c       ****             if (DATALINK_times(1) == 0) { return 0; }
 3973              		.loc 1 1918 0
 3974 062a 0120     		movs	r0, #1
 3975 062c FFF7FEFF 		bl	DATALINK_times
 3976              	.LVL333:
 3977 0630 0028     		cmp	r0, #0
 3978 0632 00D1     		bne	.LCB3375
 3979 0634 FEE4     		b	.L331	@long jump
 3980              	.LCB3375:
1919:modes.c       ****             if (DATALINK_times(5) == 0) { return 0; }
 3981              		.loc 1 1919 0
 3982 0636 0520     		movs	r0, #5
 3983 0638 FFF7FEFF 		bl	DATALINK_times
 3984              	.LVL334:
 3985 063c 0028     		cmp	r0, #0
 3986 063e 00D1     		bne	.LCB3380
 3987 0640 F8E4     		b	.L331	@long jump
 3988              	.LCB3380:
1920:modes.c       ****             if (DATALINK_times(1) == 0) { return 0; }
 3989              		.loc 1 1920 0
 3990 0642 0120     		movs	r0, #1
 3991 0644 FFF7FEFF 		bl	DATALINK_times
 3992              	.LVL335:
 3993 0648 0028     		cmp	r0, #0
 3994 064a 00D1     		bne	.LCB3385
 3995 064c F2E4     		b	.L331	@long jump
 3996              	.LCB3385:
1921:modes.c       **** // DATA
1922:modes.c       **** // 2222  
1923:modes.c       ****             if (DATALINK_times(2) == 0) { return 0; }
 3997              		.loc 1 1923 0
 3998 064e 0220     		movs	r0, #2
 3999 0650 FFF7FEFF 		bl	DATALINK_times
 4000              	.LVL336:
 4001 0654 0028     		cmp	r0, #0
 4002 0656 00D1     		bne	.LCB3390
 4003 0658 ECE4     		b	.L331	@long jump
 4004              	.LCB3390:
1924:modes.c       ****             if (DATALINK_times(2) == 0) { return 0; }
 4005              		.loc 1 1924 0
 4006 065a 0220     		movs	r0, #2
 4007 065c FFF7FEFF 		bl	DATALINK_times
 4008              	.LVL337:
 4009 0660 0028     		cmp	r0, #0
 4010 0662 00D1     		bne	.LCB3395
 4011 0664 E6E4     		b	.L331	@long jump
 4012              	.LCB3395:
1925:modes.c       ****             if (DATALINK_times(2) == 0) { return 0; }
 4013              		.loc 1 1925 0
 4014 0666 0220     		movs	r0, #2
 4015 0668 FFF7FEFF 		bl	DATALINK_times
 4016              	.LVL338:
 4017 066c 0028     		cmp	r0, #0
 4018 066e 00D1     		bne	.LCB3400
ARM GAS  C:\Users\Ala\AppData\Local\Temp\ccPRO05X.s 			page 111


 4019 0670 E0E4     		b	.L331	@long jump
 4020              	.LCB3400:
1926:modes.c       ****             if (DATALINK_times(2) == 0) { return 0; }
 4021              		.loc 1 1926 0
 4022 0672 0220     		movs	r0, #2
 4023 0674 FFF7FEFF 		bl	DATALINK_times
 4024              	.LVL339:
 4025 0678 0028     		cmp	r0, #0
 4026 067a 00D1     		bne	.LCB3405
 4027 067c DAE4     		b	.L331	@long jump
 4028              	.LCB3405:
1927:modes.c       **** // 2223  
1928:modes.c       ****             if (DATALINK_times(2) == 0) { return 0; }
 4029              		.loc 1 1928 0
 4030 067e 0220     		movs	r0, #2
 4031 0680 FFF7FEFF 		bl	DATALINK_times
 4032              	.LVL340:
 4033 0684 0028     		cmp	r0, #0
 4034 0686 00D1     		bne	.LCB3410
 4035 0688 D4E4     		b	.L331	@long jump
 4036              	.LCB3410:
1929:modes.c       ****             if (DATALINK_times(2) == 0) { return 0; }
 4037              		.loc 1 1929 0
 4038 068a 0220     		movs	r0, #2
 4039 068c FFF7FEFF 		bl	DATALINK_times
 4040              	.LVL341:
 4041 0690 0028     		cmp	r0, #0
 4042 0692 00D1     		bne	.LCB3415
 4043 0694 CEE4     		b	.L331	@long jump
 4044              	.LCB3415:
1930:modes.c       ****             if (DATALINK_times(2) == 0) { return 0; }
 4045              		.loc 1 1930 0
 4046 0696 0220     		movs	r0, #2
 4047 0698 FFF7FEFF 		bl	DATALINK_times
 4048              	.LVL342:
 4049 069c 0028     		cmp	r0, #0
 4050 069e 00D1     		bne	.LCB3420
 4051 06a0 C8E4     		b	.L331	@long jump
 4052              	.LCB3420:
1931:modes.c       ****             if (DATALINK_times(3) == 0) { return 0; }
 4053              		.loc 1 1931 0
 4054 06a2 0320     		movs	r0, #3
 4055 06a4 FFF7FEFF 		bl	DATALINK_times
 4056              	.LVL343:
 4057 06a8 0028     		cmp	r0, #0
 4058 06aa 00D1     		bne	.LCB3425
 4059 06ac C2E4     		b	.L331	@long jump
 4060              	.LCB3425:
1932:modes.c       **** // 1313 
1933:modes.c       ****             if (DATALINK_times(1) == 0) { return 0; }
 4061              		.loc 1 1933 0
 4062 06ae 0120     		movs	r0, #1
 4063 06b0 FFF7FEFF 		bl	DATALINK_times
 4064              	.LVL344:
 4065 06b4 0028     		cmp	r0, #0
 4066 06b6 00D1     		bne	.LCB3430
 4067 06b8 BCE4     		b	.L331	@long jump
ARM GAS  C:\Users\Ala\AppData\Local\Temp\ccPRO05X.s 			page 112


 4068              	.LCB3430:
1934:modes.c       ****             if (DATALINK_times(3) == 0) { return 0; }
 4069              		.loc 1 1934 0
 4070 06ba 0320     		movs	r0, #3
 4071 06bc FFF7FEFF 		bl	DATALINK_times
 4072              	.LVL345:
 4073 06c0 0028     		cmp	r0, #0
 4074 06c2 00D1     		bne	.LCB3435
 4075 06c4 B6E4     		b	.L331	@long jump
 4076              	.LCB3435:
1935:modes.c       ****             if (DATALINK_times(1) == 0) { return 0; }
 4077              		.loc 1 1935 0
 4078 06c6 0120     		movs	r0, #1
 4079 06c8 FFF7FEFF 		bl	DATALINK_times
 4080              	.LVL346:
 4081 06cc 0028     		cmp	r0, #0
 4082 06ce 00D1     		bne	.LCB3440
 4083 06d0 B0E4     		b	.L331	@long jump
 4084              	.LCB3440:
1936:modes.c       ****             if (DATALINK_times(3) == 0) { return 0; }
 4085              		.loc 1 1936 0
 4086 06d2 0320     		movs	r0, #3
 4087 06d4 FFF7FEFF 		bl	DATALINK_times
 4088              	.LVL347:
 4089 06d8 0028     		cmp	r0, #0
 4090 06da 00D1     		bne	.LCB3445
 4091 06dc AAE4     		b	.L331	@long jump
 4092              	.LCB3445:
1937:modes.c       **** // 2122 
1938:modes.c       ****             if (DATALINK_times(2) == 0) { return 0; }
 4093              		.loc 1 1938 0
 4094 06de 0220     		movs	r0, #2
 4095 06e0 FFF7FEFF 		bl	DATALINK_times
 4096              	.LVL348:
 4097 06e4 0028     		cmp	r0, #0
 4098 06e6 00D1     		bne	.LCB3450
 4099 06e8 A4E4     		b	.L331	@long jump
 4100              	.LCB3450:
1939:modes.c       ****             if (DATALINK_times(1) == 0) { return 0; }
 4101              		.loc 1 1939 0
 4102 06ea 0120     		movs	r0, #1
 4103 06ec F5E4     		b	.L964
 4104              	.LVL349:
 4105              	.L329:
1940:modes.c       ****             if (DATALINK_times(2) == 0) { return 0; }
1941:modes.c       ****             if (DATALINK_times(2) == 0) { return 0; }
1942:modes.c       **** // 41  
1943:modes.c       ****             if (DATALINK_times(4) == 0) { return 0; }
1944:modes.c       ****             if (DATALINK_times(1) == 0) { return 0; }
1945:modes.c       ****          
1946:modes.c       ****             DATALINK_INTRRUPT_Enable();
1947:modes.c       ****               
1948:modes.c       ****             break;
1949:modes.c       ****             
1950:modes.c       **** // POWER DOWN from aux devices 
1951:modes.c       ****         case (12):
1952:modes.c       ****             DATALINK_INTRRUPT_Disable();
ARM GAS  C:\Users\Ala\AppData\Local\Temp\ccPRO05X.s 			page 113


 4106              		.loc 1 1952 0
 4107 06ee FFF7FEFF 		bl	DATALINK_INTRRUPT_Disable
 4108              	.LVL350:
1953:modes.c       **** // START 1151 
1954:modes.c       ****             if (DATALINK_times(1) == 0) { return 0; }
 4109              		.loc 1 1954 0
 4110 06f2 0120     		movs	r0, #1
 4111 06f4 FFF7FEFF 		bl	DATALINK_times
 4112              	.LVL351:
 4113 06f8 0028     		cmp	r0, #0
 4114 06fa 00D1     		bne	.LCB3464
 4115 06fc 9AE4     		b	.L331	@long jump
 4116              	.LCB3464:
1955:modes.c       ****             if (DATALINK_times(1) == 0) { return 0; }
 4117              		.loc 1 1955 0
 4118 06fe 0120     		movs	r0, #1
 4119 0700 FFF7FEFF 		bl	DATALINK_times
 4120              	.LVL352:
 4121 0704 0028     		cmp	r0, #0
 4122 0706 00D1     		bne	.LCB3469
 4123 0708 94E4     		b	.L331	@long jump
 4124              	.LCB3469:
1956:modes.c       ****             if (DATALINK_times(5) == 0) { return 0; }
 4125              		.loc 1 1956 0
 4126 070a 0520     		movs	r0, #5
 4127 070c FFF7FEFF 		bl	DATALINK_times
 4128              	.LVL353:
 4129 0710 0028     		cmp	r0, #0
 4130 0712 00D1     		bne	.LCB3474
 4131 0714 8EE4     		b	.L331	@long jump
 4132              	.LCB3474:
1957:modes.c       ****             if (DATALINK_times(1) == 0) { return 0; }
 4133              		.loc 1 1957 0
 4134 0716 0120     		movs	r0, #1
 4135 0718 FFF7FEFF 		bl	DATALINK_times
 4136              	.LVL354:
 4137 071c 0028     		cmp	r0, #0
 4138 071e 00D1     		bne	.LCB3479
 4139 0720 88E4     		b	.L331	@long jump
 4140              	.LCB3479:
1958:modes.c       **** // DATA
1959:modes.c       **** // 2222  
1960:modes.c       ****             if (DATALINK_times(2) == 0) { return 0; }
 4141              		.loc 1 1960 0
 4142 0722 0220     		movs	r0, #2
 4143 0724 FFF7FEFF 		bl	DATALINK_times
 4144              	.LVL355:
 4145 0728 0028     		cmp	r0, #0
 4146 072a 00D1     		bne	.LCB3484
 4147 072c 82E4     		b	.L331	@long jump
 4148              	.LCB3484:
1961:modes.c       ****             if (DATALINK_times(2) == 0) { return 0; }
 4149              		.loc 1 1961 0
 4150 072e 0220     		movs	r0, #2
 4151 0730 FFF7FEFF 		bl	DATALINK_times
 4152              	.LVL356:
 4153 0734 0028     		cmp	r0, #0
ARM GAS  C:\Users\Ala\AppData\Local\Temp\ccPRO05X.s 			page 114


 4154 0736 00D1     		bne	.LCB3489
 4155 0738 7CE4     		b	.L331	@long jump
 4156              	.LCB3489:
1962:modes.c       ****             if (DATALINK_times(2) == 0) { return 0; }
 4157              		.loc 1 1962 0
 4158 073a 0220     		movs	r0, #2
 4159 073c FFF7FEFF 		bl	DATALINK_times
 4160              	.LVL357:
 4161 0740 0028     		cmp	r0, #0
 4162 0742 00D1     		bne	.LCB3494
 4163 0744 76E4     		b	.L331	@long jump
 4164              	.LCB3494:
1963:modes.c       ****             if (DATALINK_times(2) == 0) { return 0; }
 4165              		.loc 1 1963 0
 4166 0746 0220     		movs	r0, #2
 4167 0748 FFF7FEFF 		bl	DATALINK_times
 4168              	.LVL358:
 4169 074c 0028     		cmp	r0, #0
 4170 074e 00D1     		bne	.LCB3499
 4171 0750 70E4     		b	.L331	@long jump
 4172              	.LCB3499:
1964:modes.c       **** // 2223  
1965:modes.c       ****             if (DATALINK_times(2) == 0) { return 0; }
 4173              		.loc 1 1965 0
 4174 0752 0220     		movs	r0, #2
 4175 0754 FFF7FEFF 		bl	DATALINK_times
 4176              	.LVL359:
 4177 0758 0028     		cmp	r0, #0
 4178 075a 00D1     		bne	.LCB3504
 4179 075c 6AE4     		b	.L331	@long jump
 4180              	.LCB3504:
1966:modes.c       ****             if (DATALINK_times(2) == 0) { return 0; }
 4181              		.loc 1 1966 0
 4182 075e 0220     		movs	r0, #2
 4183 0760 FFF7FEFF 		bl	DATALINK_times
 4184              	.LVL360:
 4185 0764 0028     		cmp	r0, #0
 4186 0766 00D1     		bne	.LCB3509
 4187 0768 64E4     		b	.L331	@long jump
 4188              	.LCB3509:
1967:modes.c       ****             if (DATALINK_times(2) == 0) { return 0; }
 4189              		.loc 1 1967 0
 4190 076a 0220     		movs	r0, #2
 4191 076c FFF7FEFF 		bl	DATALINK_times
 4192              	.LVL361:
 4193 0770 0028     		cmp	r0, #0
 4194 0772 00D1     		bne	.LCB3514
 4195 0774 5EE4     		b	.L331	@long jump
 4196              	.LCB3514:
1968:modes.c       ****             if (DATALINK_times(3) == 0) { return 0; }
 4197              		.loc 1 1968 0
 4198 0776 0320     		movs	r0, #3
 4199 0778 FFF7FEFF 		bl	DATALINK_times
 4200              	.LVL362:
 4201 077c 0028     		cmp	r0, #0
 4202 077e 00D1     		bne	.LCB3519
 4203 0780 58E4     		b	.L331	@long jump
ARM GAS  C:\Users\Ala\AppData\Local\Temp\ccPRO05X.s 			page 115


 4204              	.LCB3519:
1969:modes.c       **** // 1222 
1970:modes.c       ****             if (DATALINK_times(1) == 0) { return 0; }
 4205              		.loc 1 1970 0
 4206 0782 0120     		movs	r0, #1
 4207 0784 FFF7FEFF 		bl	DATALINK_times
 4208              	.LVL363:
 4209 0788 0028     		cmp	r0, #0
 4210 078a 00D1     		bne	.LCB3524
 4211 078c 52E4     		b	.L331	@long jump
 4212              	.LCB3524:
1971:modes.c       ****             if (DATALINK_times(2) == 0) { return 0; }
 4213              		.loc 1 1971 0
 4214 078e 0220     		movs	r0, #2
 4215 0790 FFF7FEFF 		bl	DATALINK_times
 4216              	.LVL364:
 4217 0794 0028     		cmp	r0, #0
 4218 0796 00D1     		bne	.LCB3529
 4219 0798 4CE4     		b	.L331	@long jump
 4220              	.LCB3529:
1972:modes.c       ****             if (DATALINK_times(2) == 0) { return 0; }
 4221              		.loc 1 1972 0
 4222 079a 0220     		movs	r0, #2
 4223 079c FFF7FEFF 		bl	DATALINK_times
 4224              	.LVL365:
 4225 07a0 0028     		cmp	r0, #0
 4226 07a2 00D1     		bne	.LCB3534
 4227 07a4 46E4     		b	.L331	@long jump
 4228              	.LCB3534:
1973:modes.c       ****             if (DATALINK_times(2) == 0) { return 0; }
 4229              		.loc 1 1973 0
 4230 07a6 0220     		movs	r0, #2
 4231 07a8 FFF7FEFF 		bl	DATALINK_times
 4232              	.LVL366:
 4233 07ac 0028     		cmp	r0, #0
 4234 07ae 00D1     		bne	.LCB3539
 4235 07b0 40E4     		b	.L331	@long jump
 4236              	.LCB3539:
1974:modes.c       **** // 3212 
1975:modes.c       ****             if (DATALINK_times(3) == 0) { return 0; }
 4237              		.loc 1 1975 0
 4238 07b2 0320     		movs	r0, #3
 4239 07b4 FFF7FEFF 		bl	DATALINK_times
 4240              	.LVL367:
 4241 07b8 0028     		cmp	r0, #0
 4242 07ba 00D1     		bne	.LCB3544
 4243 07bc 3AE4     		b	.L331	@long jump
 4244              	.LCB3544:
1976:modes.c       ****             if (DATALINK_times(2) == 0) { return 0; }
 4245              		.loc 1 1976 0
 4246 07be 0220     		movs	r0, #2
 4247              	.L970:
 4248 07c0 FFF7FEFF 		bl	DATALINK_times
 4249              	.LVL368:
 4250 07c4 0028     		cmp	r0, #0
 4251 07c6 00D1     		bne	.LCB3551
 4252 07c8 34E4     		b	.L331	@long jump
ARM GAS  C:\Users\Ala\AppData\Local\Temp\ccPRO05X.s 			page 116


 4253              	.LCB3551:
1977:modes.c       ****             if (DATALINK_times(1) == 0) { return 0; }
 4254              		.loc 1 1977 0
 4255 07ca 0120     		movs	r0, #1
 4256 07cc 8AE4     		b	.L954
 4257              	.L333:
1978:modes.c       ****             if (DATALINK_times(2) == 0) { return 0; }
1979:modes.c       **** // 41  
1980:modes.c       ****             if (DATALINK_times(4) == 0) { return 0; }
1981:modes.c       ****             if (DATALINK_times(1) == 0) { return 0; }
1982:modes.c       ****      
1983:modes.c       ****             DATALINK_INTRRUPT_Enable();
1984:modes.c       ****             
1985:modes.c       ****             break;
1986:modes.c       ****             
1987:modes.c       ****         }
1988:modes.c       ****     return 1;
 4258              		.loc 1 1988 0
 4259 07ce 0120     		movs	r0, #1
 4260              	.L319:
1989:modes.c       **** }
 4261              		.loc 1 1989 0
 4262              		@ sp needed
 4263 07d0 10BD     		pop	{r4, pc}
 4264              		.cfi_endproc
 4265              	.LFE38:
 4266              		.size	DATALINK_out, .-DATALINK_out
 4267              		.comm	dummyBuffer,28,1
 4268              		.comm	DISPLAY_UPDATE,1,1
 4269              		.comm	DATALINK_TABLE_COUNTER_MAX,1,1
 4270              		.comm	DATALINK_TABLE_COUNTER,1,1
 4271              		.comm	DATALINK_TABLE,64,1
 4272              		.comm	PWR_OK_LONG_V,1,1
 4273              		.comm	MODE_LONG_V,1,1
 4274              		.comm	PWR_OK_SHORT_V,1,1
 4275              		.comm	MODE_SHORT_V,1,1
 4276              		.comm	current_PSUstate,5,1
 4277              		.comm	next_PSUstate,5,1
 4278              		.global	new_disp_ctrl2
 4279              		.global	new_disp_ctrl1
 4280              		.global	new_display_data_buffer
 4281              		.global	new_display_data_flag
 4282              		.global	BT_Tx_STATE
 4283              		.global	DISPLAY_STATE
 4284              		.global	SYSTEM_STATE
 4285              		.comm	eepromArray,3,1
 4286              		.comm	array,3,1
 4287              		.section	.rodata.str1.1,"aMS",%progbits,1
 4288              	.LC0:
 4289 0000 42542050 		.ascii	"BT Pairing - name BT-B20\000"
 4289      61697269 
 4289      6E67202D 
 4289      206E616D 
 4289      65204254 
 4290              	.LC4:
 4291 0019 426C7565 		.ascii	"BlueTooth reconnecting  \000"
 4291      546F6F74 
ARM GAS  C:\Users\Ala\AppData\Local\Temp\ccPRO05X.s 			page 117


 4291      68207265 
 4291      636F6E6E 
 4291      65637469 
 4292              	.LC6:
 4293 0032 426C7565 		.ascii	"BlueTooth clearing ...  \000"
 4293      546F6F74 
 4293      6820636C 
 4293      65617269 
 4293      6E67202E 
 4294              	.LC8:
 4295 004b 426C7565 		.ascii	"BlueTooth mute audio    \000"
 4295      546F6F74 
 4295      68206D75 
 4295      74652061 
 4295      7564696F 
 4296              	.LC10:
 4297 0064 42542050 		.ascii	"BT Pairing search BT-B20\000"
 4297      61697269 
 4297      6E672073 
 4297      65617263 
 4297      68204254 
 4298              	.LC12:
 4299 007d 426C7565 		.ascii	"BlueTooth PAUSE song    \000"
 4299      546F6F74 
 4299      68205041 
 4299      55534520 
 4299      736F6E67 
 4300              	.LC14:
 4301 0096 426C7565 		.ascii	"BlueTooth PREVIUS song  \000"
 4301      546F6F74 
 4301      68205052 
 4301      45564955 
 4301      5320736F 
 4302              	.LC16:
 4303 00af 426C7565 		.ascii	"BlueTooth NEXT song     \000"
 4303      546F6F74 
 4303      68204E45 
 4303      58542073 
 4303      6F6E6720 
 4304              	.LC19:
 4305 00c8 426C7565 		.ascii	"BlueTooth SBC codec     \000"
 4305      546F6F74 
 4305      68205342 
 4305      4320636F 
 4305      64656320 
 4306              	.LC21:
 4307 00e1 426C7565 		.ascii	"BlueTooth AAC codec     \000"
 4307      546F6F74 
 4307      68204141 
 4307      4320636F 
 4307      64656320 
 4308              	.LC23:
 4309 00fa 426C7565 		.ascii	"BlueTooth aptX codec    \000"
 4309      546F6F74 
 4309      68206170 
 4309      74582063 
 4309      6F646563 
ARM GAS  C:\Users\Ala\AppData\Local\Temp\ccPRO05X.s 			page 118


 4310              	.LC25:
 4311 0113 426C7565 		.ascii	"BlueTooth aptX HD codec \000"
 4311      546F6F74 
 4311      68206170 
 4311      74582048 
 4311      4420636F 
 4312              	.LC27:
 4313 012c 426C7565 		.ascii	"BlueTooth aptX LL codec \000"
 4313      546F6F74 
 4313      68206170 
 4313      7458204C 
 4313      4C20636F 
 4314              	.LC29:
 4315 0145 426C7565 		.ascii	"BlueTooth connected     \000"
 4315      546F6F74 
 4315      6820636F 
 4315      6E6E6563 
 4315      74656420 
 4316              	.LC31:
 4317 015e 426C7565 		.ascii	"BlueTooth searching ... \000"
 4317      546F6F74 
 4317      68207365 
 4317      61726368 
 4317      696E6720 
 4318              	.LC33:
 4319 0177 426C7565 		.ascii	"BlueTooth in sleep state\000"
 4319      546F6F74 
 4319      6820696E 
 4319      20736C65 
 4319      65702073 
 4320              	.LC42:
 4321 0190 2D55502B 		.ascii	"-UP+\000"
 4321      00
 4322              	.LC44:
 4323 0195 2D474F2B 		.ascii	"-GO+\000"
 4323      00
 4324              		.data
 4325              		.set	.LANCHOR0,. + 0
 4326              		.type	new_display_data_buffer, %object
 4327              		.size	new_display_data_buffer, 24
 4328              	new_display_data_buffer:
 4329 0000 2E2E2E2E 		.ascii	"........................"
 4329      2E2E2E2E 
 4329      2E2E2E2E 
 4329      2E2E2E2E 
 4329      2E2E2E2E 
 4330              		.bss
 4331              		.set	.LANCHOR1,. + 0
 4332              		.type	new_disp_ctrl1, %object
 4333              		.size	new_disp_ctrl1, 1
 4334              	new_disp_ctrl1:
 4335 0000 00       		.space	1
 4336              		.type	new_disp_ctrl2, %object
 4337              		.size	new_disp_ctrl2, 1
 4338              	new_disp_ctrl2:
 4339 0001 00       		.space	1
 4340              		.type	new_display_data_flag, %object
ARM GAS  C:\Users\Ala\AppData\Local\Temp\ccPRO05X.s 			page 119


 4341              		.size	new_display_data_flag, 1
 4342              	new_display_data_flag:
 4343 0002 00       		.space	1
 4344              		.type	SYSTEM_STATE, %object
 4345              		.size	SYSTEM_STATE, 1
 4346              	SYSTEM_STATE:
 4347 0003 00       		.space	1
 4348              		.type	DISPLAY_STATE, %object
 4349              		.size	DISPLAY_STATE, 1
 4350              	DISPLAY_STATE:
 4351 0004 00       		.space	1
 4352              		.type	BT_Tx_STATE, %object
 4353              		.size	BT_Tx_STATE, 1
 4354              	BT_Tx_STATE:
 4355 0005 00       		.space	1
 4356              		.text
 4357              	.Letext0:
 4358              		.file 2 "Generated_Source\\PSoC4/cytypes.h"
 4359              		.file 3 "Generated_Source\\PSoC4/cy_em_eeprom.h"
 4360              		.file 4 "./modes.h"
 4361              		.file 5 "Generated_Source\\PSoC4/Em_EEPROM.h"
 4362              		.file 6 "./inputs.h"
 4363              		.file 7 "./spi_int.h"
 4364              		.file 8 "Generated_Source\\PSoC4/PWR_DISP.h"
 4365              		.file 9 "Generated_Source\\PSoC4/PWR_BT.h"
 4366              		.file 10 "Generated_Source\\PSoC4/PWR_SDSP.h"
 4367              		.file 11 "Generated_Source\\PSoC4/PWR_RPI.h"
 4368              		.file 12 "Generated_Source\\PSoC4/BT_Tx_Rx.h"
 4369              		.file 13 "c:\\program files (x86)\\cypress\\psoc creator\\4.3\\psoc creator\\import\\gnu\\arm\\5.4
 4370              		.file 14 "Generated_Source\\PSoC4/BT_RE_CONNECT.h"
 4371              		.file 15 "Generated_Source\\PSoC4/CyLib.h"
 4372              		.file 16 "Generated_Source\\PSoC4/BT_PAUSE.h"
 4373              		.file 17 "Generated_Source\\PSoC4/BT_PREVIOUS.h"
 4374              		.file 18 "Generated_Source\\PSoC4/BT_NEXT.h"
 4375              		.file 19 "Generated_Source\\PSoC4/BT_SBC.h"
 4376              		.file 20 "Generated_Source\\PSoC4/BT_APTX.h"
 4377              		.file 21 "Generated_Source\\PSoC4/BT_HD.h"
 4378              		.file 22 "Generated_Source\\PSoC4/BT_LL.h"
 4379              		.file 23 "Generated_Source\\PSoC4/BT_PAIRING.h"
 4380              		.file 24 "Generated_Source\\PSoC4/UART_SPI_UART.h"
 4381              		.file 25 "Generated_Source\\PSoC4/DATALINK.h"
 4382              		.file 26 "Generated_Source\\PSoC4/DATALINK_INTRRUPT.h"
 4383              		.section	.debug_info,"",%progbits
 4384              	.Ldebug_info0:
 4385 0000 8B190000 		.4byte	0x198b
 4386 0004 0400     		.2byte	0x4
 4387 0006 00000000 		.4byte	.Ldebug_abbrev0
 4388 000a 04       		.byte	0x4
 4389 000b 01       		.uleb128 0x1
 4390 000c 6F050000 		.4byte	.LASF106
 4391 0010 0C       		.byte	0xc
 4392 0011 F7020000 		.4byte	.LASF107
 4393 0015 66030000 		.4byte	.LASF108
 4394 0019 00000000 		.4byte	.Ldebug_ranges0+0
 4395 001d 00000000 		.4byte	0
 4396 0021 00000000 		.4byte	.Ldebug_line0
 4397 0025 02       		.uleb128 0x2
ARM GAS  C:\Users\Ala\AppData\Local\Temp\ccPRO05X.s 			page 120


 4398 0026 01       		.byte	0x1
 4399 0027 06       		.byte	0x6
 4400 0028 26030000 		.4byte	.LASF0
 4401 002c 02       		.uleb128 0x2
 4402 002d 01       		.byte	0x1
 4403 002e 08       		.byte	0x8
 4404 002f CE020000 		.4byte	.LASF1
 4405 0033 02       		.uleb128 0x2
 4406 0034 02       		.byte	0x2
 4407 0035 05       		.byte	0x5
 4408 0036 6C000000 		.4byte	.LASF2
 4409 003a 02       		.uleb128 0x2
 4410 003b 02       		.byte	0x2
 4411 003c 07       		.byte	0x7
 4412 003d 28040000 		.4byte	.LASF3
 4413 0041 02       		.uleb128 0x2
 4414 0042 04       		.byte	0x4
 4415 0043 05       		.byte	0x5
 4416 0044 29020000 		.4byte	.LASF4
 4417 0048 02       		.uleb128 0x2
 4418 0049 04       		.byte	0x4
 4419 004a 07       		.byte	0x7
 4420 004b F7040000 		.4byte	.LASF5
 4421 004f 02       		.uleb128 0x2
 4422 0050 08       		.byte	0x8
 4423 0051 05       		.byte	0x5
 4424 0052 C5000000 		.4byte	.LASF6
 4425 0056 02       		.uleb128 0x2
 4426 0057 08       		.byte	0x8
 4427 0058 07       		.byte	0x7
 4428 0059 32030000 		.4byte	.LASF7
 4429 005d 03       		.uleb128 0x3
 4430 005e 04       		.byte	0x4
 4431 005f 05       		.byte	0x5
 4432 0060 696E7400 		.ascii	"int\000"
 4433 0064 02       		.uleb128 0x2
 4434 0065 04       		.byte	0x4
 4435 0066 07       		.byte	0x7
 4436 0067 93030000 		.4byte	.LASF8
 4437 006b 04       		.uleb128 0x4
 4438 006c 85010000 		.4byte	.LASF9
 4439 0070 02       		.byte	0x2
 4440 0071 F701     		.2byte	0x1f7
 4441 0073 2C000000 		.4byte	0x2c
 4442 0077 04       		.uleb128 0x4
 4443 0078 E2040000 		.4byte	.LASF10
 4444 007c 02       		.byte	0x2
 4445 007d F901     		.2byte	0x1f9
 4446 007f 48000000 		.4byte	0x48
 4447 0083 02       		.uleb128 0x2
 4448 0084 04       		.byte	0x4
 4449 0085 04       		.byte	0x4
 4450 0086 C7010000 		.4byte	.LASF11
 4451 008a 02       		.uleb128 0x2
 4452 008b 08       		.byte	0x8
 4453 008c 04       		.byte	0x4
 4454 008d 09050000 		.4byte	.LASF12
ARM GAS  C:\Users\Ala\AppData\Local\Temp\ccPRO05X.s 			page 121


 4455 0091 04       		.uleb128 0x4
 4456 0092 43000000 		.4byte	.LASF13
 4457 0096 02       		.byte	0x2
 4458 0097 0302     		.2byte	0x203
 4459 0099 56000000 		.4byte	0x56
 4460 009d 02       		.uleb128 0x2
 4461 009e 01       		.byte	0x1
 4462 009f 08       		.byte	0x8
 4463 00a0 51040000 		.4byte	.LASF14
 4464 00a4 04       		.uleb128 0x4
 4465 00a5 04040000 		.4byte	.LASF15
 4466 00a9 02       		.byte	0x2
 4467 00aa A302     		.2byte	0x2a3
 4468 00ac B0000000 		.4byte	0xb0
 4469 00b0 05       		.uleb128 0x5
 4470 00b1 77000000 		.4byte	0x77
 4471 00b5 02       		.uleb128 0x2
 4472 00b6 08       		.byte	0x8
 4473 00b7 04       		.byte	0x4
 4474 00b8 00000000 		.4byte	.LASF16
 4475 00bc 02       		.uleb128 0x2
 4476 00bd 04       		.byte	0x4
 4477 00be 07       		.byte	0x7
 4478 00bf 76000000 		.4byte	.LASF17
 4479 00c3 06       		.uleb128 0x6
 4480 00c4 1C       		.byte	0x1c
 4481 00c5 03       		.byte	0x3
 4482 00c6 1601     		.2byte	0x116
 4483 00c8 35010000 		.4byte	0x135
 4484 00cc 07       		.uleb128 0x7
 4485 00cd 7E040000 		.4byte	.LASF18
 4486 00d1 03       		.byte	0x3
 4487 00d2 1B01     		.2byte	0x11b
 4488 00d4 77000000 		.4byte	0x77
 4489 00d8 00       		.byte	0
 4490 00d9 07       		.uleb128 0x7
 4491 00da A1060000 		.4byte	.LASF19
 4492 00de 03       		.byte	0x3
 4493 00df 2001     		.2byte	0x120
 4494 00e1 77000000 		.4byte	0x77
 4495 00e5 04       		.byte	0x4
 4496 00e6 07       		.uleb128 0x7
 4497 00e7 86060000 		.4byte	.LASF20
 4498 00eb 03       		.byte	0x3
 4499 00ec 2301     		.2byte	0x123
 4500 00ee 77000000 		.4byte	0x77
 4501 00f2 08       		.byte	0x8
 4502 00f3 07       		.uleb128 0x7
 4503 00f4 4A000000 		.4byte	.LASF21
 4504 00f8 03       		.byte	0x3
 4505 00f9 2601     		.2byte	0x126
 4506 00fb 77000000 		.4byte	0x77
 4507 00ff 0C       		.byte	0xc
 4508 0100 07       		.uleb128 0x7
 4509 0101 42060000 		.4byte	.LASF22
 4510 0105 03       		.byte	0x3
 4511 0106 2B01     		.2byte	0x12b
ARM GAS  C:\Users\Ala\AppData\Local\Temp\ccPRO05X.s 			page 122


 4512 0108 77000000 		.4byte	0x77
 4513 010c 10       		.byte	0x10
 4514 010d 07       		.uleb128 0x7
 4515 010e AD010000 		.4byte	.LASF23
 4516 0112 03       		.byte	0x3
 4517 0113 2E01     		.2byte	0x12e
 4518 0115 6B000000 		.4byte	0x6b
 4519 0119 14       		.byte	0x14
 4520 011a 07       		.uleb128 0x7
 4521 011b F9000000 		.4byte	.LASF24
 4522 011f 03       		.byte	0x3
 4523 0120 3301     		.2byte	0x133
 4524 0122 6B000000 		.4byte	0x6b
 4525 0126 15       		.byte	0x15
 4526 0127 07       		.uleb128 0x7
 4527 0128 A0030000 		.4byte	.LASF25
 4528 012c 03       		.byte	0x3
 4529 012d 3601     		.2byte	0x136
 4530 012f 77000000 		.4byte	0x77
 4531 0133 18       		.byte	0x18
 4532 0134 00       		.byte	0
 4533 0135 04       		.uleb128 0x4
 4534 0136 9C040000 		.4byte	.LASF26
 4535 013a 03       		.byte	0x3
 4536 013b 3701     		.2byte	0x137
 4537 013d C3000000 		.4byte	0xc3
 4538 0141 08       		.uleb128 0x8
 4539 0142 FD050000 		.4byte	.LASF109
 4540 0146 05       		.byte	0x5
 4541 0147 04       		.byte	0x4
 4542 0148 2E       		.byte	0x2e
 4543 0149 8A010000 		.4byte	0x18a
 4544 014d 09       		.uleb128 0x9
 4545 014e A5020000 		.4byte	.LASF27
 4546 0152 04       		.byte	0x4
 4547 0153 2F       		.byte	0x2f
 4548 0154 6B000000 		.4byte	0x6b
 4549 0158 00       		.byte	0
 4550 0159 09       		.uleb128 0x9
 4551 015a 42040000 		.4byte	.LASF28
 4552 015e 04       		.byte	0x4
 4553 015f 30       		.byte	0x30
 4554 0160 6B000000 		.4byte	0x6b
 4555 0164 01       		.byte	0x1
 4556 0165 09       		.uleb128 0x9
 4557 0166 6B020000 		.4byte	.LASF29
 4558 016a 04       		.byte	0x4
 4559 016b 31       		.byte	0x31
 4560 016c 6B000000 		.4byte	0x6b
 4561 0170 02       		.byte	0x2
 4562 0171 09       		.uleb128 0x9
 4563 0172 17010000 		.4byte	.LASF30
 4564 0176 04       		.byte	0x4
 4565 0177 32       		.byte	0x32
 4566 0178 6B000000 		.4byte	0x6b
 4567 017c 03       		.byte	0x3
 4568 017d 09       		.uleb128 0x9
ARM GAS  C:\Users\Ala\AppData\Local\Temp\ccPRO05X.s 			page 123


 4569 017e 56040000 		.4byte	.LASF31
 4570 0182 04       		.byte	0x4
 4571 0183 33       		.byte	0x33
 4572 0184 6B000000 		.4byte	0x6b
 4573 0188 04       		.byte	0x4
 4574 0189 00       		.byte	0
 4575 018a 0A       		.uleb128 0xa
 4576 018b 55000000 		.4byte	.LASF32
 4577 018f 04       		.byte	0x4
 4578 0190 36       		.byte	0x36
 4579 0191 41010000 		.4byte	0x141
 4580 0195 0B       		.uleb128 0xb
 4581 0196 3E050000 		.4byte	.LASF110
 4582 019a 01       		.byte	0x1
 4583 019b 6805     		.2byte	0x568
 4584 019d 6B000000 		.4byte	0x6b
 4585 01a1 01       		.byte	0x1
 4586 01a2 BF010000 		.4byte	0x1bf
 4587 01a6 0C       		.uleb128 0xc
 4588 01a7 EB030000 		.4byte	.LASF111
 4589 01ab 01       		.byte	0x1
 4590 01ac 6805     		.2byte	0x568
 4591 01ae 6B000000 		.4byte	0x6b
 4592 01b2 0D       		.uleb128 0xd
 4593 01b3 17000000 		.4byte	.LASF112
 4594 01b7 01       		.byte	0x1
 4595 01b8 6B05     		.2byte	0x56b
 4596 01ba 77000000 		.4byte	0x77
 4597 01be 00       		.byte	0
 4598 01bf 0E       		.uleb128 0xe
 4599 01c0 DC020000 		.4byte	.LASF35
 4600 01c4 01       		.byte	0x1
 4601 01c5 9C02     		.2byte	0x29c
 4602 01c7 8A010000 		.4byte	0x18a
 4603 01cb 00000000 		.4byte	.LFB34
 4604 01cf 5C000000 		.4byte	.LFE34-.LFB34
 4605 01d3 01       		.uleb128 0x1
 4606 01d4 9C       		.byte	0x9c
 4607 01d5 70020000 		.4byte	0x270
 4608 01d9 0F       		.uleb128 0xf
 4609 01da 0E020000 		.4byte	.LASF33
 4610 01de 01       		.byte	0x1
 4611 01df 9C02     		.2byte	0x29c
 4612 01e1 6B000000 		.4byte	0x6b
 4613 01e5 00000000 		.4byte	.LLST0
 4614 01e9 0F       		.uleb128 0xf
 4615 01ea 94060000 		.4byte	.LASF34
 4616 01ee 01       		.byte	0x1
 4617 01ef 9C02     		.2byte	0x29c
 4618 01f1 8A010000 		.4byte	0x18a
 4619 01f5 21000000 		.4byte	.LLST1
 4620 01f9 10       		.uleb128 0x10
 4621 01fa 1A000000 		.4byte	.LVL5
 4622 01fe 3A180000 		.4byte	0x183a
 4623 0202 0F020000 		.4byte	0x20f
 4624 0206 11       		.uleb128 0x11
 4625 0207 01       		.uleb128 0x1
ARM GAS  C:\Users\Ala\AppData\Local\Temp\ccPRO05X.s 			page 124


 4626 0208 50       		.byte	0x50
 4627 0209 04       		.uleb128 0x4
 4628 020a 7D       		.byte	0x7d
 4629 020b 04       		.sleb128 4
 4630 020c 94       		.byte	0x94
 4631 020d 01       		.byte	0x1
 4632 020e 00       		.byte	0
 4633 020f 10       		.uleb128 0x10
 4634 0210 20000000 		.4byte	.LVL6
 4635 0214 45180000 		.4byte	0x1845
 4636 0218 23020000 		.4byte	0x223
 4637 021c 11       		.uleb128 0x11
 4638 021d 01       		.uleb128 0x1
 4639 021e 50       		.byte	0x50
 4640 021f 02       		.uleb128 0x2
 4641 0220 77       		.byte	0x77
 4642 0221 00       		.sleb128 0
 4643 0222 00       		.byte	0
 4644 0223 10       		.uleb128 0x10
 4645 0224 26000000 		.4byte	.LVL7
 4646 0228 50180000 		.4byte	0x1850
 4647 022c 37020000 		.4byte	0x237
 4648 0230 11       		.uleb128 0x11
 4649 0231 01       		.uleb128 0x1
 4650 0232 50       		.byte	0x50
 4651 0233 02       		.uleb128 0x2
 4652 0234 76       		.byte	0x76
 4653 0235 00       		.sleb128 0
 4654 0236 00       		.byte	0
 4655 0237 10       		.uleb128 0x10
 4656 0238 2C000000 		.4byte	.LVL8
 4657 023c 5B180000 		.4byte	0x185b
 4658 0240 4B020000 		.4byte	0x24b
 4659 0244 11       		.uleb128 0x11
 4660 0245 01       		.uleb128 0x1
 4661 0246 50       		.byte	0x50
 4662 0247 02       		.uleb128 0x2
 4663 0248 75       		.byte	0x75
 4664 0249 00       		.sleb128 0
 4665 024a 00       		.byte	0
 4666 024b 12       		.uleb128 0x12
 4667 024c 30000000 		.4byte	.LVL9
 4668 0250 66180000 		.4byte	0x1866
 4669 0254 12       		.uleb128 0x12
 4670 0255 36000000 		.4byte	.LVL11
 4671 0259 71180000 		.4byte	0x1871
 4672 025d 12       		.uleb128 0x12
 4673 025e 3C000000 		.4byte	.LVL13
 4674 0262 7C180000 		.4byte	0x187c
 4675 0266 12       		.uleb128 0x12
 4676 0267 42000000 		.4byte	.LVL15
 4677 026b 87180000 		.4byte	0x1887
 4678 026f 00       		.byte	0
 4679 0270 0E       		.uleb128 0xe
 4680 0271 32020000 		.4byte	.LASF36
 4681 0275 01       		.byte	0x1
 4682 0276 1B01     		.2byte	0x11b
ARM GAS  C:\Users\Ala\AppData\Local\Temp\ccPRO05X.s 			page 125


 4683 0278 6B000000 		.4byte	0x6b
 4684 027c 00000000 		.4byte	.LFB33
 4685 0280 54030000 		.4byte	.LFE33-.LFB33
 4686 0284 01       		.uleb128 0x1
 4687 0285 9C       		.byte	0x9c
 4688 0286 71070000 		.4byte	0x771
 4689 028a 0F       		.uleb128 0xf
 4690 028b DA000000 		.4byte	.LASF37
 4691 028f 01       		.byte	0x1
 4692 0290 1B01     		.2byte	0x11b
 4693 0292 6B000000 		.4byte	0x6b
 4694 0296 46010000 		.4byte	.LLST2
 4695 029a 0F       		.uleb128 0xf
 4696 029b 0E020000 		.4byte	.LASF33
 4697 029f 01       		.byte	0x1
 4698 02a0 1B01     		.2byte	0x11b
 4699 02a2 6B000000 		.4byte	0x6b
 4700 02a6 99010000 		.4byte	.LLST3
 4701 02aa 13       		.uleb128 0x13
 4702 02ab 25010000 		.4byte	.LASF38
 4703 02af 01       		.byte	0x1
 4704 02b0 1D01     		.2byte	0x11d
 4705 02b2 6B000000 		.4byte	0x6b
 4706 02b6 EC010000 		.4byte	.LLST4
 4707 02ba 13       		.uleb128 0x13
 4708 02bb 7F000000 		.4byte	.LASF39
 4709 02bf 01       		.byte	0x1
 4710 02c0 1E01     		.2byte	0x11e
 4711 02c2 6B000000 		.4byte	0x6b
 4712 02c6 A2020000 		.4byte	.LLST5
 4713 02ca 13       		.uleb128 0x13
 4714 02cb 36060000 		.4byte	.LASF40
 4715 02cf 01       		.byte	0x1
 4716 02d0 1F01     		.2byte	0x11f
 4717 02d2 6B000000 		.4byte	0x6b
 4718 02d6 D7020000 		.4byte	.LLST6
 4719 02da 10       		.uleb128 0x10
 4720 02db 10000000 		.4byte	.LVL25
 4721 02df 92180000 		.4byte	0x1892
 4722 02e3 ED020000 		.4byte	0x2ed
 4723 02e7 11       		.uleb128 0x11
 4724 02e8 01       		.uleb128 0x1
 4725 02e9 50       		.byte	0x50
 4726 02ea 01       		.uleb128 0x1
 4727 02eb 30       		.byte	0x30
 4728 02ec 00       		.byte	0
 4729 02ed 10       		.uleb128 0x10
 4730 02ee 1C000000 		.4byte	.LVL26
 4731 02f2 9D180000 		.4byte	0x189d
 4732 02f6 0D030000 		.4byte	0x30d
 4733 02fa 11       		.uleb128 0x11
 4734 02fb 01       		.uleb128 0x1
 4735 02fc 50       		.byte	0x50
 4736 02fd 05       		.uleb128 0x5
 4737 02fe 03       		.byte	0x3
 4738 02ff 00000000 		.4byte	.LANCHOR0
 4739 0303 11       		.uleb128 0x11
ARM GAS  C:\Users\Ala\AppData\Local\Temp\ccPRO05X.s 			page 126


 4740 0304 01       		.uleb128 0x1
 4741 0305 51       		.byte	0x51
 4742 0306 05       		.uleb128 0x5
 4743 0307 03       		.byte	0x3
 4744 0308 00000000 		.4byte	.LC0
 4745 030c 00       		.byte	0
 4746 030d 10       		.uleb128 0x10
 4747 030e 38000000 		.4byte	.LVL27
 4748 0312 9D180000 		.4byte	0x189d
 4749 0316 2D030000 		.4byte	0x32d
 4750 031a 11       		.uleb128 0x11
 4751 031b 01       		.uleb128 0x1
 4752 031c 50       		.byte	0x50
 4753 031d 05       		.uleb128 0x5
 4754 031e 03       		.byte	0x3
 4755 031f 00000000 		.4byte	.LANCHOR0
 4756 0323 11       		.uleb128 0x11
 4757 0324 01       		.uleb128 0x1
 4758 0325 51       		.byte	0x51
 4759 0326 05       		.uleb128 0x5
 4760 0327 03       		.byte	0x3
 4761 0328 19000000 		.4byte	.LC4
 4762 032c 00       		.byte	0
 4763 032d 10       		.uleb128 0x10
 4764 032e 50000000 		.4byte	.LVL28
 4765 0332 A8180000 		.4byte	0x18a8
 4766 0336 40030000 		.4byte	0x340
 4767 033a 11       		.uleb128 0x11
 4768 033b 01       		.uleb128 0x1
 4769 033c 50       		.byte	0x50
 4770 033d 01       		.uleb128 0x1
 4771 033e 30       		.byte	0x30
 4772 033f 00       		.byte	0
 4773 0340 10       		.uleb128 0x10
 4774 0341 60000000 		.4byte	.LVL29
 4775 0345 9D180000 		.4byte	0x189d
 4776 0349 60030000 		.4byte	0x360
 4777 034d 11       		.uleb128 0x11
 4778 034e 01       		.uleb128 0x1
 4779 034f 50       		.byte	0x50
 4780 0350 05       		.uleb128 0x5
 4781 0351 03       		.byte	0x3
 4782 0352 00000000 		.4byte	.LANCHOR0
 4783 0356 11       		.uleb128 0x11
 4784 0357 01       		.uleb128 0x1
 4785 0358 51       		.byte	0x51
 4786 0359 05       		.uleb128 0x5
 4787 035a 03       		.byte	0x3
 4788 035b 32000000 		.4byte	.LC6
 4789 035f 00       		.byte	0
 4790 0360 10       		.uleb128 0x10
 4791 0361 78000000 		.4byte	.LVL30
 4792 0365 A8180000 		.4byte	0x18a8
 4793 0369 73030000 		.4byte	0x373
 4794 036d 11       		.uleb128 0x11
 4795 036e 01       		.uleb128 0x1
 4796 036f 50       		.byte	0x50
ARM GAS  C:\Users\Ala\AppData\Local\Temp\ccPRO05X.s 			page 127


 4797 0370 01       		.uleb128 0x1
 4798 0371 30       		.byte	0x30
 4799 0372 00       		.byte	0
 4800 0373 12       		.uleb128 0x12
 4801 0374 7E000000 		.4byte	.LVL31
 4802 0378 A8180000 		.4byte	0x18a8
 4803 037c 12       		.uleb128 0x12
 4804 037d 84000000 		.4byte	.LVL32
 4805 0381 B3180000 		.4byte	0x18b3
 4806 0385 10       		.uleb128 0x10
 4807 0386 8A000000 		.4byte	.LVL33
 4808 038a A8180000 		.4byte	0x18a8
 4809 038e 98030000 		.4byte	0x398
 4810 0392 11       		.uleb128 0x11
 4811 0393 01       		.uleb128 0x1
 4812 0394 50       		.byte	0x50
 4813 0395 01       		.uleb128 0x1
 4814 0396 30       		.byte	0x30
 4815 0397 00       		.byte	0
 4816 0398 10       		.uleb128 0x10
 4817 0399 9A000000 		.4byte	.LVL34
 4818 039d 9D180000 		.4byte	0x189d
 4819 03a1 B8030000 		.4byte	0x3b8
 4820 03a5 11       		.uleb128 0x11
 4821 03a6 01       		.uleb128 0x1
 4822 03a7 50       		.byte	0x50
 4823 03a8 05       		.uleb128 0x5
 4824 03a9 03       		.byte	0x3
 4825 03aa 00000000 		.4byte	.LANCHOR0
 4826 03ae 11       		.uleb128 0x11
 4827 03af 01       		.uleb128 0x1
 4828 03b0 51       		.byte	0x51
 4829 03b1 05       		.uleb128 0x5
 4830 03b2 03       		.byte	0x3
 4831 03b3 4B000000 		.4byte	.LC8
 4832 03b7 00       		.byte	0
 4833 03b8 10       		.uleb128 0x10
 4834 03b9 B2000000 		.4byte	.LVL35
 4835 03bd BE180000 		.4byte	0x18be
 4836 03c1 CB030000 		.4byte	0x3cb
 4837 03c5 11       		.uleb128 0x11
 4838 03c6 01       		.uleb128 0x1
 4839 03c7 50       		.byte	0x50
 4840 03c8 01       		.uleb128 0x1
 4841 03c9 30       		.byte	0x30
 4842 03ca 00       		.byte	0
 4843 03cb 10       		.uleb128 0x10
 4844 03cc C2000000 		.4byte	.LVL38
 4845 03d0 92180000 		.4byte	0x1892
 4846 03d4 DE030000 		.4byte	0x3de
 4847 03d8 11       		.uleb128 0x11
 4848 03d9 01       		.uleb128 0x1
 4849 03da 50       		.byte	0x50
 4850 03db 01       		.uleb128 0x1
 4851 03dc 31       		.byte	0x31
 4852 03dd 00       		.byte	0
 4853 03de 10       		.uleb128 0x10
ARM GAS  C:\Users\Ala\AppData\Local\Temp\ccPRO05X.s 			page 128


 4854 03df CE000000 		.4byte	.LVL39
 4855 03e3 9D180000 		.4byte	0x189d
 4856 03e7 FE030000 		.4byte	0x3fe
 4857 03eb 11       		.uleb128 0x11
 4858 03ec 01       		.uleb128 0x1
 4859 03ed 50       		.byte	0x50
 4860 03ee 05       		.uleb128 0x5
 4861 03ef 03       		.byte	0x3
 4862 03f0 00000000 		.4byte	.LANCHOR0
 4863 03f4 11       		.uleb128 0x11
 4864 03f5 01       		.uleb128 0x1
 4865 03f6 51       		.byte	0x51
 4866 03f7 05       		.uleb128 0x5
 4867 03f8 03       		.byte	0x3
 4868 03f9 64000000 		.4byte	.LC10
 4869 03fd 00       		.byte	0
 4870 03fe 10       		.uleb128 0x10
 4871 03ff E2000000 		.4byte	.LVL40
 4872 0403 A8180000 		.4byte	0x18a8
 4873 0407 11040000 		.4byte	0x411
 4874 040b 11       		.uleb128 0x11
 4875 040c 01       		.uleb128 0x1
 4876 040d 50       		.byte	0x50
 4877 040e 01       		.uleb128 0x1
 4878 040f 30       		.byte	0x30
 4879 0410 00       		.byte	0
 4880 0411 10       		.uleb128 0x10
 4881 0412 E8000000 		.4byte	.LVL41
 4882 0416 A8180000 		.4byte	0x18a8
 4883 041a 25040000 		.4byte	0x425
 4884 041e 11       		.uleb128 0x11
 4885 041f 01       		.uleb128 0x1
 4886 0420 50       		.byte	0x50
 4887 0421 02       		.uleb128 0x2
 4888 0422 74       		.byte	0x74
 4889 0423 00       		.sleb128 0
 4890 0424 00       		.byte	0
 4891 0425 10       		.uleb128 0x10
 4892 0426 EE000000 		.4byte	.LVL42
 4893 042a B3180000 		.4byte	0x18b3
 4894 042e 39040000 		.4byte	0x439
 4895 0432 11       		.uleb128 0x11
 4896 0433 01       		.uleb128 0x1
 4897 0434 50       		.byte	0x50
 4898 0435 02       		.uleb128 0x2
 4899 0436 08       		.byte	0x8
 4900 0437 64       		.byte	0x64
 4901 0438 00       		.byte	0
 4902 0439 10       		.uleb128 0x10
 4903 043a F4000000 		.4byte	.LVL43
 4904 043e A8180000 		.4byte	0x18a8
 4905 0442 4C040000 		.4byte	0x44c
 4906 0446 11       		.uleb128 0x11
 4907 0447 01       		.uleb128 0x1
 4908 0448 50       		.byte	0x50
 4909 0449 01       		.uleb128 0x1
 4910 044a 30       		.byte	0x30
ARM GAS  C:\Users\Ala\AppData\Local\Temp\ccPRO05X.s 			page 129


 4911 044b 00       		.byte	0
 4912 044c 10       		.uleb128 0x10
 4913 044d FA000000 		.4byte	.LVL44
 4914 0451 B3180000 		.4byte	0x18b3
 4915 0455 60040000 		.4byte	0x460
 4916 0459 11       		.uleb128 0x11
 4917 045a 01       		.uleb128 0x1
 4918 045b 50       		.byte	0x50
 4919 045c 02       		.uleb128 0x2
 4920 045d 08       		.byte	0x8
 4921 045e 64       		.byte	0x64
 4922 045f 00       		.byte	0
 4923 0460 10       		.uleb128 0x10
 4924 0461 08010000 		.4byte	.LVL45
 4925 0465 9D180000 		.4byte	0x189d
 4926 0469 80040000 		.4byte	0x480
 4927 046d 11       		.uleb128 0x11
 4928 046e 01       		.uleb128 0x1
 4929 046f 50       		.byte	0x50
 4930 0470 05       		.uleb128 0x5
 4931 0471 03       		.byte	0x3
 4932 0472 00000000 		.4byte	.LANCHOR0
 4933 0476 11       		.uleb128 0x11
 4934 0477 01       		.uleb128 0x1
 4935 0478 51       		.byte	0x51
 4936 0479 05       		.uleb128 0x5
 4937 047a 03       		.byte	0x3
 4938 047b 19000000 		.4byte	.LC4
 4939 047f 00       		.byte	0
 4940 0480 10       		.uleb128 0x10
 4941 0481 1E010000 		.4byte	.LVL46
 4942 0485 A8180000 		.4byte	0x18a8
 4943 0489 93040000 		.4byte	0x493
 4944 048d 11       		.uleb128 0x11
 4945 048e 01       		.uleb128 0x1
 4946 048f 50       		.byte	0x50
 4947 0490 01       		.uleb128 0x1
 4948 0491 30       		.byte	0x30
 4949 0492 00       		.byte	0
 4950 0493 12       		.uleb128 0x12
 4951 0494 24010000 		.4byte	.LVL47
 4952 0498 A8180000 		.4byte	0x18a8
 4953 049c 10       		.uleb128 0x10
 4954 049d 34010000 		.4byte	.LVL48
 4955 04a1 9D180000 		.4byte	0x189d
 4956 04a5 BC040000 		.4byte	0x4bc
 4957 04a9 11       		.uleb128 0x11
 4958 04aa 01       		.uleb128 0x1
 4959 04ab 50       		.byte	0x50
 4960 04ac 05       		.uleb128 0x5
 4961 04ad 03       		.byte	0x3
 4962 04ae 00000000 		.4byte	.LANCHOR0
 4963 04b2 11       		.uleb128 0x11
 4964 04b3 01       		.uleb128 0x1
 4965 04b4 51       		.byte	0x51
 4966 04b5 05       		.uleb128 0x5
 4967 04b6 03       		.byte	0x3
ARM GAS  C:\Users\Ala\AppData\Local\Temp\ccPRO05X.s 			page 130


 4968 04b7 32000000 		.4byte	.LC6
 4969 04bb 00       		.byte	0
 4970 04bc 10       		.uleb128 0x10
 4971 04bd 4A010000 		.4byte	.LVL49
 4972 04c1 A8180000 		.4byte	0x18a8
 4973 04c5 CF040000 		.4byte	0x4cf
 4974 04c9 11       		.uleb128 0x11
 4975 04ca 01       		.uleb128 0x1
 4976 04cb 50       		.byte	0x50
 4977 04cc 01       		.uleb128 0x1
 4978 04cd 30       		.byte	0x30
 4979 04ce 00       		.byte	0
 4980 04cf 10       		.uleb128 0x10
 4981 04d0 5A010000 		.4byte	.LVL50
 4982 04d4 9D180000 		.4byte	0x189d
 4983 04d8 EF040000 		.4byte	0x4ef
 4984 04dc 11       		.uleb128 0x11
 4985 04dd 01       		.uleb128 0x1
 4986 04de 50       		.byte	0x50
 4987 04df 05       		.uleb128 0x5
 4988 04e0 03       		.byte	0x3
 4989 04e1 00000000 		.4byte	.LANCHOR0
 4990 04e5 11       		.uleb128 0x11
 4991 04e6 01       		.uleb128 0x1
 4992 04e7 51       		.byte	0x51
 4993 04e8 05       		.uleb128 0x5
 4994 04e9 03       		.byte	0x3
 4995 04ea 7D000000 		.4byte	.LC12
 4996 04ee 00       		.byte	0
 4997 04ef 10       		.uleb128 0x10
 4998 04f0 70010000 		.4byte	.LVL51
 4999 04f4 BE180000 		.4byte	0x18be
 5000 04f8 02050000 		.4byte	0x502
 5001 04fc 11       		.uleb128 0x11
 5002 04fd 01       		.uleb128 0x1
 5003 04fe 50       		.byte	0x50
 5004 04ff 01       		.uleb128 0x1
 5005 0500 30       		.byte	0x30
 5006 0501 00       		.byte	0
 5007 0502 12       		.uleb128 0x12
 5008 0503 76010000 		.4byte	.LVL52
 5009 0507 BE180000 		.4byte	0x18be
 5010 050b 10       		.uleb128 0x10
 5011 050c 7C010000 		.4byte	.LVL53
 5012 0510 B3180000 		.4byte	0x18b3
 5013 0514 1F050000 		.4byte	0x51f
 5014 0518 11       		.uleb128 0x11
 5015 0519 01       		.uleb128 0x1
 5016 051a 50       		.byte	0x50
 5017 051b 02       		.uleb128 0x2
 5018 051c 08       		.byte	0x8
 5019 051d 64       		.byte	0x64
 5020 051e 00       		.byte	0
 5021 051f 10       		.uleb128 0x10
 5022 0520 82010000 		.4byte	.LVL54
 5023 0524 BE180000 		.4byte	0x18be
 5024 0528 32050000 		.4byte	0x532
ARM GAS  C:\Users\Ala\AppData\Local\Temp\ccPRO05X.s 			page 131


 5025 052c 11       		.uleb128 0x11
 5026 052d 01       		.uleb128 0x1
 5027 052e 50       		.byte	0x50
 5028 052f 01       		.uleb128 0x1
 5029 0530 30       		.byte	0x30
 5030 0531 00       		.byte	0
 5031 0532 10       		.uleb128 0x10
 5032 0533 90010000 		.4byte	.LVL55
 5033 0537 9D180000 		.4byte	0x189d
 5034 053b 52050000 		.4byte	0x552
 5035 053f 11       		.uleb128 0x11
 5036 0540 01       		.uleb128 0x1
 5037 0541 50       		.byte	0x50
 5038 0542 05       		.uleb128 0x5
 5039 0543 03       		.byte	0x3
 5040 0544 00000000 		.4byte	.LANCHOR0
 5041 0548 11       		.uleb128 0x11
 5042 0549 01       		.uleb128 0x1
 5043 054a 51       		.byte	0x51
 5044 054b 05       		.uleb128 0x5
 5045 054c 03       		.byte	0x3
 5046 054d 96000000 		.4byte	.LC14
 5047 0551 00       		.byte	0
 5048 0552 10       		.uleb128 0x10
 5049 0553 A6010000 		.4byte	.LVL56
 5050 0557 C9180000 		.4byte	0x18c9
 5051 055b 65050000 		.4byte	0x565
 5052 055f 11       		.uleb128 0x11
 5053 0560 01       		.uleb128 0x1
 5054 0561 50       		.byte	0x50
 5055 0562 01       		.uleb128 0x1
 5056 0563 30       		.byte	0x30
 5057 0564 00       		.byte	0
 5058 0565 10       		.uleb128 0x10
 5059 0566 AC010000 		.4byte	.LVL57
 5060 056a C9180000 		.4byte	0x18c9
 5061 056e 79050000 		.4byte	0x579
 5062 0572 11       		.uleb128 0x11
 5063 0573 01       		.uleb128 0x1
 5064 0574 50       		.byte	0x50
 5065 0575 02       		.uleb128 0x2
 5066 0576 74       		.byte	0x74
 5067 0577 00       		.sleb128 0
 5068 0578 00       		.byte	0
 5069 0579 10       		.uleb128 0x10
 5070 057a B2010000 		.4byte	.LVL58
 5071 057e B3180000 		.4byte	0x18b3
 5072 0582 8D050000 		.4byte	0x58d
 5073 0586 11       		.uleb128 0x11
 5074 0587 01       		.uleb128 0x1
 5075 0588 50       		.byte	0x50
 5076 0589 02       		.uleb128 0x2
 5077 058a 08       		.byte	0x8
 5078 058b 64       		.byte	0x64
 5079 058c 00       		.byte	0
 5080 058d 10       		.uleb128 0x10
 5081 058e B8010000 		.4byte	.LVL59
ARM GAS  C:\Users\Ala\AppData\Local\Temp\ccPRO05X.s 			page 132


 5082 0592 C9180000 		.4byte	0x18c9
 5083 0596 A0050000 		.4byte	0x5a0
 5084 059a 11       		.uleb128 0x11
 5085 059b 01       		.uleb128 0x1
 5086 059c 50       		.byte	0x50
 5087 059d 01       		.uleb128 0x1
 5088 059e 30       		.byte	0x30
 5089 059f 00       		.byte	0
 5090 05a0 10       		.uleb128 0x10
 5091 05a1 C8010000 		.4byte	.LVL60
 5092 05a5 9D180000 		.4byte	0x189d
 5093 05a9 C0050000 		.4byte	0x5c0
 5094 05ad 11       		.uleb128 0x11
 5095 05ae 01       		.uleb128 0x1
 5096 05af 50       		.byte	0x50
 5097 05b0 05       		.uleb128 0x5
 5098 05b1 03       		.byte	0x3
 5099 05b2 00000000 		.4byte	.LANCHOR0
 5100 05b6 11       		.uleb128 0x11
 5101 05b7 01       		.uleb128 0x1
 5102 05b8 51       		.byte	0x51
 5103 05b9 05       		.uleb128 0x5
 5104 05ba 03       		.byte	0x3
 5105 05bb AF000000 		.4byte	.LC16
 5106 05bf 00       		.byte	0
 5107 05c0 10       		.uleb128 0x10
 5108 05c1 DE010000 		.4byte	.LVL61
 5109 05c5 D4180000 		.4byte	0x18d4
 5110 05c9 D3050000 		.4byte	0x5d3
 5111 05cd 11       		.uleb128 0x11
 5112 05ce 01       		.uleb128 0x1
 5113 05cf 50       		.byte	0x50
 5114 05d0 01       		.uleb128 0x1
 5115 05d1 30       		.byte	0x30
 5116 05d2 00       		.byte	0
 5117 05d3 10       		.uleb128 0x10
 5118 05d4 E4010000 		.4byte	.LVL62
 5119 05d8 D4180000 		.4byte	0x18d4
 5120 05dc E7050000 		.4byte	0x5e7
 5121 05e0 11       		.uleb128 0x11
 5122 05e1 01       		.uleb128 0x1
 5123 05e2 50       		.byte	0x50
 5124 05e3 02       		.uleb128 0x2
 5125 05e4 74       		.byte	0x74
 5126 05e5 00       		.sleb128 0
 5127 05e6 00       		.byte	0
 5128 05e7 10       		.uleb128 0x10
 5129 05e8 EA010000 		.4byte	.LVL63
 5130 05ec B3180000 		.4byte	0x18b3
 5131 05f0 FB050000 		.4byte	0x5fb
 5132 05f4 11       		.uleb128 0x11
 5133 05f5 01       		.uleb128 0x1
 5134 05f6 50       		.byte	0x50
 5135 05f7 02       		.uleb128 0x2
 5136 05f8 08       		.byte	0x8
 5137 05f9 64       		.byte	0x64
 5138 05fa 00       		.byte	0
ARM GAS  C:\Users\Ala\AppData\Local\Temp\ccPRO05X.s 			page 133


 5139 05fb 10       		.uleb128 0x10
 5140 05fc F0010000 		.4byte	.LVL64
 5141 0600 D4180000 		.4byte	0x18d4
 5142 0604 0E060000 		.4byte	0x60e
 5143 0608 11       		.uleb128 0x11
 5144 0609 01       		.uleb128 0x1
 5145 060a 50       		.byte	0x50
 5146 060b 01       		.uleb128 0x1
 5147 060c 30       		.byte	0x30
 5148 060d 00       		.byte	0
 5149 060e 10       		.uleb128 0x10
 5150 060f 16020000 		.4byte	.LVL68
 5151 0613 BF010000 		.4byte	0x1bf
 5152 0617 27060000 		.4byte	0x627
 5153 061b 11       		.uleb128 0x11
 5154 061c 01       		.uleb128 0x1
 5155 061d 50       		.byte	0x50
 5156 061e 02       		.uleb128 0x2
 5157 061f 7D       		.byte	0x7d
 5158 0620 00       		.sleb128 0
 5159 0621 11       		.uleb128 0x11
 5160 0622 01       		.uleb128 0x1
 5161 0623 51       		.byte	0x51
 5162 0624 01       		.uleb128 0x1
 5163 0625 32       		.byte	0x32
 5164 0626 00       		.byte	0
 5165 0627 10       		.uleb128 0x10
 5166 0628 20020000 		.4byte	.LVL69
 5167 062c DF180000 		.4byte	0x18df
 5168 0630 46060000 		.4byte	0x646
 5169 0634 11       		.uleb128 0x11
 5170 0635 01       		.uleb128 0x1
 5171 0636 50       		.byte	0x50
 5172 0637 02       		.uleb128 0x2
 5173 0638 74       		.byte	0x74
 5174 0639 00       		.sleb128 0
 5175 063a 11       		.uleb128 0x11
 5176 063b 01       		.uleb128 0x1
 5177 063c 51       		.byte	0x51
 5178 063d 02       		.uleb128 0x2
 5179 063e 7D       		.byte	0x7d
 5180 063f 00       		.sleb128 0
 5181 0640 11       		.uleb128 0x11
 5182 0641 01       		.uleb128 0x1
 5183 0642 52       		.byte	0x52
 5184 0643 01       		.uleb128 0x1
 5185 0644 35       		.byte	0x35
 5186 0645 00       		.byte	0
 5187 0646 12       		.uleb128 0x12
 5188 0647 2A020000 		.4byte	.LVL70
 5189 064b E8180000 		.4byte	0x18e8
 5190 064f 10       		.uleb128 0x10
 5191 0650 38020000 		.4byte	.LVL72
 5192 0654 9D180000 		.4byte	0x189d
 5193 0658 6F060000 		.4byte	0x66f
 5194 065c 11       		.uleb128 0x11
 5195 065d 01       		.uleb128 0x1
ARM GAS  C:\Users\Ala\AppData\Local\Temp\ccPRO05X.s 			page 134


 5196 065e 50       		.byte	0x50
 5197 065f 05       		.uleb128 0x5
 5198 0660 03       		.byte	0x3
 5199 0661 00000000 		.4byte	.LANCHOR0
 5200 0665 11       		.uleb128 0x11
 5201 0666 01       		.uleb128 0x1
 5202 0667 51       		.byte	0x51
 5203 0668 05       		.uleb128 0x5
 5204 0669 03       		.byte	0x3
 5205 066a C8000000 		.4byte	.LC19
 5206 066e 00       		.byte	0
 5207 066f 10       		.uleb128 0x10
 5208 0670 50020000 		.4byte	.LVL75
 5209 0674 9D180000 		.4byte	0x189d
 5210 0678 8F060000 		.4byte	0x68f
 5211 067c 11       		.uleb128 0x11
 5212 067d 01       		.uleb128 0x1
 5213 067e 50       		.byte	0x50
 5214 067f 05       		.uleb128 0x5
 5215 0680 03       		.byte	0x3
 5216 0681 00000000 		.4byte	.LANCHOR0
 5217 0685 11       		.uleb128 0x11
 5218 0686 01       		.uleb128 0x1
 5219 0687 51       		.byte	0x51
 5220 0688 05       		.uleb128 0x5
 5221 0689 03       		.byte	0x3
 5222 068a E1000000 		.4byte	.LC21
 5223 068e 00       		.byte	0
 5224 068f 12       		.uleb128 0x12
 5225 0690 5C020000 		.4byte	.LVL77
 5226 0694 F3180000 		.4byte	0x18f3
 5227 0698 10       		.uleb128 0x10
 5228 0699 68020000 		.4byte	.LVL79
 5229 069d 9D180000 		.4byte	0x189d
 5230 06a1 B8060000 		.4byte	0x6b8
 5231 06a5 11       		.uleb128 0x11
 5232 06a6 01       		.uleb128 0x1
 5233 06a7 50       		.byte	0x50
 5234 06a8 05       		.uleb128 0x5
 5235 06a9 03       		.byte	0x3
 5236 06aa 00000000 		.4byte	.LANCHOR0
 5237 06ae 11       		.uleb128 0x11
 5238 06af 01       		.uleb128 0x1
 5239 06b0 51       		.byte	0x51
 5240 06b1 05       		.uleb128 0x5
 5241 06b2 03       		.byte	0x3
 5242 06b3 FA000000 		.4byte	.LC23
 5243 06b7 00       		.byte	0
 5244 06b8 12       		.uleb128 0x12
 5245 06b9 74020000 		.4byte	.LVL81
 5246 06bd FE180000 		.4byte	0x18fe
 5247 06c1 10       		.uleb128 0x10
 5248 06c2 80020000 		.4byte	.LVL83
 5249 06c6 9D180000 		.4byte	0x189d
 5250 06ca E1060000 		.4byte	0x6e1
 5251 06ce 11       		.uleb128 0x11
 5252 06cf 01       		.uleb128 0x1
ARM GAS  C:\Users\Ala\AppData\Local\Temp\ccPRO05X.s 			page 135


 5253 06d0 50       		.byte	0x50
 5254 06d1 05       		.uleb128 0x5
 5255 06d2 03       		.byte	0x3
 5256 06d3 00000000 		.4byte	.LANCHOR0
 5257 06d7 11       		.uleb128 0x11
 5258 06d8 01       		.uleb128 0x1
 5259 06d9 51       		.byte	0x51
 5260 06da 05       		.uleb128 0x5
 5261 06db 03       		.byte	0x3
 5262 06dc 13010000 		.4byte	.LC25
 5263 06e0 00       		.byte	0
 5264 06e1 12       		.uleb128 0x12
 5265 06e2 8C020000 		.4byte	.LVL85
 5266 06e6 09190000 		.4byte	0x1909
 5267 06ea 10       		.uleb128 0x10
 5268 06eb 98020000 		.4byte	.LVL87
 5269 06ef 9D180000 		.4byte	0x189d
 5270 06f3 0A070000 		.4byte	0x70a
 5271 06f7 11       		.uleb128 0x11
 5272 06f8 01       		.uleb128 0x1
 5273 06f9 50       		.byte	0x50
 5274 06fa 05       		.uleb128 0x5
 5275 06fb 03       		.byte	0x3
 5276 06fc 00000000 		.4byte	.LANCHOR0
 5277 0700 11       		.uleb128 0x11
 5278 0701 01       		.uleb128 0x1
 5279 0702 51       		.byte	0x51
 5280 0703 05       		.uleb128 0x5
 5281 0704 03       		.byte	0x3
 5282 0705 2C010000 		.4byte	.LC27
 5283 0709 00       		.byte	0
 5284 070a 12       		.uleb128 0x12
 5285 070b AE020000 		.4byte	.LVL90
 5286 070f 14190000 		.4byte	0x1914
 5287 0713 10       		.uleb128 0x10
 5288 0714 C0020000 		.4byte	.LVL93
 5289 0718 B3180000 		.4byte	0x18b3
 5290 071c 26070000 		.4byte	0x726
 5291 0720 11       		.uleb128 0x11
 5292 0721 01       		.uleb128 0x1
 5293 0722 50       		.byte	0x50
 5294 0723 01       		.uleb128 0x1
 5295 0724 3A       		.byte	0x3a
 5296 0725 00       		.byte	0
 5297 0726 10       		.uleb128 0x10
 5298 0727 D4020000 		.4byte	.LVL96
 5299 072b 9D180000 		.4byte	0x189d
 5300 072f 46070000 		.4byte	0x746
 5301 0733 11       		.uleb128 0x11
 5302 0734 01       		.uleb128 0x1
 5303 0735 50       		.byte	0x50
 5304 0736 05       		.uleb128 0x5
 5305 0737 03       		.byte	0x3
 5306 0738 00000000 		.4byte	.LANCHOR0
 5307 073c 11       		.uleb128 0x11
 5308 073d 01       		.uleb128 0x1
 5309 073e 51       		.byte	0x51
ARM GAS  C:\Users\Ala\AppData\Local\Temp\ccPRO05X.s 			page 136


 5310 073f 05       		.uleb128 0x5
 5311 0740 03       		.byte	0x3
 5312 0741 45010000 		.4byte	.LC29
 5313 0745 00       		.byte	0
 5314 0746 10       		.uleb128 0x10
 5315 0747 E8020000 		.4byte	.LVL99
 5316 074b 9D180000 		.4byte	0x189d
 5317 074f 5D070000 		.4byte	0x75d
 5318 0753 11       		.uleb128 0x11
 5319 0754 01       		.uleb128 0x1
 5320 0755 51       		.byte	0x51
 5321 0756 05       		.uleb128 0x5
 5322 0757 03       		.byte	0x3
 5323 0758 5E010000 		.4byte	.LC31
 5324 075c 00       		.byte	0
 5325 075d 14       		.uleb128 0x14
 5326 075e F6020000 		.4byte	.LVL102
 5327 0762 9D180000 		.4byte	0x189d
 5328 0766 11       		.uleb128 0x11
 5329 0767 01       		.uleb128 0x1
 5330 0768 51       		.byte	0x51
 5331 0769 05       		.uleb128 0x5
 5332 076a 03       		.byte	0x3
 5333 076b 77010000 		.4byte	.LC33
 5334 076f 00       		.byte	0
 5335 0770 00       		.byte	0
 5336 0771 15       		.uleb128 0x15
 5337 0772 49030000 		.4byte	.LASF42
 5338 0776 01       		.byte	0x1
 5339 0777 30       		.byte	0x30
 5340 0778 6B000000 		.4byte	0x6b
 5341 077c 00000000 		.4byte	.LFB32
 5342 0780 0C010000 		.4byte	.LFE32-.LFB32
 5343 0784 01       		.uleb128 0x1
 5344 0785 9C       		.byte	0x9c
 5345 0786 1C080000 		.4byte	0x81c
 5346 078a 16       		.uleb128 0x16
 5347 078b 2C050000 		.4byte	.LASF41
 5348 078f 01       		.byte	0x1
 5349 0790 37       		.byte	0x37
 5350 0791 1C080000 		.4byte	0x81c
 5351 0795 02       		.uleb128 0x2
 5352 0796 91       		.byte	0x91
 5353 0797 64       		.sleb128 -28
 5354 0798 10       		.uleb128 0x10
 5355 0799 28000000 		.4byte	.LVL106
 5356 079d 1F190000 		.4byte	0x191f
 5357 07a1 B1070000 		.4byte	0x7b1
 5358 07a5 11       		.uleb128 0x11
 5359 07a6 01       		.uleb128 0x1
 5360 07a7 51       		.byte	0x51
 5361 07a8 02       		.uleb128 0x2
 5362 07a9 77       		.byte	0x77
 5363 07aa 00       		.sleb128 0
 5364 07ab 11       		.uleb128 0x11
 5365 07ac 01       		.uleb128 0x1
 5366 07ad 52       		.byte	0x52
ARM GAS  C:\Users\Ala\AppData\Local\Temp\ccPRO05X.s 			page 137


 5367 07ae 01       		.uleb128 0x1
 5368 07af 33       		.byte	0x33
 5369 07b0 00       		.byte	0
 5370 07b1 10       		.uleb128 0x10
 5371 07b2 6E000000 		.4byte	.LVL107
 5372 07b6 2B190000 		.4byte	0x192b
 5373 07ba D0070000 		.4byte	0x7d0
 5374 07be 11       		.uleb128 0x11
 5375 07bf 01       		.uleb128 0x1
 5376 07c0 50       		.byte	0x50
 5377 07c1 02       		.uleb128 0x2
 5378 07c2 75       		.byte	0x75
 5379 07c3 00       		.sleb128 0
 5380 07c4 11       		.uleb128 0x11
 5381 07c5 01       		.uleb128 0x1
 5382 07c6 51       		.byte	0x51
 5383 07c7 02       		.uleb128 0x2
 5384 07c8 91       		.byte	0x91
 5385 07c9 64       		.sleb128 -28
 5386 07ca 11       		.uleb128 0x11
 5387 07cb 01       		.uleb128 0x1
 5388 07cc 52       		.byte	0x52
 5389 07cd 01       		.uleb128 0x1
 5390 07ce 33       		.byte	0x33
 5391 07cf 00       		.byte	0
 5392 07d0 10       		.uleb128 0x10
 5393 07d1 9A000000 		.4byte	.LVL108
 5394 07d5 37190000 		.4byte	0x1937
 5395 07d9 E7070000 		.4byte	0x7e7
 5396 07dd 11       		.uleb128 0x11
 5397 07de 01       		.uleb128 0x1
 5398 07df 50       		.byte	0x50
 5399 07e0 05       		.uleb128 0x5
 5400 07e1 03       		.byte	0x3
 5401 07e2 90010000 		.4byte	.LC42
 5402 07e6 00       		.byte	0
 5403 07e7 10       		.uleb128 0x10
 5404 07e8 A0000000 		.4byte	.LVL109
 5405 07ec B3180000 		.4byte	0x18b3
 5406 07f0 FB070000 		.4byte	0x7fb
 5407 07f4 11       		.uleb128 0x11
 5408 07f5 01       		.uleb128 0x1
 5409 07f6 50       		.byte	0x50
 5410 07f7 02       		.uleb128 0x2
 5411 07f8 08       		.byte	0x8
 5412 07f9 64       		.byte	0x64
 5413 07fa 00       		.byte	0
 5414 07fb 10       		.uleb128 0x10
 5415 07fc A6000000 		.4byte	.LVL110
 5416 0800 37190000 		.4byte	0x1937
 5417 0804 12080000 		.4byte	0x812
 5418 0808 11       		.uleb128 0x11
 5419 0809 01       		.uleb128 0x1
 5420 080a 50       		.byte	0x50
 5421 080b 05       		.uleb128 0x5
 5422 080c 03       		.byte	0x3
 5423 080d 95010000 		.4byte	.LC44
ARM GAS  C:\Users\Ala\AppData\Local\Temp\ccPRO05X.s 			page 138


 5424 0811 00       		.byte	0
 5425 0812 12       		.uleb128 0x12
 5426 0813 B6000000 		.4byte	.LVL111
 5427 0817 70020000 		.4byte	0x270
 5428 081b 00       		.byte	0
 5429 081c 17       		.uleb128 0x17
 5430 081d 6B000000 		.4byte	0x6b
 5431 0821 2C080000 		.4byte	0x82c
 5432 0825 18       		.uleb128 0x18
 5433 0826 BC000000 		.4byte	0xbc
 5434 082a 02       		.byte	0x2
 5435 082b 00       		.byte	0
 5436 082c 19       		.uleb128 0x19
 5437 082d 75060000 		.4byte	.LASF43
 5438 0831 01       		.byte	0x1
 5439 0832 F502     		.2byte	0x2f5
 5440 0834 6B000000 		.4byte	0x6b
 5441 0838 00000000 		.4byte	.LFB35
 5442 083c 78090000 		.4byte	.LFE35-.LFB35
 5443 0840 01       		.uleb128 0x1
 5444 0841 9C       		.byte	0x9c
 5445 0842 F3080000 		.4byte	0x8f3
 5446 0846 13       		.uleb128 0x13
 5447 0847 07010000 		.4byte	.LASF44
 5448 084b 01       		.byte	0x1
 5449 084c F802     		.2byte	0x2f8
 5450 084e 6B000000 		.4byte	0x6b
 5451 0852 FB020000 		.4byte	.LLST7
 5452 0856 13       		.uleb128 0x13
 5453 0857 28000000 		.4byte	.LASF45
 5454 085b 01       		.byte	0x1
 5455 085c FA02     		.2byte	0x2fa
 5456 085e 91000000 		.4byte	0x91
 5457 0862 80030000 		.4byte	.LLST8
 5458 0866 13       		.uleb128 0x13
 5459 0867 78020000 		.4byte	.LASF46
 5460 086b 01       		.byte	0x1
 5461 086c FC02     		.2byte	0x2fc
 5462 086e 6B000000 		.4byte	0x6b
 5463 0872 E4030000 		.4byte	.LLST9
 5464 0876 1A       		.uleb128 0x1a
 5465 0877 03020000 		.4byte	.LASF47
 5466 087b 01       		.byte	0x1
 5467 087c FE02     		.2byte	0x2fe
 5468 087e F3080000 		.4byte	0x8f3
 5469 0882 03       		.uleb128 0x3
 5470 0883 91       		.byte	0x91
 5471 0884 E87E     		.sleb128 -152
 5472 0886 1A       		.uleb128 0x1a
 5473 0887 4D050000 		.4byte	.LASF48
 5474 088b 01       		.byte	0x1
 5475 088c 0003     		.2byte	0x300
 5476 088e F3080000 		.4byte	0x8f3
 5477 0892 03       		.uleb128 0x3
 5478 0893 91       		.byte	0x91
 5479 0894 A87F     		.sleb128 -88
 5480 0896 13       		.uleb128 0x13
ARM GAS  C:\Users\Ala\AppData\Local\Temp\ccPRO05X.s 			page 139


 5481 0897 8B010000 		.4byte	.LASF49
 5482 089b 01       		.byte	0x1
 5483 089c 0203     		.2byte	0x302
 5484 089e 91000000 		.4byte	0x91
 5485 08a2 11040000 		.4byte	.LLST10
 5486 08a6 13       		.uleb128 0x13
 5487 08a7 3B040000 		.4byte	.LASF50
 5488 08ab 01       		.byte	0x1
 5489 08ac 0403     		.2byte	0x304
 5490 08ae 6B000000 		.4byte	0x6b
 5491 08b2 95040000 		.4byte	.LLST11
 5492 08b6 10       		.uleb128 0x10
 5493 08b7 0E000000 		.4byte	.LVL113
 5494 08bb 43190000 		.4byte	0x1943
 5495 08bf D6080000 		.4byte	0x8d6
 5496 08c3 11       		.uleb128 0x11
 5497 08c4 01       		.uleb128 0x1
 5498 08c5 50       		.byte	0x50
 5499 08c6 03       		.uleb128 0x3
 5500 08c7 91       		.byte	0x91
 5501 08c8 E87E     		.sleb128 -152
 5502 08ca 11       		.uleb128 0x11
 5503 08cb 01       		.uleb128 0x1
 5504 08cc 51       		.byte	0x51
 5505 08cd 01       		.uleb128 0x1
 5506 08ce 30       		.byte	0x30
 5507 08cf 11       		.uleb128 0x11
 5508 08d0 01       		.uleb128 0x1
 5509 08d1 52       		.byte	0x52
 5510 08d2 02       		.uleb128 0x2
 5511 08d3 08       		.byte	0x8
 5512 08d4 40       		.byte	0x40
 5513 08d5 00       		.byte	0
 5514 08d6 14       		.uleb128 0x14
 5515 08d7 18000000 		.4byte	.LVL114
 5516 08db 43190000 		.4byte	0x1943
 5517 08df 11       		.uleb128 0x11
 5518 08e0 01       		.uleb128 0x1
 5519 08e1 50       		.byte	0x50
 5520 08e2 03       		.uleb128 0x3
 5521 08e3 91       		.byte	0x91
 5522 08e4 A87F     		.sleb128 -88
 5523 08e6 11       		.uleb128 0x11
 5524 08e7 01       		.uleb128 0x1
 5525 08e8 51       		.byte	0x51
 5526 08e9 01       		.uleb128 0x1
 5527 08ea 30       		.byte	0x30
 5528 08eb 11       		.uleb128 0x11
 5529 08ec 01       		.uleb128 0x1
 5530 08ed 52       		.byte	0x52
 5531 08ee 02       		.uleb128 0x2
 5532 08ef 08       		.byte	0x8
 5533 08f0 40       		.byte	0x40
 5534 08f1 00       		.byte	0
 5535 08f2 00       		.byte	0
 5536 08f3 17       		.uleb128 0x17
 5537 08f4 6B000000 		.4byte	0x6b
ARM GAS  C:\Users\Ala\AppData\Local\Temp\ccPRO05X.s 			page 140


 5538 08f8 03090000 		.4byte	0x903
 5539 08fc 18       		.uleb128 0x18
 5540 08fd BC000000 		.4byte	0xbc
 5541 0901 3F       		.byte	0x3f
 5542 0902 00       		.byte	0
 5543 0903 0E       		.uleb128 0xe
 5544 0904 F0030000 		.4byte	.LASF51
 5545 0908 01       		.byte	0x1
 5546 0909 B104     		.2byte	0x4b1
 5547 090b 6B000000 		.4byte	0x6b
 5548 090f 00000000 		.4byte	.LFB36
 5549 0913 40010000 		.4byte	.LFE36-.LFB36
 5550 0917 01       		.uleb128 0x1
 5551 0918 9C       		.byte	0x9c
 5552 0919 91090000 		.4byte	0x991
 5553 091d 0F       		.uleb128 0xf
 5554 091e DA000000 		.4byte	.LASF37
 5555 0922 01       		.byte	0x1
 5556 0923 B104     		.2byte	0x4b1
 5557 0925 6B000000 		.4byte	0x6b
 5558 0929 F2040000 		.4byte	.LLST12
 5559 092d 13       		.uleb128 0x13
 5560 092e 3B040000 		.4byte	.LASF50
 5561 0932 01       		.byte	0x1
 5562 0933 B404     		.2byte	0x4b4
 5563 0935 77000000 		.4byte	0x77
 5564 0939 2C050000 		.4byte	.LLST13
 5565 093d 13       		.uleb128 0x13
 5566 093e E7020000 		.4byte	.LASF52
 5567 0942 01       		.byte	0x1
 5568 0943 B604     		.2byte	0x4b6
 5569 0945 6B000000 		.4byte	0x6b
 5570 0949 78050000 		.4byte	.LLST14
 5571 094d 10       		.uleb128 0x10
 5572 094e 1C000000 		.4byte	.LVL140
 5573 0952 4C190000 		.4byte	0x194c
 5574 0956 60090000 		.4byte	0x960
 5575 095a 11       		.uleb128 0x11
 5576 095b 01       		.uleb128 0x1
 5577 095c 50       		.byte	0x50
 5578 095d 01       		.uleb128 0x1
 5579 095e 32       		.byte	0x32
 5580 095f 00       		.byte	0
 5581 0960 10       		.uleb128 0x10
 5582 0961 5A000000 		.4byte	.LVL142
 5583 0965 4C190000 		.4byte	0x194c
 5584 0969 73090000 		.4byte	0x973
 5585 096d 11       		.uleb128 0x11
 5586 096e 01       		.uleb128 0x1
 5587 096f 50       		.byte	0x50
 5588 0970 01       		.uleb128 0x1
 5589 0971 33       		.byte	0x33
 5590 0972 00       		.byte	0
 5591 0973 10       		.uleb128 0x10
 5592 0974 94000000 		.4byte	.LVL144
 5593 0978 4C190000 		.4byte	0x194c
 5594 097c 87090000 		.4byte	0x987
ARM GAS  C:\Users\Ala\AppData\Local\Temp\ccPRO05X.s 			page 141


 5595 0980 11       		.uleb128 0x11
 5596 0981 01       		.uleb128 0x1
 5597 0982 50       		.byte	0x50
 5598 0983 02       		.uleb128 0x2
 5599 0984 76       		.byte	0x76
 5600 0985 00       		.sleb128 0
 5601 0986 00       		.byte	0
 5602 0987 12       		.uleb128 0x12
 5603 0988 D0000000 		.4byte	.LVL146
 5604 098c 4C190000 		.4byte	0x194c
 5605 0990 00       		.byte	0
 5606 0991 1B       		.uleb128 0x1b
 5607 0992 95010000 		.4byte	0x195
 5608 0996 00000000 		.4byte	.LFB37
 5609 099a B8000000 		.4byte	.LFE37-.LFB37
 5610 099e 01       		.uleb128 0x1
 5611 099f 9C       		.byte	0x9c
 5612 09a0 750A0000 		.4byte	0xa75
 5613 09a4 1C       		.uleb128 0x1c
 5614 09a5 A6010000 		.4byte	0x1a6
 5615 09a9 C8050000 		.4byte	.LLST15
 5616 09ad 1D       		.uleb128 0x1d
 5617 09ae B2010000 		.4byte	0x1b2
 5618 09b2 00       		.byte	0
 5619 09b3 1E       		.uleb128 0x1e
 5620 09b4 10000000 		.4byte	.LBB4
 5621 09b8 8C000000 		.4byte	.LBE4-.LBB4
 5622 09bc 6B0A0000 		.4byte	0xa6b
 5623 09c0 1C       		.uleb128 0x1c
 5624 09c1 A6010000 		.4byte	0x1a6
 5625 09c5 E9050000 		.4byte	.LLST16
 5626 09c9 1F       		.uleb128 0x1f
 5627 09ca 10000000 		.4byte	.LBB5
 5628 09ce 8C000000 		.4byte	.LBE5-.LBB5
 5629 09d2 20       		.uleb128 0x20
 5630 09d3 B2010000 		.4byte	0x1b2
 5631 09d7 28060000 		.4byte	.LLST17
 5632 09db 10       		.uleb128 0x10
 5633 09dc 16000000 		.4byte	.LVL158
 5634 09e0 57190000 		.4byte	0x1957
 5635 09e4 EE090000 		.4byte	0x9ee
 5636 09e8 11       		.uleb128 0x11
 5637 09e9 01       		.uleb128 0x1
 5638 09ea 50       		.byte	0x50
 5639 09eb 01       		.uleb128 0x1
 5640 09ec 30       		.byte	0x30
 5641 09ed 00       		.byte	0
 5642 09ee 10       		.uleb128 0x10
 5643 09ef 1C000000 		.4byte	.LVL159
 5644 09f3 B3180000 		.4byte	0x18b3
 5645 09f7 010A0000 		.4byte	0xa01
 5646 09fb 11       		.uleb128 0x11
 5647 09fc 01       		.uleb128 0x1
 5648 09fd 50       		.byte	0x50
 5649 09fe 01       		.uleb128 0x1
 5650 09ff 31       		.byte	0x31
 5651 0a00 00       		.byte	0
ARM GAS  C:\Users\Ala\AppData\Local\Temp\ccPRO05X.s 			page 142


 5652 0a01 10       		.uleb128 0x10
 5653 0a02 22000000 		.4byte	.LVL160
 5654 0a06 62190000 		.4byte	0x1962
 5655 0a0a 160A0000 		.4byte	0xa16
 5656 0a0e 11       		.uleb128 0x11
 5657 0a0f 01       		.uleb128 0x1
 5658 0a10 50       		.byte	0x50
 5659 0a11 03       		.uleb128 0x3
 5660 0a12 0A       		.byte	0xa
 5661 0a13 3202     		.2byte	0x232
 5662 0a15 00       		.byte	0
 5663 0a16 10       		.uleb128 0x10
 5664 0a17 28000000 		.4byte	.LVL161
 5665 0a1b 57190000 		.4byte	0x1957
 5666 0a1f 290A0000 		.4byte	0xa29
 5667 0a23 11       		.uleb128 0x11
 5668 0a24 01       		.uleb128 0x1
 5669 0a25 50       		.byte	0x50
 5670 0a26 01       		.uleb128 0x1
 5671 0a27 31       		.byte	0x31
 5672 0a28 00       		.byte	0
 5673 0a29 10       		.uleb128 0x10
 5674 0a2a 2E000000 		.4byte	.LVL162
 5675 0a2e 62190000 		.4byte	0x1962
 5676 0a32 3C0A0000 		.4byte	0xa3c
 5677 0a36 11       		.uleb128 0x11
 5678 0a37 01       		.uleb128 0x1
 5679 0a38 50       		.byte	0x50
 5680 0a39 01       		.uleb128 0x1
 5681 0a3a 3A       		.byte	0x3a
 5682 0a3b 00       		.byte	0
 5683 0a3c 12       		.uleb128 0x12
 5684 0a3d 46000000 		.4byte	.LVL164
 5685 0a41 6D190000 		.4byte	0x196d
 5686 0a45 12       		.uleb128 0x12
 5687 0a46 5A000000 		.4byte	.LVL170
 5688 0a4a 6D190000 		.4byte	0x196d
 5689 0a4e 12       		.uleb128 0x12
 5690 0a4f 6C000000 		.4byte	.LVL175
 5691 0a53 6D190000 		.4byte	0x196d
 5692 0a57 12       		.uleb128 0x12
 5693 0a58 7E000000 		.4byte	.LVL180
 5694 0a5c 6D190000 		.4byte	0x196d
 5695 0a60 12       		.uleb128 0x12
 5696 0a61 90000000 		.4byte	.LVL185
 5697 0a65 6D190000 		.4byte	0x196d
 5698 0a69 00       		.byte	0
 5699 0a6a 00       		.byte	0
 5700 0a6b 12       		.uleb128 0x12
 5701 0a6c 08000000 		.4byte	.LVL156
 5702 0a70 6D190000 		.4byte	0x196d
 5703 0a74 00       		.byte	0
 5704 0a75 0E       		.uleb128 0xe
 5705 0a76 4B020000 		.4byte	.LASF53
 5706 0a7a 01       		.byte	0x1
 5707 0a7b DE05     		.2byte	0x5de
 5708 0a7d 6B000000 		.4byte	0x6b
ARM GAS  C:\Users\Ala\AppData\Local\Temp\ccPRO05X.s 			page 143


 5709 0a81 00000000 		.4byte	.LFB38
 5710 0a85 D2070000 		.4byte	.LFE38-.LFB38
 5711 0a89 01       		.uleb128 0x1
 5712 0a8a 9C       		.byte	0x9c
 5713 0a8b B1160000 		.4byte	0x16b1
 5714 0a8f 0F       		.uleb128 0xf
 5715 0a90 10060000 		.4byte	.LASF54
 5716 0a94 01       		.byte	0x1
 5717 0a95 DE05     		.2byte	0x5de
 5718 0a97 6B000000 		.4byte	0x6b
 5719 0a9b 2F070000 		.4byte	.LLST18
 5720 0a9f 12       		.uleb128 0x12
 5721 0aa0 2A000000 		.4byte	.LVL190
 5722 0aa4 78190000 		.4byte	0x1978
 5723 0aa8 10       		.uleb128 0x10
 5724 0aa9 30000000 		.4byte	.LVL191
 5725 0aad 95010000 		.4byte	0x195
 5726 0ab1 BB0A0000 		.4byte	0xabb
 5727 0ab5 11       		.uleb128 0x11
 5728 0ab6 01       		.uleb128 0x1
 5729 0ab7 50       		.byte	0x50
 5730 0ab8 01       		.uleb128 0x1
 5731 0ab9 31       		.byte	0x31
 5732 0aba 00       		.byte	0
 5733 0abb 10       		.uleb128 0x10
 5734 0abc 3E000000 		.4byte	.LVL192
 5735 0ac0 95010000 		.4byte	0x195
 5736 0ac4 CE0A0000 		.4byte	0xace
 5737 0ac8 11       		.uleb128 0x11
 5738 0ac9 01       		.uleb128 0x1
 5739 0aca 50       		.byte	0x50
 5740 0acb 01       		.uleb128 0x1
 5741 0acc 31       		.byte	0x31
 5742 0acd 00       		.byte	0
 5743 0ace 10       		.uleb128 0x10
 5744 0acf 48000000 		.4byte	.LVL193
 5745 0ad3 95010000 		.4byte	0x195
 5746 0ad7 E10A0000 		.4byte	0xae1
 5747 0adb 11       		.uleb128 0x11
 5748 0adc 01       		.uleb128 0x1
 5749 0add 50       		.byte	0x50
 5750 0ade 01       		.uleb128 0x1
 5751 0adf 35       		.byte	0x35
 5752 0ae0 00       		.byte	0
 5753 0ae1 10       		.uleb128 0x10
 5754 0ae2 52000000 		.4byte	.LVL194
 5755 0ae6 95010000 		.4byte	0x195
 5756 0aea F40A0000 		.4byte	0xaf4
 5757 0aee 11       		.uleb128 0x11
 5758 0aef 01       		.uleb128 0x1
 5759 0af0 50       		.byte	0x50
 5760 0af1 01       		.uleb128 0x1
 5761 0af2 31       		.byte	0x31
 5762 0af3 00       		.byte	0
 5763 0af4 10       		.uleb128 0x10
 5764 0af5 5C000000 		.4byte	.LVL195
 5765 0af9 95010000 		.4byte	0x195
ARM GAS  C:\Users\Ala\AppData\Local\Temp\ccPRO05X.s 			page 144


 5766 0afd 070B0000 		.4byte	0xb07
 5767 0b01 11       		.uleb128 0x11
 5768 0b02 01       		.uleb128 0x1
 5769 0b03 50       		.byte	0x50
 5770 0b04 01       		.uleb128 0x1
 5771 0b05 32       		.byte	0x32
 5772 0b06 00       		.byte	0
 5773 0b07 10       		.uleb128 0x10
 5774 0b08 66000000 		.4byte	.LVL196
 5775 0b0c 95010000 		.4byte	0x195
 5776 0b10 1A0B0000 		.4byte	0xb1a
 5777 0b14 11       		.uleb128 0x11
 5778 0b15 01       		.uleb128 0x1
 5779 0b16 50       		.byte	0x50
 5780 0b17 01       		.uleb128 0x1
 5781 0b18 32       		.byte	0x32
 5782 0b19 00       		.byte	0
 5783 0b1a 10       		.uleb128 0x10
 5784 0b1b 70000000 		.4byte	.LVL197
 5785 0b1f 95010000 		.4byte	0x195
 5786 0b23 2D0B0000 		.4byte	0xb2d
 5787 0b27 11       		.uleb128 0x11
 5788 0b28 01       		.uleb128 0x1
 5789 0b29 50       		.byte	0x50
 5790 0b2a 01       		.uleb128 0x1
 5791 0b2b 32       		.byte	0x32
 5792 0b2c 00       		.byte	0
 5793 0b2d 10       		.uleb128 0x10
 5794 0b2e 7A000000 		.4byte	.LVL198
 5795 0b32 95010000 		.4byte	0x195
 5796 0b36 400B0000 		.4byte	0xb40
 5797 0b3a 11       		.uleb128 0x11
 5798 0b3b 01       		.uleb128 0x1
 5799 0b3c 50       		.byte	0x50
 5800 0b3d 01       		.uleb128 0x1
 5801 0b3e 32       		.byte	0x32
 5802 0b3f 00       		.byte	0
 5803 0b40 10       		.uleb128 0x10
 5804 0b41 84000000 		.4byte	.LVL199
 5805 0b45 95010000 		.4byte	0x195
 5806 0b49 530B0000 		.4byte	0xb53
 5807 0b4d 11       		.uleb128 0x11
 5808 0b4e 01       		.uleb128 0x1
 5809 0b4f 50       		.byte	0x50
 5810 0b50 01       		.uleb128 0x1
 5811 0b51 32       		.byte	0x32
 5812 0b52 00       		.byte	0
 5813 0b53 10       		.uleb128 0x10
 5814 0b54 8E000000 		.4byte	.LVL200
 5815 0b58 95010000 		.4byte	0x195
 5816 0b5c 660B0000 		.4byte	0xb66
 5817 0b60 11       		.uleb128 0x11
 5818 0b61 01       		.uleb128 0x1
 5819 0b62 50       		.byte	0x50
 5820 0b63 01       		.uleb128 0x1
 5821 0b64 32       		.byte	0x32
 5822 0b65 00       		.byte	0
ARM GAS  C:\Users\Ala\AppData\Local\Temp\ccPRO05X.s 			page 145


 5823 0b66 10       		.uleb128 0x10
 5824 0b67 98000000 		.4byte	.LVL201
 5825 0b6b 95010000 		.4byte	0x195
 5826 0b6f 790B0000 		.4byte	0xb79
 5827 0b73 11       		.uleb128 0x11
 5828 0b74 01       		.uleb128 0x1
 5829 0b75 50       		.byte	0x50
 5830 0b76 01       		.uleb128 0x1
 5831 0b77 32       		.byte	0x32
 5832 0b78 00       		.byte	0
 5833 0b79 10       		.uleb128 0x10
 5834 0b7a A2000000 		.4byte	.LVL202
 5835 0b7e 95010000 		.4byte	0x195
 5836 0b82 8C0B0000 		.4byte	0xb8c
 5837 0b86 11       		.uleb128 0x11
 5838 0b87 01       		.uleb128 0x1
 5839 0b88 50       		.byte	0x50
 5840 0b89 01       		.uleb128 0x1
 5841 0b8a 33       		.byte	0x33
 5842 0b8b 00       		.byte	0
 5843 0b8c 10       		.uleb128 0x10
 5844 0b8d AC000000 		.4byte	.LVL203
 5845 0b91 95010000 		.4byte	0x195
 5846 0b95 9F0B0000 		.4byte	0xb9f
 5847 0b99 11       		.uleb128 0x11
 5848 0b9a 01       		.uleb128 0x1
 5849 0b9b 50       		.byte	0x50
 5850 0b9c 01       		.uleb128 0x1
 5851 0b9d 31       		.byte	0x31
 5852 0b9e 00       		.byte	0
 5853 0b9f 10       		.uleb128 0x10
 5854 0ba0 B6000000 		.4byte	.LVL204
 5855 0ba4 95010000 		.4byte	0x195
 5856 0ba8 B20B0000 		.4byte	0xbb2
 5857 0bac 11       		.uleb128 0x11
 5858 0bad 01       		.uleb128 0x1
 5859 0bae 50       		.byte	0x50
 5860 0baf 01       		.uleb128 0x1
 5861 0bb0 32       		.byte	0x32
 5862 0bb1 00       		.byte	0
 5863 0bb2 10       		.uleb128 0x10
 5864 0bb3 C0000000 		.4byte	.LVL205
 5865 0bb7 95010000 		.4byte	0x195
 5866 0bbb C50B0000 		.4byte	0xbc5
 5867 0bbf 11       		.uleb128 0x11
 5868 0bc0 01       		.uleb128 0x1
 5869 0bc1 50       		.byte	0x50
 5870 0bc2 01       		.uleb128 0x1
 5871 0bc3 32       		.byte	0x32
 5872 0bc4 00       		.byte	0
 5873 0bc5 10       		.uleb128 0x10
 5874 0bc6 CA000000 		.4byte	.LVL206
 5875 0bca 95010000 		.4byte	0x195
 5876 0bce D80B0000 		.4byte	0xbd8
 5877 0bd2 11       		.uleb128 0x11
 5878 0bd3 01       		.uleb128 0x1
 5879 0bd4 50       		.byte	0x50
ARM GAS  C:\Users\Ala\AppData\Local\Temp\ccPRO05X.s 			page 146


 5880 0bd5 01       		.uleb128 0x1
 5881 0bd6 32       		.byte	0x32
 5882 0bd7 00       		.byte	0
 5883 0bd8 10       		.uleb128 0x10
 5884 0bd9 D4000000 		.4byte	.LVL207
 5885 0bdd 95010000 		.4byte	0x195
 5886 0be1 EB0B0000 		.4byte	0xbeb
 5887 0be5 11       		.uleb128 0x11
 5888 0be6 01       		.uleb128 0x1
 5889 0be7 50       		.byte	0x50
 5890 0be8 01       		.uleb128 0x1
 5891 0be9 32       		.byte	0x32
 5892 0bea 00       		.byte	0
 5893 0beb 12       		.uleb128 0x12
 5894 0bec DE000000 		.4byte	.LVL208
 5895 0bf0 95010000 		.4byte	0x195
 5896 0bf4 12       		.uleb128 0x12
 5897 0bf5 E8000000 		.4byte	.LVL209
 5898 0bf9 95010000 		.4byte	0x195
 5899 0bfd 12       		.uleb128 0x12
 5900 0bfe F2000000 		.4byte	.LVL210
 5901 0c02 95010000 		.4byte	0x195
 5902 0c06 10       		.uleb128 0x10
 5903 0c07 FC000000 		.4byte	.LVL211
 5904 0c0b 95010000 		.4byte	0x195
 5905 0c0f 190C0000 		.4byte	0xc19
 5906 0c13 11       		.uleb128 0x11
 5907 0c14 01       		.uleb128 0x1
 5908 0c15 50       		.byte	0x50
 5909 0c16 01       		.uleb128 0x1
 5910 0c17 34       		.byte	0x34
 5911 0c18 00       		.byte	0
 5912 0c19 10       		.uleb128 0x10
 5913 0c1a 06010000 		.4byte	.LVL212
 5914 0c1e 95010000 		.4byte	0x195
 5915 0c22 2C0C0000 		.4byte	0xc2c
 5916 0c26 11       		.uleb128 0x11
 5917 0c27 01       		.uleb128 0x1
 5918 0c28 50       		.byte	0x50
 5919 0c29 01       		.uleb128 0x1
 5920 0c2a 31       		.byte	0x31
 5921 0c2b 00       		.byte	0
 5922 0c2c 12       		.uleb128 0x12
 5923 0c2d 0E010000 		.4byte	.LVL213
 5924 0c31 83190000 		.4byte	0x1983
 5925 0c35 12       		.uleb128 0x12
 5926 0c36 14010000 		.4byte	.LVL215
 5927 0c3a 78190000 		.4byte	0x1978
 5928 0c3e 10       		.uleb128 0x10
 5929 0c3f 1A010000 		.4byte	.LVL216
 5930 0c43 95010000 		.4byte	0x195
 5931 0c47 510C0000 		.4byte	0xc51
 5932 0c4b 11       		.uleb128 0x11
 5933 0c4c 01       		.uleb128 0x1
 5934 0c4d 50       		.byte	0x50
 5935 0c4e 01       		.uleb128 0x1
 5936 0c4f 31       		.byte	0x31
ARM GAS  C:\Users\Ala\AppData\Local\Temp\ccPRO05X.s 			page 147


 5937 0c50 00       		.byte	0
 5938 0c51 10       		.uleb128 0x10
 5939 0c52 24010000 		.4byte	.LVL217
 5940 0c56 95010000 		.4byte	0x195
 5941 0c5a 640C0000 		.4byte	0xc64
 5942 0c5e 11       		.uleb128 0x11
 5943 0c5f 01       		.uleb128 0x1
 5944 0c60 50       		.byte	0x50
 5945 0c61 01       		.uleb128 0x1
 5946 0c62 31       		.byte	0x31
 5947 0c63 00       		.byte	0
 5948 0c64 10       		.uleb128 0x10
 5949 0c65 2E010000 		.4byte	.LVL218
 5950 0c69 95010000 		.4byte	0x195
 5951 0c6d 770C0000 		.4byte	0xc77
 5952 0c71 11       		.uleb128 0x11
 5953 0c72 01       		.uleb128 0x1
 5954 0c73 50       		.byte	0x50
 5955 0c74 01       		.uleb128 0x1
 5956 0c75 35       		.byte	0x35
 5957 0c76 00       		.byte	0
 5958 0c77 10       		.uleb128 0x10
 5959 0c78 38010000 		.4byte	.LVL219
 5960 0c7c 95010000 		.4byte	0x195
 5961 0c80 8A0C0000 		.4byte	0xc8a
 5962 0c84 11       		.uleb128 0x11
 5963 0c85 01       		.uleb128 0x1
 5964 0c86 50       		.byte	0x50
 5965 0c87 01       		.uleb128 0x1
 5966 0c88 31       		.byte	0x31
 5967 0c89 00       		.byte	0
 5968 0c8a 10       		.uleb128 0x10
 5969 0c8b 44010000 		.4byte	.LVL220
 5970 0c8f 95010000 		.4byte	0x195
 5971 0c93 9D0C0000 		.4byte	0xc9d
 5972 0c97 11       		.uleb128 0x11
 5973 0c98 01       		.uleb128 0x1
 5974 0c99 50       		.byte	0x50
 5975 0c9a 01       		.uleb128 0x1
 5976 0c9b 32       		.byte	0x32
 5977 0c9c 00       		.byte	0
 5978 0c9d 10       		.uleb128 0x10
 5979 0c9e 50010000 		.4byte	.LVL221
 5980 0ca2 95010000 		.4byte	0x195
 5981 0ca6 B00C0000 		.4byte	0xcb0
 5982 0caa 11       		.uleb128 0x11
 5983 0cab 01       		.uleb128 0x1
 5984 0cac 50       		.byte	0x50
 5985 0cad 01       		.uleb128 0x1
 5986 0cae 32       		.byte	0x32
 5987 0caf 00       		.byte	0
 5988 0cb0 10       		.uleb128 0x10
 5989 0cb1 5C010000 		.4byte	.LVL222
 5990 0cb5 95010000 		.4byte	0x195
 5991 0cb9 C30C0000 		.4byte	0xcc3
 5992 0cbd 11       		.uleb128 0x11
 5993 0cbe 01       		.uleb128 0x1
ARM GAS  C:\Users\Ala\AppData\Local\Temp\ccPRO05X.s 			page 148


 5994 0cbf 50       		.byte	0x50
 5995 0cc0 01       		.uleb128 0x1
 5996 0cc1 32       		.byte	0x32
 5997 0cc2 00       		.byte	0
 5998 0cc3 10       		.uleb128 0x10
 5999 0cc4 68010000 		.4byte	.LVL223
 6000 0cc8 95010000 		.4byte	0x195
 6001 0ccc D60C0000 		.4byte	0xcd6
 6002 0cd0 11       		.uleb128 0x11
 6003 0cd1 01       		.uleb128 0x1
 6004 0cd2 50       		.byte	0x50
 6005 0cd3 01       		.uleb128 0x1
 6006 0cd4 32       		.byte	0x32
 6007 0cd5 00       		.byte	0
 6008 0cd6 10       		.uleb128 0x10
 6009 0cd7 74010000 		.4byte	.LVL224
 6010 0cdb 95010000 		.4byte	0x195
 6011 0cdf E90C0000 		.4byte	0xce9
 6012 0ce3 11       		.uleb128 0x11
 6013 0ce4 01       		.uleb128 0x1
 6014 0ce5 50       		.byte	0x50
 6015 0ce6 01       		.uleb128 0x1
 6016 0ce7 32       		.byte	0x32
 6017 0ce8 00       		.byte	0
 6018 0ce9 10       		.uleb128 0x10
 6019 0cea 80010000 		.4byte	.LVL225
 6020 0cee 95010000 		.4byte	0x195
 6021 0cf2 FC0C0000 		.4byte	0xcfc
 6022 0cf6 11       		.uleb128 0x11
 6023 0cf7 01       		.uleb128 0x1
 6024 0cf8 50       		.byte	0x50
 6025 0cf9 01       		.uleb128 0x1
 6026 0cfa 32       		.byte	0x32
 6027 0cfb 00       		.byte	0
 6028 0cfc 10       		.uleb128 0x10
 6029 0cfd 8C010000 		.4byte	.LVL226
 6030 0d01 95010000 		.4byte	0x195
 6031 0d05 0F0D0000 		.4byte	0xd0f
 6032 0d09 11       		.uleb128 0x11
 6033 0d0a 01       		.uleb128 0x1
 6034 0d0b 50       		.byte	0x50
 6035 0d0c 01       		.uleb128 0x1
 6036 0d0d 32       		.byte	0x32
 6037 0d0e 00       		.byte	0
 6038 0d0f 10       		.uleb128 0x10
 6039 0d10 98010000 		.4byte	.LVL227
 6040 0d14 95010000 		.4byte	0x195
 6041 0d18 220D0000 		.4byte	0xd22
 6042 0d1c 11       		.uleb128 0x11
 6043 0d1d 01       		.uleb128 0x1
 6044 0d1e 50       		.byte	0x50
 6045 0d1f 01       		.uleb128 0x1
 6046 0d20 33       		.byte	0x33
 6047 0d21 00       		.byte	0
 6048 0d22 10       		.uleb128 0x10
 6049 0d23 A4010000 		.4byte	.LVL228
 6050 0d27 95010000 		.4byte	0x195
ARM GAS  C:\Users\Ala\AppData\Local\Temp\ccPRO05X.s 			page 149


 6051 0d2b 350D0000 		.4byte	0xd35
 6052 0d2f 11       		.uleb128 0x11
 6053 0d30 01       		.uleb128 0x1
 6054 0d31 50       		.byte	0x50
 6055 0d32 01       		.uleb128 0x1
 6056 0d33 31       		.byte	0x31
 6057 0d34 00       		.byte	0
 6058 0d35 10       		.uleb128 0x10
 6059 0d36 B0010000 		.4byte	.LVL229
 6060 0d3a 95010000 		.4byte	0x195
 6061 0d3e 480D0000 		.4byte	0xd48
 6062 0d42 11       		.uleb128 0x11
 6063 0d43 01       		.uleb128 0x1
 6064 0d44 50       		.byte	0x50
 6065 0d45 01       		.uleb128 0x1
 6066 0d46 32       		.byte	0x32
 6067 0d47 00       		.byte	0
 6068 0d48 10       		.uleb128 0x10
 6069 0d49 BC010000 		.4byte	.LVL230
 6070 0d4d 95010000 		.4byte	0x195
 6071 0d51 5B0D0000 		.4byte	0xd5b
 6072 0d55 11       		.uleb128 0x11
 6073 0d56 01       		.uleb128 0x1
 6074 0d57 50       		.byte	0x50
 6075 0d58 01       		.uleb128 0x1
 6076 0d59 32       		.byte	0x32
 6077 0d5a 00       		.byte	0
 6078 0d5b 10       		.uleb128 0x10
 6079 0d5c C8010000 		.4byte	.LVL231
 6080 0d60 95010000 		.4byte	0x195
 6081 0d64 6E0D0000 		.4byte	0xd6e
 6082 0d68 11       		.uleb128 0x11
 6083 0d69 01       		.uleb128 0x1
 6084 0d6a 50       		.byte	0x50
 6085 0d6b 01       		.uleb128 0x1
 6086 0d6c 32       		.byte	0x32
 6087 0d6d 00       		.byte	0
 6088 0d6e 10       		.uleb128 0x10
 6089 0d6f D4010000 		.4byte	.LVL232
 6090 0d73 95010000 		.4byte	0x195
 6091 0d77 810D0000 		.4byte	0xd81
 6092 0d7b 11       		.uleb128 0x11
 6093 0d7c 01       		.uleb128 0x1
 6094 0d7d 50       		.byte	0x50
 6095 0d7e 01       		.uleb128 0x1
 6096 0d7f 32       		.byte	0x32
 6097 0d80 00       		.byte	0
 6098 0d81 10       		.uleb128 0x10
 6099 0d82 E0010000 		.4byte	.LVL233
 6100 0d86 95010000 		.4byte	0x195
 6101 0d8a 940D0000 		.4byte	0xd94
 6102 0d8e 11       		.uleb128 0x11
 6103 0d8f 01       		.uleb128 0x1
 6104 0d90 50       		.byte	0x50
 6105 0d91 01       		.uleb128 0x1
 6106 0d92 32       		.byte	0x32
 6107 0d93 00       		.byte	0
ARM GAS  C:\Users\Ala\AppData\Local\Temp\ccPRO05X.s 			page 150


 6108 0d94 12       		.uleb128 0x12
 6109 0d95 EE010000 		.4byte	.LVL235
 6110 0d99 78190000 		.4byte	0x1978
 6111 0d9d 10       		.uleb128 0x10
 6112 0d9e F4010000 		.4byte	.LVL236
 6113 0da2 95010000 		.4byte	0x195
 6114 0da6 B00D0000 		.4byte	0xdb0
 6115 0daa 11       		.uleb128 0x11
 6116 0dab 01       		.uleb128 0x1
 6117 0dac 50       		.byte	0x50
 6118 0dad 01       		.uleb128 0x1
 6119 0dae 31       		.byte	0x31
 6120 0daf 00       		.byte	0
 6121 0db0 10       		.uleb128 0x10
 6122 0db1 00020000 		.4byte	.LVL237
 6123 0db5 95010000 		.4byte	0x195
 6124 0db9 C30D0000 		.4byte	0xdc3
 6125 0dbd 11       		.uleb128 0x11
 6126 0dbe 01       		.uleb128 0x1
 6127 0dbf 50       		.byte	0x50
 6128 0dc0 01       		.uleb128 0x1
 6129 0dc1 31       		.byte	0x31
 6130 0dc2 00       		.byte	0
 6131 0dc3 10       		.uleb128 0x10
 6132 0dc4 0C020000 		.4byte	.LVL238
 6133 0dc8 95010000 		.4byte	0x195
 6134 0dcc D60D0000 		.4byte	0xdd6
 6135 0dd0 11       		.uleb128 0x11
 6136 0dd1 01       		.uleb128 0x1
 6137 0dd2 50       		.byte	0x50
 6138 0dd3 01       		.uleb128 0x1
 6139 0dd4 35       		.byte	0x35
 6140 0dd5 00       		.byte	0
 6141 0dd6 10       		.uleb128 0x10
 6142 0dd7 18020000 		.4byte	.LVL239
 6143 0ddb 95010000 		.4byte	0x195
 6144 0ddf E90D0000 		.4byte	0xde9
 6145 0de3 11       		.uleb128 0x11
 6146 0de4 01       		.uleb128 0x1
 6147 0de5 50       		.byte	0x50
 6148 0de6 01       		.uleb128 0x1
 6149 0de7 31       		.byte	0x31
 6150 0de8 00       		.byte	0
 6151 0de9 10       		.uleb128 0x10
 6152 0dea 24020000 		.4byte	.LVL240
 6153 0dee 95010000 		.4byte	0x195
 6154 0df2 FC0D0000 		.4byte	0xdfc
 6155 0df6 11       		.uleb128 0x11
 6156 0df7 01       		.uleb128 0x1
 6157 0df8 50       		.byte	0x50
 6158 0df9 01       		.uleb128 0x1
 6159 0dfa 32       		.byte	0x32
 6160 0dfb 00       		.byte	0
 6161 0dfc 10       		.uleb128 0x10
 6162 0dfd 30020000 		.4byte	.LVL241
 6163 0e01 95010000 		.4byte	0x195
 6164 0e05 0F0E0000 		.4byte	0xe0f
ARM GAS  C:\Users\Ala\AppData\Local\Temp\ccPRO05X.s 			page 151


 6165 0e09 11       		.uleb128 0x11
 6166 0e0a 01       		.uleb128 0x1
 6167 0e0b 50       		.byte	0x50
 6168 0e0c 01       		.uleb128 0x1
 6169 0e0d 32       		.byte	0x32
 6170 0e0e 00       		.byte	0
 6171 0e0f 10       		.uleb128 0x10
 6172 0e10 3C020000 		.4byte	.LVL242
 6173 0e14 95010000 		.4byte	0x195
 6174 0e18 220E0000 		.4byte	0xe22
 6175 0e1c 11       		.uleb128 0x11
 6176 0e1d 01       		.uleb128 0x1
 6177 0e1e 50       		.byte	0x50
 6178 0e1f 01       		.uleb128 0x1
 6179 0e20 32       		.byte	0x32
 6180 0e21 00       		.byte	0
 6181 0e22 10       		.uleb128 0x10
 6182 0e23 48020000 		.4byte	.LVL243
 6183 0e27 95010000 		.4byte	0x195
 6184 0e2b 350E0000 		.4byte	0xe35
 6185 0e2f 11       		.uleb128 0x11
 6186 0e30 01       		.uleb128 0x1
 6187 0e31 50       		.byte	0x50
 6188 0e32 01       		.uleb128 0x1
 6189 0e33 32       		.byte	0x32
 6190 0e34 00       		.byte	0
 6191 0e35 10       		.uleb128 0x10
 6192 0e36 54020000 		.4byte	.LVL244
 6193 0e3a 95010000 		.4byte	0x195
 6194 0e3e 480E0000 		.4byte	0xe48
 6195 0e42 11       		.uleb128 0x11
 6196 0e43 01       		.uleb128 0x1
 6197 0e44 50       		.byte	0x50
 6198 0e45 01       		.uleb128 0x1
 6199 0e46 32       		.byte	0x32
 6200 0e47 00       		.byte	0
 6201 0e48 10       		.uleb128 0x10
 6202 0e49 60020000 		.4byte	.LVL245
 6203 0e4d 95010000 		.4byte	0x195
 6204 0e51 5B0E0000 		.4byte	0xe5b
 6205 0e55 11       		.uleb128 0x11
 6206 0e56 01       		.uleb128 0x1
 6207 0e57 50       		.byte	0x50
 6208 0e58 01       		.uleb128 0x1
 6209 0e59 32       		.byte	0x32
 6210 0e5a 00       		.byte	0
 6211 0e5b 10       		.uleb128 0x10
 6212 0e5c 6C020000 		.4byte	.LVL246
 6213 0e60 95010000 		.4byte	0x195
 6214 0e64 6E0E0000 		.4byte	0xe6e
 6215 0e68 11       		.uleb128 0x11
 6216 0e69 01       		.uleb128 0x1
 6217 0e6a 50       		.byte	0x50
 6218 0e6b 01       		.uleb128 0x1
 6219 0e6c 32       		.byte	0x32
 6220 0e6d 00       		.byte	0
 6221 0e6e 10       		.uleb128 0x10
ARM GAS  C:\Users\Ala\AppData\Local\Temp\ccPRO05X.s 			page 152


 6222 0e6f 78020000 		.4byte	.LVL247
 6223 0e73 95010000 		.4byte	0x195
 6224 0e77 810E0000 		.4byte	0xe81
 6225 0e7b 11       		.uleb128 0x11
 6226 0e7c 01       		.uleb128 0x1
 6227 0e7d 50       		.byte	0x50
 6228 0e7e 01       		.uleb128 0x1
 6229 0e7f 33       		.byte	0x33
 6230 0e80 00       		.byte	0
 6231 0e81 10       		.uleb128 0x10
 6232 0e82 84020000 		.4byte	.LVL248
 6233 0e86 95010000 		.4byte	0x195
 6234 0e8a 940E0000 		.4byte	0xe94
 6235 0e8e 11       		.uleb128 0x11
 6236 0e8f 01       		.uleb128 0x1
 6237 0e90 50       		.byte	0x50
 6238 0e91 01       		.uleb128 0x1
 6239 0e92 31       		.byte	0x31
 6240 0e93 00       		.byte	0
 6241 0e94 10       		.uleb128 0x10
 6242 0e95 90020000 		.4byte	.LVL249
 6243 0e99 95010000 		.4byte	0x195
 6244 0e9d A70E0000 		.4byte	0xea7
 6245 0ea1 11       		.uleb128 0x11
 6246 0ea2 01       		.uleb128 0x1
 6247 0ea3 50       		.byte	0x50
 6248 0ea4 01       		.uleb128 0x1
 6249 0ea5 32       		.byte	0x32
 6250 0ea6 00       		.byte	0
 6251 0ea7 10       		.uleb128 0x10
 6252 0ea8 9C020000 		.4byte	.LVL250
 6253 0eac 95010000 		.4byte	0x195
 6254 0eb0 BA0E0000 		.4byte	0xeba
 6255 0eb4 11       		.uleb128 0x11
 6256 0eb5 01       		.uleb128 0x1
 6257 0eb6 50       		.byte	0x50
 6258 0eb7 01       		.uleb128 0x1
 6259 0eb8 32       		.byte	0x32
 6260 0eb9 00       		.byte	0
 6261 0eba 10       		.uleb128 0x10
 6262 0ebb A8020000 		.4byte	.LVL251
 6263 0ebf 95010000 		.4byte	0x195
 6264 0ec3 CD0E0000 		.4byte	0xecd
 6265 0ec7 11       		.uleb128 0x11
 6266 0ec8 01       		.uleb128 0x1
 6267 0ec9 50       		.byte	0x50
 6268 0eca 01       		.uleb128 0x1
 6269 0ecb 32       		.byte	0x32
 6270 0ecc 00       		.byte	0
 6271 0ecd 10       		.uleb128 0x10
 6272 0ece B4020000 		.4byte	.LVL252
 6273 0ed2 95010000 		.4byte	0x195
 6274 0ed6 E00E0000 		.4byte	0xee0
 6275 0eda 11       		.uleb128 0x11
 6276 0edb 01       		.uleb128 0x1
 6277 0edc 50       		.byte	0x50
 6278 0edd 01       		.uleb128 0x1
ARM GAS  C:\Users\Ala\AppData\Local\Temp\ccPRO05X.s 			page 153


 6279 0ede 32       		.byte	0x32
 6280 0edf 00       		.byte	0
 6281 0ee0 10       		.uleb128 0x10
 6282 0ee1 C0020000 		.4byte	.LVL253
 6283 0ee5 95010000 		.4byte	0x195
 6284 0ee9 F30E0000 		.4byte	0xef3
 6285 0eed 11       		.uleb128 0x11
 6286 0eee 01       		.uleb128 0x1
 6287 0eef 50       		.byte	0x50
 6288 0ef0 01       		.uleb128 0x1
 6289 0ef1 32       		.byte	0x32
 6290 0ef2 00       		.byte	0
 6291 0ef3 10       		.uleb128 0x10
 6292 0ef4 CC020000 		.4byte	.LVL254
 6293 0ef8 95010000 		.4byte	0x195
 6294 0efc 060F0000 		.4byte	0xf06
 6295 0f00 11       		.uleb128 0x11
 6296 0f01 01       		.uleb128 0x1
 6297 0f02 50       		.byte	0x50
 6298 0f03 01       		.uleb128 0x1
 6299 0f04 33       		.byte	0x33
 6300 0f05 00       		.byte	0
 6301 0f06 12       		.uleb128 0x12
 6302 0f07 DA020000 		.4byte	.LVL256
 6303 0f0b 78190000 		.4byte	0x1978
 6304 0f0f 10       		.uleb128 0x10
 6305 0f10 E0020000 		.4byte	.LVL257
 6306 0f14 95010000 		.4byte	0x195
 6307 0f18 220F0000 		.4byte	0xf22
 6308 0f1c 11       		.uleb128 0x11
 6309 0f1d 01       		.uleb128 0x1
 6310 0f1e 50       		.byte	0x50
 6311 0f1f 01       		.uleb128 0x1
 6312 0f20 31       		.byte	0x31
 6313 0f21 00       		.byte	0
 6314 0f22 10       		.uleb128 0x10
 6315 0f23 EC020000 		.4byte	.LVL258
 6316 0f27 95010000 		.4byte	0x195
 6317 0f2b 350F0000 		.4byte	0xf35
 6318 0f2f 11       		.uleb128 0x11
 6319 0f30 01       		.uleb128 0x1
 6320 0f31 50       		.byte	0x50
 6321 0f32 01       		.uleb128 0x1
 6322 0f33 31       		.byte	0x31
 6323 0f34 00       		.byte	0
 6324 0f35 10       		.uleb128 0x10
 6325 0f36 F8020000 		.4byte	.LVL259
 6326 0f3a 95010000 		.4byte	0x195
 6327 0f3e 480F0000 		.4byte	0xf48
 6328 0f42 11       		.uleb128 0x11
 6329 0f43 01       		.uleb128 0x1
 6330 0f44 50       		.byte	0x50
 6331 0f45 01       		.uleb128 0x1
 6332 0f46 35       		.byte	0x35
 6333 0f47 00       		.byte	0
 6334 0f48 10       		.uleb128 0x10
 6335 0f49 04030000 		.4byte	.LVL260
ARM GAS  C:\Users\Ala\AppData\Local\Temp\ccPRO05X.s 			page 154


 6336 0f4d 95010000 		.4byte	0x195
 6337 0f51 5B0F0000 		.4byte	0xf5b
 6338 0f55 11       		.uleb128 0x11
 6339 0f56 01       		.uleb128 0x1
 6340 0f57 50       		.byte	0x50
 6341 0f58 01       		.uleb128 0x1
 6342 0f59 31       		.byte	0x31
 6343 0f5a 00       		.byte	0
 6344 0f5b 10       		.uleb128 0x10
 6345 0f5c 10030000 		.4byte	.LVL261
 6346 0f60 95010000 		.4byte	0x195
 6347 0f64 6E0F0000 		.4byte	0xf6e
 6348 0f68 11       		.uleb128 0x11
 6349 0f69 01       		.uleb128 0x1
 6350 0f6a 50       		.byte	0x50
 6351 0f6b 01       		.uleb128 0x1
 6352 0f6c 32       		.byte	0x32
 6353 0f6d 00       		.byte	0
 6354 0f6e 10       		.uleb128 0x10
 6355 0f6f 1C030000 		.4byte	.LVL262
 6356 0f73 95010000 		.4byte	0x195
 6357 0f77 810F0000 		.4byte	0xf81
 6358 0f7b 11       		.uleb128 0x11
 6359 0f7c 01       		.uleb128 0x1
 6360 0f7d 50       		.byte	0x50
 6361 0f7e 01       		.uleb128 0x1
 6362 0f7f 32       		.byte	0x32
 6363 0f80 00       		.byte	0
 6364 0f81 10       		.uleb128 0x10
 6365 0f82 28030000 		.4byte	.LVL263
 6366 0f86 95010000 		.4byte	0x195
 6367 0f8a 940F0000 		.4byte	0xf94
 6368 0f8e 11       		.uleb128 0x11
 6369 0f8f 01       		.uleb128 0x1
 6370 0f90 50       		.byte	0x50
 6371 0f91 01       		.uleb128 0x1
 6372 0f92 32       		.byte	0x32
 6373 0f93 00       		.byte	0
 6374 0f94 10       		.uleb128 0x10
 6375 0f95 34030000 		.4byte	.LVL264
 6376 0f99 95010000 		.4byte	0x195
 6377 0f9d A70F0000 		.4byte	0xfa7
 6378 0fa1 11       		.uleb128 0x11
 6379 0fa2 01       		.uleb128 0x1
 6380 0fa3 50       		.byte	0x50
 6381 0fa4 01       		.uleb128 0x1
 6382 0fa5 32       		.byte	0x32
 6383 0fa6 00       		.byte	0
 6384 0fa7 10       		.uleb128 0x10
 6385 0fa8 40030000 		.4byte	.LVL265
 6386 0fac 95010000 		.4byte	0x195
 6387 0fb0 BA0F0000 		.4byte	0xfba
 6388 0fb4 11       		.uleb128 0x11
 6389 0fb5 01       		.uleb128 0x1
 6390 0fb6 50       		.byte	0x50
 6391 0fb7 01       		.uleb128 0x1
 6392 0fb8 32       		.byte	0x32
ARM GAS  C:\Users\Ala\AppData\Local\Temp\ccPRO05X.s 			page 155


 6393 0fb9 00       		.byte	0
 6394 0fba 10       		.uleb128 0x10
 6395 0fbb 4C030000 		.4byte	.LVL266
 6396 0fbf 95010000 		.4byte	0x195
 6397 0fc3 CD0F0000 		.4byte	0xfcd
 6398 0fc7 11       		.uleb128 0x11
 6399 0fc8 01       		.uleb128 0x1
 6400 0fc9 50       		.byte	0x50
 6401 0fca 01       		.uleb128 0x1
 6402 0fcb 32       		.byte	0x32
 6403 0fcc 00       		.byte	0
 6404 0fcd 10       		.uleb128 0x10
 6405 0fce 58030000 		.4byte	.LVL267
 6406 0fd2 95010000 		.4byte	0x195
 6407 0fd6 E00F0000 		.4byte	0xfe0
 6408 0fda 11       		.uleb128 0x11
 6409 0fdb 01       		.uleb128 0x1
 6410 0fdc 50       		.byte	0x50
 6411 0fdd 01       		.uleb128 0x1
 6412 0fde 32       		.byte	0x32
 6413 0fdf 00       		.byte	0
 6414 0fe0 10       		.uleb128 0x10
 6415 0fe1 64030000 		.4byte	.LVL268
 6416 0fe5 95010000 		.4byte	0x195
 6417 0fe9 F30F0000 		.4byte	0xff3
 6418 0fed 11       		.uleb128 0x11
 6419 0fee 01       		.uleb128 0x1
 6420 0fef 50       		.byte	0x50
 6421 0ff0 01       		.uleb128 0x1
 6422 0ff1 33       		.byte	0x33
 6423 0ff2 00       		.byte	0
 6424 0ff3 10       		.uleb128 0x10
 6425 0ff4 70030000 		.4byte	.LVL269
 6426 0ff8 95010000 		.4byte	0x195
 6427 0ffc 06100000 		.4byte	0x1006
 6428 1000 11       		.uleb128 0x11
 6429 1001 01       		.uleb128 0x1
 6430 1002 50       		.byte	0x50
 6431 1003 01       		.uleb128 0x1
 6432 1004 31       		.byte	0x31
 6433 1005 00       		.byte	0
 6434 1006 12       		.uleb128 0x12
 6435 1007 7E030000 		.4byte	.LVL271
 6436 100b 78190000 		.4byte	0x1978
 6437 100f 10       		.uleb128 0x10
 6438 1010 84030000 		.4byte	.LVL272
 6439 1014 95010000 		.4byte	0x195
 6440 1018 22100000 		.4byte	0x1022
 6441 101c 11       		.uleb128 0x11
 6442 101d 01       		.uleb128 0x1
 6443 101e 50       		.byte	0x50
 6444 101f 01       		.uleb128 0x1
 6445 1020 31       		.byte	0x31
 6446 1021 00       		.byte	0
 6447 1022 10       		.uleb128 0x10
 6448 1023 90030000 		.4byte	.LVL273
 6449 1027 95010000 		.4byte	0x195
ARM GAS  C:\Users\Ala\AppData\Local\Temp\ccPRO05X.s 			page 156


 6450 102b 35100000 		.4byte	0x1035
 6451 102f 11       		.uleb128 0x11
 6452 1030 01       		.uleb128 0x1
 6453 1031 50       		.byte	0x50
 6454 1032 01       		.uleb128 0x1
 6455 1033 31       		.byte	0x31
 6456 1034 00       		.byte	0
 6457 1035 10       		.uleb128 0x10
 6458 1036 9C030000 		.4byte	.LVL274
 6459 103a 95010000 		.4byte	0x195
 6460 103e 48100000 		.4byte	0x1048
 6461 1042 11       		.uleb128 0x11
 6462 1043 01       		.uleb128 0x1
 6463 1044 50       		.byte	0x50
 6464 1045 01       		.uleb128 0x1
 6465 1046 35       		.byte	0x35
 6466 1047 00       		.byte	0
 6467 1048 10       		.uleb128 0x10
 6468 1049 A8030000 		.4byte	.LVL275
 6469 104d 95010000 		.4byte	0x195
 6470 1051 5B100000 		.4byte	0x105b
 6471 1055 11       		.uleb128 0x11
 6472 1056 01       		.uleb128 0x1
 6473 1057 50       		.byte	0x50
 6474 1058 01       		.uleb128 0x1
 6475 1059 31       		.byte	0x31
 6476 105a 00       		.byte	0
 6477 105b 10       		.uleb128 0x10
 6478 105c B4030000 		.4byte	.LVL276
 6479 1060 95010000 		.4byte	0x195
 6480 1064 6E100000 		.4byte	0x106e
 6481 1068 11       		.uleb128 0x11
 6482 1069 01       		.uleb128 0x1
 6483 106a 50       		.byte	0x50
 6484 106b 01       		.uleb128 0x1
 6485 106c 32       		.byte	0x32
 6486 106d 00       		.byte	0
 6487 106e 10       		.uleb128 0x10
 6488 106f C0030000 		.4byte	.LVL277
 6489 1073 95010000 		.4byte	0x195
 6490 1077 81100000 		.4byte	0x1081
 6491 107b 11       		.uleb128 0x11
 6492 107c 01       		.uleb128 0x1
 6493 107d 50       		.byte	0x50
 6494 107e 01       		.uleb128 0x1
 6495 107f 32       		.byte	0x32
 6496 1080 00       		.byte	0
 6497 1081 10       		.uleb128 0x10
 6498 1082 CC030000 		.4byte	.LVL278
 6499 1086 95010000 		.4byte	0x195
 6500 108a 94100000 		.4byte	0x1094
 6501 108e 11       		.uleb128 0x11
 6502 108f 01       		.uleb128 0x1
 6503 1090 50       		.byte	0x50
 6504 1091 01       		.uleb128 0x1
 6505 1092 32       		.byte	0x32
 6506 1093 00       		.byte	0
ARM GAS  C:\Users\Ala\AppData\Local\Temp\ccPRO05X.s 			page 157


 6507 1094 10       		.uleb128 0x10
 6508 1095 D8030000 		.4byte	.LVL279
 6509 1099 95010000 		.4byte	0x195
 6510 109d A7100000 		.4byte	0x10a7
 6511 10a1 11       		.uleb128 0x11
 6512 10a2 01       		.uleb128 0x1
 6513 10a3 50       		.byte	0x50
 6514 10a4 01       		.uleb128 0x1
 6515 10a5 32       		.byte	0x32
 6516 10a6 00       		.byte	0
 6517 10a7 10       		.uleb128 0x10
 6518 10a8 E4030000 		.4byte	.LVL280
 6519 10ac 95010000 		.4byte	0x195
 6520 10b0 BA100000 		.4byte	0x10ba
 6521 10b4 11       		.uleb128 0x11
 6522 10b5 01       		.uleb128 0x1
 6523 10b6 50       		.byte	0x50
 6524 10b7 01       		.uleb128 0x1
 6525 10b8 32       		.byte	0x32
 6526 10b9 00       		.byte	0
 6527 10ba 10       		.uleb128 0x10
 6528 10bb F0030000 		.4byte	.LVL281
 6529 10bf 95010000 		.4byte	0x195
 6530 10c3 CD100000 		.4byte	0x10cd
 6531 10c7 11       		.uleb128 0x11
 6532 10c8 01       		.uleb128 0x1
 6533 10c9 50       		.byte	0x50
 6534 10ca 01       		.uleb128 0x1
 6535 10cb 32       		.byte	0x32
 6536 10cc 00       		.byte	0
 6537 10cd 10       		.uleb128 0x10
 6538 10ce FC030000 		.4byte	.LVL282
 6539 10d2 95010000 		.4byte	0x195
 6540 10d6 E0100000 		.4byte	0x10e0
 6541 10da 11       		.uleb128 0x11
 6542 10db 01       		.uleb128 0x1
 6543 10dc 50       		.byte	0x50
 6544 10dd 01       		.uleb128 0x1
 6545 10de 32       		.byte	0x32
 6546 10df 00       		.byte	0
 6547 10e0 10       		.uleb128 0x10
 6548 10e1 08040000 		.4byte	.LVL283
 6549 10e5 95010000 		.4byte	0x195
 6550 10e9 F3100000 		.4byte	0x10f3
 6551 10ed 11       		.uleb128 0x11
 6552 10ee 01       		.uleb128 0x1
 6553 10ef 50       		.byte	0x50
 6554 10f0 01       		.uleb128 0x1
 6555 10f1 33       		.byte	0x33
 6556 10f2 00       		.byte	0
 6557 10f3 10       		.uleb128 0x10
 6558 10f4 14040000 		.4byte	.LVL284
 6559 10f8 95010000 		.4byte	0x195
 6560 10fc 06110000 		.4byte	0x1106
 6561 1100 11       		.uleb128 0x11
 6562 1101 01       		.uleb128 0x1
 6563 1102 50       		.byte	0x50
ARM GAS  C:\Users\Ala\AppData\Local\Temp\ccPRO05X.s 			page 158


 6564 1103 01       		.uleb128 0x1
 6565 1104 31       		.byte	0x31
 6566 1105 00       		.byte	0
 6567 1106 10       		.uleb128 0x10
 6568 1107 20040000 		.4byte	.LVL285
 6569 110b 95010000 		.4byte	0x195
 6570 110f 19110000 		.4byte	0x1119
 6571 1113 11       		.uleb128 0x11
 6572 1114 01       		.uleb128 0x1
 6573 1115 50       		.byte	0x50
 6574 1116 01       		.uleb128 0x1
 6575 1117 32       		.byte	0x32
 6576 1118 00       		.byte	0
 6577 1119 10       		.uleb128 0x10
 6578 111a 2C040000 		.4byte	.LVL286
 6579 111e 95010000 		.4byte	0x195
 6580 1122 2C110000 		.4byte	0x112c
 6581 1126 11       		.uleb128 0x11
 6582 1127 01       		.uleb128 0x1
 6583 1128 50       		.byte	0x50
 6584 1129 01       		.uleb128 0x1
 6585 112a 32       		.byte	0x32
 6586 112b 00       		.byte	0
 6587 112c 10       		.uleb128 0x10
 6588 112d 38040000 		.4byte	.LVL287
 6589 1131 95010000 		.4byte	0x195
 6590 1135 3F110000 		.4byte	0x113f
 6591 1139 11       		.uleb128 0x11
 6592 113a 01       		.uleb128 0x1
 6593 113b 50       		.byte	0x50
 6594 113c 01       		.uleb128 0x1
 6595 113d 32       		.byte	0x32
 6596 113e 00       		.byte	0
 6597 113f 10       		.uleb128 0x10
 6598 1140 44040000 		.4byte	.LVL288
 6599 1144 95010000 		.4byte	0x195
 6600 1148 52110000 		.4byte	0x1152
 6601 114c 11       		.uleb128 0x11
 6602 114d 01       		.uleb128 0x1
 6603 114e 50       		.byte	0x50
 6604 114f 01       		.uleb128 0x1
 6605 1150 32       		.byte	0x32
 6606 1151 00       		.byte	0
 6607 1152 12       		.uleb128 0x12
 6608 1153 52040000 		.4byte	.LVL290
 6609 1157 78190000 		.4byte	0x1978
 6610 115b 10       		.uleb128 0x10
 6611 115c 58040000 		.4byte	.LVL291
 6612 1160 95010000 		.4byte	0x195
 6613 1164 6E110000 		.4byte	0x116e
 6614 1168 11       		.uleb128 0x11
 6615 1169 01       		.uleb128 0x1
 6616 116a 50       		.byte	0x50
 6617 116b 01       		.uleb128 0x1
 6618 116c 31       		.byte	0x31
 6619 116d 00       		.byte	0
 6620 116e 10       		.uleb128 0x10
ARM GAS  C:\Users\Ala\AppData\Local\Temp\ccPRO05X.s 			page 159


 6621 116f 64040000 		.4byte	.LVL292
 6622 1173 95010000 		.4byte	0x195
 6623 1177 81110000 		.4byte	0x1181
 6624 117b 11       		.uleb128 0x11
 6625 117c 01       		.uleb128 0x1
 6626 117d 50       		.byte	0x50
 6627 117e 01       		.uleb128 0x1
 6628 117f 31       		.byte	0x31
 6629 1180 00       		.byte	0
 6630 1181 10       		.uleb128 0x10
 6631 1182 70040000 		.4byte	.LVL293
 6632 1186 95010000 		.4byte	0x195
 6633 118a 94110000 		.4byte	0x1194
 6634 118e 11       		.uleb128 0x11
 6635 118f 01       		.uleb128 0x1
 6636 1190 50       		.byte	0x50
 6637 1191 01       		.uleb128 0x1
 6638 1192 35       		.byte	0x35
 6639 1193 00       		.byte	0
 6640 1194 10       		.uleb128 0x10
 6641 1195 7C040000 		.4byte	.LVL294
 6642 1199 95010000 		.4byte	0x195
 6643 119d A7110000 		.4byte	0x11a7
 6644 11a1 11       		.uleb128 0x11
 6645 11a2 01       		.uleb128 0x1
 6646 11a3 50       		.byte	0x50
 6647 11a4 01       		.uleb128 0x1
 6648 11a5 31       		.byte	0x31
 6649 11a6 00       		.byte	0
 6650 11a7 10       		.uleb128 0x10
 6651 11a8 88040000 		.4byte	.LVL295
 6652 11ac 95010000 		.4byte	0x195
 6653 11b0 BA110000 		.4byte	0x11ba
 6654 11b4 11       		.uleb128 0x11
 6655 11b5 01       		.uleb128 0x1
 6656 11b6 50       		.byte	0x50
 6657 11b7 01       		.uleb128 0x1
 6658 11b8 32       		.byte	0x32
 6659 11b9 00       		.byte	0
 6660 11ba 10       		.uleb128 0x10
 6661 11bb 94040000 		.4byte	.LVL296
 6662 11bf 95010000 		.4byte	0x195
 6663 11c3 CD110000 		.4byte	0x11cd
 6664 11c7 11       		.uleb128 0x11
 6665 11c8 01       		.uleb128 0x1
 6666 11c9 50       		.byte	0x50
 6667 11ca 01       		.uleb128 0x1
 6668 11cb 32       		.byte	0x32
 6669 11cc 00       		.byte	0
 6670 11cd 10       		.uleb128 0x10
 6671 11ce A0040000 		.4byte	.LVL297
 6672 11d2 95010000 		.4byte	0x195
 6673 11d6 E0110000 		.4byte	0x11e0
 6674 11da 11       		.uleb128 0x11
 6675 11db 01       		.uleb128 0x1
 6676 11dc 50       		.byte	0x50
 6677 11dd 01       		.uleb128 0x1
ARM GAS  C:\Users\Ala\AppData\Local\Temp\ccPRO05X.s 			page 160


 6678 11de 32       		.byte	0x32
 6679 11df 00       		.byte	0
 6680 11e0 10       		.uleb128 0x10
 6681 11e1 AC040000 		.4byte	.LVL298
 6682 11e5 95010000 		.4byte	0x195
 6683 11e9 F3110000 		.4byte	0x11f3
 6684 11ed 11       		.uleb128 0x11
 6685 11ee 01       		.uleb128 0x1
 6686 11ef 50       		.byte	0x50
 6687 11f0 01       		.uleb128 0x1
 6688 11f1 32       		.byte	0x32
 6689 11f2 00       		.byte	0
 6690 11f3 10       		.uleb128 0x10
 6691 11f4 B8040000 		.4byte	.LVL299
 6692 11f8 95010000 		.4byte	0x195
 6693 11fc 06120000 		.4byte	0x1206
 6694 1200 11       		.uleb128 0x11
 6695 1201 01       		.uleb128 0x1
 6696 1202 50       		.byte	0x50
 6697 1203 01       		.uleb128 0x1
 6698 1204 32       		.byte	0x32
 6699 1205 00       		.byte	0
 6700 1206 10       		.uleb128 0x10
 6701 1207 C4040000 		.4byte	.LVL300
 6702 120b 95010000 		.4byte	0x195
 6703 120f 19120000 		.4byte	0x1219
 6704 1213 11       		.uleb128 0x11
 6705 1214 01       		.uleb128 0x1
 6706 1215 50       		.byte	0x50
 6707 1216 01       		.uleb128 0x1
 6708 1217 32       		.byte	0x32
 6709 1218 00       		.byte	0
 6710 1219 10       		.uleb128 0x10
 6711 121a D0040000 		.4byte	.LVL301
 6712 121e 95010000 		.4byte	0x195
 6713 1222 2C120000 		.4byte	0x122c
 6714 1226 11       		.uleb128 0x11
 6715 1227 01       		.uleb128 0x1
 6716 1228 50       		.byte	0x50
 6717 1229 01       		.uleb128 0x1
 6718 122a 32       		.byte	0x32
 6719 122b 00       		.byte	0
 6720 122c 10       		.uleb128 0x10
 6721 122d DC040000 		.4byte	.LVL302
 6722 1231 95010000 		.4byte	0x195
 6723 1235 3F120000 		.4byte	0x123f
 6724 1239 11       		.uleb128 0x11
 6725 123a 01       		.uleb128 0x1
 6726 123b 50       		.byte	0x50
 6727 123c 01       		.uleb128 0x1
 6728 123d 33       		.byte	0x33
 6729 123e 00       		.byte	0
 6730 123f 10       		.uleb128 0x10
 6731 1240 E8040000 		.4byte	.LVL303
 6732 1244 95010000 		.4byte	0x195
 6733 1248 52120000 		.4byte	0x1252
 6734 124c 11       		.uleb128 0x11
ARM GAS  C:\Users\Ala\AppData\Local\Temp\ccPRO05X.s 			page 161


 6735 124d 01       		.uleb128 0x1
 6736 124e 50       		.byte	0x50
 6737 124f 01       		.uleb128 0x1
 6738 1250 31       		.byte	0x31
 6739 1251 00       		.byte	0
 6740 1252 10       		.uleb128 0x10
 6741 1253 F4040000 		.4byte	.LVL304
 6742 1257 95010000 		.4byte	0x195
 6743 125b 65120000 		.4byte	0x1265
 6744 125f 11       		.uleb128 0x11
 6745 1260 01       		.uleb128 0x1
 6746 1261 50       		.byte	0x50
 6747 1262 01       		.uleb128 0x1
 6748 1263 32       		.byte	0x32
 6749 1264 00       		.byte	0
 6750 1265 10       		.uleb128 0x10
 6751 1266 00050000 		.4byte	.LVL305
 6752 126a 95010000 		.4byte	0x195
 6753 126e 78120000 		.4byte	0x1278
 6754 1272 11       		.uleb128 0x11
 6755 1273 01       		.uleb128 0x1
 6756 1274 50       		.byte	0x50
 6757 1275 01       		.uleb128 0x1
 6758 1276 32       		.byte	0x32
 6759 1277 00       		.byte	0
 6760 1278 10       		.uleb128 0x10
 6761 1279 0C050000 		.4byte	.LVL306
 6762 127d 95010000 		.4byte	0x195
 6763 1281 8B120000 		.4byte	0x128b
 6764 1285 11       		.uleb128 0x11
 6765 1286 01       		.uleb128 0x1
 6766 1287 50       		.byte	0x50
 6767 1288 01       		.uleb128 0x1
 6768 1289 32       		.byte	0x32
 6769 128a 00       		.byte	0
 6770 128b 10       		.uleb128 0x10
 6771 128c 18050000 		.4byte	.LVL307
 6772 1290 95010000 		.4byte	0x195
 6773 1294 9E120000 		.4byte	0x129e
 6774 1298 11       		.uleb128 0x11
 6775 1299 01       		.uleb128 0x1
 6776 129a 50       		.byte	0x50
 6777 129b 01       		.uleb128 0x1
 6778 129c 32       		.byte	0x32
 6779 129d 00       		.byte	0
 6780 129e 10       		.uleb128 0x10
 6781 129f 24050000 		.4byte	.LVL308
 6782 12a3 95010000 		.4byte	0x195
 6783 12a7 B1120000 		.4byte	0x12b1
 6784 12ab 11       		.uleb128 0x11
 6785 12ac 01       		.uleb128 0x1
 6786 12ad 50       		.byte	0x50
 6787 12ae 01       		.uleb128 0x1
 6788 12af 33       		.byte	0x33
 6789 12b0 00       		.byte	0
 6790 12b1 12       		.uleb128 0x12
 6791 12b2 30050000 		.4byte	.LVL309
ARM GAS  C:\Users\Ala\AppData\Local\Temp\ccPRO05X.s 			page 162


 6792 12b6 95010000 		.4byte	0x195
 6793 12ba 12       		.uleb128 0x12
 6794 12bb 3E050000 		.4byte	.LVL311
 6795 12bf 78190000 		.4byte	0x1978
 6796 12c3 10       		.uleb128 0x10
 6797 12c4 44050000 		.4byte	.LVL312
 6798 12c8 95010000 		.4byte	0x195
 6799 12cc D6120000 		.4byte	0x12d6
 6800 12d0 11       		.uleb128 0x11
 6801 12d1 01       		.uleb128 0x1
 6802 12d2 50       		.byte	0x50
 6803 12d3 01       		.uleb128 0x1
 6804 12d4 31       		.byte	0x31
 6805 12d5 00       		.byte	0
 6806 12d6 10       		.uleb128 0x10
 6807 12d7 50050000 		.4byte	.LVL313
 6808 12db 95010000 		.4byte	0x195
 6809 12df E9120000 		.4byte	0x12e9
 6810 12e3 11       		.uleb128 0x11
 6811 12e4 01       		.uleb128 0x1
 6812 12e5 50       		.byte	0x50
 6813 12e6 01       		.uleb128 0x1
 6814 12e7 31       		.byte	0x31
 6815 12e8 00       		.byte	0
 6816 12e9 10       		.uleb128 0x10
 6817 12ea 5C050000 		.4byte	.LVL314
 6818 12ee 95010000 		.4byte	0x195
 6819 12f2 FC120000 		.4byte	0x12fc
 6820 12f6 11       		.uleb128 0x11
 6821 12f7 01       		.uleb128 0x1
 6822 12f8 50       		.byte	0x50
 6823 12f9 01       		.uleb128 0x1
 6824 12fa 35       		.byte	0x35
 6825 12fb 00       		.byte	0
 6826 12fc 10       		.uleb128 0x10
 6827 12fd 68050000 		.4byte	.LVL315
 6828 1301 95010000 		.4byte	0x195
 6829 1305 0F130000 		.4byte	0x130f
 6830 1309 11       		.uleb128 0x11
 6831 130a 01       		.uleb128 0x1
 6832 130b 50       		.byte	0x50
 6833 130c 01       		.uleb128 0x1
 6834 130d 31       		.byte	0x31
 6835 130e 00       		.byte	0
 6836 130f 10       		.uleb128 0x10
 6837 1310 74050000 		.4byte	.LVL316
 6838 1314 95010000 		.4byte	0x195
 6839 1318 22130000 		.4byte	0x1322
 6840 131c 11       		.uleb128 0x11
 6841 131d 01       		.uleb128 0x1
 6842 131e 50       		.byte	0x50
 6843 131f 01       		.uleb128 0x1
 6844 1320 32       		.byte	0x32
 6845 1321 00       		.byte	0
 6846 1322 10       		.uleb128 0x10
 6847 1323 80050000 		.4byte	.LVL317
 6848 1327 95010000 		.4byte	0x195
ARM GAS  C:\Users\Ala\AppData\Local\Temp\ccPRO05X.s 			page 163


 6849 132b 35130000 		.4byte	0x1335
 6850 132f 11       		.uleb128 0x11
 6851 1330 01       		.uleb128 0x1
 6852 1331 50       		.byte	0x50
 6853 1332 01       		.uleb128 0x1
 6854 1333 32       		.byte	0x32
 6855 1334 00       		.byte	0
 6856 1335 10       		.uleb128 0x10
 6857 1336 8C050000 		.4byte	.LVL318
 6858 133a 95010000 		.4byte	0x195
 6859 133e 48130000 		.4byte	0x1348
 6860 1342 11       		.uleb128 0x11
 6861 1343 01       		.uleb128 0x1
 6862 1344 50       		.byte	0x50
 6863 1345 01       		.uleb128 0x1
 6864 1346 32       		.byte	0x32
 6865 1347 00       		.byte	0
 6866 1348 10       		.uleb128 0x10
 6867 1349 98050000 		.4byte	.LVL319
 6868 134d 95010000 		.4byte	0x195
 6869 1351 5B130000 		.4byte	0x135b
 6870 1355 11       		.uleb128 0x11
 6871 1356 01       		.uleb128 0x1
 6872 1357 50       		.byte	0x50
 6873 1358 01       		.uleb128 0x1
 6874 1359 32       		.byte	0x32
 6875 135a 00       		.byte	0
 6876 135b 10       		.uleb128 0x10
 6877 135c A4050000 		.4byte	.LVL320
 6878 1360 95010000 		.4byte	0x195
 6879 1364 6E130000 		.4byte	0x136e
 6880 1368 11       		.uleb128 0x11
 6881 1369 01       		.uleb128 0x1
 6882 136a 50       		.byte	0x50
 6883 136b 01       		.uleb128 0x1
 6884 136c 32       		.byte	0x32
 6885 136d 00       		.byte	0
 6886 136e 10       		.uleb128 0x10
 6887 136f B0050000 		.4byte	.LVL321
 6888 1373 95010000 		.4byte	0x195
 6889 1377 81130000 		.4byte	0x1381
 6890 137b 11       		.uleb128 0x11
 6891 137c 01       		.uleb128 0x1
 6892 137d 50       		.byte	0x50
 6893 137e 01       		.uleb128 0x1
 6894 137f 32       		.byte	0x32
 6895 1380 00       		.byte	0
 6896 1381 10       		.uleb128 0x10
 6897 1382 BC050000 		.4byte	.LVL322
 6898 1386 95010000 		.4byte	0x195
 6899 138a 94130000 		.4byte	0x1394
 6900 138e 11       		.uleb128 0x11
 6901 138f 01       		.uleb128 0x1
 6902 1390 50       		.byte	0x50
 6903 1391 01       		.uleb128 0x1
 6904 1392 32       		.byte	0x32
 6905 1393 00       		.byte	0
ARM GAS  C:\Users\Ala\AppData\Local\Temp\ccPRO05X.s 			page 164


 6906 1394 10       		.uleb128 0x10
 6907 1395 C8050000 		.4byte	.LVL323
 6908 1399 95010000 		.4byte	0x195
 6909 139d A7130000 		.4byte	0x13a7
 6910 13a1 11       		.uleb128 0x11
 6911 13a2 01       		.uleb128 0x1
 6912 13a3 50       		.byte	0x50
 6913 13a4 01       		.uleb128 0x1
 6914 13a5 33       		.byte	0x33
 6915 13a6 00       		.byte	0
 6916 13a7 10       		.uleb128 0x10
 6917 13a8 D4050000 		.4byte	.LVL324
 6918 13ac 95010000 		.4byte	0x195
 6919 13b0 BA130000 		.4byte	0x13ba
 6920 13b4 11       		.uleb128 0x11
 6921 13b5 01       		.uleb128 0x1
 6922 13b6 50       		.byte	0x50
 6923 13b7 01       		.uleb128 0x1
 6924 13b8 32       		.byte	0x32
 6925 13b9 00       		.byte	0
 6926 13ba 12       		.uleb128 0x12
 6927 13bb E0050000 		.4byte	.LVL325
 6928 13bf 95010000 		.4byte	0x195
 6929 13c3 10       		.uleb128 0x10
 6930 13c4 EC050000 		.4byte	.LVL326
 6931 13c8 95010000 		.4byte	0x195
 6932 13cc D6130000 		.4byte	0x13d6
 6933 13d0 11       		.uleb128 0x11
 6934 13d1 01       		.uleb128 0x1
 6935 13d2 50       		.byte	0x50
 6936 13d3 01       		.uleb128 0x1
 6937 13d4 32       		.byte	0x32
 6938 13d5 00       		.byte	0
 6939 13d6 10       		.uleb128 0x10
 6940 13d7 F8050000 		.4byte	.LVL327
 6941 13db 95010000 		.4byte	0x195
 6942 13df E9130000 		.4byte	0x13e9
 6943 13e3 11       		.uleb128 0x11
 6944 13e4 01       		.uleb128 0x1
 6945 13e5 50       		.byte	0x50
 6946 13e6 01       		.uleb128 0x1
 6947 13e7 32       		.byte	0x32
 6948 13e8 00       		.byte	0
 6949 13e9 10       		.uleb128 0x10
 6950 13ea 04060000 		.4byte	.LVL328
 6951 13ee 95010000 		.4byte	0x195
 6952 13f2 FC130000 		.4byte	0x13fc
 6953 13f6 11       		.uleb128 0x11
 6954 13f7 01       		.uleb128 0x1
 6955 13f8 50       		.byte	0x50
 6956 13f9 01       		.uleb128 0x1
 6957 13fa 32       		.byte	0x32
 6958 13fb 00       		.byte	0
 6959 13fc 10       		.uleb128 0x10
 6960 13fd 10060000 		.4byte	.LVL329
 6961 1401 95010000 		.4byte	0x195
 6962 1405 0F140000 		.4byte	0x140f
ARM GAS  C:\Users\Ala\AppData\Local\Temp\ccPRO05X.s 			page 165


 6963 1409 11       		.uleb128 0x11
 6964 140a 01       		.uleb128 0x1
 6965 140b 50       		.byte	0x50
 6966 140c 01       		.uleb128 0x1
 6967 140d 32       		.byte	0x32
 6968 140e 00       		.byte	0
 6969 140f 12       		.uleb128 0x12
 6970 1410 1E060000 		.4byte	.LVL331
 6971 1414 78190000 		.4byte	0x1978
 6972 1418 10       		.uleb128 0x10
 6973 1419 24060000 		.4byte	.LVL332
 6974 141d 95010000 		.4byte	0x195
 6975 1421 2B140000 		.4byte	0x142b
 6976 1425 11       		.uleb128 0x11
 6977 1426 01       		.uleb128 0x1
 6978 1427 50       		.byte	0x50
 6979 1428 01       		.uleb128 0x1
 6980 1429 31       		.byte	0x31
 6981 142a 00       		.byte	0
 6982 142b 10       		.uleb128 0x10
 6983 142c 30060000 		.4byte	.LVL333
 6984 1430 95010000 		.4byte	0x195
 6985 1434 3E140000 		.4byte	0x143e
 6986 1438 11       		.uleb128 0x11
 6987 1439 01       		.uleb128 0x1
 6988 143a 50       		.byte	0x50
 6989 143b 01       		.uleb128 0x1
 6990 143c 31       		.byte	0x31
 6991 143d 00       		.byte	0
 6992 143e 10       		.uleb128 0x10
 6993 143f 3C060000 		.4byte	.LVL334
 6994 1443 95010000 		.4byte	0x195
 6995 1447 51140000 		.4byte	0x1451
 6996 144b 11       		.uleb128 0x11
 6997 144c 01       		.uleb128 0x1
 6998 144d 50       		.byte	0x50
 6999 144e 01       		.uleb128 0x1
 7000 144f 35       		.byte	0x35
 7001 1450 00       		.byte	0
 7002 1451 10       		.uleb128 0x10
 7003 1452 48060000 		.4byte	.LVL335
 7004 1456 95010000 		.4byte	0x195
 7005 145a 64140000 		.4byte	0x1464
 7006 145e 11       		.uleb128 0x11
 7007 145f 01       		.uleb128 0x1
 7008 1460 50       		.byte	0x50
 7009 1461 01       		.uleb128 0x1
 7010 1462 31       		.byte	0x31
 7011 1463 00       		.byte	0
 7012 1464 10       		.uleb128 0x10
 7013 1465 54060000 		.4byte	.LVL336
 7014 1469 95010000 		.4byte	0x195
 7015 146d 77140000 		.4byte	0x1477
 7016 1471 11       		.uleb128 0x11
 7017 1472 01       		.uleb128 0x1
 7018 1473 50       		.byte	0x50
 7019 1474 01       		.uleb128 0x1
ARM GAS  C:\Users\Ala\AppData\Local\Temp\ccPRO05X.s 			page 166


 7020 1475 32       		.byte	0x32
 7021 1476 00       		.byte	0
 7022 1477 10       		.uleb128 0x10
 7023 1478 60060000 		.4byte	.LVL337
 7024 147c 95010000 		.4byte	0x195
 7025 1480 8A140000 		.4byte	0x148a
 7026 1484 11       		.uleb128 0x11
 7027 1485 01       		.uleb128 0x1
 7028 1486 50       		.byte	0x50
 7029 1487 01       		.uleb128 0x1
 7030 1488 32       		.byte	0x32
 7031 1489 00       		.byte	0
 7032 148a 10       		.uleb128 0x10
 7033 148b 6C060000 		.4byte	.LVL338
 7034 148f 95010000 		.4byte	0x195
 7035 1493 9D140000 		.4byte	0x149d
 7036 1497 11       		.uleb128 0x11
 7037 1498 01       		.uleb128 0x1
 7038 1499 50       		.byte	0x50
 7039 149a 01       		.uleb128 0x1
 7040 149b 32       		.byte	0x32
 7041 149c 00       		.byte	0
 7042 149d 10       		.uleb128 0x10
 7043 149e 78060000 		.4byte	.LVL339
 7044 14a2 95010000 		.4byte	0x195
 7045 14a6 B0140000 		.4byte	0x14b0
 7046 14aa 11       		.uleb128 0x11
 7047 14ab 01       		.uleb128 0x1
 7048 14ac 50       		.byte	0x50
 7049 14ad 01       		.uleb128 0x1
 7050 14ae 32       		.byte	0x32
 7051 14af 00       		.byte	0
 7052 14b0 10       		.uleb128 0x10
 7053 14b1 84060000 		.4byte	.LVL340
 7054 14b5 95010000 		.4byte	0x195
 7055 14b9 C3140000 		.4byte	0x14c3
 7056 14bd 11       		.uleb128 0x11
 7057 14be 01       		.uleb128 0x1
 7058 14bf 50       		.byte	0x50
 7059 14c0 01       		.uleb128 0x1
 7060 14c1 32       		.byte	0x32
 7061 14c2 00       		.byte	0
 7062 14c3 10       		.uleb128 0x10
 7063 14c4 90060000 		.4byte	.LVL341
 7064 14c8 95010000 		.4byte	0x195
 7065 14cc D6140000 		.4byte	0x14d6
 7066 14d0 11       		.uleb128 0x11
 7067 14d1 01       		.uleb128 0x1
 7068 14d2 50       		.byte	0x50
 7069 14d3 01       		.uleb128 0x1
 7070 14d4 32       		.byte	0x32
 7071 14d5 00       		.byte	0
 7072 14d6 10       		.uleb128 0x10
 7073 14d7 9C060000 		.4byte	.LVL342
 7074 14db 95010000 		.4byte	0x195
 7075 14df E9140000 		.4byte	0x14e9
 7076 14e3 11       		.uleb128 0x11
ARM GAS  C:\Users\Ala\AppData\Local\Temp\ccPRO05X.s 			page 167


 7077 14e4 01       		.uleb128 0x1
 7078 14e5 50       		.byte	0x50
 7079 14e6 01       		.uleb128 0x1
 7080 14e7 32       		.byte	0x32
 7081 14e8 00       		.byte	0
 7082 14e9 10       		.uleb128 0x10
 7083 14ea A8060000 		.4byte	.LVL343
 7084 14ee 95010000 		.4byte	0x195
 7085 14f2 FC140000 		.4byte	0x14fc
 7086 14f6 11       		.uleb128 0x11
 7087 14f7 01       		.uleb128 0x1
 7088 14f8 50       		.byte	0x50
 7089 14f9 01       		.uleb128 0x1
 7090 14fa 33       		.byte	0x33
 7091 14fb 00       		.byte	0
 7092 14fc 10       		.uleb128 0x10
 7093 14fd B4060000 		.4byte	.LVL344
 7094 1501 95010000 		.4byte	0x195
 7095 1505 0F150000 		.4byte	0x150f
 7096 1509 11       		.uleb128 0x11
 7097 150a 01       		.uleb128 0x1
 7098 150b 50       		.byte	0x50
 7099 150c 01       		.uleb128 0x1
 7100 150d 31       		.byte	0x31
 7101 150e 00       		.byte	0
 7102 150f 10       		.uleb128 0x10
 7103 1510 C0060000 		.4byte	.LVL345
 7104 1514 95010000 		.4byte	0x195
 7105 1518 22150000 		.4byte	0x1522
 7106 151c 11       		.uleb128 0x11
 7107 151d 01       		.uleb128 0x1
 7108 151e 50       		.byte	0x50
 7109 151f 01       		.uleb128 0x1
 7110 1520 33       		.byte	0x33
 7111 1521 00       		.byte	0
 7112 1522 10       		.uleb128 0x10
 7113 1523 CC060000 		.4byte	.LVL346
 7114 1527 95010000 		.4byte	0x195
 7115 152b 35150000 		.4byte	0x1535
 7116 152f 11       		.uleb128 0x11
 7117 1530 01       		.uleb128 0x1
 7118 1531 50       		.byte	0x50
 7119 1532 01       		.uleb128 0x1
 7120 1533 31       		.byte	0x31
 7121 1534 00       		.byte	0
 7122 1535 10       		.uleb128 0x10
 7123 1536 D8060000 		.4byte	.LVL347
 7124 153a 95010000 		.4byte	0x195
 7125 153e 48150000 		.4byte	0x1548
 7126 1542 11       		.uleb128 0x11
 7127 1543 01       		.uleb128 0x1
 7128 1544 50       		.byte	0x50
 7129 1545 01       		.uleb128 0x1
 7130 1546 33       		.byte	0x33
 7131 1547 00       		.byte	0
 7132 1548 10       		.uleb128 0x10
 7133 1549 E4060000 		.4byte	.LVL348
ARM GAS  C:\Users\Ala\AppData\Local\Temp\ccPRO05X.s 			page 168


 7134 154d 95010000 		.4byte	0x195
 7135 1551 5B150000 		.4byte	0x155b
 7136 1555 11       		.uleb128 0x11
 7137 1556 01       		.uleb128 0x1
 7138 1557 50       		.byte	0x50
 7139 1558 01       		.uleb128 0x1
 7140 1559 32       		.byte	0x32
 7141 155a 00       		.byte	0
 7142 155b 12       		.uleb128 0x12
 7143 155c F2060000 		.4byte	.LVL350
 7144 1560 78190000 		.4byte	0x1978
 7145 1564 10       		.uleb128 0x10
 7146 1565 F8060000 		.4byte	.LVL351
 7147 1569 95010000 		.4byte	0x195
 7148 156d 77150000 		.4byte	0x1577
 7149 1571 11       		.uleb128 0x11
 7150 1572 01       		.uleb128 0x1
 7151 1573 50       		.byte	0x50
 7152 1574 01       		.uleb128 0x1
 7153 1575 31       		.byte	0x31
 7154 1576 00       		.byte	0
 7155 1577 10       		.uleb128 0x10
 7156 1578 04070000 		.4byte	.LVL352
 7157 157c 95010000 		.4byte	0x195
 7158 1580 8A150000 		.4byte	0x158a
 7159 1584 11       		.uleb128 0x11
 7160 1585 01       		.uleb128 0x1
 7161 1586 50       		.byte	0x50
 7162 1587 01       		.uleb128 0x1
 7163 1588 31       		.byte	0x31
 7164 1589 00       		.byte	0
 7165 158a 10       		.uleb128 0x10
 7166 158b 10070000 		.4byte	.LVL353
 7167 158f 95010000 		.4byte	0x195
 7168 1593 9D150000 		.4byte	0x159d
 7169 1597 11       		.uleb128 0x11
 7170 1598 01       		.uleb128 0x1
 7171 1599 50       		.byte	0x50
 7172 159a 01       		.uleb128 0x1
 7173 159b 35       		.byte	0x35
 7174 159c 00       		.byte	0
 7175 159d 10       		.uleb128 0x10
 7176 159e 1C070000 		.4byte	.LVL354
 7177 15a2 95010000 		.4byte	0x195
 7178 15a6 B0150000 		.4byte	0x15b0
 7179 15aa 11       		.uleb128 0x11
 7180 15ab 01       		.uleb128 0x1
 7181 15ac 50       		.byte	0x50
 7182 15ad 01       		.uleb128 0x1
 7183 15ae 31       		.byte	0x31
 7184 15af 00       		.byte	0
 7185 15b0 10       		.uleb128 0x10
 7186 15b1 28070000 		.4byte	.LVL355
 7187 15b5 95010000 		.4byte	0x195
 7188 15b9 C3150000 		.4byte	0x15c3
 7189 15bd 11       		.uleb128 0x11
 7190 15be 01       		.uleb128 0x1
ARM GAS  C:\Users\Ala\AppData\Local\Temp\ccPRO05X.s 			page 169


 7191 15bf 50       		.byte	0x50
 7192 15c0 01       		.uleb128 0x1
 7193 15c1 32       		.byte	0x32
 7194 15c2 00       		.byte	0
 7195 15c3 10       		.uleb128 0x10
 7196 15c4 34070000 		.4byte	.LVL356
 7197 15c8 95010000 		.4byte	0x195
 7198 15cc D6150000 		.4byte	0x15d6
 7199 15d0 11       		.uleb128 0x11
 7200 15d1 01       		.uleb128 0x1
 7201 15d2 50       		.byte	0x50
 7202 15d3 01       		.uleb128 0x1
 7203 15d4 32       		.byte	0x32
 7204 15d5 00       		.byte	0
 7205 15d6 10       		.uleb128 0x10
 7206 15d7 40070000 		.4byte	.LVL357
 7207 15db 95010000 		.4byte	0x195
 7208 15df E9150000 		.4byte	0x15e9
 7209 15e3 11       		.uleb128 0x11
 7210 15e4 01       		.uleb128 0x1
 7211 15e5 50       		.byte	0x50
 7212 15e6 01       		.uleb128 0x1
 7213 15e7 32       		.byte	0x32
 7214 15e8 00       		.byte	0
 7215 15e9 10       		.uleb128 0x10
 7216 15ea 4C070000 		.4byte	.LVL358
 7217 15ee 95010000 		.4byte	0x195
 7218 15f2 FC150000 		.4byte	0x15fc
 7219 15f6 11       		.uleb128 0x11
 7220 15f7 01       		.uleb128 0x1
 7221 15f8 50       		.byte	0x50
 7222 15f9 01       		.uleb128 0x1
 7223 15fa 32       		.byte	0x32
 7224 15fb 00       		.byte	0
 7225 15fc 10       		.uleb128 0x10
 7226 15fd 58070000 		.4byte	.LVL359
 7227 1601 95010000 		.4byte	0x195
 7228 1605 0F160000 		.4byte	0x160f
 7229 1609 11       		.uleb128 0x11
 7230 160a 01       		.uleb128 0x1
 7231 160b 50       		.byte	0x50
 7232 160c 01       		.uleb128 0x1
 7233 160d 32       		.byte	0x32
 7234 160e 00       		.byte	0
 7235 160f 10       		.uleb128 0x10
 7236 1610 64070000 		.4byte	.LVL360
 7237 1614 95010000 		.4byte	0x195
 7238 1618 22160000 		.4byte	0x1622
 7239 161c 11       		.uleb128 0x11
 7240 161d 01       		.uleb128 0x1
 7241 161e 50       		.byte	0x50
 7242 161f 01       		.uleb128 0x1
 7243 1620 32       		.byte	0x32
 7244 1621 00       		.byte	0
 7245 1622 10       		.uleb128 0x10
 7246 1623 70070000 		.4byte	.LVL361
 7247 1627 95010000 		.4byte	0x195
ARM GAS  C:\Users\Ala\AppData\Local\Temp\ccPRO05X.s 			page 170


 7248 162b 35160000 		.4byte	0x1635
 7249 162f 11       		.uleb128 0x11
 7250 1630 01       		.uleb128 0x1
 7251 1631 50       		.byte	0x50
 7252 1632 01       		.uleb128 0x1
 7253 1633 32       		.byte	0x32
 7254 1634 00       		.byte	0
 7255 1635 10       		.uleb128 0x10
 7256 1636 7C070000 		.4byte	.LVL362
 7257 163a 95010000 		.4byte	0x195
 7258 163e 48160000 		.4byte	0x1648
 7259 1642 11       		.uleb128 0x11
 7260 1643 01       		.uleb128 0x1
 7261 1644 50       		.byte	0x50
 7262 1645 01       		.uleb128 0x1
 7263 1646 33       		.byte	0x33
 7264 1647 00       		.byte	0
 7265 1648 10       		.uleb128 0x10
 7266 1649 88070000 		.4byte	.LVL363
 7267 164d 95010000 		.4byte	0x195
 7268 1651 5B160000 		.4byte	0x165b
 7269 1655 11       		.uleb128 0x11
 7270 1656 01       		.uleb128 0x1
 7271 1657 50       		.byte	0x50
 7272 1658 01       		.uleb128 0x1
 7273 1659 31       		.byte	0x31
 7274 165a 00       		.byte	0
 7275 165b 10       		.uleb128 0x10
 7276 165c 94070000 		.4byte	.LVL364
 7277 1660 95010000 		.4byte	0x195
 7278 1664 6E160000 		.4byte	0x166e
 7279 1668 11       		.uleb128 0x11
 7280 1669 01       		.uleb128 0x1
 7281 166a 50       		.byte	0x50
 7282 166b 01       		.uleb128 0x1
 7283 166c 32       		.byte	0x32
 7284 166d 00       		.byte	0
 7285 166e 10       		.uleb128 0x10
 7286 166f A0070000 		.4byte	.LVL365
 7287 1673 95010000 		.4byte	0x195
 7288 1677 81160000 		.4byte	0x1681
 7289 167b 11       		.uleb128 0x11
 7290 167c 01       		.uleb128 0x1
 7291 167d 50       		.byte	0x50
 7292 167e 01       		.uleb128 0x1
 7293 167f 32       		.byte	0x32
 7294 1680 00       		.byte	0
 7295 1681 10       		.uleb128 0x10
 7296 1682 AC070000 		.4byte	.LVL366
 7297 1686 95010000 		.4byte	0x195
 7298 168a 94160000 		.4byte	0x1694
 7299 168e 11       		.uleb128 0x11
 7300 168f 01       		.uleb128 0x1
 7301 1690 50       		.byte	0x50
 7302 1691 01       		.uleb128 0x1
 7303 1692 32       		.byte	0x32
 7304 1693 00       		.byte	0
ARM GAS  C:\Users\Ala\AppData\Local\Temp\ccPRO05X.s 			page 171


 7305 1694 10       		.uleb128 0x10
 7306 1695 B8070000 		.4byte	.LVL367
 7307 1699 95010000 		.4byte	0x195
 7308 169d A7160000 		.4byte	0x16a7
 7309 16a1 11       		.uleb128 0x11
 7310 16a2 01       		.uleb128 0x1
 7311 16a3 50       		.byte	0x50
 7312 16a4 01       		.uleb128 0x1
 7313 16a5 33       		.byte	0x33
 7314 16a6 00       		.byte	0
 7315 16a7 12       		.uleb128 0x12
 7316 16a8 C4070000 		.4byte	.LVL368
 7317 16ac 95010000 		.4byte	0x195
 7318 16b0 00       		.byte	0
 7319 16b1 21       		.uleb128 0x21
 7320 16b2 93020000 		.4byte	.LASF55
 7321 16b6 05       		.byte	0x5
 7322 16b7 82       		.byte	0x82
 7323 16b8 35010000 		.4byte	0x135
 7324 16bc 22       		.uleb128 0x22
 7325 16bd 2C050000 		.4byte	.LASF41
 7326 16c1 04       		.byte	0x4
 7327 16c2 1E       		.byte	0x1e
 7328 16c3 1C080000 		.4byte	0x81c
 7329 16c7 05       		.uleb128 0x5
 7330 16c8 03       		.byte	0x3
 7331 16c9 00000000 		.4byte	array
 7332 16cd 22       		.uleb128 0x22
 7333 16ce 32050000 		.4byte	.LASF56
 7334 16d2 04       		.byte	0x4
 7335 16d3 1F       		.byte	0x1f
 7336 16d4 1C080000 		.4byte	0x81c
 7337 16d8 05       		.uleb128 0x5
 7338 16d9 03       		.byte	0x3
 7339 16da 00000000 		.4byte	eepromArray
 7340 16de 22       		.uleb128 0x22
 7341 16df 10050000 		.4byte	.LASF57
 7342 16e3 01       		.byte	0x1
 7343 16e4 16       		.byte	0x16
 7344 16e5 6B000000 		.4byte	0x6b
 7345 16e9 05       		.uleb128 0x5
 7346 16ea 03       		.byte	0x3
 7347 16eb 00000000 		.4byte	SYSTEM_STATE
 7348 16ef 22       		.uleb128 0x22
 7349 16f0 5E000000 		.4byte	.LASF58
 7350 16f4 01       		.byte	0x1
 7351 16f5 17       		.byte	0x17
 7352 16f6 6B000000 		.4byte	0x6b
 7353 16fa 05       		.uleb128 0x5
 7354 16fb 03       		.byte	0x3
 7355 16fc 00000000 		.4byte	DISPLAY_STATE
 7356 1700 22       		.uleb128 0x22
 7357 1701 BB010000 		.4byte	.LASF59
 7358 1705 01       		.byte	0x1
 7359 1706 18       		.byte	0x18
 7360 1707 6B000000 		.4byte	0x6b
 7361 170b 05       		.uleb128 0x5
ARM GAS  C:\Users\Ala\AppData\Local\Temp\ccPRO05X.s 			page 172


 7362 170c 03       		.byte	0x3
 7363 170d 00000000 		.4byte	BT_Tx_STATE
 7364 1711 22       		.uleb128 0x22
 7365 1712 97010000 		.4byte	.LASF60
 7366 1716 01       		.byte	0x1
 7367 1717 1B       		.byte	0x1b
 7368 1718 6B000000 		.4byte	0x6b
 7369 171c 05       		.uleb128 0x5
 7370 171d 03       		.byte	0x3
 7371 171e 00000000 		.4byte	new_display_data_flag
 7372 1722 17       		.uleb128 0x17
 7373 1723 6B000000 		.4byte	0x6b
 7374 1727 32170000 		.4byte	0x1732
 7375 172b 18       		.uleb128 0x18
 7376 172c BC000000 		.4byte	0xbc
 7377 1730 17       		.byte	0x17
 7378 1731 00       		.byte	0
 7379 1732 22       		.uleb128 0x22
 7380 1733 55060000 		.4byte	.LASF61
 7381 1737 01       		.byte	0x1
 7382 1738 1D       		.byte	0x1d
 7383 1739 22170000 		.4byte	0x1722
 7384 173d 05       		.uleb128 0x5
 7385 173e 03       		.byte	0x3
 7386 173f 00000000 		.4byte	new_display_data_buffer
 7387 1743 22       		.uleb128 0x22
 7388 1744 0A040000 		.4byte	.LASF62
 7389 1748 01       		.byte	0x1
 7390 1749 1E       		.byte	0x1e
 7391 174a 6B000000 		.4byte	0x6b
 7392 174e 05       		.uleb128 0x5
 7393 174f 03       		.byte	0x3
 7394 1750 00000000 		.4byte	new_disp_ctrl1
 7395 1754 22       		.uleb128 0x22
 7396 1755 19040000 		.4byte	.LASF63
 7397 1759 01       		.byte	0x1
 7398 175a 1F       		.byte	0x1f
 7399 175b 6B000000 		.4byte	0x6b
 7400 175f 05       		.uleb128 0x5
 7401 1760 03       		.byte	0x3
 7402 1761 00000000 		.4byte	new_disp_ctrl2
 7403 1765 22       		.uleb128 0x22
 7404 1766 DB010000 		.4byte	.LASF64
 7405 176a 04       		.byte	0x4
 7406 176b 38       		.byte	0x38
 7407 176c 8A010000 		.4byte	0x18a
 7408 1770 05       		.uleb128 0x5
 7409 1771 03       		.byte	0x3
 7410 1772 00000000 		.4byte	next_PSUstate
 7411 1776 22       		.uleb128 0x22
 7412 1777 AE060000 		.4byte	.LASF65
 7413 177b 04       		.byte	0x4
 7414 177c 38       		.byte	0x38
 7415 177d 8A010000 		.4byte	0x18a
 7416 1781 05       		.uleb128 0x5
 7417 1782 03       		.byte	0x3
 7418 1783 00000000 		.4byte	current_PSUstate
ARM GAS  C:\Users\Ala\AppData\Local\Temp\ccPRO05X.s 			page 173


 7419 1787 22       		.uleb128 0x22
 7420 1788 B4040000 		.4byte	.LASF66
 7421 178c 06       		.byte	0x6
 7422 178d 15       		.byte	0x15
 7423 178e 6B000000 		.4byte	0x6b
 7424 1792 05       		.uleb128 0x5
 7425 1793 03       		.byte	0x3
 7426 1794 00000000 		.4byte	MODE_SHORT_V
 7427 1798 22       		.uleb128 0x22
 7428 1799 18060000 		.4byte	.LASF67
 7429 179d 06       		.byte	0x6
 7430 179e 16       		.byte	0x16
 7431 179f 6B000000 		.4byte	0x6b
 7432 17a3 05       		.uleb128 0x5
 7433 17a4 03       		.byte	0x3
 7434 17a5 00000000 		.4byte	PWR_OK_SHORT_V
 7435 17a9 22       		.uleb128 0x22
 7436 17aa 1A030000 		.4byte	.LASF68
 7437 17ae 06       		.byte	0x6
 7438 17af 17       		.byte	0x17
 7439 17b0 6B000000 		.4byte	0x6b
 7440 17b4 05       		.uleb128 0x5
 7441 17b5 03       		.byte	0x3
 7442 17b6 00000000 		.4byte	MODE_LONG_V
 7443 17ba 22       		.uleb128 0x22
 7444 17bb E9040000 		.4byte	.LASF69
 7445 17bf 06       		.byte	0x6
 7446 17c0 18       		.byte	0x18
 7447 17c1 6B000000 		.4byte	0x6b
 7448 17c5 05       		.uleb128 0x5
 7449 17c6 03       		.byte	0x3
 7450 17c7 00000000 		.4byte	PWR_OK_LONG_V
 7451 17cb 22       		.uleb128 0x22
 7452 17cc B6000000 		.4byte	.LASF70
 7453 17d0 06       		.byte	0x6
 7454 17d1 1A       		.byte	0x1a
 7455 17d2 F3080000 		.4byte	0x8f3
 7456 17d6 05       		.uleb128 0x5
 7457 17d7 03       		.byte	0x3
 7458 17d8 00000000 		.4byte	DATALINK_TABLE
 7459 17dc 22       		.uleb128 0x22
 7460 17dd AD020000 		.4byte	.LASF71
 7461 17e1 06       		.byte	0x6
 7462 17e2 1B       		.byte	0x1b
 7463 17e3 6B000000 		.4byte	0x6b
 7464 17e7 05       		.uleb128 0x5
 7465 17e8 03       		.byte	0x3
 7466 17e9 00000000 		.4byte	DATALINK_TABLE_COUNTER
 7467 17ed 22       		.uleb128 0x22
 7468 17ee FF020000 		.4byte	.LASF72
 7469 17f2 06       		.byte	0x6
 7470 17f3 1C       		.byte	0x1c
 7471 17f4 6B000000 		.4byte	0x6b
 7472 17f8 05       		.uleb128 0x5
 7473 17f9 03       		.byte	0x3
 7474 17fa 00000000 		.4byte	DATALINK_TABLE_COUNTER_MAX
 7475 17fe 22       		.uleb128 0x22
ARM GAS  C:\Users\Ala\AppData\Local\Temp\ccPRO05X.s 			page 174


 7476 17ff 50010000 		.4byte	.LASF73
 7477 1803 06       		.byte	0x6
 7478 1804 1D       		.byte	0x1d
 7479 1805 6B000000 		.4byte	0x6b
 7480 1809 05       		.uleb128 0x5
 7481 180a 03       		.byte	0x3
 7482 180b 00000000 		.4byte	DISPLAY_UPDATE
 7483 180f 17       		.uleb128 0x17
 7484 1810 1F180000 		.4byte	0x181f
 7485 1814 1F180000 		.4byte	0x181f
 7486 1818 18       		.uleb128 0x18
 7487 1819 BC000000 		.4byte	0xbc
 7488 181d 1B       		.byte	0x1b
 7489 181e 00       		.byte	0
 7490 181f 23       		.uleb128 0x23
 7491 1820 6B000000 		.4byte	0x6b
 7492 1824 22       		.uleb128 0x22
 7493 1825 89000000 		.4byte	.LASF74
 7494 1829 07       		.byte	0x7
 7495 182a 31       		.byte	0x31
 7496 182b 35180000 		.4byte	0x1835
 7497 182f 05       		.uleb128 0x5
 7498 1830 03       		.byte	0x3
 7499 1831 00000000 		.4byte	dummyBuffer
 7500 1835 23       		.uleb128 0x23
 7501 1836 0F180000 		.4byte	0x180f
 7502 183a 24       		.uleb128 0x24
 7503 183b 1D050000 		.4byte	.LASF75
 7504 183f 1D050000 		.4byte	.LASF75
 7505 1843 08       		.byte	0x8
 7506 1844 33       		.byte	0x33
 7507 1845 24       		.uleb128 0x24
 7508 1846 15020000 		.4byte	.LASF76
 7509 184a 15020000 		.4byte	.LASF76
 7510 184e 09       		.byte	0x9
 7511 184f 33       		.byte	0x33
 7512 1850 24       		.uleb128 0x24
 7513 1851 95000000 		.4byte	.LASF77
 7514 1855 95000000 		.4byte	.LASF77
 7515 1859 0A       		.byte	0xa
 7516 185a 33       		.byte	0x33
 7517 185b 24       		.uleb128 0x24
 7518 185c 3D020000 		.4byte	.LASF78
 7519 1860 3D020000 		.4byte	.LASF78
 7520 1864 0B       		.byte	0xb
 7521 1865 33       		.byte	0x33
 7522 1866 24       		.uleb128 0x24
 7523 1867 62040000 		.4byte	.LASF79
 7524 186b 62040000 		.4byte	.LASF79
 7525 186f 08       		.byte	0x8
 7526 1870 34       		.byte	0x34
 7527 1871 24       		.uleb128 0x24
 7528 1872 2F010000 		.4byte	.LASF80
 7529 1876 2F010000 		.4byte	.LASF80
 7530 187a 09       		.byte	0x9
 7531 187b 34       		.byte	0x34
 7532 187c 24       		.uleb128 0x24
ARM GAS  C:\Users\Ala\AppData\Local\Temp\ccPRO05X.s 			page 175


 7533 187d C1040000 		.4byte	.LASF81
 7534 1881 C1040000 		.4byte	.LASF81
 7535 1885 0A       		.byte	0xa
 7536 1886 34       		.byte	0x34
 7537 1887 24       		.uleb128 0x24
 7538 1888 5B050000 		.4byte	.LASF82
 7539 188c 5B050000 		.4byte	.LASF82
 7540 1890 0B       		.byte	0xb
 7541 1891 34       		.byte	0x34
 7542 1892 24       		.uleb128 0x24
 7543 1893 57030000 		.4byte	.LASF83
 7544 1897 57030000 		.4byte	.LASF83
 7545 189b 0C       		.byte	0xc
 7546 189c 33       		.byte	0x33
 7547 189d 24       		.uleb128 0x24
 7548 189e 77040000 		.4byte	.LASF84
 7549 18a2 77040000 		.4byte	.LASF84
 7550 18a6 0D       		.byte	0xd
 7551 18a7 1E       		.byte	0x1e
 7552 18a8 24       		.uleb128 0x24
 7553 18a9 88040000 		.4byte	.LASF85
 7554 18ad 88040000 		.4byte	.LASF85
 7555 18b1 0E       		.byte	0xe
 7556 18b2 33       		.byte	0x33
 7557 18b3 24       		.uleb128 0x24
 7558 18b4 6D060000 		.4byte	.LASF86
 7559 18b8 6D060000 		.4byte	.LASF86
 7560 18bc 0F       		.byte	0xf
 7561 18bd EC       		.byte	0xec
 7562 18be 24       		.uleb128 0x24
 7563 18bf EA000000 		.4byte	.LASF87
 7564 18c3 EA000000 		.4byte	.LASF87
 7565 18c7 10       		.byte	0x10
 7566 18c8 33       		.byte	0x33
 7567 18c9 24       		.uleb128 0x24
 7568 18ca A4000000 		.4byte	.LASF88
 7569 18ce A4000000 		.4byte	.LASF88
 7570 18d2 11       		.byte	0x11
 7571 18d3 33       		.byte	0x33
 7572 18d4 24       		.uleb128 0x24
 7573 18d5 42010000 		.4byte	.LASF89
 7574 18d9 42010000 		.4byte	.LASF89
 7575 18dd 12       		.byte	0x12
 7576 18de 33       		.byte	0x33
 7577 18df 25       		.uleb128 0x25
 7578 18e0 D3000000 		.4byte	.LASF98
 7579 18e4 D3000000 		.4byte	.LASF98
 7580 18e8 24       		.uleb128 0x24
 7581 18e9 D6040000 		.4byte	.LASF90
 7582 18ed D6040000 		.4byte	.LASF90
 7583 18f1 13       		.byte	0x13
 7584 18f2 32       		.byte	0x32
 7585 18f3 24       		.uleb128 0x24
 7586 18f4 C5030000 		.4byte	.LASF91
 7587 18f8 C5030000 		.4byte	.LASF91
 7588 18fc 14       		.byte	0x14
 7589 18fd 32       		.byte	0x32
ARM GAS  C:\Users\Ala\AppData\Local\Temp\ccPRO05X.s 			page 176


 7590 18fe 24       		.uleb128 0x24
 7591 18ff DF000000 		.4byte	.LASF92
 7592 1903 DF000000 		.4byte	.LASF92
 7593 1907 15       		.byte	0x15
 7594 1908 32       		.byte	0x32
 7595 1909 24       		.uleb128 0x24
 7596 190a 0C000000 		.4byte	.LASF93
 7597 190e 0C000000 		.4byte	.LASF93
 7598 1912 16       		.byte	0x16
 7599 1913 32       		.byte	0x32
 7600 1914 24       		.uleb128 0x24
 7601 1915 33000000 		.4byte	.LASF94
 7602 1919 33000000 		.4byte	.LASF94
 7603 191d 17       		.byte	0x17
 7604 191e 32       		.byte	0x32
 7605 191f 26       		.uleb128 0x26
 7606 1920 B3030000 		.4byte	.LASF95
 7607 1924 B3030000 		.4byte	.LASF95
 7608 1928 03       		.byte	0x3
 7609 1929 6801     		.2byte	0x168
 7610 192b 26       		.uleb128 0x26
 7611 192c 5F010000 		.4byte	.LASF96
 7612 1930 5F010000 		.4byte	.LASF96
 7613 1934 03       		.byte	0x3
 7614 1935 6C01     		.2byte	0x16c
 7615 1937 26       		.uleb128 0x26
 7616 1938 72010000 		.4byte	.LASF97
 7617 193c 72010000 		.4byte	.LASF97
 7618 1940 18       		.byte	0x18
 7619 1941 2A03     		.2byte	0x32a
 7620 1943 25       		.uleb128 0x25
 7621 1944 22020000 		.4byte	.LASF99
 7622 1948 22020000 		.4byte	.LASF99
 7623 194c 24       		.uleb128 0x24
 7624 194d 58020000 		.4byte	.LASF100
 7625 1951 58020000 		.4byte	.LASF100
 7626 1955 07       		.byte	0x7
 7627 1956 B7       		.byte	0xb7
 7628 1957 24       		.uleb128 0x24
 7629 1958 27060000 		.4byte	.LASF101
 7630 195c 27060000 		.4byte	.LASF101
 7631 1960 19       		.byte	0x19
 7632 1961 33       		.byte	0x33
 7633 1962 24       		.uleb128 0x24
 7634 1963 C4020000 		.4byte	.LASF102
 7635 1967 C4020000 		.4byte	.LASF102
 7636 196b 0F       		.byte	0xf
 7637 196c ED       		.byte	0xed
 7638 196d 24       		.uleb128 0x24
 7639 196e CD010000 		.4byte	.LASF103
 7640 1972 CD010000 		.4byte	.LASF103
 7641 1976 19       		.byte	0x19
 7642 1977 32       		.byte	0x32
 7643 1978 24       		.uleb128 0x24
 7644 1979 E9010000 		.4byte	.LASF104
 7645 197d E9010000 		.4byte	.LASF104
 7646 1981 1A       		.byte	0x1a
ARM GAS  C:\Users\Ala\AppData\Local\Temp\ccPRO05X.s 			page 177


 7647 1982 25       		.byte	0x25
 7648 1983 24       		.uleb128 0x24
 7649 1984 D2030000 		.4byte	.LASF105
 7650 1988 D2030000 		.4byte	.LASF105
 7651 198c 1A       		.byte	0x1a
 7652 198d 23       		.byte	0x23
 7653 198e 00       		.byte	0
 7654              		.section	.debug_abbrev,"",%progbits
 7655              	.Ldebug_abbrev0:
 7656 0000 01       		.uleb128 0x1
 7657 0001 11       		.uleb128 0x11
 7658 0002 01       		.byte	0x1
 7659 0003 25       		.uleb128 0x25
 7660 0004 0E       		.uleb128 0xe
 7661 0005 13       		.uleb128 0x13
 7662 0006 0B       		.uleb128 0xb
 7663 0007 03       		.uleb128 0x3
 7664 0008 0E       		.uleb128 0xe
 7665 0009 1B       		.uleb128 0x1b
 7666 000a 0E       		.uleb128 0xe
 7667 000b 55       		.uleb128 0x55
 7668 000c 17       		.uleb128 0x17
 7669 000d 11       		.uleb128 0x11
 7670 000e 01       		.uleb128 0x1
 7671 000f 10       		.uleb128 0x10
 7672 0010 17       		.uleb128 0x17
 7673 0011 00       		.byte	0
 7674 0012 00       		.byte	0
 7675 0013 02       		.uleb128 0x2
 7676 0014 24       		.uleb128 0x24
 7677 0015 00       		.byte	0
 7678 0016 0B       		.uleb128 0xb
 7679 0017 0B       		.uleb128 0xb
 7680 0018 3E       		.uleb128 0x3e
 7681 0019 0B       		.uleb128 0xb
 7682 001a 03       		.uleb128 0x3
 7683 001b 0E       		.uleb128 0xe
 7684 001c 00       		.byte	0
 7685 001d 00       		.byte	0
 7686 001e 03       		.uleb128 0x3
 7687 001f 24       		.uleb128 0x24
 7688 0020 00       		.byte	0
 7689 0021 0B       		.uleb128 0xb
 7690 0022 0B       		.uleb128 0xb
 7691 0023 3E       		.uleb128 0x3e
 7692 0024 0B       		.uleb128 0xb
 7693 0025 03       		.uleb128 0x3
 7694 0026 08       		.uleb128 0x8
 7695 0027 00       		.byte	0
 7696 0028 00       		.byte	0
 7697 0029 04       		.uleb128 0x4
 7698 002a 16       		.uleb128 0x16
 7699 002b 00       		.byte	0
 7700 002c 03       		.uleb128 0x3
 7701 002d 0E       		.uleb128 0xe
 7702 002e 3A       		.uleb128 0x3a
 7703 002f 0B       		.uleb128 0xb
ARM GAS  C:\Users\Ala\AppData\Local\Temp\ccPRO05X.s 			page 178


 7704 0030 3B       		.uleb128 0x3b
 7705 0031 05       		.uleb128 0x5
 7706 0032 49       		.uleb128 0x49
 7707 0033 13       		.uleb128 0x13
 7708 0034 00       		.byte	0
 7709 0035 00       		.byte	0
 7710 0036 05       		.uleb128 0x5
 7711 0037 35       		.uleb128 0x35
 7712 0038 00       		.byte	0
 7713 0039 49       		.uleb128 0x49
 7714 003a 13       		.uleb128 0x13
 7715 003b 00       		.byte	0
 7716 003c 00       		.byte	0
 7717 003d 06       		.uleb128 0x6
 7718 003e 13       		.uleb128 0x13
 7719 003f 01       		.byte	0x1
 7720 0040 0B       		.uleb128 0xb
 7721 0041 0B       		.uleb128 0xb
 7722 0042 3A       		.uleb128 0x3a
 7723 0043 0B       		.uleb128 0xb
 7724 0044 3B       		.uleb128 0x3b
 7725 0045 05       		.uleb128 0x5
 7726 0046 01       		.uleb128 0x1
 7727 0047 13       		.uleb128 0x13
 7728 0048 00       		.byte	0
 7729 0049 00       		.byte	0
 7730 004a 07       		.uleb128 0x7
 7731 004b 0D       		.uleb128 0xd
 7732 004c 00       		.byte	0
 7733 004d 03       		.uleb128 0x3
 7734 004e 0E       		.uleb128 0xe
 7735 004f 3A       		.uleb128 0x3a
 7736 0050 0B       		.uleb128 0xb
 7737 0051 3B       		.uleb128 0x3b
 7738 0052 05       		.uleb128 0x5
 7739 0053 49       		.uleb128 0x49
 7740 0054 13       		.uleb128 0x13
 7741 0055 38       		.uleb128 0x38
 7742 0056 0B       		.uleb128 0xb
 7743 0057 00       		.byte	0
 7744 0058 00       		.byte	0
 7745 0059 08       		.uleb128 0x8
 7746 005a 13       		.uleb128 0x13
 7747 005b 01       		.byte	0x1
 7748 005c 03       		.uleb128 0x3
 7749 005d 0E       		.uleb128 0xe
 7750 005e 0B       		.uleb128 0xb
 7751 005f 0B       		.uleb128 0xb
 7752 0060 3A       		.uleb128 0x3a
 7753 0061 0B       		.uleb128 0xb
 7754 0062 3B       		.uleb128 0x3b
 7755 0063 0B       		.uleb128 0xb
 7756 0064 01       		.uleb128 0x1
 7757 0065 13       		.uleb128 0x13
 7758 0066 00       		.byte	0
 7759 0067 00       		.byte	0
 7760 0068 09       		.uleb128 0x9
ARM GAS  C:\Users\Ala\AppData\Local\Temp\ccPRO05X.s 			page 179


 7761 0069 0D       		.uleb128 0xd
 7762 006a 00       		.byte	0
 7763 006b 03       		.uleb128 0x3
 7764 006c 0E       		.uleb128 0xe
 7765 006d 3A       		.uleb128 0x3a
 7766 006e 0B       		.uleb128 0xb
 7767 006f 3B       		.uleb128 0x3b
 7768 0070 0B       		.uleb128 0xb
 7769 0071 49       		.uleb128 0x49
 7770 0072 13       		.uleb128 0x13
 7771 0073 38       		.uleb128 0x38
 7772 0074 0B       		.uleb128 0xb
 7773 0075 00       		.byte	0
 7774 0076 00       		.byte	0
 7775 0077 0A       		.uleb128 0xa
 7776 0078 16       		.uleb128 0x16
 7777 0079 00       		.byte	0
 7778 007a 03       		.uleb128 0x3
 7779 007b 0E       		.uleb128 0xe
 7780 007c 3A       		.uleb128 0x3a
 7781 007d 0B       		.uleb128 0xb
 7782 007e 3B       		.uleb128 0x3b
 7783 007f 0B       		.uleb128 0xb
 7784 0080 49       		.uleb128 0x49
 7785 0081 13       		.uleb128 0x13
 7786 0082 00       		.byte	0
 7787 0083 00       		.byte	0
 7788 0084 0B       		.uleb128 0xb
 7789 0085 2E       		.uleb128 0x2e
 7790 0086 01       		.byte	0x1
 7791 0087 3F       		.uleb128 0x3f
 7792 0088 19       		.uleb128 0x19
 7793 0089 03       		.uleb128 0x3
 7794 008a 0E       		.uleb128 0xe
 7795 008b 3A       		.uleb128 0x3a
 7796 008c 0B       		.uleb128 0xb
 7797 008d 3B       		.uleb128 0x3b
 7798 008e 05       		.uleb128 0x5
 7799 008f 27       		.uleb128 0x27
 7800 0090 19       		.uleb128 0x19
 7801 0091 49       		.uleb128 0x49
 7802 0092 13       		.uleb128 0x13
 7803 0093 20       		.uleb128 0x20
 7804 0094 0B       		.uleb128 0xb
 7805 0095 01       		.uleb128 0x1
 7806 0096 13       		.uleb128 0x13
 7807 0097 00       		.byte	0
 7808 0098 00       		.byte	0
 7809 0099 0C       		.uleb128 0xc
 7810 009a 05       		.uleb128 0x5
 7811 009b 00       		.byte	0
 7812 009c 03       		.uleb128 0x3
 7813 009d 0E       		.uleb128 0xe
 7814 009e 3A       		.uleb128 0x3a
 7815 009f 0B       		.uleb128 0xb
 7816 00a0 3B       		.uleb128 0x3b
 7817 00a1 05       		.uleb128 0x5
ARM GAS  C:\Users\Ala\AppData\Local\Temp\ccPRO05X.s 			page 180


 7818 00a2 49       		.uleb128 0x49
 7819 00a3 13       		.uleb128 0x13
 7820 00a4 00       		.byte	0
 7821 00a5 00       		.byte	0
 7822 00a6 0D       		.uleb128 0xd
 7823 00a7 34       		.uleb128 0x34
 7824 00a8 00       		.byte	0
 7825 00a9 03       		.uleb128 0x3
 7826 00aa 0E       		.uleb128 0xe
 7827 00ab 3A       		.uleb128 0x3a
 7828 00ac 0B       		.uleb128 0xb
 7829 00ad 3B       		.uleb128 0x3b
 7830 00ae 05       		.uleb128 0x5
 7831 00af 49       		.uleb128 0x49
 7832 00b0 13       		.uleb128 0x13
 7833 00b1 00       		.byte	0
 7834 00b2 00       		.byte	0
 7835 00b3 0E       		.uleb128 0xe
 7836 00b4 2E       		.uleb128 0x2e
 7837 00b5 01       		.byte	0x1
 7838 00b6 3F       		.uleb128 0x3f
 7839 00b7 19       		.uleb128 0x19
 7840 00b8 03       		.uleb128 0x3
 7841 00b9 0E       		.uleb128 0xe
 7842 00ba 3A       		.uleb128 0x3a
 7843 00bb 0B       		.uleb128 0xb
 7844 00bc 3B       		.uleb128 0x3b
 7845 00bd 05       		.uleb128 0x5
 7846 00be 27       		.uleb128 0x27
 7847 00bf 19       		.uleb128 0x19
 7848 00c0 49       		.uleb128 0x49
 7849 00c1 13       		.uleb128 0x13
 7850 00c2 11       		.uleb128 0x11
 7851 00c3 01       		.uleb128 0x1
 7852 00c4 12       		.uleb128 0x12
 7853 00c5 06       		.uleb128 0x6
 7854 00c6 40       		.uleb128 0x40
 7855 00c7 18       		.uleb128 0x18
 7856 00c8 9742     		.uleb128 0x2117
 7857 00ca 19       		.uleb128 0x19
 7858 00cb 01       		.uleb128 0x1
 7859 00cc 13       		.uleb128 0x13
 7860 00cd 00       		.byte	0
 7861 00ce 00       		.byte	0
 7862 00cf 0F       		.uleb128 0xf
 7863 00d0 05       		.uleb128 0x5
 7864 00d1 00       		.byte	0
 7865 00d2 03       		.uleb128 0x3
 7866 00d3 0E       		.uleb128 0xe
 7867 00d4 3A       		.uleb128 0x3a
 7868 00d5 0B       		.uleb128 0xb
 7869 00d6 3B       		.uleb128 0x3b
 7870 00d7 05       		.uleb128 0x5
 7871 00d8 49       		.uleb128 0x49
 7872 00d9 13       		.uleb128 0x13
 7873 00da 02       		.uleb128 0x2
 7874 00db 17       		.uleb128 0x17
ARM GAS  C:\Users\Ala\AppData\Local\Temp\ccPRO05X.s 			page 181


 7875 00dc 00       		.byte	0
 7876 00dd 00       		.byte	0
 7877 00de 10       		.uleb128 0x10
 7878 00df 898201   		.uleb128 0x4109
 7879 00e2 01       		.byte	0x1
 7880 00e3 11       		.uleb128 0x11
 7881 00e4 01       		.uleb128 0x1
 7882 00e5 31       		.uleb128 0x31
 7883 00e6 13       		.uleb128 0x13
 7884 00e7 01       		.uleb128 0x1
 7885 00e8 13       		.uleb128 0x13
 7886 00e9 00       		.byte	0
 7887 00ea 00       		.byte	0
 7888 00eb 11       		.uleb128 0x11
 7889 00ec 8A8201   		.uleb128 0x410a
 7890 00ef 00       		.byte	0
 7891 00f0 02       		.uleb128 0x2
 7892 00f1 18       		.uleb128 0x18
 7893 00f2 9142     		.uleb128 0x2111
 7894 00f4 18       		.uleb128 0x18
 7895 00f5 00       		.byte	0
 7896 00f6 00       		.byte	0
 7897 00f7 12       		.uleb128 0x12
 7898 00f8 898201   		.uleb128 0x4109
 7899 00fb 00       		.byte	0
 7900 00fc 11       		.uleb128 0x11
 7901 00fd 01       		.uleb128 0x1
 7902 00fe 31       		.uleb128 0x31
 7903 00ff 13       		.uleb128 0x13
 7904 0100 00       		.byte	0
 7905 0101 00       		.byte	0
 7906 0102 13       		.uleb128 0x13
 7907 0103 34       		.uleb128 0x34
 7908 0104 00       		.byte	0
 7909 0105 03       		.uleb128 0x3
 7910 0106 0E       		.uleb128 0xe
 7911 0107 3A       		.uleb128 0x3a
 7912 0108 0B       		.uleb128 0xb
 7913 0109 3B       		.uleb128 0x3b
 7914 010a 05       		.uleb128 0x5
 7915 010b 49       		.uleb128 0x49
 7916 010c 13       		.uleb128 0x13
 7917 010d 02       		.uleb128 0x2
 7918 010e 17       		.uleb128 0x17
 7919 010f 00       		.byte	0
 7920 0110 00       		.byte	0
 7921 0111 14       		.uleb128 0x14
 7922 0112 898201   		.uleb128 0x4109
 7923 0115 01       		.byte	0x1
 7924 0116 11       		.uleb128 0x11
 7925 0117 01       		.uleb128 0x1
 7926 0118 31       		.uleb128 0x31
 7927 0119 13       		.uleb128 0x13
 7928 011a 00       		.byte	0
 7929 011b 00       		.byte	0
 7930 011c 15       		.uleb128 0x15
 7931 011d 2E       		.uleb128 0x2e
ARM GAS  C:\Users\Ala\AppData\Local\Temp\ccPRO05X.s 			page 182


 7932 011e 01       		.byte	0x1
 7933 011f 3F       		.uleb128 0x3f
 7934 0120 19       		.uleb128 0x19
 7935 0121 03       		.uleb128 0x3
 7936 0122 0E       		.uleb128 0xe
 7937 0123 3A       		.uleb128 0x3a
 7938 0124 0B       		.uleb128 0xb
 7939 0125 3B       		.uleb128 0x3b
 7940 0126 0B       		.uleb128 0xb
 7941 0127 49       		.uleb128 0x49
 7942 0128 13       		.uleb128 0x13
 7943 0129 11       		.uleb128 0x11
 7944 012a 01       		.uleb128 0x1
 7945 012b 12       		.uleb128 0x12
 7946 012c 06       		.uleb128 0x6
 7947 012d 40       		.uleb128 0x40
 7948 012e 18       		.uleb128 0x18
 7949 012f 9742     		.uleb128 0x2117
 7950 0131 19       		.uleb128 0x19
 7951 0132 01       		.uleb128 0x1
 7952 0133 13       		.uleb128 0x13
 7953 0134 00       		.byte	0
 7954 0135 00       		.byte	0
 7955 0136 16       		.uleb128 0x16
 7956 0137 34       		.uleb128 0x34
 7957 0138 00       		.byte	0
 7958 0139 03       		.uleb128 0x3
 7959 013a 0E       		.uleb128 0xe
 7960 013b 3A       		.uleb128 0x3a
 7961 013c 0B       		.uleb128 0xb
 7962 013d 3B       		.uleb128 0x3b
 7963 013e 0B       		.uleb128 0xb
 7964 013f 49       		.uleb128 0x49
 7965 0140 13       		.uleb128 0x13
 7966 0141 02       		.uleb128 0x2
 7967 0142 18       		.uleb128 0x18
 7968 0143 00       		.byte	0
 7969 0144 00       		.byte	0
 7970 0145 17       		.uleb128 0x17
 7971 0146 01       		.uleb128 0x1
 7972 0147 01       		.byte	0x1
 7973 0148 49       		.uleb128 0x49
 7974 0149 13       		.uleb128 0x13
 7975 014a 01       		.uleb128 0x1
 7976 014b 13       		.uleb128 0x13
 7977 014c 00       		.byte	0
 7978 014d 00       		.byte	0
 7979 014e 18       		.uleb128 0x18
 7980 014f 21       		.uleb128 0x21
 7981 0150 00       		.byte	0
 7982 0151 49       		.uleb128 0x49
 7983 0152 13       		.uleb128 0x13
 7984 0153 2F       		.uleb128 0x2f
 7985 0154 0B       		.uleb128 0xb
 7986 0155 00       		.byte	0
 7987 0156 00       		.byte	0
 7988 0157 19       		.uleb128 0x19
ARM GAS  C:\Users\Ala\AppData\Local\Temp\ccPRO05X.s 			page 183


 7989 0158 2E       		.uleb128 0x2e
 7990 0159 01       		.byte	0x1
 7991 015a 3F       		.uleb128 0x3f
 7992 015b 19       		.uleb128 0x19
 7993 015c 03       		.uleb128 0x3
 7994 015d 0E       		.uleb128 0xe
 7995 015e 3A       		.uleb128 0x3a
 7996 015f 0B       		.uleb128 0xb
 7997 0160 3B       		.uleb128 0x3b
 7998 0161 05       		.uleb128 0x5
 7999 0162 49       		.uleb128 0x49
 8000 0163 13       		.uleb128 0x13
 8001 0164 11       		.uleb128 0x11
 8002 0165 01       		.uleb128 0x1
 8003 0166 12       		.uleb128 0x12
 8004 0167 06       		.uleb128 0x6
 8005 0168 40       		.uleb128 0x40
 8006 0169 18       		.uleb128 0x18
 8007 016a 9642     		.uleb128 0x2116
 8008 016c 19       		.uleb128 0x19
 8009 016d 01       		.uleb128 0x1
 8010 016e 13       		.uleb128 0x13
 8011 016f 00       		.byte	0
 8012 0170 00       		.byte	0
 8013 0171 1A       		.uleb128 0x1a
 8014 0172 34       		.uleb128 0x34
 8015 0173 00       		.byte	0
 8016 0174 03       		.uleb128 0x3
 8017 0175 0E       		.uleb128 0xe
 8018 0176 3A       		.uleb128 0x3a
 8019 0177 0B       		.uleb128 0xb
 8020 0178 3B       		.uleb128 0x3b
 8021 0179 05       		.uleb128 0x5
 8022 017a 49       		.uleb128 0x49
 8023 017b 13       		.uleb128 0x13
 8024 017c 02       		.uleb128 0x2
 8025 017d 18       		.uleb128 0x18
 8026 017e 00       		.byte	0
 8027 017f 00       		.byte	0
 8028 0180 1B       		.uleb128 0x1b
 8029 0181 2E       		.uleb128 0x2e
 8030 0182 01       		.byte	0x1
 8031 0183 31       		.uleb128 0x31
 8032 0184 13       		.uleb128 0x13
 8033 0185 11       		.uleb128 0x11
 8034 0186 01       		.uleb128 0x1
 8035 0187 12       		.uleb128 0x12
 8036 0188 06       		.uleb128 0x6
 8037 0189 40       		.uleb128 0x40
 8038 018a 18       		.uleb128 0x18
 8039 018b 9742     		.uleb128 0x2117
 8040 018d 19       		.uleb128 0x19
 8041 018e 01       		.uleb128 0x1
 8042 018f 13       		.uleb128 0x13
 8043 0190 00       		.byte	0
 8044 0191 00       		.byte	0
 8045 0192 1C       		.uleb128 0x1c
ARM GAS  C:\Users\Ala\AppData\Local\Temp\ccPRO05X.s 			page 184


 8046 0193 05       		.uleb128 0x5
 8047 0194 00       		.byte	0
 8048 0195 31       		.uleb128 0x31
 8049 0196 13       		.uleb128 0x13
 8050 0197 02       		.uleb128 0x2
 8051 0198 17       		.uleb128 0x17
 8052 0199 00       		.byte	0
 8053 019a 00       		.byte	0
 8054 019b 1D       		.uleb128 0x1d
 8055 019c 34       		.uleb128 0x34
 8056 019d 00       		.byte	0
 8057 019e 31       		.uleb128 0x31
 8058 019f 13       		.uleb128 0x13
 8059 01a0 1C       		.uleb128 0x1c
 8060 01a1 0B       		.uleb128 0xb
 8061 01a2 00       		.byte	0
 8062 01a3 00       		.byte	0
 8063 01a4 1E       		.uleb128 0x1e
 8064 01a5 0B       		.uleb128 0xb
 8065 01a6 01       		.byte	0x1
 8066 01a7 11       		.uleb128 0x11
 8067 01a8 01       		.uleb128 0x1
 8068 01a9 12       		.uleb128 0x12
 8069 01aa 06       		.uleb128 0x6
 8070 01ab 01       		.uleb128 0x1
 8071 01ac 13       		.uleb128 0x13
 8072 01ad 00       		.byte	0
 8073 01ae 00       		.byte	0
 8074 01af 1F       		.uleb128 0x1f
 8075 01b0 0B       		.uleb128 0xb
 8076 01b1 01       		.byte	0x1
 8077 01b2 11       		.uleb128 0x11
 8078 01b3 01       		.uleb128 0x1
 8079 01b4 12       		.uleb128 0x12
 8080 01b5 06       		.uleb128 0x6
 8081 01b6 00       		.byte	0
 8082 01b7 00       		.byte	0
 8083 01b8 20       		.uleb128 0x20
 8084 01b9 34       		.uleb128 0x34
 8085 01ba 00       		.byte	0
 8086 01bb 31       		.uleb128 0x31
 8087 01bc 13       		.uleb128 0x13
 8088 01bd 02       		.uleb128 0x2
 8089 01be 17       		.uleb128 0x17
 8090 01bf 00       		.byte	0
 8091 01c0 00       		.byte	0
 8092 01c1 21       		.uleb128 0x21
 8093 01c2 34       		.uleb128 0x34
 8094 01c3 00       		.byte	0
 8095 01c4 03       		.uleb128 0x3
 8096 01c5 0E       		.uleb128 0xe
 8097 01c6 3A       		.uleb128 0x3a
 8098 01c7 0B       		.uleb128 0xb
 8099 01c8 3B       		.uleb128 0x3b
 8100 01c9 0B       		.uleb128 0xb
 8101 01ca 49       		.uleb128 0x49
 8102 01cb 13       		.uleb128 0x13
ARM GAS  C:\Users\Ala\AppData\Local\Temp\ccPRO05X.s 			page 185


 8103 01cc 3F       		.uleb128 0x3f
 8104 01cd 19       		.uleb128 0x19
 8105 01ce 3C       		.uleb128 0x3c
 8106 01cf 19       		.uleb128 0x19
 8107 01d0 00       		.byte	0
 8108 01d1 00       		.byte	0
 8109 01d2 22       		.uleb128 0x22
 8110 01d3 34       		.uleb128 0x34
 8111 01d4 00       		.byte	0
 8112 01d5 03       		.uleb128 0x3
 8113 01d6 0E       		.uleb128 0xe
 8114 01d7 3A       		.uleb128 0x3a
 8115 01d8 0B       		.uleb128 0xb
 8116 01d9 3B       		.uleb128 0x3b
 8117 01da 0B       		.uleb128 0xb
 8118 01db 49       		.uleb128 0x49
 8119 01dc 13       		.uleb128 0x13
 8120 01dd 3F       		.uleb128 0x3f
 8121 01de 19       		.uleb128 0x19
 8122 01df 02       		.uleb128 0x2
 8123 01e0 18       		.uleb128 0x18
 8124 01e1 00       		.byte	0
 8125 01e2 00       		.byte	0
 8126 01e3 23       		.uleb128 0x23
 8127 01e4 26       		.uleb128 0x26
 8128 01e5 00       		.byte	0
 8129 01e6 49       		.uleb128 0x49
 8130 01e7 13       		.uleb128 0x13
 8131 01e8 00       		.byte	0
 8132 01e9 00       		.byte	0
 8133 01ea 24       		.uleb128 0x24
 8134 01eb 2E       		.uleb128 0x2e
 8135 01ec 00       		.byte	0
 8136 01ed 3F       		.uleb128 0x3f
 8137 01ee 19       		.uleb128 0x19
 8138 01ef 3C       		.uleb128 0x3c
 8139 01f0 19       		.uleb128 0x19
 8140 01f1 6E       		.uleb128 0x6e
 8141 01f2 0E       		.uleb128 0xe
 8142 01f3 03       		.uleb128 0x3
 8143 01f4 0E       		.uleb128 0xe
 8144 01f5 3A       		.uleb128 0x3a
 8145 01f6 0B       		.uleb128 0xb
 8146 01f7 3B       		.uleb128 0x3b
 8147 01f8 0B       		.uleb128 0xb
 8148 01f9 00       		.byte	0
 8149 01fa 00       		.byte	0
 8150 01fb 25       		.uleb128 0x25
 8151 01fc 2E       		.uleb128 0x2e
 8152 01fd 00       		.byte	0
 8153 01fe 3F       		.uleb128 0x3f
 8154 01ff 19       		.uleb128 0x19
 8155 0200 3C       		.uleb128 0x3c
 8156 0201 19       		.uleb128 0x19
 8157 0202 6E       		.uleb128 0x6e
 8158 0203 0E       		.uleb128 0xe
 8159 0204 03       		.uleb128 0x3
ARM GAS  C:\Users\Ala\AppData\Local\Temp\ccPRO05X.s 			page 186


 8160 0205 0E       		.uleb128 0xe
 8161 0206 00       		.byte	0
 8162 0207 00       		.byte	0
 8163 0208 26       		.uleb128 0x26
 8164 0209 2E       		.uleb128 0x2e
 8165 020a 00       		.byte	0
 8166 020b 3F       		.uleb128 0x3f
 8167 020c 19       		.uleb128 0x19
 8168 020d 3C       		.uleb128 0x3c
 8169 020e 19       		.uleb128 0x19
 8170 020f 6E       		.uleb128 0x6e
 8171 0210 0E       		.uleb128 0xe
 8172 0211 03       		.uleb128 0x3
 8173 0212 0E       		.uleb128 0xe
 8174 0213 3A       		.uleb128 0x3a
 8175 0214 0B       		.uleb128 0xb
 8176 0215 3B       		.uleb128 0x3b
 8177 0216 05       		.uleb128 0x5
 8178 0217 00       		.byte	0
 8179 0218 00       		.byte	0
 8180 0219 00       		.byte	0
 8181              		.section	.debug_loc,"",%progbits
 8182              	.Ldebug_loc0:
 8183              	.LLST0:
 8184 0000 00000000 		.4byte	.LVL0
 8185 0004 19000000 		.4byte	.LVL5-1
 8186 0008 0100     		.2byte	0x1
 8187 000a 51       		.byte	0x51
 8188 000b 19000000 		.4byte	.LVL5-1
 8189 000f 5C000000 		.4byte	.LFE34
 8190 0013 0400     		.2byte	0x4
 8191 0015 F3       		.byte	0xf3
 8192 0016 01       		.uleb128 0x1
 8193 0017 51       		.byte	0x51
 8194 0018 9F       		.byte	0x9f
 8195 0019 00000000 		.4byte	0
 8196 001d 00000000 		.4byte	0
 8197              	.LLST1:
 8198 0021 02000000 		.4byte	.LVL1
 8199 0025 06000000 		.4byte	.LVL2
 8200 0029 1400     		.2byte	0x14
 8201 002b 7D       		.byte	0x7d
 8202 002c 00       		.sleb128 0
 8203 002d 93       		.byte	0x93
 8204 002e 01       		.uleb128 0x1
 8205 002f 91       		.byte	0x91
 8206 0030 61       		.sleb128 -31
 8207 0031 93       		.byte	0x93
 8208 0032 01       		.uleb128 0x1
 8209 0033 91       		.byte	0x91
 8210 0034 62       		.sleb128 -30
 8211 0035 93       		.byte	0x93
 8212 0036 01       		.uleb128 0x1
 8213 0037 91       		.byte	0x91
 8214 0038 63       		.sleb128 -29
 8215 0039 93       		.byte	0x93
 8216 003a 01       		.uleb128 0x1
ARM GAS  C:\Users\Ala\AppData\Local\Temp\ccPRO05X.s 			page 187


 8217 003b 91       		.byte	0x91
 8218 003c 64       		.sleb128 -28
 8219 003d 93       		.byte	0x93
 8220 003e 01       		.uleb128 0x1
 8221 003f 06000000 		.4byte	.LVL2
 8222 0043 08000000 		.4byte	.LVL3
 8223 0047 0600     		.2byte	0x6
 8224 0049 93       		.byte	0x93
 8225 004a 04       		.uleb128 0x4
 8226 004b 91       		.byte	0x91
 8227 004c 64       		.sleb128 -28
 8228 004d 93       		.byte	0x93
 8229 004e 01       		.uleb128 0x1
 8230 004f 32000000 		.4byte	.LVL10
 8231 0053 38000000 		.4byte	.LVL12
 8232 0057 0500     		.2byte	0x5
 8233 0059 93       		.byte	0x93
 8234 005a 04       		.uleb128 0x4
 8235 005b 55       		.byte	0x55
 8236 005c 93       		.byte	0x93
 8237 005d 01       		.uleb128 0x1
 8238 005e 38000000 		.4byte	.LVL12
 8239 0062 3E000000 		.4byte	.LVL14
 8240 0066 0800     		.2byte	0x8
 8241 0068 93       		.byte	0x93
 8242 0069 03       		.uleb128 0x3
 8243 006a 56       		.byte	0x56
 8244 006b 93       		.byte	0x93
 8245 006c 01       		.uleb128 0x1
 8246 006d 55       		.byte	0x55
 8247 006e 93       		.byte	0x93
 8248 006f 01       		.uleb128 0x1
 8249 0070 3E000000 		.4byte	.LVL14
 8250 0074 42000000 		.4byte	.LVL15
 8251 0078 0B00     		.2byte	0xb
 8252 007a 93       		.byte	0x93
 8253 007b 02       		.uleb128 0x2
 8254 007c 57       		.byte	0x57
 8255 007d 93       		.byte	0x93
 8256 007e 01       		.uleb128 0x1
 8257 007f 56       		.byte	0x56
 8258 0080 93       		.byte	0x93
 8259 0081 01       		.uleb128 0x1
 8260 0082 55       		.byte	0x55
 8261 0083 93       		.byte	0x93
 8262 0084 01       		.uleb128 0x1
 8263 0085 42000000 		.4byte	.LVL15
 8264 0089 46000000 		.4byte	.LVL16
 8265 008d 0E00     		.2byte	0xe
 8266 008f 50       		.byte	0x50
 8267 0090 93       		.byte	0x93
 8268 0091 01       		.uleb128 0x1
 8269 0092 93       		.byte	0x93
 8270 0093 01       		.uleb128 0x1
 8271 0094 57       		.byte	0x57
 8272 0095 93       		.byte	0x93
 8273 0096 01       		.uleb128 0x1
ARM GAS  C:\Users\Ala\AppData\Local\Temp\ccPRO05X.s 			page 188


 8274 0097 56       		.byte	0x56
 8275 0098 93       		.byte	0x93
 8276 0099 01       		.uleb128 0x1
 8277 009a 55       		.byte	0x55
 8278 009b 93       		.byte	0x93
 8279 009c 01       		.uleb128 0x1
 8280 009d 46000000 		.4byte	.LVL16
 8281 00a1 4A000000 		.4byte	.LVL17
 8282 00a5 1500     		.2byte	0x15
 8283 00a7 50       		.byte	0x50
 8284 00a8 93       		.byte	0x93
 8285 00a9 01       		.uleb128 0x1
 8286 00aa 73       		.byte	0x73
 8287 00ab 00       		.sleb128 0
 8288 00ac 32       		.byte	0x32
 8289 00ad 25       		.byte	0x25
 8290 00ae 31       		.byte	0x31
 8291 00af 1A       		.byte	0x1a
 8292 00b0 9F       		.byte	0x9f
 8293 00b1 93       		.byte	0x93
 8294 00b2 01       		.uleb128 0x1
 8295 00b3 57       		.byte	0x57
 8296 00b4 93       		.byte	0x93
 8297 00b5 01       		.uleb128 0x1
 8298 00b6 56       		.byte	0x56
 8299 00b7 93       		.byte	0x93
 8300 00b8 01       		.uleb128 0x1
 8301 00b9 55       		.byte	0x55
 8302 00ba 93       		.byte	0x93
 8303 00bb 01       		.uleb128 0x1
 8304 00bc 4A000000 		.4byte	.LVL17
 8305 00c0 54000000 		.4byte	.LVL18
 8306 00c4 0E00     		.2byte	0xe
 8307 00c6 50       		.byte	0x50
 8308 00c7 93       		.byte	0x93
 8309 00c8 01       		.uleb128 0x1
 8310 00c9 93       		.byte	0x93
 8311 00ca 01       		.uleb128 0x1
 8312 00cb 57       		.byte	0x57
 8313 00cc 93       		.byte	0x93
 8314 00cd 01       		.uleb128 0x1
 8315 00ce 56       		.byte	0x56
 8316 00cf 93       		.byte	0x93
 8317 00d0 01       		.uleb128 0x1
 8318 00d1 55       		.byte	0x55
 8319 00d2 93       		.byte	0x93
 8320 00d3 01       		.uleb128 0x1
 8321 00d4 54000000 		.4byte	.LVL18
 8322 00d8 56000000 		.4byte	.LVL20
 8323 00dc 0F00     		.2byte	0xf
 8324 00de 70       		.byte	0x70
 8325 00df 00       		.sleb128 0
 8326 00e0 93       		.byte	0x93
 8327 00e1 01       		.uleb128 0x1
 8328 00e2 93       		.byte	0x93
 8329 00e3 01       		.uleb128 0x1
 8330 00e4 57       		.byte	0x57
ARM GAS  C:\Users\Ala\AppData\Local\Temp\ccPRO05X.s 			page 189


 8331 00e5 93       		.byte	0x93
 8332 00e6 01       		.uleb128 0x1
 8333 00e7 56       		.byte	0x56
 8334 00e8 93       		.byte	0x93
 8335 00e9 01       		.uleb128 0x1
 8336 00ea 55       		.byte	0x55
 8337 00eb 93       		.byte	0x93
 8338 00ec 01       		.uleb128 0x1
 8339 00ed 56000000 		.4byte	.LVL20
 8340 00f1 56000000 		.4byte	.LVL21
 8341 00f5 1000     		.2byte	0x10
 8342 00f7 70       		.byte	0x70
 8343 00f8 00       		.sleb128 0
 8344 00f9 93       		.byte	0x93
 8345 00fa 01       		.uleb128 0x1
 8346 00fb 93       		.byte	0x93
 8347 00fc 01       		.uleb128 0x1
 8348 00fd 57       		.byte	0x57
 8349 00fe 93       		.byte	0x93
 8350 00ff 01       		.uleb128 0x1
 8351 0100 56       		.byte	0x56
 8352 0101 93       		.byte	0x93
 8353 0102 01       		.uleb128 0x1
 8354 0103 70       		.byte	0x70
 8355 0104 04       		.sleb128 4
 8356 0105 93       		.byte	0x93
 8357 0106 01       		.uleb128 0x1
 8358 0107 56000000 		.4byte	.LVL21
 8359 010b 56000000 		.4byte	.LVL22
 8360 010f 1100     		.2byte	0x11
 8361 0111 70       		.byte	0x70
 8362 0112 00       		.sleb128 0
 8363 0113 93       		.byte	0x93
 8364 0114 01       		.uleb128 0x1
 8365 0115 93       		.byte	0x93
 8366 0116 01       		.uleb128 0x1
 8367 0117 57       		.byte	0x57
 8368 0118 93       		.byte	0x93
 8369 0119 01       		.uleb128 0x1
 8370 011a 70       		.byte	0x70
 8371 011b 03       		.sleb128 3
 8372 011c 93       		.byte	0x93
 8373 011d 01       		.uleb128 0x1
 8374 011e 70       		.byte	0x70
 8375 011f 04       		.sleb128 4
 8376 0120 93       		.byte	0x93
 8377 0121 01       		.uleb128 0x1
 8378 0122 56000000 		.4byte	.LVL22
 8379 0126 5C000000 		.4byte	.LFE34
 8380 012a 1200     		.2byte	0x12
 8381 012c 70       		.byte	0x70
 8382 012d 00       		.sleb128 0
 8383 012e 93       		.byte	0x93
 8384 012f 01       		.uleb128 0x1
 8385 0130 93       		.byte	0x93
 8386 0131 01       		.uleb128 0x1
 8387 0132 70       		.byte	0x70
ARM GAS  C:\Users\Ala\AppData\Local\Temp\ccPRO05X.s 			page 190


 8388 0133 02       		.sleb128 2
 8389 0134 93       		.byte	0x93
 8390 0135 01       		.uleb128 0x1
 8391 0136 70       		.byte	0x70
 8392 0137 03       		.sleb128 3
 8393 0138 93       		.byte	0x93
 8394 0139 01       		.uleb128 0x1
 8395 013a 70       		.byte	0x70
 8396 013b 04       		.sleb128 4
 8397 013c 93       		.byte	0x93
 8398 013d 01       		.uleb128 0x1
 8399 013e 00000000 		.4byte	0
 8400 0142 00000000 		.4byte	0
 8401              	.LLST2:
 8402 0146 00000000 		.4byte	.LVL23
 8403 014a 0C000000 		.4byte	.LVL24
 8404 014e 0100     		.2byte	0x1
 8405 0150 50       		.byte	0x50
 8406 0151 0C000000 		.4byte	.LVL24
 8407 0155 B6000000 		.4byte	.LVL36
 8408 0159 0400     		.2byte	0x4
 8409 015b F3       		.byte	0xf3
 8410 015c 01       		.uleb128 0x1
 8411 015d 50       		.byte	0x50
 8412 015e 9F       		.byte	0x9f
 8413 015f B6000000 		.4byte	.LVL36
 8414 0163 BE000000 		.4byte	.LVL37
 8415 0167 0100     		.2byte	0x1
 8416 0169 50       		.byte	0x50
 8417 016a BE000000 		.4byte	.LVL37
 8418 016e F2010000 		.4byte	.LVL65
 8419 0172 0400     		.2byte	0x4
 8420 0174 F3       		.byte	0xf3
 8421 0175 01       		.uleb128 0x1
 8422 0176 50       		.byte	0x50
 8423 0177 9F       		.byte	0x9f
 8424 0178 F2010000 		.4byte	.LVL65
 8425 017c F8010000 		.4byte	.LVL66
 8426 0180 0100     		.2byte	0x1
 8427 0182 50       		.byte	0x50
 8428 0183 F8010000 		.4byte	.LVL66
 8429 0187 54030000 		.4byte	.LFE33
 8430 018b 0400     		.2byte	0x4
 8431 018d F3       		.byte	0xf3
 8432 018e 01       		.uleb128 0x1
 8433 018f 50       		.byte	0x50
 8434 0190 9F       		.byte	0x9f
 8435 0191 00000000 		.4byte	0
 8436 0195 00000000 		.4byte	0
 8437              	.LLST3:
 8438 0199 00000000 		.4byte	.LVL23
 8439 019d 0F000000 		.4byte	.LVL25-1
 8440 01a1 0100     		.2byte	0x1
 8441 01a3 51       		.byte	0x51
 8442 01a4 0F000000 		.4byte	.LVL25-1
 8443 01a8 B6000000 		.4byte	.LVL36
 8444 01ac 0400     		.2byte	0x4
ARM GAS  C:\Users\Ala\AppData\Local\Temp\ccPRO05X.s 			page 191


 8445 01ae F3       		.byte	0xf3
 8446 01af 01       		.uleb128 0x1
 8447 01b0 51       		.byte	0x51
 8448 01b1 9F       		.byte	0x9f
 8449 01b2 B6000000 		.4byte	.LVL36
 8450 01b6 C1000000 		.4byte	.LVL38-1
 8451 01ba 0100     		.2byte	0x1
 8452 01bc 51       		.byte	0x51
 8453 01bd C1000000 		.4byte	.LVL38-1
 8454 01c1 F2010000 		.4byte	.LVL65
 8455 01c5 0400     		.2byte	0x4
 8456 01c7 F3       		.byte	0xf3
 8457 01c8 01       		.uleb128 0x1
 8458 01c9 51       		.byte	0x51
 8459 01ca 9F       		.byte	0x9f
 8460 01cb F2010000 		.4byte	.LVL65
 8461 01cf 02020000 		.4byte	.LVL67
 8462 01d3 0100     		.2byte	0x1
 8463 01d5 51       		.byte	0x51
 8464 01d6 02020000 		.4byte	.LVL67
 8465 01da 54030000 		.4byte	.LFE33
 8466 01de 0400     		.2byte	0x4
 8467 01e0 F3       		.byte	0xf3
 8468 01e1 01       		.uleb128 0x1
 8469 01e2 51       		.byte	0x51
 8470 01e3 9F       		.byte	0x9f
 8471 01e4 00000000 		.4byte	0
 8472 01e8 00000000 		.4byte	0
 8473              	.LLST4:
 8474 01ec 00000000 		.4byte	.LVL23
 8475 01f0 30020000 		.4byte	.LVL71
 8476 01f4 0200     		.2byte	0x2
 8477 01f6 30       		.byte	0x30
 8478 01f7 9F       		.byte	0x9f
 8479 01f8 30020000 		.4byte	.LVL71
 8480 01fc 40020000 		.4byte	.LVL73
 8481 0200 0200     		.2byte	0x2
 8482 0202 34       		.byte	0x34
 8483 0203 9F       		.byte	0x9f
 8484 0204 40020000 		.4byte	.LVL73
 8485 0208 48020000 		.4byte	.LVL74
 8486 020c 0100     		.2byte	0x1
 8487 020e 54       		.byte	0x54
 8488 020f 48020000 		.4byte	.LVL74
 8489 0213 58020000 		.4byte	.LVL76
 8490 0217 0200     		.2byte	0x2
 8491 0219 35       		.byte	0x35
 8492 021a 9F       		.byte	0x9f
 8493 021b 58020000 		.4byte	.LVL76
 8494 021f 60020000 		.4byte	.LVL78
 8495 0223 0100     		.2byte	0x1
 8496 0225 54       		.byte	0x54
 8497 0226 60020000 		.4byte	.LVL78
 8498 022a 70020000 		.4byte	.LVL80
 8499 022e 0200     		.2byte	0x2
 8500 0230 36       		.byte	0x36
 8501 0231 9F       		.byte	0x9f
ARM GAS  C:\Users\Ala\AppData\Local\Temp\ccPRO05X.s 			page 192


 8502 0232 70020000 		.4byte	.LVL80
 8503 0236 78020000 		.4byte	.LVL82
 8504 023a 0100     		.2byte	0x1
 8505 023c 54       		.byte	0x54
 8506 023d 78020000 		.4byte	.LVL82
 8507 0241 88020000 		.4byte	.LVL84
 8508 0245 0200     		.2byte	0x2
 8509 0247 37       		.byte	0x37
 8510 0248 9F       		.byte	0x9f
 8511 0249 88020000 		.4byte	.LVL84
 8512 024d 90020000 		.4byte	.LVL86
 8513 0251 0100     		.2byte	0x1
 8514 0253 54       		.byte	0x54
 8515 0254 90020000 		.4byte	.LVL86
 8516 0258 A2020000 		.4byte	.LVL88
 8517 025c 0200     		.2byte	0x2
 8518 025e 38       		.byte	0x38
 8519 025f 9F       		.byte	0x9f
 8520 0260 A2020000 		.4byte	.LVL88
 8521 0264 AA020000 		.4byte	.LVL89
 8522 0268 0100     		.2byte	0x1
 8523 026a 54       		.byte	0x54
 8524 026b CC020000 		.4byte	.LVL94
 8525 026f D8020000 		.4byte	.LVL97
 8526 0273 0200     		.2byte	0x2
 8527 0275 31       		.byte	0x31
 8528 0276 9F       		.byte	0x9f
 8529 0277 E2020000 		.4byte	.LVL98
 8530 027b F0020000 		.4byte	.LVL101
 8531 027f 0200     		.2byte	0x2
 8532 0281 32       		.byte	0x32
 8533 0282 9F       		.byte	0x9f
 8534 0283 F0020000 		.4byte	.LVL101
 8535 0287 FC020000 		.4byte	.LVL104
 8536 028b 0200     		.2byte	0x2
 8537 028d 33       		.byte	0x33
 8538 028e 9F       		.byte	0x9f
 8539 028f FC020000 		.4byte	.LVL104
 8540 0293 FE020000 		.4byte	.LVL105
 8541 0297 0100     		.2byte	0x1
 8542 0299 54       		.byte	0x54
 8543 029a 00000000 		.4byte	0
 8544 029e 00000000 		.4byte	0
 8545              	.LLST5:
 8546 02a2 00000000 		.4byte	.LVL23
 8547 02a6 AA020000 		.4byte	.LVL89
 8548 02aa 0200     		.2byte	0x2
 8549 02ac 30       		.byte	0x30
 8550 02ad 9F       		.byte	0x9f
 8551 02ae AA020000 		.4byte	.LVL89
 8552 02b2 CE020000 		.4byte	.LVL95
 8553 02b6 0100     		.2byte	0x1
 8554 02b8 54       		.byte	0x54
 8555 02b9 D8020000 		.4byte	.LVL97
 8556 02bd EC020000 		.4byte	.LVL100
 8557 02c1 0100     		.2byte	0x1
 8558 02c3 54       		.byte	0x54
ARM GAS  C:\Users\Ala\AppData\Local\Temp\ccPRO05X.s 			page 193


 8559 02c4 F0020000 		.4byte	.LVL101
 8560 02c8 FA020000 		.4byte	.LVL103
 8561 02cc 0100     		.2byte	0x1
 8562 02ce 54       		.byte	0x54
 8563 02cf 00000000 		.4byte	0
 8564 02d3 00000000 		.4byte	0
 8565              	.LLST6:
 8566 02d7 00000000 		.4byte	.LVL23
 8567 02db AA020000 		.4byte	.LVL89
 8568 02df 0200     		.2byte	0x2
 8569 02e1 30       		.byte	0x30
 8570 02e2 9F       		.byte	0x9f
 8571 02e3 AA020000 		.4byte	.LVL89
 8572 02e7 B8020000 		.4byte	.LVL92
 8573 02eb 0600     		.2byte	0x6
 8574 02ed 09       		.byte	0x9
 8575 02ee 96       		.byte	0x96
 8576 02ef 75       		.byte	0x75
 8577 02f0 00       		.sleb128 0
 8578 02f1 1C       		.byte	0x1c
 8579 02f2 9F       		.byte	0x9f
 8580 02f3 00000000 		.4byte	0
 8581 02f7 00000000 		.4byte	0
 8582              	.LLST7:
 8583 02fb 00000000 		.4byte	.LVL112
 8584 02ff 8A000000 		.4byte	.LVL115
 8585 0303 0200     		.2byte	0x2
 8586 0305 30       		.byte	0x30
 8587 0306 9F       		.byte	0x9f
 8588 0307 8A000000 		.4byte	.LVL115
 8589 030b BE000000 		.4byte	.LVL118
 8590 030f 0800     		.2byte	0x8
 8591 0311 91       		.byte	0x91
 8592 0312 E47E     		.sleb128 -156
 8593 0314 94       		.byte	0x94
 8594 0315 01       		.byte	0x1
 8595 0316 23       		.byte	0x23
 8596 0317 04       		.uleb128 0x4
 8597 0318 9F       		.byte	0x9f
 8598 0319 BE000000 		.4byte	.LVL118
 8599 031d 34010000 		.4byte	.LVL121
 8600 0321 0100     		.2byte	0x1
 8601 0323 53       		.byte	0x53
 8602 0324 34010000 		.4byte	.LVL121
 8603 0328 36010000 		.4byte	.LVL122
 8604 032c 0300     		.2byte	0x3
 8605 032e 73       		.byte	0x73
 8606 032f 01       		.sleb128 1
 8607 0330 9F       		.byte	0x9f
 8608 0331 3A010000 		.4byte	.LVL123
 8609 0335 44010000 		.4byte	.LVL124
 8610 0339 0100     		.2byte	0x1
 8611 033b 53       		.byte	0x53
 8612 033c 44010000 		.4byte	.LVL124
 8613 0340 4E010000 		.4byte	.LVL125
 8614 0344 0100     		.2byte	0x1
 8615 0346 51       		.byte	0x51
ARM GAS  C:\Users\Ala\AppData\Local\Temp\ccPRO05X.s 			page 194


 8616 0347 4E010000 		.4byte	.LVL125
 8617 034b 94010000 		.4byte	.LVL130
 8618 034f 0300     		.2byte	0x3
 8619 0351 91       		.byte	0x91
 8620 0352 E47E     		.sleb128 -156
 8621 0354 94010000 		.4byte	.LVL130
 8622 0358 98010000 		.4byte	.LVL131
 8623 035c 0100     		.2byte	0x1
 8624 035e 53       		.byte	0x53
 8625 035f 2E080000 		.4byte	.LVL132
 8626 0363 32080000 		.4byte	.LVL133
 8627 0367 0200     		.2byte	0x2
 8628 0369 30       		.byte	0x30
 8629 036a 9F       		.byte	0x9f
 8630 036b 32080000 		.4byte	.LVL133
 8631 036f 34080000 		.4byte	.LVL134
 8632 0373 0300     		.2byte	0x3
 8633 0375 91       		.byte	0x91
 8634 0376 E47E     		.sleb128 -156
 8635 0378 00000000 		.4byte	0
 8636 037c 00000000 		.4byte	0
 8637              	.LLST8:
 8638 0380 00000000 		.4byte	.LVL112
 8639 0384 4E010000 		.4byte	.LVL125
 8640 0388 0A00     		.2byte	0xa
 8641 038a 9E       		.byte	0x9e
 8642 038b 08       		.uleb128 0x8
 8643 038c 01000000 		.8byte	0x1
 8643      00000000 
 8644 0394 4E010000 		.4byte	.LVL125
 8645 0398 94010000 		.4byte	.LVL130
 8646 039c 0600     		.2byte	0x6
 8647 039e 56       		.byte	0x56
 8648 039f 93       		.byte	0x93
 8649 03a0 04       		.uleb128 0x4
 8650 03a1 57       		.byte	0x57
 8651 03a2 93       		.byte	0x93
 8652 03a3 04       		.uleb128 0x4
 8653 03a4 94010000 		.4byte	.LVL130
 8654 03a8 98010000 		.4byte	.LVL131
 8655 03ac 0A00     		.2byte	0xa
 8656 03ae 9E       		.byte	0x9e
 8657 03af 08       		.uleb128 0x8
 8658 03b0 01000000 		.8byte	0x1
 8658      00000000 
 8659 03b8 2E080000 		.4byte	.LVL132
 8660 03bc 32080000 		.4byte	.LVL133
 8661 03c0 0A00     		.2byte	0xa
 8662 03c2 9E       		.byte	0x9e
 8663 03c3 08       		.uleb128 0x8
 8664 03c4 01000000 		.8byte	0x1
 8664      00000000 
 8665 03cc 32080000 		.4byte	.LVL133
 8666 03d0 34080000 		.4byte	.LVL134
 8667 03d4 0600     		.2byte	0x6
 8668 03d6 56       		.byte	0x56
 8669 03d7 93       		.byte	0x93
ARM GAS  C:\Users\Ala\AppData\Local\Temp\ccPRO05X.s 			page 195


 8670 03d8 04       		.uleb128 0x4
 8671 03d9 57       		.byte	0x57
 8672 03da 93       		.byte	0x93
 8673 03db 04       		.uleb128 0x4
 8674 03dc 00000000 		.4byte	0
 8675 03e0 00000000 		.4byte	0
 8676              	.LLST9:
 8677 03e4 00000000 		.4byte	.LVL112
 8678 03e8 8A000000 		.4byte	.LVL115
 8679 03ec 0200     		.2byte	0x2
 8680 03ee 30       		.byte	0x30
 8681 03ef 9F       		.byte	0x9f
 8682 03f0 8A000000 		.4byte	.LVL115
 8683 03f4 BE000000 		.4byte	.LVL118
 8684 03f8 0300     		.2byte	0x3
 8685 03fa 91       		.byte	0x91
 8686 03fb E47E     		.sleb128 -156
 8687 03fd 2E080000 		.4byte	.LVL132
 8688 0401 32080000 		.4byte	.LVL133
 8689 0405 0200     		.2byte	0x2
 8690 0407 30       		.byte	0x30
 8691 0408 9F       		.byte	0x9f
 8692 0409 00000000 		.4byte	0
 8693 040d 00000000 		.4byte	0
 8694              	.LLST10:
 8695 0411 18000000 		.4byte	.LVL114
 8696 0415 4E010000 		.4byte	.LVL125
 8697 0419 0A00     		.2byte	0xa
 8698 041b 9E       		.byte	0x9e
 8699 041c 08       		.uleb128 0x8
 8700 041d 00000000 		.8byte	0
 8700      00000000 
 8701 0425 4E010000 		.4byte	.LVL125
 8702 0429 94010000 		.4byte	.LVL130
 8703 042d 0600     		.2byte	0x6
 8704 042f 54       		.byte	0x54
 8705 0430 93       		.byte	0x93
 8706 0431 04       		.uleb128 0x4
 8707 0432 55       		.byte	0x55
 8708 0433 93       		.byte	0x93
 8709 0434 04       		.uleb128 0x4
 8710 0435 94010000 		.4byte	.LVL130
 8711 0439 98010000 		.4byte	.LVL131
 8712 043d 0A00     		.2byte	0xa
 8713 043f 9E       		.byte	0x9e
 8714 0440 08       		.uleb128 0x8
 8715 0441 00000000 		.8byte	0
 8715      00000000 
 8716 0449 98010000 		.4byte	.LVL131
 8717 044d 2E080000 		.4byte	.LVL132
 8718 0451 0600     		.2byte	0x6
 8719 0453 54       		.byte	0x54
 8720 0454 93       		.byte	0x93
 8721 0455 04       		.uleb128 0x4
 8722 0456 55       		.byte	0x55
 8723 0457 93       		.byte	0x93
 8724 0458 04       		.uleb128 0x4
ARM GAS  C:\Users\Ala\AppData\Local\Temp\ccPRO05X.s 			page 196


 8725 0459 2E080000 		.4byte	.LVL132
 8726 045d 32080000 		.4byte	.LVL133
 8727 0461 0A00     		.2byte	0xa
 8728 0463 9E       		.byte	0x9e
 8729 0464 08       		.uleb128 0x8
 8730 0465 00000000 		.8byte	0
 8730      00000000 
 8731 046d 32080000 		.4byte	.LVL133
 8732 0471 34080000 		.4byte	.LVL134
 8733 0475 0600     		.2byte	0x6
 8734 0477 54       		.byte	0x54
 8735 0478 93       		.byte	0x93
 8736 0479 04       		.uleb128 0x4
 8737 047a 55       		.byte	0x55
 8738 047b 93       		.byte	0x93
 8739 047c 04       		.uleb128 0x4
 8740 047d 38080000 		.4byte	.LVL135
 8741 0481 66090000 		.4byte	.LVL136
 8742 0485 0600     		.2byte	0x6
 8743 0487 54       		.byte	0x54
 8744 0488 93       		.byte	0x93
 8745 0489 04       		.uleb128 0x4
 8746 048a 55       		.byte	0x55
 8747 048b 93       		.byte	0x93
 8748 048c 04       		.uleb128 0x4
 8749 048d 00000000 		.4byte	0
 8750 0491 00000000 		.4byte	0
 8751              	.LLST11:
 8752 0495 18000000 		.4byte	.LVL114
 8753 0499 BE000000 		.4byte	.LVL118
 8754 049d 0200     		.2byte	0x2
 8755 049f 30       		.byte	0x30
 8756 04a0 9F       		.byte	0x9f
 8757 04a1 BE000000 		.4byte	.LVL118
 8758 04a5 26010000 		.4byte	.LVL119
 8759 04a9 0200     		.2byte	0x2
 8760 04ab 7D       		.byte	0x7d
 8761 04ac 00       		.sleb128 0
 8762 04ad 28010000 		.4byte	.LVL120
 8763 04b1 2E080000 		.4byte	.LVL132
 8764 04b5 0200     		.2byte	0x2
 8765 04b7 7D       		.byte	0x7d
 8766 04b8 00       		.sleb128 0
 8767 04b9 2E080000 		.4byte	.LVL132
 8768 04bd 32080000 		.4byte	.LVL133
 8769 04c1 0200     		.2byte	0x2
 8770 04c3 30       		.byte	0x30
 8771 04c4 9F       		.byte	0x9f
 8772 04c5 32080000 		.4byte	.LVL133
 8773 04c9 34080000 		.4byte	.LVL134
 8774 04cd 0200     		.2byte	0x2
 8775 04cf 7D       		.byte	0x7d
 8776 04d0 00       		.sleb128 0
 8777 04d1 38080000 		.4byte	.LVL135
 8778 04d5 70090000 		.4byte	.LVL137
 8779 04d9 0200     		.2byte	0x2
 8780 04db 7D       		.byte	0x7d
ARM GAS  C:\Users\Ala\AppData\Local\Temp\ccPRO05X.s 			page 197


 8781 04dc 00       		.sleb128 0
 8782 04dd 70090000 		.4byte	.LVL137
 8783 04e1 78090000 		.4byte	.LFE35
 8784 04e5 0300     		.2byte	0x3
 8785 04e7 91       		.byte	0x91
 8786 04e8 E07E     		.sleb128 -160
 8787 04ea 00000000 		.4byte	0
 8788 04ee 00000000 		.4byte	0
 8789              	.LLST12:
 8790 04f2 00000000 		.4byte	.LVL138
 8791 04f6 14000000 		.4byte	.LVL139
 8792 04fa 0100     		.2byte	0x1
 8793 04fc 50       		.byte	0x50
 8794 04fd 14000000 		.4byte	.LVL139
 8795 0501 CC000000 		.4byte	.LVL145
 8796 0505 0400     		.2byte	0x4
 8797 0507 F3       		.byte	0xf3
 8798 0508 01       		.uleb128 0x1
 8799 0509 50       		.byte	0x50
 8800 050a 9F       		.byte	0x9f
 8801 050b CC000000 		.4byte	.LVL145
 8802 050f CF000000 		.4byte	.LVL146-1
 8803 0513 0100     		.2byte	0x1
 8804 0515 50       		.byte	0x50
 8805 0516 CF000000 		.4byte	.LVL146-1
 8806 051a 40010000 		.4byte	.LFE36
 8807 051e 0400     		.2byte	0x4
 8808 0520 F3       		.byte	0xf3
 8809 0521 01       		.uleb128 0x1
 8810 0522 50       		.byte	0x50
 8811 0523 9F       		.byte	0x9f
 8812 0524 00000000 		.4byte	0
 8813 0528 00000000 		.4byte	0
 8814              	.LLST13:
 8815 052c 00000000 		.4byte	.LVL138
 8816 0530 1C000000 		.4byte	.LVL140
 8817 0534 0200     		.2byte	0x2
 8818 0536 30       		.byte	0x30
 8819 0537 9F       		.byte	0x9f
 8820 0538 1C000000 		.4byte	.LVL140
 8821 053c 4A000000 		.4byte	.LVL141
 8822 0540 0100     		.2byte	0x1
 8823 0542 50       		.byte	0x50
 8824 0543 5A000000 		.4byte	.LVL142
 8825 0547 82000000 		.4byte	.LVL143
 8826 054b 0100     		.2byte	0x1
 8827 054d 50       		.byte	0x50
 8828 054e 94000000 		.4byte	.LVL144
 8829 0552 CC000000 		.4byte	.LVL145
 8830 0556 0100     		.2byte	0x1
 8831 0558 50       		.byte	0x50
 8832 0559 CC000000 		.4byte	.LVL145
 8833 055d D0000000 		.4byte	.LVL146
 8834 0561 0200     		.2byte	0x2
 8835 0563 30       		.byte	0x30
 8836 0564 9F       		.byte	0x9f
 8837 0565 D0000000 		.4byte	.LVL146
ARM GAS  C:\Users\Ala\AppData\Local\Temp\ccPRO05X.s 			page 198


 8838 0569 12010000 		.4byte	.LVL151
 8839 056d 0100     		.2byte	0x1
 8840 056f 50       		.byte	0x50
 8841 0570 00000000 		.4byte	0
 8842 0574 00000000 		.4byte	0
 8843              	.LLST14:
 8844 0578 00000000 		.4byte	.LVL138
 8845 057c E6000000 		.4byte	.LVL147
 8846 0580 0200     		.2byte	0x2
 8847 0582 30       		.byte	0x30
 8848 0583 9F       		.byte	0x9f
 8849 0584 E6000000 		.4byte	.LVL147
 8850 0588 00010000 		.4byte	.LVL148
 8851 058c 0100     		.2byte	0x1
 8852 058e 56       		.byte	0x56
 8853 058f 00010000 		.4byte	.LVL148
 8854 0593 02010000 		.4byte	.LVL149
 8855 0597 0300     		.2byte	0x3
 8856 0599 76       		.byte	0x76
 8857 059a 01       		.sleb128 1
 8858 059b 9F       		.byte	0x9f
 8859 059c 10010000 		.4byte	.LVL150
 8860 05a0 14010000 		.4byte	.LVL152
 8861 05a4 0200     		.2byte	0x2
 8862 05a6 43       		.byte	0x43
 8863 05a7 9F       		.byte	0x9f
 8864 05a8 14010000 		.4byte	.LVL152
 8865 05ac 2E010000 		.4byte	.LVL153
 8866 05b0 0100     		.2byte	0x1
 8867 05b2 54       		.byte	0x54
 8868 05b3 2E010000 		.4byte	.LVL153
 8869 05b7 30010000 		.4byte	.LVL154
 8870 05bb 0300     		.2byte	0x3
 8871 05bd 74       		.byte	0x74
 8872 05be 01       		.sleb128 1
 8873 05bf 9F       		.byte	0x9f
 8874 05c0 00000000 		.4byte	0
 8875 05c4 00000000 		.4byte	0
 8876              	.LLST15:
 8877 05c8 00000000 		.4byte	.LVL155
 8878 05cc 07000000 		.4byte	.LVL156-1
 8879 05d0 0100     		.2byte	0x1
 8880 05d2 50       		.byte	0x50
 8881 05d3 07000000 		.4byte	.LVL156-1
 8882 05d7 B8000000 		.4byte	.LFE37
 8883 05db 0400     		.2byte	0x4
 8884 05dd F3       		.byte	0xf3
 8885 05de 01       		.uleb128 0x1
 8886 05df 50       		.byte	0x50
 8887 05e0 9F       		.byte	0x9f
 8888 05e1 00000000 		.4byte	0
 8889 05e5 00000000 		.4byte	0
 8890              	.LLST16:
 8891 05e9 10000000 		.4byte	.LVL157
 8892 05ed 42000000 		.4byte	.LVL163
 8893 05f1 0100     		.2byte	0x1
 8894 05f3 54       		.byte	0x54
ARM GAS  C:\Users\Ala\AppData\Local\Temp\ccPRO05X.s 			page 199


 8895 05f4 54000000 		.4byte	.LVL168
 8896 05f8 56000000 		.4byte	.LVL169
 8897 05fc 0100     		.2byte	0x1
 8898 05fe 54       		.byte	0x54
 8899 05ff 66000000 		.4byte	.LVL173
 8900 0603 68000000 		.4byte	.LVL174
 8901 0607 0100     		.2byte	0x1
 8902 0609 54       		.byte	0x54
 8903 060a 78000000 		.4byte	.LVL178
 8904 060e 7A000000 		.4byte	.LVL179
 8905 0612 0100     		.2byte	0x1
 8906 0614 54       		.byte	0x54
 8907 0615 8A000000 		.4byte	.LVL183
 8908 0619 8C000000 		.4byte	.LVL184
 8909 061d 0100     		.2byte	0x1
 8910 061f 54       		.byte	0x54
 8911 0620 00000000 		.4byte	0
 8912 0624 00000000 		.4byte	0
 8913              	.LLST17:
 8914 0628 42000000 		.4byte	.LVL163
 8915 062c 4A000000 		.4byte	.LVL165
 8916 0630 0700     		.2byte	0x7
 8917 0632 0A       		.byte	0xa
 8918 0633 1E06     		.2byte	0x61e
 8919 0635 74       		.byte	0x74
 8920 0636 00       		.sleb128 0
 8921 0637 1C       		.byte	0x1c
 8922 0638 9F       		.byte	0x9f
 8923 0639 4A000000 		.4byte	.LVL165
 8924 063d 4C000000 		.4byte	.LVL166
 8925 0641 0700     		.2byte	0x7
 8926 0643 0A       		.byte	0xa
 8927 0644 1F06     		.2byte	0x61f
 8928 0646 74       		.byte	0x74
 8929 0647 00       		.sleb128 0
 8930 0648 1C       		.byte	0x1c
 8931 0649 9F       		.byte	0x9f
 8932 064a 4C000000 		.4byte	.LVL166
 8933 064e 50000000 		.4byte	.LVL167
 8934 0652 0700     		.2byte	0x7
 8935 0654 0A       		.byte	0xa
 8936 0655 1E06     		.2byte	0x61e
 8937 0657 74       		.byte	0x74
 8938 0658 00       		.sleb128 0
 8939 0659 1C       		.byte	0x1c
 8940 065a 9F       		.byte	0x9f
 8941 065b 56000000 		.4byte	.LVL169
 8942 065f 5E000000 		.4byte	.LVL171
 8943 0663 0700     		.2byte	0x7
 8944 0665 0A       		.byte	0xa
 8945 0666 3A12     		.2byte	0x123a
 8946 0668 74       		.byte	0x74
 8947 0669 00       		.sleb128 0
 8948 066a 1C       		.byte	0x1c
 8949 066b 9F       		.byte	0x9f
 8950 066c 5E000000 		.4byte	.LVL171
 8951 0670 60000000 		.4byte	.LVL172
ARM GAS  C:\Users\Ala\AppData\Local\Temp\ccPRO05X.s 			page 200


 8952 0674 0700     		.2byte	0x7
 8953 0676 0A       		.byte	0xa
 8954 0677 3B12     		.2byte	0x123b
 8955 0679 74       		.byte	0x74
 8956 067a 00       		.sleb128 0
 8957 067b 1C       		.byte	0x1c
 8958 067c 9F       		.byte	0x9f
 8959 067d 60000000 		.4byte	.LVL172
 8960 0681 66000000 		.4byte	.LVL173
 8961 0685 0700     		.2byte	0x7
 8962 0687 0A       		.byte	0xa
 8963 0688 3A12     		.2byte	0x123a
 8964 068a 74       		.byte	0x74
 8965 068b 00       		.sleb128 0
 8966 068c 1C       		.byte	0x1c
 8967 068d 9F       		.byte	0x9f
 8968 068e 68000000 		.4byte	.LVL174
 8969 0692 70000000 		.4byte	.LVL176
 8970 0696 0700     		.2byte	0x7
 8971 0698 0A       		.byte	0xa
 8972 0699 511E     		.2byte	0x1e51
 8973 069b 74       		.byte	0x74
 8974 069c 00       		.sleb128 0
 8975 069d 1C       		.byte	0x1c
 8976 069e 9F       		.byte	0x9f
 8977 069f 70000000 		.4byte	.LVL176
 8978 06a3 72000000 		.4byte	.LVL177
 8979 06a7 0700     		.2byte	0x7
 8980 06a9 0A       		.byte	0xa
 8981 06aa 521E     		.2byte	0x1e52
 8982 06ac 74       		.byte	0x74
 8983 06ad 00       		.sleb128 0
 8984 06ae 1C       		.byte	0x1c
 8985 06af 9F       		.byte	0x9f
 8986 06b0 72000000 		.4byte	.LVL177
 8987 06b4 78000000 		.4byte	.LVL178
 8988 06b8 0700     		.2byte	0x7
 8989 06ba 0A       		.byte	0xa
 8990 06bb 511E     		.2byte	0x1e51
 8991 06bd 74       		.byte	0x74
 8992 06be 00       		.sleb128 0
 8993 06bf 1C       		.byte	0x1c
 8994 06c0 9F       		.byte	0x9f
 8995 06c1 7A000000 		.4byte	.LVL179
 8996 06c5 82000000 		.4byte	.LVL181
 8997 06c9 0700     		.2byte	0x7
 8998 06cb 0A       		.byte	0xa
 8999 06cc F92A     		.2byte	0x2af9
 9000 06ce 74       		.byte	0x74
 9001 06cf 00       		.sleb128 0
 9002 06d0 1C       		.byte	0x1c
 9003 06d1 9F       		.byte	0x9f
 9004 06d2 82000000 		.4byte	.LVL181
 9005 06d6 84000000 		.4byte	.LVL182
 9006 06da 0700     		.2byte	0x7
 9007 06dc 0A       		.byte	0xa
 9008 06dd FA2A     		.2byte	0x2afa
ARM GAS  C:\Users\Ala\AppData\Local\Temp\ccPRO05X.s 			page 201


 9009 06df 74       		.byte	0x74
 9010 06e0 00       		.sleb128 0
 9011 06e1 1C       		.byte	0x1c
 9012 06e2 9F       		.byte	0x9f
 9013 06e3 84000000 		.4byte	.LVL182
 9014 06e7 8A000000 		.4byte	.LVL183
 9015 06eb 0700     		.2byte	0x7
 9016 06ed 0A       		.byte	0xa
 9017 06ee F92A     		.2byte	0x2af9
 9018 06f0 74       		.byte	0x74
 9019 06f1 00       		.sleb128 0
 9020 06f2 1C       		.byte	0x1c
 9021 06f3 9F       		.byte	0x9f
 9022 06f4 8C000000 		.4byte	.LVL184
 9023 06f8 94000000 		.4byte	.LVL186
 9024 06fc 0700     		.2byte	0x7
 9025 06fe 0A       		.byte	0xa
 9026 06ff E336     		.2byte	0x36e3
 9027 0701 74       		.byte	0x74
 9028 0702 00       		.sleb128 0
 9029 0703 1C       		.byte	0x1c
 9030 0704 9F       		.byte	0x9f
 9031 0705 94000000 		.4byte	.LVL186
 9032 0709 96000000 		.4byte	.LVL187
 9033 070d 0700     		.2byte	0x7
 9034 070f 0A       		.byte	0xa
 9035 0710 E436     		.2byte	0x36e4
 9036 0712 74       		.byte	0x74
 9037 0713 00       		.sleb128 0
 9038 0714 1C       		.byte	0x1c
 9039 0715 9F       		.byte	0x9f
 9040 0716 96000000 		.4byte	.LVL187
 9041 071a 9C000000 		.4byte	.LVL188
 9042 071e 0700     		.2byte	0x7
 9043 0720 0A       		.byte	0xa
 9044 0721 E336     		.2byte	0x36e3
 9045 0723 74       		.byte	0x74
 9046 0724 00       		.sleb128 0
 9047 0725 1C       		.byte	0x1c
 9048 0726 9F       		.byte	0x9f
 9049 0727 00000000 		.4byte	0
 9050 072b 00000000 		.4byte	0
 9051              	.LLST18:
 9052 072f 00000000 		.4byte	.LVL189
 9053 0733 29000000 		.4byte	.LVL190-1
 9054 0737 0100     		.2byte	0x1
 9055 0739 50       		.byte	0x50
 9056 073a 29000000 		.4byte	.LVL190-1
 9057 073e 10010000 		.4byte	.LVL214
 9058 0742 0400     		.2byte	0x4
 9059 0744 F3       		.byte	0xf3
 9060 0745 01       		.uleb128 0x1
 9061 0746 50       		.byte	0x50
 9062 0747 9F       		.byte	0x9f
 9063 0748 10010000 		.4byte	.LVL214
 9064 074c 13010000 		.4byte	.LVL215-1
 9065 0750 0100     		.2byte	0x1
ARM GAS  C:\Users\Ala\AppData\Local\Temp\ccPRO05X.s 			page 202


 9066 0752 50       		.byte	0x50
 9067 0753 13010000 		.4byte	.LVL215-1
 9068 0757 EA010000 		.4byte	.LVL234
 9069 075b 0400     		.2byte	0x4
 9070 075d F3       		.byte	0xf3
 9071 075e 01       		.uleb128 0x1
 9072 075f 50       		.byte	0x50
 9073 0760 9F       		.byte	0x9f
 9074 0761 EA010000 		.4byte	.LVL234
 9075 0765 ED010000 		.4byte	.LVL235-1
 9076 0769 0100     		.2byte	0x1
 9077 076b 50       		.byte	0x50
 9078 076c ED010000 		.4byte	.LVL235-1
 9079 0770 D6020000 		.4byte	.LVL255
 9080 0774 0400     		.2byte	0x4
 9081 0776 F3       		.byte	0xf3
 9082 0777 01       		.uleb128 0x1
 9083 0778 50       		.byte	0x50
 9084 0779 9F       		.byte	0x9f
 9085 077a D6020000 		.4byte	.LVL255
 9086 077e D9020000 		.4byte	.LVL256-1
 9087 0782 0100     		.2byte	0x1
 9088 0784 50       		.byte	0x50
 9089 0785 D9020000 		.4byte	.LVL256-1
 9090 0789 7A030000 		.4byte	.LVL270
 9091 078d 0400     		.2byte	0x4
 9092 078f F3       		.byte	0xf3
 9093 0790 01       		.uleb128 0x1
 9094 0791 50       		.byte	0x50
 9095 0792 9F       		.byte	0x9f
 9096 0793 7A030000 		.4byte	.LVL270
 9097 0797 7D030000 		.4byte	.LVL271-1
 9098 079b 0100     		.2byte	0x1
 9099 079d 50       		.byte	0x50
 9100 079e 7D030000 		.4byte	.LVL271-1
 9101 07a2 4E040000 		.4byte	.LVL289
 9102 07a6 0400     		.2byte	0x4
 9103 07a8 F3       		.byte	0xf3
 9104 07a9 01       		.uleb128 0x1
 9105 07aa 50       		.byte	0x50
 9106 07ab 9F       		.byte	0x9f
 9107 07ac 4E040000 		.4byte	.LVL289
 9108 07b0 51040000 		.4byte	.LVL290-1
 9109 07b4 0100     		.2byte	0x1
 9110 07b6 50       		.byte	0x50
 9111 07b7 51040000 		.4byte	.LVL290-1
 9112 07bb 3A050000 		.4byte	.LVL310
 9113 07bf 0400     		.2byte	0x4
 9114 07c1 F3       		.byte	0xf3
 9115 07c2 01       		.uleb128 0x1
 9116 07c3 50       		.byte	0x50
 9117 07c4 9F       		.byte	0x9f
 9118 07c5 3A050000 		.4byte	.LVL310
 9119 07c9 3D050000 		.4byte	.LVL311-1
 9120 07cd 0100     		.2byte	0x1
 9121 07cf 50       		.byte	0x50
 9122 07d0 3D050000 		.4byte	.LVL311-1
ARM GAS  C:\Users\Ala\AppData\Local\Temp\ccPRO05X.s 			page 203


 9123 07d4 1A060000 		.4byte	.LVL330
 9124 07d8 0400     		.2byte	0x4
 9125 07da F3       		.byte	0xf3
 9126 07db 01       		.uleb128 0x1
 9127 07dc 50       		.byte	0x50
 9128 07dd 9F       		.byte	0x9f
 9129 07de 1A060000 		.4byte	.LVL330
 9130 07e2 1D060000 		.4byte	.LVL331-1
 9131 07e6 0100     		.2byte	0x1
 9132 07e8 50       		.byte	0x50
 9133 07e9 1D060000 		.4byte	.LVL331-1
 9134 07ed EE060000 		.4byte	.LVL349
 9135 07f1 0400     		.2byte	0x4
 9136 07f3 F3       		.byte	0xf3
 9137 07f4 01       		.uleb128 0x1
 9138 07f5 50       		.byte	0x50
 9139 07f6 9F       		.byte	0x9f
 9140 07f7 EE060000 		.4byte	.LVL349
 9141 07fb F1060000 		.4byte	.LVL350-1
 9142 07ff 0100     		.2byte	0x1
 9143 0801 50       		.byte	0x50
 9144 0802 F1060000 		.4byte	.LVL350-1
 9145 0806 D2070000 		.4byte	.LFE38
 9146 080a 0400     		.2byte	0x4
 9147 080c F3       		.byte	0xf3
 9148 080d 01       		.uleb128 0x1
 9149 080e 50       		.byte	0x50
 9150 080f 9F       		.byte	0x9f
 9151 0810 00000000 		.4byte	0
 9152 0814 00000000 		.4byte	0
 9153              		.section	.debug_aranges,"",%progbits
 9154 0000 4C000000 		.4byte	0x4c
 9155 0004 0200     		.2byte	0x2
 9156 0006 00000000 		.4byte	.Ldebug_info0
 9157 000a 04       		.byte	0x4
 9158 000b 00       		.byte	0
 9159 000c 0000     		.2byte	0
 9160 000e 0000     		.2byte	0
 9161 0010 00000000 		.4byte	.LFB34
 9162 0014 5C000000 		.4byte	.LFE34-.LFB34
 9163 0018 00000000 		.4byte	.LFB33
 9164 001c 54030000 		.4byte	.LFE33-.LFB33
 9165 0020 00000000 		.4byte	.LFB32
 9166 0024 0C010000 		.4byte	.LFE32-.LFB32
 9167 0028 00000000 		.4byte	.LFB35
 9168 002c 78090000 		.4byte	.LFE35-.LFB35
 9169 0030 00000000 		.4byte	.LFB36
 9170 0034 40010000 		.4byte	.LFE36-.LFB36
 9171 0038 00000000 		.4byte	.LFB37
 9172 003c B8000000 		.4byte	.LFE37-.LFB37
 9173 0040 00000000 		.4byte	.LFB38
 9174 0044 D2070000 		.4byte	.LFE38-.LFB38
 9175 0048 00000000 		.4byte	0
 9176 004c 00000000 		.4byte	0
 9177              		.section	.debug_ranges,"",%progbits
 9178              	.Ldebug_ranges0:
 9179 0000 00000000 		.4byte	.LFB34
ARM GAS  C:\Users\Ala\AppData\Local\Temp\ccPRO05X.s 			page 204


 9180 0004 5C000000 		.4byte	.LFE34
 9181 0008 00000000 		.4byte	.LFB33
 9182 000c 54030000 		.4byte	.LFE33
 9183 0010 00000000 		.4byte	.LFB32
 9184 0014 0C010000 		.4byte	.LFE32
 9185 0018 00000000 		.4byte	.LFB35
 9186 001c 78090000 		.4byte	.LFE35
 9187 0020 00000000 		.4byte	.LFB36
 9188 0024 40010000 		.4byte	.LFE36
 9189 0028 00000000 		.4byte	.LFB37
 9190 002c B8000000 		.4byte	.LFE37
 9191 0030 00000000 		.4byte	.LFB38
 9192 0034 D2070000 		.4byte	.LFE38
 9193 0038 00000000 		.4byte	0
 9194 003c 00000000 		.4byte	0
 9195              		.section	.debug_line,"",%progbits
 9196              	.Ldebug_line0:
 9197 0000 4F060000 		.section	.debug_str,"MS",%progbits,1
 9197      02000502 
 9197      00000201 
 9197      FB0E0D00 
 9197      01010101 
 9198              	.LASF16:
 9199 0000 6C6F6E67 		.ascii	"long double\000"
 9199      20646F75 
 9199      626C6500 
 9200              	.LASF93:
 9201 000c 42545F4C 		.ascii	"BT_LL_Read\000"
 9201      4C5F5265 
 9201      616400
 9202              	.LASF112:
 9203 0017 64617461 		.ascii	"datalink_counter\000"
 9203      6C696E6B 
 9203      5F636F75 
 9203      6E746572 
 9203      00
 9204              	.LASF45:
 9205 0028 6865785F 		.ascii	"hex_weight\000"
 9205      77656967 
 9205      687400
 9206              	.LASF94:
 9207 0033 42545F50 		.ascii	"BT_PAIRING_Read\000"
 9207      41495249 
 9207      4E475F52 
 9207      65616400 
 9208              	.LASF13:
 9209 0043 75696E74 		.ascii	"uint64\000"
 9209      363400
 9210              	.LASF21:
 9211 004a 65657072 		.ascii	"eepromSize\000"
 9211      6F6D5369 
 9211      7A6500
 9212              	.LASF32:
 9213 0055 70737553 		.ascii	"psuState\000"
 9213      74617465 
 9213      00
 9214              	.LASF58:
ARM GAS  C:\Users\Ala\AppData\Local\Temp\ccPRO05X.s 			page 205


 9215 005e 44495350 		.ascii	"DISPLAY_STATE\000"
 9215      4C41595F 
 9215      53544154 
 9215      4500
 9216              	.LASF2:
 9217 006c 73686F72 		.ascii	"short int\000"
 9217      7420696E 
 9217      7400
 9218              	.LASF17:
 9219 0076 73697A65 		.ascii	"sizetype\000"
 9219      74797065 
 9219      00
 9220              	.LASF39:
 9221 007f 7377436F 		.ascii	"swCounter\000"
 9221      756E7465 
 9221      7200
 9222              	.LASF74:
 9223 0089 64756D6D 		.ascii	"dummyBuffer\000"
 9223      79427566 
 9223      66657200 
 9224              	.LASF77:
 9225 0095 5057525F 		.ascii	"PWR_SDSP_Write\000"
 9225      53445350 
 9225      5F577269 
 9225      746500
 9226              	.LASF88:
 9227 00a4 42545F50 		.ascii	"BT_PREVIOUS_Write\000"
 9227      52455649 
 9227      4F55535F 
 9227      57726974 
 9227      6500
 9228              	.LASF70:
 9229 00b6 44415441 		.ascii	"DATALINK_TABLE\000"
 9229      4C494E4B 
 9229      5F544142 
 9229      4C4500
 9230              	.LASF6:
 9231 00c5 6C6F6E67 		.ascii	"long long int\000"
 9231      206C6F6E 
 9231      6720696E 
 9231      7400
 9232              	.LASF98:
 9233 00d3 6D656D63 		.ascii	"memcpy\000"
 9233      707900
 9234              	.LASF37:
 9235 00da 6D6F6465 		.ascii	"mode\000"
 9235      00
 9236              	.LASF92:
 9237 00df 42545F48 		.ascii	"BT_HD_Read\000"
 9237      445F5265 
 9237      616400
 9238              	.LASF87:
 9239 00ea 42545F50 		.ascii	"BT_PAUSE_Write\000"
 9239      41555345 
 9239      5F577269 
 9239      746500
 9240              	.LASF24:
ARM GAS  C:\Users\Ala\AppData\Local\Temp\ccPRO05X.s 			page 206


 9241 00f9 626C6F63 		.ascii	"blockingWrite\000"
 9241      6B696E67 
 9241      57726974 
 9241      6500
 9242              	.LASF44:
 9243 0107 636F6D6D 		.ascii	"command_counter\000"
 9243      616E645F 
 9243      636F756E 
 9243      74657200 
 9244              	.LASF30:
 9245 0117 426C7565 		.ascii	"BlueTooth_PWR\000"
 9245      546F6F74 
 9245      685F5057 
 9245      5200
 9246              	.LASF38:
 9247 0125 42545F73 		.ascii	"BT_status\000"
 9247      74617475 
 9247      7300
 9248              	.LASF80:
 9249 012f 5057525F 		.ascii	"PWR_BT_ReadDataReg\000"
 9249      42545F52 
 9249      65616444 
 9249      61746152 
 9249      656700
 9250              	.LASF89:
 9251 0142 42545F4E 		.ascii	"BT_NEXT_Write\000"
 9251      4558545F 
 9251      57726974 
 9251      6500
 9252              	.LASF73:
 9253 0150 44495350 		.ascii	"DISPLAY_UPDATE\000"
 9253      4C41595F 
 9253      55504441 
 9253      544500
 9254              	.LASF96:
 9255 015f 43795F45 		.ascii	"Cy_Em_EEPROM_Write\000"
 9255      6D5F4545 
 9255      50524F4D 
 9255      5F577269 
 9255      746500
 9256              	.LASF97:
 9257 0172 55415254 		.ascii	"UART_UartPutString\000"
 9257      5F556172 
 9257      74507574 
 9257      53747269 
 9257      6E6700
 9258              	.LASF9:
 9259 0185 75696E74 		.ascii	"uint8\000"
 9259      3800
 9260              	.LASF49:
 9261 018b 434F4D4D 		.ascii	"COMMAND_HEX\000"
 9261      414E445F 
 9261      48455800 
 9262              	.LASF60:
 9263 0197 6E65775F 		.ascii	"new_display_data_flag\000"
 9263      64697370 
 9263      6C61795F 
ARM GAS  C:\Users\Ala\AppData\Local\Temp\ccPRO05X.s 			page 207


 9263      64617461 
 9263      5F666C61 
 9264              	.LASF23:
 9265 01ad 72656475 		.ascii	"redundantCopy\000"
 9265      6E64616E 
 9265      74436F70 
 9265      7900
 9266              	.LASF59:
 9267 01bb 42545F54 		.ascii	"BT_Tx_STATE\000"
 9267      785F5354 
 9267      41544500 
 9268              	.LASF11:
 9269 01c7 666C6F61 		.ascii	"float\000"
 9269      7400
 9270              	.LASF103:
 9271 01cd 44415441 		.ascii	"DATALINK_Read\000"
 9271      4C494E4B 
 9271      5F526561 
 9271      6400
 9272              	.LASF64:
 9273 01db 6E657874 		.ascii	"next_PSUstate\000"
 9273      5F505355 
 9273      73746174 
 9273      6500
 9274              	.LASF104:
 9275 01e9 44415441 		.ascii	"DATALINK_INTRRUPT_Disable\000"
 9275      4C494E4B 
 9275      5F494E54 
 9275      52525550 
 9275      545F4469 
 9276              	.LASF47:
 9277 0203 54494D45 		.ascii	"TIME_TABLE\000"
 9277      5F544142 
 9277      4C4500
 9278              	.LASF33:
 9279 020e 61637469 		.ascii	"action\000"
 9279      6F6E00
 9280              	.LASF76:
 9281 0215 5057525F 		.ascii	"PWR_BT_Write\000"
 9281      42545F57 
 9281      72697465 
 9281      00
 9282              	.LASF99:
 9283 0222 6D656D73 		.ascii	"memset\000"
 9283      657400
 9284              	.LASF4:
 9285 0229 6C6F6E67 		.ascii	"long int\000"
 9285      20696E74 
 9285      00
 9286              	.LASF36:
 9287 0232 42545F63 		.ascii	"BT_control\000"
 9287      6F6E7472 
 9287      6F6C00
 9288              	.LASF78:
 9289 023d 5057525F 		.ascii	"PWR_RPI_Write\000"
 9289      5250495F 
 9289      57726974 
ARM GAS  C:\Users\Ala\AppData\Local\Temp\ccPRO05X.s 			page 208


 9289      6500
 9290              	.LASF53:
 9291 024b 44415441 		.ascii	"DATALINK_out\000"
 9291      4C494E4B 
 9291      5F6F7574 
 9291      00
 9292              	.LASF100:
 9293 0258 5350494D 		.ascii	"SPIM_SigmaDSP_read\000"
 9293      5F536967 
 9293      6D614453 
 9293      505F7265 
 9293      616400
 9294              	.LASF29:
 9295 026b 5369676D 		.ascii	"SigmaDSP_PWR\000"
 9295      61445350 
 9295      5F505752 
 9295      00
 9296              	.LASF46:
 9297 0278 6465636F 		.ascii	"decoded_command_table_size\000"
 9297      6465645F 
 9297      636F6D6D 
 9297      616E645F 
 9297      7461626C 
 9298              	.LASF55:
 9299 0293 456D5F45 		.ascii	"Em_EEPROM_context\000"
 9299      4550524F 
 9299      4D5F636F 
 9299      6E746578 
 9299      7400
 9300              	.LASF27:
 9301 02a5 5250495F 		.ascii	"RPI_PWR\000"
 9301      50575200 
 9302              	.LASF71:
 9303 02ad 44415441 		.ascii	"DATALINK_TABLE_COUNTER\000"
 9303      4C494E4B 
 9303      5F544142 
 9303      4C455F43 
 9303      4F554E54 
 9304              	.LASF102:
 9305 02c4 43794465 		.ascii	"CyDelayUs\000"
 9305      6C617955 
 9305      7300
 9306              	.LASF1:
 9307 02ce 756E7369 		.ascii	"unsigned char\000"
 9307      676E6564 
 9307      20636861 
 9307      7200
 9308              	.LASF35:
 9309 02dc 7073755F 		.ascii	"psu_config\000"
 9309      636F6E66 
 9309      696700
 9310              	.LASF52:
 9311 02e7 64697370 		.ascii	"display_counter\000"
 9311      6C61795F 
 9311      636F756E 
 9311      74657200 
 9312              	.LASF107:
ARM GAS  C:\Users\Ala\AppData\Local\Temp\ccPRO05X.s 			page 209


 9313 02f7 6D6F6465 		.ascii	"modes.c\000"
 9313      732E6300 
 9314              	.LASF72:
 9315 02ff 44415441 		.ascii	"DATALINK_TABLE_COUNTER_MAX\000"
 9315      4C494E4B 
 9315      5F544142 
 9315      4C455F43 
 9315      4F554E54 
 9316              	.LASF68:
 9317 031a 4D4F4445 		.ascii	"MODE_LONG_V\000"
 9317      5F4C4F4E 
 9317      475F5600 
 9318              	.LASF0:
 9319 0326 7369676E 		.ascii	"signed char\000"
 9319      65642063 
 9319      68617200 
 9320              	.LASF7:
 9321 0332 6C6F6E67 		.ascii	"long long unsigned int\000"
 9321      206C6F6E 
 9321      6720756E 
 9321      7369676E 
 9321      65642069 
 9322              	.LASF42:
 9323 0349 62757474 		.ascii	"buttons_check\000"
 9323      6F6E735F 
 9323      63686563 
 9323      6B00
 9324              	.LASF83:
 9325 0357 42545F54 		.ascii	"BT_Tx_Rx_Write\000"
 9325      785F5278 
 9325      5F577269 
 9325      746500
 9326              	.LASF108:
 9327 0366 433A5C55 		.ascii	"C:\\Users\\Ala\\Desktop\\Cypress\\BeoM_main.cydsn\000"
 9327      73657273 
 9327      5C416C61 
 9327      5C446573 
 9327      6B746F70 
 9328              	.LASF8:
 9329 0393 756E7369 		.ascii	"unsigned int\000"
 9329      676E6564 
 9329      20696E74 
 9329      00
 9330              	.LASF25:
 9331 03a0 75736572 		.ascii	"userFlashStartAddr\000"
 9331      466C6173 
 9331      68537461 
 9331      72744164 
 9331      647200
 9332              	.LASF95:
 9333 03b3 43795F45 		.ascii	"Cy_Em_EEPROM_Read\000"
 9333      6D5F4545 
 9333      50524F4D 
 9333      5F526561 
 9333      6400
 9334              	.LASF91:
 9335 03c5 42545F41 		.ascii	"BT_APTX_Read\000"
ARM GAS  C:\Users\Ala\AppData\Local\Temp\ccPRO05X.s 			page 210


 9335      5054585F 
 9335      52656164 
 9335      00
 9336              	.LASF105:
 9337 03d2 44415441 		.ascii	"DATALINK_INTRRUPT_Enable\000"
 9337      4C494E4B 
 9337      5F494E54 
 9337      52525550 
 9337      545F456E 
 9338              	.LASF111:
 9339 03eb 74696D65 		.ascii	"time\000"
 9339      00
 9340              	.LASF51:
 9341 03f0 5369676D 		.ascii	"SigmaDSP_to_display\000"
 9341      61445350 
 9341      5F746F5F 
 9341      64697370 
 9341      6C617900 
 9342              	.LASF15:
 9343 0404 72656733 		.ascii	"reg32\000"
 9343      3200
 9344              	.LASF62:
 9345 040a 6E65775F 		.ascii	"new_disp_ctrl1\000"
 9345      64697370 
 9345      5F637472 
 9345      6C3100
 9346              	.LASF63:
 9347 0419 6E65775F 		.ascii	"new_disp_ctrl2\000"
 9347      64697370 
 9347      5F637472 
 9347      6C3200
 9348              	.LASF3:
 9349 0428 73686F72 		.ascii	"short unsigned int\000"
 9349      7420756E 
 9349      7369676E 
 9349      65642069 
 9349      6E7400
 9350              	.LASF50:
 9351 043b 73746174 		.ascii	"status\000"
 9351      757300
 9352              	.LASF28:
 9353 0442 5250695F 		.ascii	"RPi_GPIO_state\000"
 9353      4750494F 
 9353      5F737461 
 9353      746500
 9354              	.LASF14:
 9355 0451 63686172 		.ascii	"char\000"
 9355      00
 9356              	.LASF31:
 9357 0456 44697370 		.ascii	"Display_PWR\000"
 9357      6C61795F 
 9357      50575200 
 9358              	.LASF79:
 9359 0462 5057525F 		.ascii	"PWR_DISP_ReadDataReg\000"
 9359      44495350 
 9359      5F526561 
 9359      64446174 
ARM GAS  C:\Users\Ala\AppData\Local\Temp\ccPRO05X.s 			page 211


 9359      61526567 
 9360              	.LASF84:
 9361 0477 73747263 		.ascii	"strcpy\000"
 9361      707900
 9362              	.LASF18:
 9363 047e 776C456E 		.ascii	"wlEndAddr\000"
 9363      64416464 
 9363      7200
 9364              	.LASF85:
 9365 0488 42545F52 		.ascii	"BT_RE_CONNECT_Write\000"
 9365      455F434F 
 9365      4E4E4543 
 9365      545F5772 
 9365      69746500 
 9366              	.LASF26:
 9367 049c 63795F73 		.ascii	"cy_stc_eeprom_context_t\000"
 9367      74635F65 
 9367      6570726F 
 9367      6D5F636F 
 9367      6E746578 
 9368              	.LASF66:
 9369 04b4 4D4F4445 		.ascii	"MODE_SHORT_V\000"
 9369      5F53484F 
 9369      52545F56 
 9369      00
 9370              	.LASF81:
 9371 04c1 5057525F 		.ascii	"PWR_SDSP_ReadDataReg\000"
 9371      53445350 
 9371      5F526561 
 9371      64446174 
 9371      61526567 
 9372              	.LASF90:
 9373 04d6 42545F53 		.ascii	"BT_SBC_Read\000"
 9373      42435F52 
 9373      65616400 
 9374              	.LASF10:
 9375 04e2 75696E74 		.ascii	"uint32\000"
 9375      333200
 9376              	.LASF69:
 9377 04e9 5057525F 		.ascii	"PWR_OK_LONG_V\000"
 9377      4F4B5F4C 
 9377      4F4E475F 
 9377      5600
 9378              	.LASF5:
 9379 04f7 6C6F6E67 		.ascii	"long unsigned int\000"
 9379      20756E73 
 9379      69676E65 
 9379      6420696E 
 9379      7400
 9380              	.LASF12:
 9381 0509 646F7562 		.ascii	"double\000"
 9381      6C6500
 9382              	.LASF57:
 9383 0510 53595354 		.ascii	"SYSTEM_STATE\000"
 9383      454D5F53 
 9383      54415445 
 9383      00
ARM GAS  C:\Users\Ala\AppData\Local\Temp\ccPRO05X.s 			page 212


 9384              	.LASF75:
 9385 051d 5057525F 		.ascii	"PWR_DISP_Write\000"
 9385      44495350 
 9385      5F577269 
 9385      746500
 9386              	.LASF41:
 9387 052c 61727261 		.ascii	"array\000"
 9387      7900
 9388              	.LASF56:
 9389 0532 65657072 		.ascii	"eepromArray\000"
 9389      6F6D4172 
 9389      72617900 
 9390              	.LASF110:
 9391 053e 44415441 		.ascii	"DATALINK_times\000"
 9391      4C494E4B 
 9391      5F74696D 
 9391      657300
 9392              	.LASF48:
 9393 054d 434F4D4D 		.ascii	"COMMAND_TABLE\000"
 9393      414E445F 
 9393      5441424C 
 9393      4500
 9394              	.LASF82:
 9395 055b 5057525F 		.ascii	"PWR_RPI_ReadDataReg\000"
 9395      5250495F 
 9395      52656164 
 9395      44617461 
 9395      52656700 
 9396              	.LASF106:
 9397 056f 474E5520 		.ascii	"GNU C11 5.4.1 20160609 (release) [ARM/embedded-5-br"
 9397      43313120 
 9397      352E342E 
 9397      31203230 
 9397      31363036 
 9398 05a2 616E6368 		.ascii	"anch revision 237715] -mcpu=cortex-m0 -mthumb -g -O"
 9398      20726576 
 9398      6973696F 
 9398      6E203233 
 9398      37373135 
 9399 05d5 73202D66 		.ascii	"s -ffunction-sections -ffat-lto-objects\000"
 9399      66756E63 
 9399      74696F6E 
 9399      2D736563 
 9399      74696F6E 
 9400              	.LASF109:
 9401 05fd 506F7765 		.ascii	"Power_Supply_State\000"
 9401      725F5375 
 9401      70706C79 
 9401      5F537461 
 9401      746500
 9402              	.LASF54:
 9403 0610 636F6D6D 		.ascii	"command\000"
 9403      616E6400 
 9404              	.LASF67:
 9405 0618 5057525F 		.ascii	"PWR_OK_SHORT_V\000"
 9405      4F4B5F53 
 9405      484F5254 
ARM GAS  C:\Users\Ala\AppData\Local\Temp\ccPRO05X.s 			page 213


 9405      5F5600
 9406              	.LASF101:
 9407 0627 44415441 		.ascii	"DATALINK_Write\000"
 9407      4C494E4B 
 9407      5F577269 
 9407      746500
 9408              	.LASF40:
 9409 0636 6C6F6F70 		.ascii	"loopCounter\000"
 9409      436F756E 
 9409      74657200 
 9410              	.LASF22:
 9411 0642 77656172 		.ascii	"wearLevelingFactor\000"
 9411      4C657665 
 9411      6C696E67 
 9411      46616374 
 9411      6F7200
 9412              	.LASF61:
 9413 0655 6E65775F 		.ascii	"new_display_data_buffer\000"
 9413      64697370 
 9413      6C61795F 
 9413      64617461 
 9413      5F627566 
 9414              	.LASF86:
 9415 066d 43794465 		.ascii	"CyDelay\000"
 9415      6C617900 
 9416              	.LASF43:
 9417 0675 64617461 		.ascii	"datalink_decoder\000"
 9417      6C696E6B 
 9417      5F646563 
 9417      6F646572 
 9417      00
 9418              	.LASF20:
 9419 0686 6C617374 		.ascii	"lastWrRowAddr\000"
 9419      5772526F 
 9419      77416464 
 9419      7200
 9420              	.LASF34:
 9421 0694 6E65775F 		.ascii	"new_PSUstate\000"
 9421      50535573 
 9421      74617465 
 9421      00
 9422              	.LASF19:
 9423 06a1 6E756D62 		.ascii	"numberOfRows\000"
 9423      65724F66 
 9423      526F7773 
 9423      00
 9424              	.LASF65:
 9425 06ae 63757272 		.ascii	"current_PSUstate\000"
 9425      656E745F 
 9425      50535573 
 9425      74617465 
 9425      00
 9426              		.ident	"GCC: (GNU Tools for ARM Embedded Processors) 5.4.1 20160609 (release) [ARM/embedded-5-bran
