ARM GAS  C:\Users\Ala\AppData\Local\Temp\ccOVTyLC.s 			page 1


   1              		.syntax unified
   2              		.cpu cortex-m0
   3              		.fpu softvfp
   4              		.eabi_attribute 20, 1
   5              		.eabi_attribute 21, 1
   6              		.eabi_attribute 23, 3
   7              		.eabi_attribute 24, 1
   8              		.eabi_attribute 25, 1
   9              		.eabi_attribute 26, 1
  10              		.eabi_attribute 30, 4
  11              		.eabi_attribute 34, 0
  12              		.eabi_attribute 18, 4
  13              		.thumb
  14              		.syntax unified
  15              		.file	"PWR_OK_MODE.c"
  16              		.text
  17              	.Ltext0:
  18              		.cfi_sections	.debug_frame
  19              		.section	.text.PWR_OK_MODE_SetDriveMode,"ax",%progbits
  20              		.align	1
  21              		.global	PWR_OK_MODE_SetDriveMode
  22              		.code	16
  23              		.thumb_func
  24              		.type	PWR_OK_MODE_SetDriveMode, %function
  25              	PWR_OK_MODE_SetDriveMode:
  26              	.LFB0:
  27              		.file 1 "Generated_Source\\PSoC4\\PWR_OK_MODE.c"
   1:Generated_Source\PSoC4/PWR_OK_MODE.c **** /*******************************************************************************
   2:Generated_Source\PSoC4/PWR_OK_MODE.c **** * File Name: PWR_OK_MODE.c  
   3:Generated_Source\PSoC4/PWR_OK_MODE.c **** * Version 2.20
   4:Generated_Source\PSoC4/PWR_OK_MODE.c **** *
   5:Generated_Source\PSoC4/PWR_OK_MODE.c **** * Description:
   6:Generated_Source\PSoC4/PWR_OK_MODE.c **** *  This file contains API to enable firmware control of a Pins component.
   7:Generated_Source\PSoC4/PWR_OK_MODE.c **** *
   8:Generated_Source\PSoC4/PWR_OK_MODE.c **** ********************************************************************************
   9:Generated_Source\PSoC4/PWR_OK_MODE.c **** * Copyright 2008-2015, Cypress Semiconductor Corporation.  All rights reserved.
  10:Generated_Source\PSoC4/PWR_OK_MODE.c **** * You may use this file only in accordance with the license, terms, conditions, 
  11:Generated_Source\PSoC4/PWR_OK_MODE.c **** * disclaimers, and limitations in the end user license agreement accompanying 
  12:Generated_Source\PSoC4/PWR_OK_MODE.c **** * the software package with which this file was provided.
  13:Generated_Source\PSoC4/PWR_OK_MODE.c **** *******************************************************************************/
  14:Generated_Source\PSoC4/PWR_OK_MODE.c **** 
  15:Generated_Source\PSoC4/PWR_OK_MODE.c **** #include "cytypes.h"
  16:Generated_Source\PSoC4/PWR_OK_MODE.c **** #include "PWR_OK_MODE.h"
  17:Generated_Source\PSoC4/PWR_OK_MODE.c **** 
  18:Generated_Source\PSoC4/PWR_OK_MODE.c **** 
  19:Generated_Source\PSoC4/PWR_OK_MODE.c **** #if defined(PWR_OK_MODE__PC)
  20:Generated_Source\PSoC4/PWR_OK_MODE.c ****     #define PWR_OK_MODE_SetP4PinDriveMode(shift, mode)  \
  21:Generated_Source\PSoC4/PWR_OK_MODE.c ****     do { \
  22:Generated_Source\PSoC4/PWR_OK_MODE.c ****         PWR_OK_MODE_PC =   (PWR_OK_MODE_PC & \
  23:Generated_Source\PSoC4/PWR_OK_MODE.c ****                                 (uint32)(~(uint32)(PWR_OK_MODE_DRIVE_MODE_IND_MASK << \
  24:Generated_Source\PSoC4/PWR_OK_MODE.c ****                                 (PWR_OK_MODE_DRIVE_MODE_BITS * (shift))))) | \
  25:Generated_Source\PSoC4/PWR_OK_MODE.c ****                                 (uint32)((uint32)(mode) << \
  26:Generated_Source\PSoC4/PWR_OK_MODE.c ****                                 (PWR_OK_MODE_DRIVE_MODE_BITS * (shift))); \
  27:Generated_Source\PSoC4/PWR_OK_MODE.c ****     } while (0)
  28:Generated_Source\PSoC4/PWR_OK_MODE.c **** #else
  29:Generated_Source\PSoC4/PWR_OK_MODE.c ****     #if (CY_PSOC4_4200L)
  30:Generated_Source\PSoC4/PWR_OK_MODE.c ****         #define PWR_OK_MODE_SetP4PinDriveMode(shift, mode)  \
ARM GAS  C:\Users\Ala\AppData\Local\Temp\ccOVTyLC.s 			page 2


  31:Generated_Source\PSoC4/PWR_OK_MODE.c ****         do { \
  32:Generated_Source\PSoC4/PWR_OK_MODE.c ****             PWR_OK_MODE_USBIO_CTRL_REG = (PWR_OK_MODE_USBIO_CTRL_REG & \
  33:Generated_Source\PSoC4/PWR_OK_MODE.c ****                                     (uint32)(~(uint32)(PWR_OK_MODE_DRIVE_MODE_IND_MASK << \
  34:Generated_Source\PSoC4/PWR_OK_MODE.c ****                                     (PWR_OK_MODE_DRIVE_MODE_BITS * (shift))))) | \
  35:Generated_Source\PSoC4/PWR_OK_MODE.c ****                                     (uint32)((uint32)(mode) << \
  36:Generated_Source\PSoC4/PWR_OK_MODE.c ****                                     (PWR_OK_MODE_DRIVE_MODE_BITS * (shift))); \
  37:Generated_Source\PSoC4/PWR_OK_MODE.c ****         } while (0)
  38:Generated_Source\PSoC4/PWR_OK_MODE.c ****     #endif
  39:Generated_Source\PSoC4/PWR_OK_MODE.c **** #endif
  40:Generated_Source\PSoC4/PWR_OK_MODE.c ****   
  41:Generated_Source\PSoC4/PWR_OK_MODE.c **** 
  42:Generated_Source\PSoC4/PWR_OK_MODE.c **** #if defined(PWR_OK_MODE__PC) || (CY_PSOC4_4200L) 
  43:Generated_Source\PSoC4/PWR_OK_MODE.c ****     /*******************************************************************************
  44:Generated_Source\PSoC4/PWR_OK_MODE.c ****     * Function Name: PWR_OK_MODE_SetDriveMode
  45:Generated_Source\PSoC4/PWR_OK_MODE.c ****     ****************************************************************************//**
  46:Generated_Source\PSoC4/PWR_OK_MODE.c ****     *
  47:Generated_Source\PSoC4/PWR_OK_MODE.c ****     * \brief Sets the drive mode for each of the Pins component's pins.
  48:Generated_Source\PSoC4/PWR_OK_MODE.c ****     * 
  49:Generated_Source\PSoC4/PWR_OK_MODE.c ****     * <b>Note</b> This affects all pins in the Pins component instance. Use the
  50:Generated_Source\PSoC4/PWR_OK_MODE.c ****     * Per-Pin APIs if you wish to control individual pin's drive modes.
  51:Generated_Source\PSoC4/PWR_OK_MODE.c ****     *
  52:Generated_Source\PSoC4/PWR_OK_MODE.c ****     * <b>Note</b> USBIOs have limited drive functionality. Refer to the Drive Mode
  53:Generated_Source\PSoC4/PWR_OK_MODE.c ****     * parameter for more information.
  54:Generated_Source\PSoC4/PWR_OK_MODE.c ****     *
  55:Generated_Source\PSoC4/PWR_OK_MODE.c ****     * \param mode
  56:Generated_Source\PSoC4/PWR_OK_MODE.c ****     *  Mode for the selected signals. Valid options are documented in 
  57:Generated_Source\PSoC4/PWR_OK_MODE.c ****     *  \ref driveMode.
  58:Generated_Source\PSoC4/PWR_OK_MODE.c ****     *
  59:Generated_Source\PSoC4/PWR_OK_MODE.c ****     * \return
  60:Generated_Source\PSoC4/PWR_OK_MODE.c ****     *  None
  61:Generated_Source\PSoC4/PWR_OK_MODE.c ****     *
  62:Generated_Source\PSoC4/PWR_OK_MODE.c ****     * \sideeffect
  63:Generated_Source\PSoC4/PWR_OK_MODE.c ****     *  If you use read-modify-write operations that are not atomic, the ISR can
  64:Generated_Source\PSoC4/PWR_OK_MODE.c ****     *  cause corruption of this function. An ISR that interrupts this function 
  65:Generated_Source\PSoC4/PWR_OK_MODE.c ****     *  and performs writes to the Pins component Drive Mode registers can cause 
  66:Generated_Source\PSoC4/PWR_OK_MODE.c ****     *  corrupted port data. To avoid this issue, you should either use the Per-Pin
  67:Generated_Source\PSoC4/PWR_OK_MODE.c ****     *  APIs (primary method) or disable interrupts around this function.
  68:Generated_Source\PSoC4/PWR_OK_MODE.c ****     *
  69:Generated_Source\PSoC4/PWR_OK_MODE.c ****     * \funcusage
  70:Generated_Source\PSoC4/PWR_OK_MODE.c ****     *  \snippet PWR_OK_MODE_SUT.c usage_PWR_OK_MODE_SetDriveMode
  71:Generated_Source\PSoC4/PWR_OK_MODE.c ****     *******************************************************************************/
  72:Generated_Source\PSoC4/PWR_OK_MODE.c ****     void PWR_OK_MODE_SetDriveMode(uint8 mode)
  73:Generated_Source\PSoC4/PWR_OK_MODE.c ****     {
  28              		.loc 1 73 0
  29              		.cfi_startproc
  30              		@ args = 0, pretend = 0, frame = 0
  31              		@ frame_needed = 0, uses_anonymous_args = 0
  32              		@ link register save eliminated.
  33              	.LVL0:
  74:Generated_Source\PSoC4/PWR_OK_MODE.c **** 		PWR_OK_MODE_SetP4PinDriveMode(PWR_OK_MODE__0__SHIFT, mode);
  34              		.loc 1 74 0
  35 0000 064B     		ldr	r3, .L2
  36 0002 074A     		ldr	r2, .L2+4
  37 0004 1968     		ldr	r1, [r3]
  75:Generated_Source\PSoC4/PWR_OK_MODE.c **** 		PWR_OK_MODE_SetP4PinDriveMode(PWR_OK_MODE__1__SHIFT, mode);
  76:Generated_Source\PSoC4/PWR_OK_MODE.c ****     }
  38              		.loc 1 76 0
ARM GAS  C:\Users\Ala\AppData\Local\Temp\ccOVTyLC.s 			page 3


  39              		@ sp needed
  74:Generated_Source\PSoC4/PWR_OK_MODE.c **** 		PWR_OK_MODE_SetP4PinDriveMode(PWR_OK_MODE__0__SHIFT, mode);
  40              		.loc 1 74 0
  41 0006 0A40     		ands	r2, r1
  42 0008 8104     		lsls	r1, r0, #18
  43 000a 0A43     		orrs	r2, r1
  44 000c 1A60     		str	r2, [r3]
  75:Generated_Source\PSoC4/PWR_OK_MODE.c **** 		PWR_OK_MODE_SetP4PinDriveMode(PWR_OK_MODE__1__SHIFT, mode);
  45              		.loc 1 75 0
  46 000e 1968     		ldr	r1, [r3]
  47 0010 044A     		ldr	r2, .L2+8
  48 0012 4005     		lsls	r0, r0, #21
  49              	.LVL1:
  50 0014 0A40     		ands	r2, r1
  51 0016 1043     		orrs	r0, r2
  52 0018 1860     		str	r0, [r3]
  53              		.loc 1 76 0
  54 001a 7047     		bx	lr
  55              	.L3:
  56              		.align	2
  57              	.L2:
  58 001c 08030440 		.word	1074004744
  59 0020 FFFFE3FF 		.word	-1835009
  60 0024 FFFF1FFF 		.word	-14680065
  61              		.cfi_endproc
  62              	.LFE0:
  63              		.size	PWR_OK_MODE_SetDriveMode, .-PWR_OK_MODE_SetDriveMode
  64              		.section	.text.PWR_OK_MODE_Write,"ax",%progbits
  65              		.align	1
  66              		.global	PWR_OK_MODE_Write
  67              		.code	16
  68              		.thumb_func
  69              		.type	PWR_OK_MODE_Write, %function
  70              	PWR_OK_MODE_Write:
  71              	.LFB1:
  77:Generated_Source\PSoC4/PWR_OK_MODE.c **** #endif
  78:Generated_Source\PSoC4/PWR_OK_MODE.c **** 
  79:Generated_Source\PSoC4/PWR_OK_MODE.c **** 
  80:Generated_Source\PSoC4/PWR_OK_MODE.c **** /*******************************************************************************
  81:Generated_Source\PSoC4/PWR_OK_MODE.c **** * Function Name: PWR_OK_MODE_Write
  82:Generated_Source\PSoC4/PWR_OK_MODE.c **** ****************************************************************************//**
  83:Generated_Source\PSoC4/PWR_OK_MODE.c **** *
  84:Generated_Source\PSoC4/PWR_OK_MODE.c **** * \brief Writes the value to the physical port (data output register), masking
  85:Generated_Source\PSoC4/PWR_OK_MODE.c **** *  and shifting the bits appropriately. 
  86:Generated_Source\PSoC4/PWR_OK_MODE.c **** *
  87:Generated_Source\PSoC4/PWR_OK_MODE.c **** * The data output register controls the signal applied to the physical pin in 
  88:Generated_Source\PSoC4/PWR_OK_MODE.c **** * conjunction with the drive mode parameter. This function avoids changing 
  89:Generated_Source\PSoC4/PWR_OK_MODE.c **** * other bits in the port by using the appropriate method (read-modify-write or
  90:Generated_Source\PSoC4/PWR_OK_MODE.c **** * bit banding).
  91:Generated_Source\PSoC4/PWR_OK_MODE.c **** *
  92:Generated_Source\PSoC4/PWR_OK_MODE.c **** * <b>Note</b> This function should not be used on a hardware digital output pin 
  93:Generated_Source\PSoC4/PWR_OK_MODE.c **** * as it is driven by the hardware signal attached to it.
  94:Generated_Source\PSoC4/PWR_OK_MODE.c **** *
  95:Generated_Source\PSoC4/PWR_OK_MODE.c **** * \param value
  96:Generated_Source\PSoC4/PWR_OK_MODE.c **** *  Value to write to the component instance.
  97:Generated_Source\PSoC4/PWR_OK_MODE.c **** *
  98:Generated_Source\PSoC4/PWR_OK_MODE.c **** * \return 
ARM GAS  C:\Users\Ala\AppData\Local\Temp\ccOVTyLC.s 			page 4


  99:Generated_Source\PSoC4/PWR_OK_MODE.c **** *  None 
 100:Generated_Source\PSoC4/PWR_OK_MODE.c **** *
 101:Generated_Source\PSoC4/PWR_OK_MODE.c **** * \sideeffect
 102:Generated_Source\PSoC4/PWR_OK_MODE.c **** *  If you use read-modify-write operations that are not atomic; the Interrupt 
 103:Generated_Source\PSoC4/PWR_OK_MODE.c **** *  Service Routines (ISR) can cause corruption of this function. An ISR that 
 104:Generated_Source\PSoC4/PWR_OK_MODE.c **** *  interrupts this function and performs writes to the Pins component data 
 105:Generated_Source\PSoC4/PWR_OK_MODE.c **** *  register can cause corrupted port data. To avoid this issue, you should 
 106:Generated_Source\PSoC4/PWR_OK_MODE.c **** *  either use the Per-Pin APIs (primary method) or disable interrupts around 
 107:Generated_Source\PSoC4/PWR_OK_MODE.c **** *  this function.
 108:Generated_Source\PSoC4/PWR_OK_MODE.c **** *
 109:Generated_Source\PSoC4/PWR_OK_MODE.c **** * \funcusage
 110:Generated_Source\PSoC4/PWR_OK_MODE.c **** *  \snippet PWR_OK_MODE_SUT.c usage_PWR_OK_MODE_Write
 111:Generated_Source\PSoC4/PWR_OK_MODE.c **** *******************************************************************************/
 112:Generated_Source\PSoC4/PWR_OK_MODE.c **** void PWR_OK_MODE_Write(uint8 value)
 113:Generated_Source\PSoC4/PWR_OK_MODE.c **** {
  72              		.loc 1 113 0
  73              		.cfi_startproc
  74              		@ args = 0, pretend = 0, frame = 0
  75              		@ frame_needed = 0, uses_anonymous_args = 0
  76              		@ link register save eliminated.
  77              	.LVL2:
 114:Generated_Source\PSoC4/PWR_OK_MODE.c ****     uint8 drVal = (uint8)(PWR_OK_MODE_DR & (uint8)(~PWR_OK_MODE_MASK));
  78              		.loc 1 114 0
  79 0000 3F23     		movs	r3, #63
  80 0002 044A     		ldr	r2, .L5
 115:Generated_Source\PSoC4/PWR_OK_MODE.c ****     drVal = (drVal | ((uint8)(value << PWR_OK_MODE_SHIFT) & PWR_OK_MODE_MASK));
 116:Generated_Source\PSoC4/PWR_OK_MODE.c ****     PWR_OK_MODE_DR = (uint32)drVal;
  81              		.loc 1 116 0
  82 0004 8001     		lsls	r0, r0, #6
  83              	.LVL3:
 114:Generated_Source\PSoC4/PWR_OK_MODE.c ****     uint8 drVal = (uint8)(PWR_OK_MODE_DR & (uint8)(~PWR_OK_MODE_MASK));
  84              		.loc 1 114 0
  85 0006 1168     		ldr	r1, [r2]
 117:Generated_Source\PSoC4/PWR_OK_MODE.c **** }
  86              		.loc 1 117 0
  87              		@ sp needed
 114:Generated_Source\PSoC4/PWR_OK_MODE.c ****     uint8 drVal = (uint8)(PWR_OK_MODE_DR & (uint8)(~PWR_OK_MODE_MASK));
  88              		.loc 1 114 0
  89 0008 0B40     		ands	r3, r1
 116:Generated_Source\PSoC4/PWR_OK_MODE.c **** }
  90              		.loc 1 116 0
  91 000a 1843     		orrs	r0, r3
  92 000c C0B2     		uxtb	r0, r0
  93 000e 1060     		str	r0, [r2]
  94              		.loc 1 117 0
  95 0010 7047     		bx	lr
  96              	.L6:
  97 0012 C046     		.align	2
  98              	.L5:
  99 0014 00030440 		.word	1074004736
 100              		.cfi_endproc
 101              	.LFE1:
 102              		.size	PWR_OK_MODE_Write, .-PWR_OK_MODE_Write
 103              		.section	.text.PWR_OK_MODE_Read,"ax",%progbits
 104              		.align	1
 105              		.global	PWR_OK_MODE_Read
 106              		.code	16
ARM GAS  C:\Users\Ala\AppData\Local\Temp\ccOVTyLC.s 			page 5


 107              		.thumb_func
 108              		.type	PWR_OK_MODE_Read, %function
 109              	PWR_OK_MODE_Read:
 110              	.LFB2:
 118:Generated_Source\PSoC4/PWR_OK_MODE.c **** 
 119:Generated_Source\PSoC4/PWR_OK_MODE.c **** 
 120:Generated_Source\PSoC4/PWR_OK_MODE.c **** /*******************************************************************************
 121:Generated_Source\PSoC4/PWR_OK_MODE.c **** * Function Name: PWR_OK_MODE_Read
 122:Generated_Source\PSoC4/PWR_OK_MODE.c **** ****************************************************************************//**
 123:Generated_Source\PSoC4/PWR_OK_MODE.c **** *
 124:Generated_Source\PSoC4/PWR_OK_MODE.c **** * \brief Reads the associated physical port (pin status register) and masks 
 125:Generated_Source\PSoC4/PWR_OK_MODE.c **** *  the required bits according to the width and bit position of the component
 126:Generated_Source\PSoC4/PWR_OK_MODE.c **** *  instance. 
 127:Generated_Source\PSoC4/PWR_OK_MODE.c **** *
 128:Generated_Source\PSoC4/PWR_OK_MODE.c **** * The pin's status register returns the current logic level present on the 
 129:Generated_Source\PSoC4/PWR_OK_MODE.c **** * physical pin.
 130:Generated_Source\PSoC4/PWR_OK_MODE.c **** *
 131:Generated_Source\PSoC4/PWR_OK_MODE.c **** * \return 
 132:Generated_Source\PSoC4/PWR_OK_MODE.c **** *  The current value for the pins in the component as a right justified number.
 133:Generated_Source\PSoC4/PWR_OK_MODE.c **** *
 134:Generated_Source\PSoC4/PWR_OK_MODE.c **** * \funcusage
 135:Generated_Source\PSoC4/PWR_OK_MODE.c **** *  \snippet PWR_OK_MODE_SUT.c usage_PWR_OK_MODE_Read  
 136:Generated_Source\PSoC4/PWR_OK_MODE.c **** *******************************************************************************/
 137:Generated_Source\PSoC4/PWR_OK_MODE.c **** uint8 PWR_OK_MODE_Read(void)
 138:Generated_Source\PSoC4/PWR_OK_MODE.c **** {
 111              		.loc 1 138 0
 112              		.cfi_startproc
 113              		@ args = 0, pretend = 0, frame = 0
 114              		@ frame_needed = 0, uses_anonymous_args = 0
 115              		@ link register save eliminated.
 139:Generated_Source\PSoC4/PWR_OK_MODE.c ****     return (uint8)((PWR_OK_MODE_PS & PWR_OK_MODE_MASK) >> PWR_OK_MODE_SHIFT);
 116              		.loc 1 139 0
 117 0000 024B     		ldr	r3, .L8
 140:Generated_Source\PSoC4/PWR_OK_MODE.c **** }
 118              		.loc 1 140 0
 119              		@ sp needed
 139:Generated_Source\PSoC4/PWR_OK_MODE.c ****     return (uint8)((PWR_OK_MODE_PS & PWR_OK_MODE_MASK) >> PWR_OK_MODE_SHIFT);
 120              		.loc 1 139 0
 121 0002 1868     		ldr	r0, [r3]
 122 0004 0006     		lsls	r0, r0, #24
 123 0006 800F     		lsrs	r0, r0, #30
 124              		.loc 1 140 0
 125 0008 7047     		bx	lr
 126              	.L9:
 127 000a C046     		.align	2
 128              	.L8:
 129 000c 04030440 		.word	1074004740
 130              		.cfi_endproc
 131              	.LFE2:
 132              		.size	PWR_OK_MODE_Read, .-PWR_OK_MODE_Read
 133              		.section	.text.PWR_OK_MODE_ReadDataReg,"ax",%progbits
 134              		.align	1
 135              		.global	PWR_OK_MODE_ReadDataReg
 136              		.code	16
 137              		.thumb_func
 138              		.type	PWR_OK_MODE_ReadDataReg, %function
 139              	PWR_OK_MODE_ReadDataReg:
ARM GAS  C:\Users\Ala\AppData\Local\Temp\ccOVTyLC.s 			page 6


 140              	.LFB3:
 141:Generated_Source\PSoC4/PWR_OK_MODE.c **** 
 142:Generated_Source\PSoC4/PWR_OK_MODE.c **** 
 143:Generated_Source\PSoC4/PWR_OK_MODE.c **** /*******************************************************************************
 144:Generated_Source\PSoC4/PWR_OK_MODE.c **** * Function Name: PWR_OK_MODE_ReadDataReg
 145:Generated_Source\PSoC4/PWR_OK_MODE.c **** ****************************************************************************//**
 146:Generated_Source\PSoC4/PWR_OK_MODE.c **** *
 147:Generated_Source\PSoC4/PWR_OK_MODE.c **** * \brief Reads the associated physical port's data output register and masks 
 148:Generated_Source\PSoC4/PWR_OK_MODE.c **** *  the correct bits according to the width and bit position of the component 
 149:Generated_Source\PSoC4/PWR_OK_MODE.c **** *  instance. 
 150:Generated_Source\PSoC4/PWR_OK_MODE.c **** *
 151:Generated_Source\PSoC4/PWR_OK_MODE.c **** * The data output register controls the signal applied to the physical pin in 
 152:Generated_Source\PSoC4/PWR_OK_MODE.c **** * conjunction with the drive mode parameter. This is not the same as the 
 153:Generated_Source\PSoC4/PWR_OK_MODE.c **** * preferred PWR_OK_MODE_Read() API because the 
 154:Generated_Source\PSoC4/PWR_OK_MODE.c **** * PWR_OK_MODE_ReadDataReg() reads the data register instead of the status 
 155:Generated_Source\PSoC4/PWR_OK_MODE.c **** * register. For output pins this is a useful function to determine the value 
 156:Generated_Source\PSoC4/PWR_OK_MODE.c **** * just written to the pin.
 157:Generated_Source\PSoC4/PWR_OK_MODE.c **** *
 158:Generated_Source\PSoC4/PWR_OK_MODE.c **** * \return 
 159:Generated_Source\PSoC4/PWR_OK_MODE.c **** *  The current value of the data register masked and shifted into a right 
 160:Generated_Source\PSoC4/PWR_OK_MODE.c **** *  justified number for the component instance.
 161:Generated_Source\PSoC4/PWR_OK_MODE.c **** *
 162:Generated_Source\PSoC4/PWR_OK_MODE.c **** * \funcusage
 163:Generated_Source\PSoC4/PWR_OK_MODE.c **** *  \snippet PWR_OK_MODE_SUT.c usage_PWR_OK_MODE_ReadDataReg 
 164:Generated_Source\PSoC4/PWR_OK_MODE.c **** *******************************************************************************/
 165:Generated_Source\PSoC4/PWR_OK_MODE.c **** uint8 PWR_OK_MODE_ReadDataReg(void)
 166:Generated_Source\PSoC4/PWR_OK_MODE.c **** {
 141              		.loc 1 166 0
 142              		.cfi_startproc
 143              		@ args = 0, pretend = 0, frame = 0
 144              		@ frame_needed = 0, uses_anonymous_args = 0
 145              		@ link register save eliminated.
 167:Generated_Source\PSoC4/PWR_OK_MODE.c ****     return (uint8)((PWR_OK_MODE_DR & PWR_OK_MODE_MASK) >> PWR_OK_MODE_SHIFT);
 146              		.loc 1 167 0
 147 0000 024B     		ldr	r3, .L11
 168:Generated_Source\PSoC4/PWR_OK_MODE.c **** }
 148              		.loc 1 168 0
 149              		@ sp needed
 167:Generated_Source\PSoC4/PWR_OK_MODE.c ****     return (uint8)((PWR_OK_MODE_DR & PWR_OK_MODE_MASK) >> PWR_OK_MODE_SHIFT);
 150              		.loc 1 167 0
 151 0002 1868     		ldr	r0, [r3]
 152 0004 0006     		lsls	r0, r0, #24
 153 0006 800F     		lsrs	r0, r0, #30
 154              		.loc 1 168 0
 155 0008 7047     		bx	lr
 156              	.L12:
 157 000a C046     		.align	2
 158              	.L11:
 159 000c 00030440 		.word	1074004736
 160              		.cfi_endproc
 161              	.LFE3:
 162              		.size	PWR_OK_MODE_ReadDataReg, .-PWR_OK_MODE_ReadDataReg
 163              		.section	.text.PWR_OK_MODE_SetInterruptMode,"ax",%progbits
 164              		.align	1
 165              		.global	PWR_OK_MODE_SetInterruptMode
 166              		.code	16
 167              		.thumb_func
ARM GAS  C:\Users\Ala\AppData\Local\Temp\ccOVTyLC.s 			page 7


 168              		.type	PWR_OK_MODE_SetInterruptMode, %function
 169              	PWR_OK_MODE_SetInterruptMode:
 170              	.LFB4:
 169:Generated_Source\PSoC4/PWR_OK_MODE.c **** 
 170:Generated_Source\PSoC4/PWR_OK_MODE.c **** 
 171:Generated_Source\PSoC4/PWR_OK_MODE.c **** /*******************************************************************************
 172:Generated_Source\PSoC4/PWR_OK_MODE.c **** * Function Name: PWR_OK_MODE_SetInterruptMode
 173:Generated_Source\PSoC4/PWR_OK_MODE.c **** ****************************************************************************//**
 174:Generated_Source\PSoC4/PWR_OK_MODE.c **** *
 175:Generated_Source\PSoC4/PWR_OK_MODE.c **** * \brief Configures the interrupt mode for each of the Pins component's
 176:Generated_Source\PSoC4/PWR_OK_MODE.c **** *  pins. Alternatively you may set the interrupt mode for all the pins
 177:Generated_Source\PSoC4/PWR_OK_MODE.c **** *  specified in the Pins component.
 178:Generated_Source\PSoC4/PWR_OK_MODE.c **** *
 179:Generated_Source\PSoC4/PWR_OK_MODE.c **** *  <b>Note</b> The interrupt is port-wide and therefore any enabled pin
 180:Generated_Source\PSoC4/PWR_OK_MODE.c **** *  interrupt may trigger it.
 181:Generated_Source\PSoC4/PWR_OK_MODE.c **** *
 182:Generated_Source\PSoC4/PWR_OK_MODE.c **** * \param position
 183:Generated_Source\PSoC4/PWR_OK_MODE.c **** *  The pin position as listed in the Pins component. You may OR these to be 
 184:Generated_Source\PSoC4/PWR_OK_MODE.c **** *  able to configure the interrupt mode of multiple pins within a Pins 
 185:Generated_Source\PSoC4/PWR_OK_MODE.c **** *  component. Or you may use PWR_OK_MODE_INTR_ALL to configure the
 186:Generated_Source\PSoC4/PWR_OK_MODE.c **** *  interrupt mode of all the pins in the Pins component.       
 187:Generated_Source\PSoC4/PWR_OK_MODE.c **** *  - PWR_OK_MODE_0_INTR       (First pin in the list)
 188:Generated_Source\PSoC4/PWR_OK_MODE.c **** *  - PWR_OK_MODE_1_INTR       (Second pin in the list)
 189:Generated_Source\PSoC4/PWR_OK_MODE.c **** *  - ...
 190:Generated_Source\PSoC4/PWR_OK_MODE.c **** *  - PWR_OK_MODE_INTR_ALL     (All pins in Pins component)
 191:Generated_Source\PSoC4/PWR_OK_MODE.c **** *
 192:Generated_Source\PSoC4/PWR_OK_MODE.c **** * \param mode
 193:Generated_Source\PSoC4/PWR_OK_MODE.c **** *  Interrupt mode for the selected pins. Valid options are documented in
 194:Generated_Source\PSoC4/PWR_OK_MODE.c **** *  \ref intrMode.
 195:Generated_Source\PSoC4/PWR_OK_MODE.c **** *
 196:Generated_Source\PSoC4/PWR_OK_MODE.c **** * \return 
 197:Generated_Source\PSoC4/PWR_OK_MODE.c **** *  None
 198:Generated_Source\PSoC4/PWR_OK_MODE.c **** *  
 199:Generated_Source\PSoC4/PWR_OK_MODE.c **** * \sideeffect
 200:Generated_Source\PSoC4/PWR_OK_MODE.c **** *  It is recommended that the interrupt be disabled before calling this 
 201:Generated_Source\PSoC4/PWR_OK_MODE.c **** *  function to avoid unintended interrupt requests. Note that the interrupt
 202:Generated_Source\PSoC4/PWR_OK_MODE.c **** *  type is port wide, and therefore will trigger for any enabled pin on the 
 203:Generated_Source\PSoC4/PWR_OK_MODE.c **** *  port.
 204:Generated_Source\PSoC4/PWR_OK_MODE.c **** *
 205:Generated_Source\PSoC4/PWR_OK_MODE.c **** * \funcusage
 206:Generated_Source\PSoC4/PWR_OK_MODE.c **** *  \snippet PWR_OK_MODE_SUT.c usage_PWR_OK_MODE_SetInterruptMode
 207:Generated_Source\PSoC4/PWR_OK_MODE.c **** *******************************************************************************/
 208:Generated_Source\PSoC4/PWR_OK_MODE.c **** void PWR_OK_MODE_SetInterruptMode(uint16 position, uint16 mode)
 209:Generated_Source\PSoC4/PWR_OK_MODE.c **** {
 171              		.loc 1 209 0
 172              		.cfi_startproc
 173              		@ args = 0, pretend = 0, frame = 0
 174              		@ frame_needed = 0, uses_anonymous_args = 0
 175              		@ link register save eliminated.
 176              	.LVL4:
 210:Generated_Source\PSoC4/PWR_OK_MODE.c ****     uint32 intrCfg;
 211:Generated_Source\PSoC4/PWR_OK_MODE.c ****     
 212:Generated_Source\PSoC4/PWR_OK_MODE.c ****     intrCfg =  PWR_OK_MODE_INTCFG & (uint32)(~(uint32)position);
 177              		.loc 1 212 0
 178 0000 034A     		ldr	r2, .L14
 213:Generated_Source\PSoC4/PWR_OK_MODE.c ****     PWR_OK_MODE_INTCFG = intrCfg | ((uint32)position & (uint32)mode);
 214:Generated_Source\PSoC4/PWR_OK_MODE.c **** }
ARM GAS  C:\Users\Ala\AppData\Local\Temp\ccOVTyLC.s 			page 8


 179              		.loc 1 214 0
 180              		@ sp needed
 212:Generated_Source\PSoC4/PWR_OK_MODE.c ****     PWR_OK_MODE_INTCFG = intrCfg | ((uint32)position & (uint32)mode);
 181              		.loc 1 212 0
 182 0002 1368     		ldr	r3, [r2]
 183              	.LVL5:
 213:Generated_Source\PSoC4/PWR_OK_MODE.c ****     PWR_OK_MODE_INTCFG = intrCfg | ((uint32)position & (uint32)mode);
 184              		.loc 1 213 0
 185 0004 8343     		bics	r3, r0
 186              	.LVL6:
 187 0006 0840     		ands	r0, r1
 188              	.LVL7:
 189 0008 1843     		orrs	r0, r3
 190 000a 1060     		str	r0, [r2]
 191              		.loc 1 214 0
 192 000c 7047     		bx	lr
 193              	.L15:
 194 000e C046     		.align	2
 195              	.L14:
 196 0010 0C030440 		.word	1074004748
 197              		.cfi_endproc
 198              	.LFE4:
 199              		.size	PWR_OK_MODE_SetInterruptMode, .-PWR_OK_MODE_SetInterruptMode
 200              		.section	.text.PWR_OK_MODE_ClearInterrupt,"ax",%progbits
 201              		.align	1
 202              		.global	PWR_OK_MODE_ClearInterrupt
 203              		.code	16
 204              		.thumb_func
 205              		.type	PWR_OK_MODE_ClearInterrupt, %function
 206              	PWR_OK_MODE_ClearInterrupt:
 207              	.LFB5:
 215:Generated_Source\PSoC4/PWR_OK_MODE.c **** 
 216:Generated_Source\PSoC4/PWR_OK_MODE.c **** 
 217:Generated_Source\PSoC4/PWR_OK_MODE.c **** /*******************************************************************************
 218:Generated_Source\PSoC4/PWR_OK_MODE.c **** * Function Name: PWR_OK_MODE_ClearInterrupt
 219:Generated_Source\PSoC4/PWR_OK_MODE.c **** ****************************************************************************//**
 220:Generated_Source\PSoC4/PWR_OK_MODE.c **** *
 221:Generated_Source\PSoC4/PWR_OK_MODE.c **** * \brief Clears any active interrupts attached with the component and returns 
 222:Generated_Source\PSoC4/PWR_OK_MODE.c **** *  the value of the interrupt status register allowing determination of which
 223:Generated_Source\PSoC4/PWR_OK_MODE.c **** *  pins generated an interrupt event.
 224:Generated_Source\PSoC4/PWR_OK_MODE.c **** *
 225:Generated_Source\PSoC4/PWR_OK_MODE.c **** * \return 
 226:Generated_Source\PSoC4/PWR_OK_MODE.c **** *  The right-shifted current value of the interrupt status register. Each pin 
 227:Generated_Source\PSoC4/PWR_OK_MODE.c **** *  has one bit set if it generated an interrupt event. For example, bit 0 is 
 228:Generated_Source\PSoC4/PWR_OK_MODE.c **** *  for pin 0 and bit 1 is for pin 1 of the Pins component.
 229:Generated_Source\PSoC4/PWR_OK_MODE.c **** *  
 230:Generated_Source\PSoC4/PWR_OK_MODE.c **** * \sideeffect
 231:Generated_Source\PSoC4/PWR_OK_MODE.c **** *  Clears all bits of the physical port's interrupt status register, not just
 232:Generated_Source\PSoC4/PWR_OK_MODE.c **** *  those associated with the Pins component.
 233:Generated_Source\PSoC4/PWR_OK_MODE.c **** *
 234:Generated_Source\PSoC4/PWR_OK_MODE.c **** * \funcusage
 235:Generated_Source\PSoC4/PWR_OK_MODE.c **** *  \snippet PWR_OK_MODE_SUT.c usage_PWR_OK_MODE_ClearInterrupt
 236:Generated_Source\PSoC4/PWR_OK_MODE.c **** *******************************************************************************/
 237:Generated_Source\PSoC4/PWR_OK_MODE.c **** uint8 PWR_OK_MODE_ClearInterrupt(void)
 238:Generated_Source\PSoC4/PWR_OK_MODE.c **** {
 208              		.loc 1 238 0
 209              		.cfi_startproc
ARM GAS  C:\Users\Ala\AppData\Local\Temp\ccOVTyLC.s 			page 9


 210              		@ args = 0, pretend = 0, frame = 0
 211              		@ frame_needed = 0, uses_anonymous_args = 0
 212              		@ link register save eliminated.
 239:Generated_Source\PSoC4/PWR_OK_MODE.c **** 	uint8 maskedStatus = (uint8)(PWR_OK_MODE_INTSTAT & PWR_OK_MODE_MASK);
 213              		.loc 1 239 0
 214 0000 C023     		movs	r3, #192
 215 0002 034A     		ldr	r2, .L17
 240:Generated_Source\PSoC4/PWR_OK_MODE.c **** 	PWR_OK_MODE_INTSTAT = maskedStatus;
 241:Generated_Source\PSoC4/PWR_OK_MODE.c ****     return maskedStatus >> PWR_OK_MODE_SHIFT;
 242:Generated_Source\PSoC4/PWR_OK_MODE.c **** }
 216              		.loc 1 242 0
 217              		@ sp needed
 239:Generated_Source\PSoC4/PWR_OK_MODE.c **** 	uint8 maskedStatus = (uint8)(PWR_OK_MODE_INTSTAT & PWR_OK_MODE_MASK);
 218              		.loc 1 239 0
 219 0004 1068     		ldr	r0, [r2]
 220 0006 1840     		ands	r0, r3
 221              	.LVL8:
 240:Generated_Source\PSoC4/PWR_OK_MODE.c **** 	PWR_OK_MODE_INTSTAT = maskedStatus;
 222              		.loc 1 240 0
 223 0008 1060     		str	r0, [r2]
 241:Generated_Source\PSoC4/PWR_OK_MODE.c **** }
 224              		.loc 1 241 0
 225 000a 8009     		lsrs	r0, r0, #6
 226              	.LVL9:
 227              		.loc 1 242 0
 228 000c 7047     		bx	lr
 229              	.L18:
 230 000e C046     		.align	2
 231              	.L17:
 232 0010 10030440 		.word	1074004752
 233              		.cfi_endproc
 234              	.LFE5:
 235              		.size	PWR_OK_MODE_ClearInterrupt, .-PWR_OK_MODE_ClearInterrupt
 236              		.text
 237              	.Letext0:
 238              		.file 2 "Generated_Source\\PSoC4\\cytypes.h"