ARM GAS  C:\Users\Ala\AppData\Local\Temp\cc2dsWuO.s 			page 1


   1              		.syntax unified
   2              		.cpu cortex-m0
   3              		.fpu softvfp
   4              		.eabi_attribute 20, 1
   5              		.eabi_attribute 21, 1
   6              		.eabi_attribute 23, 3
   7              		.eabi_attribute 24, 1
   8              		.eabi_attribute 25, 1
   9              		.eabi_attribute 26, 1
  10              		.eabi_attribute 30, 6
  11              		.eabi_attribute 34, 0
  12              		.eabi_attribute 18, 4
  13              		.thumb
  14              		.syntax unified
  15              		.file	"SENT_TX_1.c"
  16              		.text
  17              	.Ltext0:
  18              		.cfi_sections	.debug_frame
  19              		.global	SENT_TX_1_initVar
  20              		.bss
  21              		.type	SENT_TX_1_initVar, %object
  22              		.size	SENT_TX_1_initVar, 1
  23              	SENT_TX_1_initVar:
  24 0000 00       		.space	1
  25              		.global	SENT_TX_1_status
  26              		.type	SENT_TX_1_status, %object
  27              		.size	SENT_TX_1_status, 1
  28              	SENT_TX_1_status:
  29 0001 00       		.space	1
  30 0002 0000     		.align	2
  31              	SENT_TX_1_buf0:
  32 0004 00000000 		.space	8
  32      00000000 
  33              		.align	2
  34              	SENT_TX_1_buf1:
  35 000c 00000000 		.space	8
  35      00000000 
  36              		.align	2
  37              	SENT_TX_1_bufTx:
  38 0014 00000000 		.space	4
  39              		.align	2
  40              	SENT_TX_1_bufPr:
  41 0018 00000000 		.space	4
  42              	SENT_TX_1_idx:
  43 001c 00       		.space	1
  44              		.section	.text.SENT_TX_1_Interrupt,"ax",%progbits
  45              		.align	2
  46              		.global	SENT_TX_1_Interrupt
  47              		.code	16
  48              		.thumb_func
  49              		.type	SENT_TX_1_Interrupt, %function
  50              	SENT_TX_1_Interrupt:
  51              	.LFB4:
  52              		.file 1 "Generated_Source\\PSoC4\\SENT_TX_1.c"
   1:Generated_Source\PSoC4/SENT_TX_1.c **** /*******************************************************************************
   2:Generated_Source\PSoC4/SENT_TX_1.c **** * \file SENT_TX_1.c
   3:Generated_Source\PSoC4/SENT_TX_1.c **** * \version 1.0
ARM GAS  C:\Users\Ala\AppData\Local\Temp\cc2dsWuO.s 			page 2


   4:Generated_Source\PSoC4/SENT_TX_1.c **** *
   5:Generated_Source\PSoC4/SENT_TX_1.c **** *  This file provides all API functionality of the SENT component
   6:Generated_Source\PSoC4/SENT_TX_1.c **** *
   7:Generated_Source\PSoC4/SENT_TX_1.c **** ********************************************************************************
   8:Generated_Source\PSoC4/SENT_TX_1.c **** * \copyright
   9:Generated_Source\PSoC4/SENT_TX_1.c **** * Copyright 2017, Cypress Semiconductor Corporation.  All rights reserved.
  10:Generated_Source\PSoC4/SENT_TX_1.c **** * You may use this file only in accordance with the license, terms, conditions,
  11:Generated_Source\PSoC4/SENT_TX_1.c **** * disclaimers, and limitations in the end user license agreement accompanying
  12:Generated_Source\PSoC4/SENT_TX_1.c **** * the software package with which this file was provided.
  13:Generated_Source\PSoC4/SENT_TX_1.c **** *******************************************************************************/
  14:Generated_Source\PSoC4/SENT_TX_1.c **** 
  15:Generated_Source\PSoC4/SENT_TX_1.c **** #include "SENT_TX_1.h"
  16:Generated_Source\PSoC4/SENT_TX_1.c **** 
  17:Generated_Source\PSoC4/SENT_TX_1.c **** static uint8 SENT_TX_1_CalculateCrc(uint8 const data[]);
  18:Generated_Source\PSoC4/SENT_TX_1.c **** static void SENT_TX_1_SwapBuffers(void);
  19:Generated_Source\PSoC4/SENT_TX_1.c **** 
  20:Generated_Source\PSoC4/SENT_TX_1.c **** #if (SENT_TX_1_PAUSE_PULSE == SENT_TX_1__ENABLED)
  21:Generated_Source\PSoC4/SENT_TX_1.c ****     static uint8 SENT_TX_1_CalculatePauseData(uint8 const data[]);
  22:Generated_Source\PSoC4/SENT_TX_1.c **** #endif /* SENT_TX_1_PAUSE_PULSE == SENT_TX_1__ENABLED */
  23:Generated_Source\PSoC4/SENT_TX_1.c **** 
  24:Generated_Source\PSoC4/SENT_TX_1.c **** 
  25:Generated_Source\PSoC4/SENT_TX_1.c **** /*******************************************************************************
  26:Generated_Source\PSoC4/SENT_TX_1.c **** *   Global variables
  27:Generated_Source\PSoC4/SENT_TX_1.c **** *******************************************************************************/
  28:Generated_Source\PSoC4/SENT_TX_1.c **** 
  29:Generated_Source\PSoC4/SENT_TX_1.c **** /** The global variable that indicates the initialization status of the 
  30:Generated_Source\PSoC4/SENT_TX_1.c **** *  SENT_TX_1 component
  31:Generated_Source\PSoC4/SENT_TX_1.c **** */
  32:Generated_Source\PSoC4/SENT_TX_1.c **** uint8 SENT_TX_1_initVar = 0U;
  33:Generated_Source\PSoC4/SENT_TX_1.c **** 
  34:Generated_Source\PSoC4/SENT_TX_1.c **** /** The variable that indicates a component status, see \ref group_sent_status */
  35:Generated_Source\PSoC4/SENT_TX_1.c **** uint8 SENT_TX_1_status = SENT_TX_1_READY;
  36:Generated_Source\PSoC4/SENT_TX_1.c **** 
  37:Generated_Source\PSoC4/SENT_TX_1.c **** 
  38:Generated_Source\PSoC4/SENT_TX_1.c **** /*******************************************************************************
  39:Generated_Source\PSoC4/SENT_TX_1.c **** *       Local variables
  40:Generated_Source\PSoC4/SENT_TX_1.c **** *******************************************************************************/
  41:Generated_Source\PSoC4/SENT_TX_1.c **** 
  42:Generated_Source\PSoC4/SENT_TX_1.c **** /* The buffers that provide continuous data transmission */
  43:Generated_Source\PSoC4/SENT_TX_1.c **** static uint8 SENT_TX_1_buf0[SENT_TX_1_LAST_IDX];
  44:Generated_Source\PSoC4/SENT_TX_1.c **** static uint8 SENT_TX_1_buf1[SENT_TX_1_LAST_IDX];
  45:Generated_Source\PSoC4/SENT_TX_1.c **** 
  46:Generated_Source\PSoC4/SENT_TX_1.c **** /* The pointers to switch through the buffers */
  47:Generated_Source\PSoC4/SENT_TX_1.c **** static uint8 *SENT_TX_1_bufTx; /* Pointer to the "transfer" data buffer */
  48:Generated_Source\PSoC4/SENT_TX_1.c **** static uint8 *SENT_TX_1_bufPr; /* Pointer to the "prepare" data buffer */
  49:Generated_Source\PSoC4/SENT_TX_1.c **** 
  50:Generated_Source\PSoC4/SENT_TX_1.c **** /* The local index used to jump through pulses */
  51:Generated_Source\PSoC4/SENT_TX_1.c **** static uint8 SENT_TX_1_idx = SENT_TX_1_NEW_FRAME;
  52:Generated_Source\PSoC4/SENT_TX_1.c **** 
  53:Generated_Source\PSoC4/SENT_TX_1.c **** 
  54:Generated_Source\PSoC4/SENT_TX_1.c **** /*******************************************************************************
  55:Generated_Source\PSoC4/SENT_TX_1.c **** * Function Name: SENT_TX_1_Interrupt
  56:Generated_Source\PSoC4/SENT_TX_1.c **** ****************************************************************************//**
  57:Generated_Source\PSoC4/SENT_TX_1.c **** *
  58:Generated_Source\PSoC4/SENT_TX_1.c **** * Provides SENT transmission.
  59:Generated_Source\PSoC4/SENT_TX_1.c **** *
  60:Generated_Source\PSoC4/SENT_TX_1.c **** * This is the interrupt handler which prepares the TCPWM component for the next 
ARM GAS  C:\Users\Ala\AppData\Local\Temp\cc2dsWuO.s 			page 3


  61:Generated_Source\PSoC4/SENT_TX_1.c **** * nibble pulse generation.
  62:Generated_Source\PSoC4/SENT_TX_1.c **** *
  63:Generated_Source\PSoC4/SENT_TX_1.c **** *******************************************************************************/
  64:Generated_Source\PSoC4/SENT_TX_1.c **** CY_ISR(SENT_TX_1_Interrupt)
  65:Generated_Source\PSoC4/SENT_TX_1.c **** {
  53              		.loc 1 65 0
  54              		.cfi_startproc
  55              		@ args = 0, pretend = 0, frame = 0
  56              		@ frame_needed = 1, uses_anonymous_args = 0
  57 0000 80B5     		push	{r7, lr}
  58              		.cfi_def_cfa_offset 8
  59              		.cfi_offset 7, -8
  60              		.cfi_offset 14, -4
  61 0002 00AF     		add	r7, sp, #0
  62              		.cfi_def_cfa_register 7
  66:Generated_Source\PSoC4/SENT_TX_1.c ****     switch(SENT_TX_1_idx)
  63              		.loc 1 66 0
  64 0004 1F4B     		ldr	r3, .L7
  65 0006 1B78     		ldrb	r3, [r3]
  66 0008 0A2B     		cmp	r3, #10
  67 000a 02D0     		beq	.L3
  68 000c 0B2B     		cmp	r3, #11
  69 000e 0AD0     		beq	.L4
  70 0010 1DE0     		b	.L6
  71              	.L3:
  67:Generated_Source\PSoC4/SENT_TX_1.c ****     {
  68:Generated_Source\PSoC4/SENT_TX_1.c **** 
  69:Generated_Source\PSoC4/SENT_TX_1.c ****     #if (SENT_TX_1_TRANSMIT_MODE == SENT_TX_1__SINGLE_MODE)
  70:Generated_Source\PSoC4/SENT_TX_1.c **** 
  71:Generated_Source\PSoC4/SENT_TX_1.c ****         /* Prepare PWM to be stopped on the next PWM interrupt */
  72:Generated_Source\PSoC4/SENT_TX_1.c ****         case SENT_TX_1_PREPARE_TO_STOP_COUNTER:
  73:Generated_Source\PSoC4/SENT_TX_1.c ****         {
  74:Generated_Source\PSoC4/SENT_TX_1.c ****             SENT_TX_1_PWM_WritePeriod(SENT_TX_1_TICKS_PREP_TO_STOP);
  72              		.loc 1 74 0
  73 0012 0420     		movs	r0, #4
  74 0014 FFF7FEFF 		bl	SENT_TX_1_PWM_WritePeriod
  75:Generated_Source\PSoC4/SENT_TX_1.c ****             SENT_TX_1_PWM_WriteCompare(SENT_TX_1_COMP_PREP_TO_STOP);
  75              		.loc 1 75 0
  76 0018 0020     		movs	r0, #0
  77 001a FFF7FEFF 		bl	SENT_TX_1_PWM_WriteCompare
  76:Generated_Source\PSoC4/SENT_TX_1.c **** 
  77:Generated_Source\PSoC4/SENT_TX_1.c ****             /* Update the index value to stop the counter in the next interrupt */
  78:Generated_Source\PSoC4/SENT_TX_1.c ****             SENT_TX_1_idx = SENT_TX_1_STOP_COUNTER;
  78              		.loc 1 78 0
  79 001e 194B     		ldr	r3, .L7
  80 0020 0B22     		movs	r2, #11
  81 0022 1A70     		strb	r2, [r3]
  79:Generated_Source\PSoC4/SENT_TX_1.c ****         }
  80:Generated_Source\PSoC4/SENT_TX_1.c ****         break;
  82              		.loc 1 80 0
  83 0024 24E0     		b	.L5
  84              	.L4:
  81:Generated_Source\PSoC4/SENT_TX_1.c **** 
  82:Generated_Source\PSoC4/SENT_TX_1.c ****         /* One frame transmission was done (Single mode). Stop the PWM and 
  83:Generated_Source\PSoC4/SENT_TX_1.c ****         *  prepare the PWM to sent new frame
  84:Generated_Source\PSoC4/SENT_TX_1.c ****         */
  85:Generated_Source\PSoC4/SENT_TX_1.c ****         case SENT_TX_1_STOP_COUNTER:
ARM GAS  C:\Users\Ala\AppData\Local\Temp\cc2dsWuO.s 			page 4


  86:Generated_Source\PSoC4/SENT_TX_1.c ****         {
  87:Generated_Source\PSoC4/SENT_TX_1.c ****             SENT_TX_1_PWM_TriggerCommand(SENT_TX_1_PWM_MASK, SENT_TX_1_PWM_CMD_STOP);
  85              		.loc 1 87 0
  86 0026 1021     		movs	r1, #16
  87 0028 0120     		movs	r0, #1
  88 002a FFF7FEFF 		bl	SENT_TX_1_PWM_TriggerCommand
  88:Generated_Source\PSoC4/SENT_TX_1.c **** 
  89:Generated_Source\PSoC4/SENT_TX_1.c ****             /* Prepare PWM to sent sync pulse if new frame transmission would be
  90:Generated_Source\PSoC4/SENT_TX_1.c ****             *  requested.
  91:Generated_Source\PSoC4/SENT_TX_1.c ****             */
  92:Generated_Source\PSoC4/SENT_TX_1.c ****             SENT_TX_1_PWM_WritePeriod(SENT_TX_1_SYNC_TICKS - 1U);
  89              		.loc 1 92 0
  90 002e 3720     		movs	r0, #55
  91 0030 FFF7FEFF 		bl	SENT_TX_1_PWM_WritePeriod
  93:Generated_Source\PSoC4/SENT_TX_1.c ****             
  94:Generated_Source\PSoC4/SENT_TX_1.c ****             /* Clear all required PWM registers */
  95:Generated_Source\PSoC4/SENT_TX_1.c ****             SENT_TX_1_PWM_WriteCompare(0U);
  92              		.loc 1 95 0
  93 0034 0020     		movs	r0, #0
  94 0036 FFF7FEFF 		bl	SENT_TX_1_PWM_WriteCompare
  96:Generated_Source\PSoC4/SENT_TX_1.c ****             SENT_TX_1_PWM_WriteCounter(0U);
  95              		.loc 1 96 0
  96 003a 0020     		movs	r0, #0
  97 003c FFF7FEFF 		bl	SENT_TX_1_PWM_WriteCounter
  97:Generated_Source\PSoC4/SENT_TX_1.c ****             SENT_TX_1_PWM_WritePeriodBuf(0U);
  98              		.loc 1 97 0
  99 0040 0020     		movs	r0, #0
 100 0042 FFF7FEFF 		bl	SENT_TX_1_PWM_WritePeriodBuf
  98:Generated_Source\PSoC4/SENT_TX_1.c **** 
  99:Generated_Source\PSoC4/SENT_TX_1.c ****             SENT_TX_1_status = SENT_TX_1_READY;
 101              		.loc 1 99 0
 102 0046 104B     		ldr	r3, .L7+4
 103 0048 0022     		movs	r2, #0
 104 004a 1A70     		strb	r2, [r3]
 100:Generated_Source\PSoC4/SENT_TX_1.c ****         }
 101:Generated_Source\PSoC4/SENT_TX_1.c ****         break;
 105              		.loc 1 101 0
 106 004c 10E0     		b	.L5
 107              	.L6:
 102:Generated_Source\PSoC4/SENT_TX_1.c ****     #else
 103:Generated_Source\PSoC4/SENT_TX_1.c **** 
 104:Generated_Source\PSoC4/SENT_TX_1.c ****         /* One frame transmission was done (Continuous mode). If new data is 
 105:Generated_Source\PSoC4/SENT_TX_1.c ****         *  ready swap the buffers, and send the sync pulse
 106:Generated_Source\PSoC4/SENT_TX_1.c ****         */
 107:Generated_Source\PSoC4/SENT_TX_1.c ****         case SENT_TX_1_END_OF_FRAME:
 108:Generated_Source\PSoC4/SENT_TX_1.c ****         {
 109:Generated_Source\PSoC4/SENT_TX_1.c ****             SENT_TX_1_PWM_WriteCompare(SENT_TX_1_PWM_LOW_TICKS);
 110:Generated_Source\PSoC4/SENT_TX_1.c ****             SENT_TX_1_idx = SENT_TX_1_NEW_FRAME;
 111:Generated_Source\PSoC4/SENT_TX_1.c **** 
 112:Generated_Source\PSoC4/SENT_TX_1.c ****             /* Check for the new data available */
 113:Generated_Source\PSoC4/SENT_TX_1.c ****             if (SENT_TX_1_status == SENT_TX_1_BUSY)
 114:Generated_Source\PSoC4/SENT_TX_1.c ****             {
 115:Generated_Source\PSoC4/SENT_TX_1.c ****                 SENT_TX_1_SwapBuffers();
 116:Generated_Source\PSoC4/SENT_TX_1.c ****                 SENT_TX_1_status = SENT_TX_1_READY;
 117:Generated_Source\PSoC4/SENT_TX_1.c ****             }
 118:Generated_Source\PSoC4/SENT_TX_1.c **** 
 119:Generated_Source\PSoC4/SENT_TX_1.c ****             SENT_TX_1_PWM_WritePeriodBuf(SENT_TX_1_SYNC_TICKS - 1U);
ARM GAS  C:\Users\Ala\AppData\Local\Temp\cc2dsWuO.s 			page 5


 120:Generated_Source\PSoC4/SENT_TX_1.c **** 
 121:Generated_Source\PSoC4/SENT_TX_1.c ****         }
 122:Generated_Source\PSoC4/SENT_TX_1.c ****         break;
 123:Generated_Source\PSoC4/SENT_TX_1.c ****     #endif /* SENT_TX_1_TRANSMIT_MODE == SENT_TX_1__SINGLE_MODE */
 124:Generated_Source\PSoC4/SENT_TX_1.c **** 
 125:Generated_Source\PSoC4/SENT_TX_1.c ****         /* The default case indicates that message sending is in progress and 
 126:Generated_Source\PSoC4/SENT_TX_1.c ****         *  the next nibble pulse should be prepared
 127:Generated_Source\PSoC4/SENT_TX_1.c ****         */
 128:Generated_Source\PSoC4/SENT_TX_1.c ****         default:
 129:Generated_Source\PSoC4/SENT_TX_1.c ****         {
 130:Generated_Source\PSoC4/SENT_TX_1.c ****             SENT_TX_1_PWM_WritePeriodBuf((SENT_TX_1_ZERO_TICKS - 1U) + 
 131:Generated_Source\PSoC4/SENT_TX_1.c ****             (uint32) SENT_TX_1_bufTx[SENT_TX_1_idx]);
 108              		.loc 1 131 0
 109 004e 0F4B     		ldr	r3, .L7+8
 110 0050 1B68     		ldr	r3, [r3]
 111 0052 0C4A     		ldr	r2, .L7
 112 0054 1278     		ldrb	r2, [r2]
 113 0056 9B18     		adds	r3, r3, r2
 114 0058 1B78     		ldrb	r3, [r3]
 130:Generated_Source\PSoC4/SENT_TX_1.c ****             (uint32) SENT_TX_1_bufTx[SENT_TX_1_idx]);
 115              		.loc 1 130 0
 116 005a 0B33     		adds	r3, r3, #11
 117 005c 1800     		movs	r0, r3
 118 005e FFF7FEFF 		bl	SENT_TX_1_PWM_WritePeriodBuf
 132:Generated_Source\PSoC4/SENT_TX_1.c **** 
 133:Generated_Source\PSoC4/SENT_TX_1.c ****             ++SENT_TX_1_idx;
 119              		.loc 1 133 0
 120 0062 084B     		ldr	r3, .L7
 121 0064 1B78     		ldrb	r3, [r3]
 122 0066 0133     		adds	r3, r3, #1
 123 0068 DAB2     		uxtb	r2, r3
 124 006a 064B     		ldr	r3, .L7
 125 006c 1A70     		strb	r2, [r3]
 134:Generated_Source\PSoC4/SENT_TX_1.c ****         }
 135:Generated_Source\PSoC4/SENT_TX_1.c ****         break;
 126              		.loc 1 135 0
 127 006e C046     		nop
 128              	.L5:
 136:Generated_Source\PSoC4/SENT_TX_1.c ****     }
 137:Generated_Source\PSoC4/SENT_TX_1.c ****     /* Set a switch trigger flag in the TCPWM trigger register */
 138:Generated_Source\PSoC4/SENT_TX_1.c ****     SENT_TX_1_PWM_TriggerCommand(SENT_TX_1_PWM_MASK, SENT_TX_1_PWM_CMD_CAPTURE);
 129              		.loc 1 138 0
 130 0070 0021     		movs	r1, #0
 131 0072 0120     		movs	r0, #1
 132 0074 FFF7FEFF 		bl	SENT_TX_1_PWM_TriggerCommand
 139:Generated_Source\PSoC4/SENT_TX_1.c **** 
 140:Generated_Source\PSoC4/SENT_TX_1.c ****     /* Clear the interrupt pending flag*/
 141:Generated_Source\PSoC4/SENT_TX_1.c ****     SENT_TX_1_PWM_ClearInterrupt(SENT_TX_1_PWM_INTR_MASK_TC);
 133              		.loc 1 141 0
 134 0078 0120     		movs	r0, #1
 135 007a FFF7FEFF 		bl	SENT_TX_1_PWM_ClearInterrupt
 142:Generated_Source\PSoC4/SENT_TX_1.c **** }
 136              		.loc 1 142 0
 137 007e C046     		nop
 138 0080 BD46     		mov	sp, r7
 139              		@ sp needed
 140 0082 80BD     		pop	{r7, pc}
ARM GAS  C:\Users\Ala\AppData\Local\Temp\cc2dsWuO.s 			page 6


 141              	.L8:
 142              		.align	2
 143              	.L7:
 144 0084 1C000000 		.word	SENT_TX_1_idx
 145 0088 00000000 		.word	SENT_TX_1_status
 146 008c 14000000 		.word	SENT_TX_1_bufTx
 147              		.cfi_endproc
 148              	.LFE4:
 149              		.size	SENT_TX_1_Interrupt, .-SENT_TX_1_Interrupt
 150              		.section	.text.SENT_TX_1_Init,"ax",%progbits
 151              		.align	2
 152              		.global	SENT_TX_1_Init
 153              		.code	16
 154              		.thumb_func
 155              		.type	SENT_TX_1_Init, %function
 156              	SENT_TX_1_Init:
 157              	.LFB5:
 143:Generated_Source\PSoC4/SENT_TX_1.c **** 
 144:Generated_Source\PSoC4/SENT_TX_1.c **** 
 145:Generated_Source\PSoC4/SENT_TX_1.c **** /*******************************************************************************
 146:Generated_Source\PSoC4/SENT_TX_1.c **** * Function Name: SENT_TX_1_Init
 147:Generated_Source\PSoC4/SENT_TX_1.c **** ****************************************************************************//**
 148:Generated_Source\PSoC4/SENT_TX_1.c **** *
 149:Generated_Source\PSoC4/SENT_TX_1.c **** * Initialize/Restore default SENT_TX_1 configuration.
 150:Generated_Source\PSoC4/SENT_TX_1.c **** *
 151:Generated_Source\PSoC4/SENT_TX_1.c **** *******************************************************************************/
 152:Generated_Source\PSoC4/SENT_TX_1.c **** void   SENT_TX_1_Init(void)
 153:Generated_Source\PSoC4/SENT_TX_1.c **** {
 158              		.loc 1 153 0
 159              		.cfi_startproc
 160              		@ args = 0, pretend = 0, frame = 0
 161              		@ frame_needed = 1, uses_anonymous_args = 0
 162 0000 80B5     		push	{r7, lr}
 163              		.cfi_def_cfa_offset 8
 164              		.cfi_offset 7, -8
 165              		.cfi_offset 14, -4
 166 0002 00AF     		add	r7, sp, #0
 167              		.cfi_def_cfa_register 7
 154:Generated_Source\PSoC4/SENT_TX_1.c ****     SENT_TX_1_CLK_SetDividerValue(SENT_TX_1_CLOCK_DIVIDER);
 168              		.loc 1 154 0
 169 0004 0021     		movs	r1, #0
 170 0006 4720     		movs	r0, #71
 171 0008 FFF7FEFF 		bl	SENT_TX_1_CLK_SetFractionalDividerRegister
 155:Generated_Source\PSoC4/SENT_TX_1.c ****     
 156:Generated_Source\PSoC4/SENT_TX_1.c ****     SENT_TX_1_PWM_Init();
 172              		.loc 1 156 0
 173 000c FFF7FEFF 		bl	SENT_TX_1_PWM_Init
 157:Generated_Source\PSoC4/SENT_TX_1.c ****     SENT_TX_1_ISR_StartEx(&SENT_TX_1_Interrupt);
 174              		.loc 1 157 0
 175 0010 034B     		ldr	r3, .L10
 176 0012 1800     		movs	r0, r3
 177 0014 FFF7FEFF 		bl	SENT_TX_1_ISR_StartEx
 158:Generated_Source\PSoC4/SENT_TX_1.c **** }
 178              		.loc 1 158 0
 179 0018 C046     		nop
 180 001a BD46     		mov	sp, r7
 181              		@ sp needed
ARM GAS  C:\Users\Ala\AppData\Local\Temp\cc2dsWuO.s 			page 7


 182 001c 80BD     		pop	{r7, pc}
 183              	.L11:
 184 001e C046     		.align	2
 185              	.L10:
 186 0020 00000000 		.word	SENT_TX_1_Interrupt
 187              		.cfi_endproc
 188              	.LFE5:
 189              		.size	SENT_TX_1_Init, .-SENT_TX_1_Init
 190              		.section	.text.SENT_TX_1_Start,"ax",%progbits
 191              		.align	2
 192              		.global	SENT_TX_1_Start
 193              		.code	16
 194              		.thumb_func
 195              		.type	SENT_TX_1_Start, %function
 196              	SENT_TX_1_Start:
 197              	.LFB6:
 159:Generated_Source\PSoC4/SENT_TX_1.c **** 
 160:Generated_Source\PSoC4/SENT_TX_1.c **** 
 161:Generated_Source\PSoC4/SENT_TX_1.c **** /*******************************************************************************
 162:Generated_Source\PSoC4/SENT_TX_1.c **** * Function Name: SENT_TX_1_Start
 163:Generated_Source\PSoC4/SENT_TX_1.c **** ****************************************************************************//**
 164:Generated_Source\PSoC4/SENT_TX_1.c **** *
 165:Generated_Source\PSoC4/SENT_TX_1.c **** * Initializes SENT_TX_1 with default customizer values when called
 166:Generated_Source\PSoC4/SENT_TX_1.c **** * the first time and enables SENT_TX_1.
 167:Generated_Source\PSoC4/SENT_TX_1.c **** * For subsequent calls the configuration is left unchanged and only the 
 168:Generated_Source\PSoC4/SENT_TX_1.c **** * component is enabled.
 169:Generated_Source\PSoC4/SENT_TX_1.c **** *
 170:Generated_Source\PSoC4/SENT_TX_1.c **** * \param data
 171:Generated_Source\PSoC4/SENT_TX_1.c **** * The pointer to the uint8 array of length SENT_TX_1_USER_NIBBLES, where
 172:Generated_Source\PSoC4/SENT_TX_1.c **** * the 1st byte is the status nibble and the next 6 bytes are data nibbles.
 173:Generated_Source\PSoC4/SENT_TX_1.c **** *
 174:Generated_Source\PSoC4/SENT_TX_1.c **** * \globalvars 
 175:Generated_Source\PSoC4/SENT_TX_1.c **** * \ref SENT_TX_1_initVar
 176:Generated_Source\PSoC4/SENT_TX_1.c **** *
 177:Generated_Source\PSoC4/SENT_TX_1.c **** * Note each call of SENT_TX_1_Start() will restart the counter and the 
 178:Generated_Source\PSoC4/SENT_TX_1.c **** * message will be transmitted from the first nibble.
 179:Generated_Source\PSoC4/SENT_TX_1.c **** *
 180:Generated_Source\PSoC4/SENT_TX_1.c **** *******************************************************************************/
 181:Generated_Source\PSoC4/SENT_TX_1.c **** void SENT_TX_1_Start(uint8 const data[]) 
 182:Generated_Source\PSoC4/SENT_TX_1.c **** {
 198              		.loc 1 182 0
 199              		.cfi_startproc
 200              		@ args = 0, pretend = 0, frame = 8
 201              		@ frame_needed = 1, uses_anonymous_args = 0
 202 0000 80B5     		push	{r7, lr}
 203              		.cfi_def_cfa_offset 8
 204              		.cfi_offset 7, -8
 205              		.cfi_offset 14, -4
 206 0002 82B0     		sub	sp, sp, #8
 207              		.cfi_def_cfa_offset 16
 208 0004 00AF     		add	r7, sp, #0
 209              		.cfi_def_cfa_register 7
 210 0006 7860     		str	r0, [r7, #4]
 183:Generated_Source\PSoC4/SENT_TX_1.c ****     if (SENT_TX_1_initVar == 0U)
 211              		.loc 1 183 0
 212 0008 104B     		ldr	r3, .L14
 213 000a 1B78     		ldrb	r3, [r3]
ARM GAS  C:\Users\Ala\AppData\Local\Temp\cc2dsWuO.s 			page 8


 214 000c 002B     		cmp	r3, #0
 215 000e 04D1     		bne	.L13
 184:Generated_Source\PSoC4/SENT_TX_1.c ****     {
 185:Generated_Source\PSoC4/SENT_TX_1.c ****         SENT_TX_1_Init();
 216              		.loc 1 185 0
 217 0010 FFF7FEFF 		bl	SENT_TX_1_Init
 186:Generated_Source\PSoC4/SENT_TX_1.c ****         SENT_TX_1_initVar = 1U; 
 218              		.loc 1 186 0
 219 0014 0D4B     		ldr	r3, .L14
 220 0016 0122     		movs	r2, #1
 221 0018 1A70     		strb	r2, [r3]
 222              	.L13:
 187:Generated_Source\PSoC4/SENT_TX_1.c ****     }
 188:Generated_Source\PSoC4/SENT_TX_1.c **** 
 189:Generated_Source\PSoC4/SENT_TX_1.c ****     SENT_TX_1_bufPr = SENT_TX_1_buf0;
 223              		.loc 1 189 0
 224 001a 0D4B     		ldr	r3, .L14+4
 225 001c 0D4A     		ldr	r2, .L14+8
 226 001e 1A60     		str	r2, [r3]
 190:Generated_Source\PSoC4/SENT_TX_1.c ****     SENT_TX_1_UpdateData(data);
 227              		.loc 1 190 0
 228 0020 7B68     		ldr	r3, [r7, #4]
 229 0022 1800     		movs	r0, r3
 230 0024 FFF7FEFF 		bl	SENT_TX_1_UpdateData
 191:Generated_Source\PSoC4/SENT_TX_1.c **** 
 192:Generated_Source\PSoC4/SENT_TX_1.c ****     SENT_TX_1_bufTx = SENT_TX_1_buf0;
 231              		.loc 1 192 0
 232 0028 0B4B     		ldr	r3, .L14+12
 233 002a 0A4A     		ldr	r2, .L14+8
 234 002c 1A60     		str	r2, [r3]
 193:Generated_Source\PSoC4/SENT_TX_1.c ****     SENT_TX_1_bufPr = SENT_TX_1_buf1;
 235              		.loc 1 193 0
 236 002e 084B     		ldr	r3, .L14+4
 237 0030 0A4A     		ldr	r2, .L14+16
 238 0032 1A60     		str	r2, [r3]
 194:Generated_Source\PSoC4/SENT_TX_1.c **** 
 195:Generated_Source\PSoC4/SENT_TX_1.c **** #if (SENT_TX_1_TRANSMIT_MODE != SENT_TX_1__SINGLE_MODE)
 196:Generated_Source\PSoC4/SENT_TX_1.c ****     SENT_TX_1_status = SENT_TX_1_READY;
 197:Generated_Source\PSoC4/SENT_TX_1.c **** #endif /* SENT_TX_1_TRANSMIT_MODE != SENT_TX_1__SINGLE_MODE */
 198:Generated_Source\PSoC4/SENT_TX_1.c **** 
 199:Generated_Source\PSoC4/SENT_TX_1.c ****     /* Reset a SENT_TX interrupt state machine */
 200:Generated_Source\PSoC4/SENT_TX_1.c ****     SENT_TX_1_idx = SENT_TX_1_NEW_FRAME;
 239              		.loc 1 200 0
 240 0034 0A4B     		ldr	r3, .L14+20
 241 0036 0022     		movs	r2, #0
 242 0038 1A70     		strb	r2, [r3]
 201:Generated_Source\PSoC4/SENT_TX_1.c ****     SENT_TX_1_PWM_WritePeriod(SENT_TX_1_SYNC_TICKS - 1U);
 243              		.loc 1 201 0
 244 003a 3720     		movs	r0, #55
 245 003c FFF7FEFF 		bl	SENT_TX_1_PWM_WritePeriod
 202:Generated_Source\PSoC4/SENT_TX_1.c ****     
 203:Generated_Source\PSoC4/SENT_TX_1.c ****     /* Enable the PWM component */
 204:Generated_Source\PSoC4/SENT_TX_1.c ****     SENT_TX_1_PWM_Enable();
 246              		.loc 1 204 0
 247 0040 FFF7FEFF 		bl	SENT_TX_1_PWM_Enable
 205:Generated_Source\PSoC4/SENT_TX_1.c **** }
 248              		.loc 1 205 0
ARM GAS  C:\Users\Ala\AppData\Local\Temp\cc2dsWuO.s 			page 9


 249 0044 C046     		nop
 250 0046 BD46     		mov	sp, r7
 251 0048 02B0     		add	sp, sp, #8
 252              		@ sp needed
 253 004a 80BD     		pop	{r7, pc}
 254              	.L15:
 255              		.align	2
 256              	.L14:
 257 004c 00000000 		.word	SENT_TX_1_initVar
 258 0050 18000000 		.word	SENT_TX_1_bufPr
 259 0054 04000000 		.word	SENT_TX_1_buf0
 260 0058 14000000 		.word	SENT_TX_1_bufTx
 261 005c 0C000000 		.word	SENT_TX_1_buf1
 262 0060 1C000000 		.word	SENT_TX_1_idx
 263              		.cfi_endproc
 264              	.LFE6:
 265              		.size	SENT_TX_1_Start, .-SENT_TX_1_Start
 266              		.section	.text.SENT_TX_1_UpdateData,"ax",%progbits
 267              		.align	2
 268              		.global	SENT_TX_1_UpdateData
 269              		.code	16
 270              		.thumb_func
 271              		.type	SENT_TX_1_UpdateData, %function
 272              	SENT_TX_1_UpdateData:
 273              	.LFB7:
 206:Generated_Source\PSoC4/SENT_TX_1.c **** 
 207:Generated_Source\PSoC4/SENT_TX_1.c **** 
 208:Generated_Source\PSoC4/SENT_TX_1.c **** /*******************************************************************************
 209:Generated_Source\PSoC4/SENT_TX_1.c **** * Function Name: SENT_TX_1_UpdateData
 210:Generated_Source\PSoC4/SENT_TX_1.c **** ****************************************************************************//**
 211:Generated_Source\PSoC4/SENT_TX_1.c **** *
 212:Generated_Source\PSoC4/SENT_TX_1.c **** * Writes the frame with new data into the transfer buffer.
 213:Generated_Source\PSoC4/SENT_TX_1.c **** *
 214:Generated_Source\PSoC4/SENT_TX_1.c **** * \param data
 215:Generated_Source\PSoC4/SENT_TX_1.c **** * The pointer to the uint8 array of length SENT_TX_1_USER_NIBBLES, where
 216:Generated_Source\PSoC4/SENT_TX_1.c **** * the first byte is the status nibble and the next six bytes are data nibbles.
 217:Generated_Source\PSoC4/SENT_TX_1.c **** *
 218:Generated_Source\PSoC4/SENT_TX_1.c **** *******************************************************************************/
 219:Generated_Source\PSoC4/SENT_TX_1.c **** void SENT_TX_1_UpdateData(uint8 const data[])
 220:Generated_Source\PSoC4/SENT_TX_1.c **** {
 274              		.loc 1 220 0
 275              		.cfi_startproc
 276              		@ args = 0, pretend = 0, frame = 16
 277              		@ frame_needed = 1, uses_anonymous_args = 0
 278 0000 90B5     		push	{r4, r7, lr}
 279              		.cfi_def_cfa_offset 12
 280              		.cfi_offset 4, -12
 281              		.cfi_offset 7, -8
 282              		.cfi_offset 14, -4
 283 0002 85B0     		sub	sp, sp, #20
 284              		.cfi_def_cfa_offset 32
 285 0004 00AF     		add	r7, sp, #0
 286              		.cfi_def_cfa_register 7
 287 0006 7860     		str	r0, [r7, #4]
 221:Generated_Source\PSoC4/SENT_TX_1.c ****     uint8 i;
 222:Generated_Source\PSoC4/SENT_TX_1.c **** 
 223:Generated_Source\PSoC4/SENT_TX_1.c ****     SENT_TX_1_status = SENT_TX_1_READY;
ARM GAS  C:\Users\Ala\AppData\Local\Temp\cc2dsWuO.s 			page 10


 288              		.loc 1 223 0
 289 0008 264B     		ldr	r3, .L23
 290 000a 0022     		movs	r2, #0
 291 000c 1A70     		strb	r2, [r3]
 224:Generated_Source\PSoC4/SENT_TX_1.c **** 
 225:Generated_Source\PSoC4/SENT_TX_1.c ****     /* Check for the "prepare" data buffer allocation */
 226:Generated_Source\PSoC4/SENT_TX_1.c ****     if (SENT_TX_1_bufPr != NULL)
 292              		.loc 1 226 0
 293 000e 264B     		ldr	r3, .L23+4
 294 0010 1B68     		ldr	r3, [r3]
 295 0012 002B     		cmp	r3, #0
 296 0014 3ED0     		beq	.L17
 227:Generated_Source\PSoC4/SENT_TX_1.c ****     {
 228:Generated_Source\PSoC4/SENT_TX_1.c ****         for(i = 0U; i < SENT_TX_1_USER_NIBBLES; i++)
 297              		.loc 1 228 0
 298 0016 0F23     		movs	r3, #15
 299 0018 FB18     		adds	r3, r7, r3
 300 001a 0022     		movs	r2, #0
 301 001c 1A70     		strb	r2, [r3]
 302 001e 16E0     		b	.L18
 303              	.L19:
 229:Generated_Source\PSoC4/SENT_TX_1.c ****         {
 230:Generated_Source\PSoC4/SENT_TX_1.c ****             SENT_TX_1_bufPr[i] = data[i] & SENT_TX_1_NIBBLE_MASK;
 304              		.loc 1 230 0 discriminator 3
 305 0020 214B     		ldr	r3, .L23+4
 306 0022 1A68     		ldr	r2, [r3]
 307 0024 0F23     		movs	r3, #15
 308 0026 FB18     		adds	r3, r7, r3
 309 0028 1B78     		ldrb	r3, [r3]
 310 002a D318     		adds	r3, r2, r3
 311 002c 0F22     		movs	r2, #15
 312 002e BA18     		adds	r2, r7, r2
 313 0030 1278     		ldrb	r2, [r2]
 314 0032 7968     		ldr	r1, [r7, #4]
 315 0034 8A18     		adds	r2, r1, r2
 316 0036 1278     		ldrb	r2, [r2]
 317 0038 0F21     		movs	r1, #15
 318 003a 0A40     		ands	r2, r1
 319 003c D2B2     		uxtb	r2, r2
 320 003e 1A70     		strb	r2, [r3]
 228:Generated_Source\PSoC4/SENT_TX_1.c ****         {
 321              		.loc 1 228 0 discriminator 3
 322 0040 0F23     		movs	r3, #15
 323 0042 FB18     		adds	r3, r7, r3
 324 0044 1A78     		ldrb	r2, [r3]
 325 0046 0F23     		movs	r3, #15
 326 0048 FB18     		adds	r3, r7, r3
 327 004a 0132     		adds	r2, r2, #1
 328 004c 1A70     		strb	r2, [r3]
 329              	.L18:
 228:Generated_Source\PSoC4/SENT_TX_1.c ****         {
 330              		.loc 1 228 0 is_stmt 0 discriminator 1
 331 004e 0F23     		movs	r3, #15
 332 0050 FB18     		adds	r3, r7, r3
 333 0052 1B78     		ldrb	r3, [r3]
 334 0054 062B     		cmp	r3, #6
 335 0056 E3D9     		bls	.L19
ARM GAS  C:\Users\Ala\AppData\Local\Temp\cc2dsWuO.s 			page 11


 231:Generated_Source\PSoC4/SENT_TX_1.c ****         }
 232:Generated_Source\PSoC4/SENT_TX_1.c **** 
 233:Generated_Source\PSoC4/SENT_TX_1.c ****         SENT_TX_1_bufPr[SENT_TX_1_CRC_IDX] = SENT_TX_1_CalculateCrc(SENT_TX_1_bufPr);
 336              		.loc 1 233 0 is_stmt 1
 337 0058 134B     		ldr	r3, .L23+4
 338 005a 1B68     		ldr	r3, [r3]
 339 005c DC1D     		adds	r4, r3, #7
 340 005e 124B     		ldr	r3, .L23+4
 341 0060 1B68     		ldr	r3, [r3]
 342 0062 1800     		movs	r0, r3
 343 0064 FFF7FEFF 		bl	SENT_TX_1_CalculateCrc
 344 0068 0300     		movs	r3, r0
 345 006a 2370     		strb	r3, [r4]
 234:Generated_Source\PSoC4/SENT_TX_1.c **** 
 235:Generated_Source\PSoC4/SENT_TX_1.c ****     #if (SENT_TX_1_PAUSE_PULSE == SENT_TX_1__ENABLED)
 236:Generated_Source\PSoC4/SENT_TX_1.c **** 
 237:Generated_Source\PSoC4/SENT_TX_1.c ****         /* Calculate pause pulse value */
 238:Generated_Source\PSoC4/SENT_TX_1.c ****         SENT_TX_1_bufPr[SENT_TX_1_PAUSE_IDX] = 
 239:Generated_Source\PSoC4/SENT_TX_1.c ****         SENT_TX_1_CalculatePauseData(SENT_TX_1_bufPr);
 240:Generated_Source\PSoC4/SENT_TX_1.c ****     #endif /* SENT_TX_1_PAUSE_PULSE == SENT_TX_1__ENABLED */
 241:Generated_Source\PSoC4/SENT_TX_1.c **** 
 242:Generated_Source\PSoC4/SENT_TX_1.c ****     #if (SENT_TX_1_TRANSMIT_MODE == SENT_TX_1__SINGLE_MODE)
 243:Generated_Source\PSoC4/SENT_TX_1.c **** 
 244:Generated_Source\PSoC4/SENT_TX_1.c ****         /* Restart the PWM (Single mode), swap the buffers for the new frame
 245:Generated_Source\PSoC4/SENT_TX_1.c ****         *  transition
 246:Generated_Source\PSoC4/SENT_TX_1.c ****         */
 247:Generated_Source\PSoC4/SENT_TX_1.c ****         if (SENT_TX_1_idx == SENT_TX_1_STOP_COUNTER)
 346              		.loc 1 247 0
 347 006c 0F4B     		ldr	r3, .L23+8
 348 006e 1B78     		ldrb	r3, [r3]
 349 0070 0B2B     		cmp	r3, #11
 350 0072 0BD1     		bne	.L20
 248:Generated_Source\PSoC4/SENT_TX_1.c ****         {
 249:Generated_Source\PSoC4/SENT_TX_1.c ****             SENT_TX_1_idx = SENT_TX_1_NEW_FRAME;
 351              		.loc 1 249 0
 352 0074 0D4B     		ldr	r3, .L23+8
 353 0076 0022     		movs	r2, #0
 354 0078 1A70     		strb	r2, [r3]
 250:Generated_Source\PSoC4/SENT_TX_1.c ****             SENT_TX_1_SwapBuffers();
 355              		.loc 1 250 0
 356 007a FFF7FEFF 		bl	SENT_TX_1_SwapBuffers
 251:Generated_Source\PSoC4/SENT_TX_1.c **** 
 252:Generated_Source\PSoC4/SENT_TX_1.c ****             SENT_TX_1_PWM_WriteCompare(SENT_TX_1_PWM_LOW_TICKS);
 357              		.loc 1 252 0
 358 007e 0520     		movs	r0, #5
 359 0080 FFF7FEFF 		bl	SENT_TX_1_PWM_WriteCompare
 253:Generated_Source\PSoC4/SENT_TX_1.c ****             SENT_TX_1_PWM_TriggerCommand(SENT_TX_1_PWM_MASK, SENT_TX_1_PWM_CMD_START);
 360              		.loc 1 253 0
 361 0084 1821     		movs	r1, #24
 362 0086 0120     		movs	r0, #1
 363 0088 FFF7FEFF 		bl	SENT_TX_1_PWM_TriggerCommand
 364              	.L20:
 254:Generated_Source\PSoC4/SENT_TX_1.c ****         }
 255:Generated_Source\PSoC4/SENT_TX_1.c ****     #endif /* SENT_TX_1_TRANSMIT_MODE == SENT_TX_1__SINGLE_MODE */ 
 256:Generated_Source\PSoC4/SENT_TX_1.c **** 
 257:Generated_Source\PSoC4/SENT_TX_1.c ****         SENT_TX_1_status = SENT_TX_1_BUSY;
 365              		.loc 1 257 0
ARM GAS  C:\Users\Ala\AppData\Local\Temp\cc2dsWuO.s 			page 12


 366 008c 054B     		ldr	r3, .L23
 367 008e 0122     		movs	r2, #1
 368 0090 1A70     		strb	r2, [r3]
 258:Generated_Source\PSoC4/SENT_TX_1.c ****     }
 259:Generated_Source\PSoC4/SENT_TX_1.c ****     else
 260:Generated_Source\PSoC4/SENT_TX_1.c ****     {
 261:Generated_Source\PSoC4/SENT_TX_1.c ****        CYASSERT(0U != 0U);
 262:Generated_Source\PSoC4/SENT_TX_1.c ****     }
 263:Generated_Source\PSoC4/SENT_TX_1.c **** }
 369              		.loc 1 263 0
 370 0092 02E0     		b	.L22
 371              	.L17:
 261:Generated_Source\PSoC4/SENT_TX_1.c ****     }
 372              		.loc 1 261 0 discriminator 1
 373 0094 0020     		movs	r0, #0
 374 0096 FFF7FEFF 		bl	CyHalt
 375              	.L22:
 376              		.loc 1 263 0
 377 009a C046     		nop
 378 009c BD46     		mov	sp, r7
 379 009e 05B0     		add	sp, sp, #20
 380              		@ sp needed
 381 00a0 90BD     		pop	{r4, r7, pc}
 382              	.L24:
 383 00a2 C046     		.align	2
 384              	.L23:
 385 00a4 00000000 		.word	SENT_TX_1_status
 386 00a8 18000000 		.word	SENT_TX_1_bufPr
 387 00ac 1C000000 		.word	SENT_TX_1_idx
 388              		.cfi_endproc
 389              	.LFE7:
 390              		.size	SENT_TX_1_UpdateData, .-SENT_TX_1_UpdateData
 391              		.section	.text.SENT_TX_1_CalculateCrc,"ax",%progbits
 392              		.align	2
 393              		.code	16
 394              		.thumb_func
 395              		.type	SENT_TX_1_CalculateCrc, %function
 396              	SENT_TX_1_CalculateCrc:
 397              	.LFB8:
 264:Generated_Source\PSoC4/SENT_TX_1.c **** 
 265:Generated_Source\PSoC4/SENT_TX_1.c **** 
 266:Generated_Source\PSoC4/SENT_TX_1.c **** /*******************************************************************************
 267:Generated_Source\PSoC4/SENT_TX_1.c **** * Function Name: SENT_TX_1_CalculateCrc
 268:Generated_Source\PSoC4/SENT_TX_1.c **** ****************************************************************************//**
 269:Generated_Source\PSoC4/SENT_TX_1.c **** *
 270:Generated_Source\PSoC4/SENT_TX_1.c **** * Calculates the cyclic redundancy check value.
 271:Generated_Source\PSoC4/SENT_TX_1.c **** *
 272:Generated_Source\PSoC4/SENT_TX_1.c **** * \param data
 273:Generated_Source\PSoC4/SENT_TX_1.c **** * The pointer to the uint8 array of length SENT_TX_1_USER_NIBBLES, where
 274:Generated_Source\PSoC4/SENT_TX_1.c **** * the 1st byte is the status nibble and the next 6 bytes are data nibbles.
 275:Generated_Source\PSoC4/SENT_TX_1.c **** *
 276:Generated_Source\PSoC4/SENT_TX_1.c **** * \return
 277:Generated_Source\PSoC4/SENT_TX_1.c **** * The cyclic redundancy check value of the new data nibbles.
 278:Generated_Source\PSoC4/SENT_TX_1.c **** *
 279:Generated_Source\PSoC4/SENT_TX_1.c **** *******************************************************************************/
 280:Generated_Source\PSoC4/SENT_TX_1.c **** static uint8 SENT_TX_1_CalculateCrc(uint8 const data[])
 281:Generated_Source\PSoC4/SENT_TX_1.c **** {
ARM GAS  C:\Users\Ala\AppData\Local\Temp\cc2dsWuO.s 			page 13


 398              		.loc 1 281 0
 399              		.cfi_startproc
 400              		@ args = 0, pretend = 0, frame = 16
 401              		@ frame_needed = 1, uses_anonymous_args = 0
 402 0000 80B5     		push	{r7, lr}
 403              		.cfi_def_cfa_offset 8
 404              		.cfi_offset 7, -8
 405              		.cfi_offset 14, -4
 406 0002 84B0     		sub	sp, sp, #16
 407              		.cfi_def_cfa_offset 24
 408 0004 00AF     		add	r7, sp, #0
 409              		.cfi_def_cfa_register 7
 410 0006 7860     		str	r0, [r7, #4]
 282:Generated_Source\PSoC4/SENT_TX_1.c ****     /* This is a lookup table that writes in the RAM memory */
 283:Generated_Source\PSoC4/SENT_TX_1.c ****     static const uint8 crcTable[] = 
 284:Generated_Source\PSoC4/SENT_TX_1.c ****     {
 285:Generated_Source\PSoC4/SENT_TX_1.c ****         0U, 13U, 7U, 10U, 14U, 3U, 9U, 4U,
 286:Generated_Source\PSoC4/SENT_TX_1.c ****         1U, 12U, 6U, 11U, 15U, 2U, 8U, 5U
 287:Generated_Source\PSoC4/SENT_TX_1.c ****     };
 288:Generated_Source\PSoC4/SENT_TX_1.c ****     
 289:Generated_Source\PSoC4/SENT_TX_1.c ****     /* Write the seed value in the crc variable before calculations */
 290:Generated_Source\PSoC4/SENT_TX_1.c ****     uint8 crc = SENT_TX_1_SEED;
 411              		.loc 1 290 0
 412 0008 0F23     		movs	r3, #15
 413 000a FB18     		adds	r3, r7, r3
 414 000c 0522     		movs	r2, #5
 415 000e 1A70     		strb	r2, [r3]
 291:Generated_Source\PSoC4/SENT_TX_1.c ****     uint32 i;
 292:Generated_Source\PSoC4/SENT_TX_1.c ****     
 293:Generated_Source\PSoC4/SENT_TX_1.c ****     /* Calculate the data CRC value */
 294:Generated_Source\PSoC4/SENT_TX_1.c ****     for(i = 1U; i < SENT_TX_1_USER_NIBBLES; i++)
 416              		.loc 1 294 0
 417 0010 0123     		movs	r3, #1
 418 0012 BB60     		str	r3, [r7, #8]
 419 0014 12E0     		b	.L26
 420              	.L27:
 295:Generated_Source\PSoC4/SENT_TX_1.c ****     {
 296:Generated_Source\PSoC4/SENT_TX_1.c ****         crc = crcTable[crc] ^ (data[i] & SENT_TX_1_NIBBLE_MASK);
 421              		.loc 1 296 0 discriminator 3
 422 0016 0F23     		movs	r3, #15
 423 0018 FB18     		adds	r3, r7, r3
 424 001a 1B78     		ldrb	r3, [r3]
 425 001c 104A     		ldr	r2, .L29
 426 001e D15C     		ldrb	r1, [r2, r3]
 427 0020 7A68     		ldr	r2, [r7, #4]
 428 0022 BB68     		ldr	r3, [r7, #8]
 429 0024 D318     		adds	r3, r2, r3
 430 0026 1B78     		ldrb	r3, [r3]
 431 0028 0F22     		movs	r2, #15
 432 002a 1340     		ands	r3, r2
 433 002c DAB2     		uxtb	r2, r3
 434 002e 0F23     		movs	r3, #15
 435 0030 FB18     		adds	r3, r7, r3
 436 0032 4A40     		eors	r2, r1
 437 0034 1A70     		strb	r2, [r3]
 294:Generated_Source\PSoC4/SENT_TX_1.c ****     {
 438              		.loc 1 294 0 discriminator 3
ARM GAS  C:\Users\Ala\AppData\Local\Temp\cc2dsWuO.s 			page 14


 439 0036 BB68     		ldr	r3, [r7, #8]
 440 0038 0133     		adds	r3, r3, #1
 441 003a BB60     		str	r3, [r7, #8]
 442              	.L26:
 294:Generated_Source\PSoC4/SENT_TX_1.c ****     {
 443              		.loc 1 294 0 is_stmt 0 discriminator 1
 444 003c BB68     		ldr	r3, [r7, #8]
 445 003e 062B     		cmp	r3, #6
 446 0040 E9D9     		bls	.L27
 297:Generated_Source\PSoC4/SENT_TX_1.c ****     }
 298:Generated_Source\PSoC4/SENT_TX_1.c **** 
 299:Generated_Source\PSoC4/SENT_TX_1.c **** #if (SENT_TX_1_CRC_IMPLEMENTATION == SENT_TX_1__NEWCRC)
 300:Generated_Source\PSoC4/SENT_TX_1.c ****     /* The checksum using new CRC method */
 301:Generated_Source\PSoC4/SENT_TX_1.c ****     crc = crcTable[crc];
 447              		.loc 1 301 0 is_stmt 1
 448 0042 0F23     		movs	r3, #15
 449 0044 FB18     		adds	r3, r7, r3
 450 0046 1A78     		ldrb	r2, [r3]
 451 0048 0F23     		movs	r3, #15
 452 004a FB18     		adds	r3, r7, r3
 453 004c 0449     		ldr	r1, .L29
 454 004e 8A5C     		ldrb	r2, [r1, r2]
 455 0050 1A70     		strb	r2, [r3]
 302:Generated_Source\PSoC4/SENT_TX_1.c **** #endif /* SENT_TX_1_CRC_IMPLEMENTATION == SENT_TX_1__NEWCRC */
 303:Generated_Source\PSoC4/SENT_TX_1.c **** 
 304:Generated_Source\PSoC4/SENT_TX_1.c ****     return (crc);
 456              		.loc 1 304 0
 457 0052 0F23     		movs	r3, #15
 458 0054 FB18     		adds	r3, r7, r3
 459 0056 1B78     		ldrb	r3, [r3]
 305:Generated_Source\PSoC4/SENT_TX_1.c **** }
 460              		.loc 1 305 0
 461 0058 1800     		movs	r0, r3
 462 005a BD46     		mov	sp, r7
 463 005c 04B0     		add	sp, sp, #16
 464              		@ sp needed
 465 005e 80BD     		pop	{r7, pc}
 466              	.L30:
 467              		.align	2
 468              	.L29:
 469 0060 00000000 		.word	crcTable.4999
 470              		.cfi_endproc
 471              	.LFE8:
 472              		.size	SENT_TX_1_CalculateCrc, .-SENT_TX_1_CalculateCrc
 473              		.section	.text.SENT_TX_1_SwapBuffers,"ax",%progbits
 474              		.align	2
 475              		.code	16
 476              		.thumb_func
 477              		.type	SENT_TX_1_SwapBuffers, %function
 478              	SENT_TX_1_SwapBuffers:
 479              	.LFB9:
 306:Generated_Source\PSoC4/SENT_TX_1.c **** 
 307:Generated_Source\PSoC4/SENT_TX_1.c **** #if (SENT_TX_1_PAUSE_PULSE == SENT_TX_1__ENABLED)
 308:Generated_Source\PSoC4/SENT_TX_1.c **** 
 309:Generated_Source\PSoC4/SENT_TX_1.c ****     /*******************************************************************************
 310:Generated_Source\PSoC4/SENT_TX_1.c ****     * Function Name: SENT_TX_1_CalculatePauseData
 311:Generated_Source\PSoC4/SENT_TX_1.c ****     ****************************************************************************//**
ARM GAS  C:\Users\Ala\AppData\Local\Temp\cc2dsWuO.s 			page 15


 312:Generated_Source\PSoC4/SENT_TX_1.c ****     *
 313:Generated_Source\PSoC4/SENT_TX_1.c ****     * Calculates the duration of the pause nibble, for the frame with new data.
 314:Generated_Source\PSoC4/SENT_TX_1.c ****     *
 315:Generated_Source\PSoC4/SENT_TX_1.c ****     * \param data
 316:Generated_Source\PSoC4/SENT_TX_1.c ****     * The pointer to the uint8 array of length SENT_TX_1_ALL_NIBBLES, where
 317:Generated_Source\PSoC4/SENT_TX_1.c ****     * the 1st byte is the status nibble, the next 6 bytes are data nibbles,
 318:Generated_Source\PSoC4/SENT_TX_1.c ****     * and the last nibble is a CRC value.
 319:Generated_Source\PSoC4/SENT_TX_1.c ****     *
 320:Generated_Source\PSoC4/SENT_TX_1.c ****     * \return
 321:Generated_Source\PSoC4/SENT_TX_1.c ****     * The duration of the pause period (in clock period units).
 322:Generated_Source\PSoC4/SENT_TX_1.c ****     *
 323:Generated_Source\PSoC4/SENT_TX_1.c ****     *******************************************************************************/
 324:Generated_Source\PSoC4/SENT_TX_1.c ****     static uint8 SENT_TX_1_CalculatePauseData(uint8 const data[])
 325:Generated_Source\PSoC4/SENT_TX_1.c ****     {
 326:Generated_Source\PSoC4/SENT_TX_1.c ****         uint8 frameDuration = SENT_TX_1_ALL_TICKS - ((uint8)SENT_TX_1_SYNC_TICKS + SENT_TX_1_ZERO_T
 327:Generated_Source\PSoC4/SENT_TX_1.c **** 
 328:Generated_Source\PSoC4/SENT_TX_1.c ****         uint8 i;
 329:Generated_Source\PSoC4/SENT_TX_1.c **** 
 330:Generated_Source\PSoC4/SENT_TX_1.c ****         for(i = 0U; i < SENT_TX_1_ALL_NIBBLES; i++)
 331:Generated_Source\PSoC4/SENT_TX_1.c ****         {
 332:Generated_Source\PSoC4/SENT_TX_1.c ****             frameDuration -= (SENT_TX_1_ZERO_TICKS + (data[i] & SENT_TX_1_NIBBLE_MASK));
 333:Generated_Source\PSoC4/SENT_TX_1.c ****         }
 334:Generated_Source\PSoC4/SENT_TX_1.c **** 
 335:Generated_Source\PSoC4/SENT_TX_1.c ****         return (frameDuration);
 336:Generated_Source\PSoC4/SENT_TX_1.c ****     }
 337:Generated_Source\PSoC4/SENT_TX_1.c **** #endif /* SENT_TX_1_PAUSE_PULSE == SENT_TX_1__ENABLED */
 338:Generated_Source\PSoC4/SENT_TX_1.c **** 
 339:Generated_Source\PSoC4/SENT_TX_1.c **** 
 340:Generated_Source\PSoC4/SENT_TX_1.c **** /*******************************************************************************
 341:Generated_Source\PSoC4/SENT_TX_1.c **** * Function Name: SENT_TX_1_SwapBuffers
 342:Generated_Source\PSoC4/SENT_TX_1.c **** ****************************************************************************//**
 343:Generated_Source\PSoC4/SENT_TX_1.c **** *
 344:Generated_Source\PSoC4/SENT_TX_1.c **** * Internal function which swaps the "transmition" and "prepare" buffers
 345:Generated_Source\PSoC4/SENT_TX_1.c **** *
 346:Generated_Source\PSoC4/SENT_TX_1.c **** *******************************************************************************/
 347:Generated_Source\PSoC4/SENT_TX_1.c **** static void SENT_TX_1_SwapBuffers(void)
 348:Generated_Source\PSoC4/SENT_TX_1.c **** {
 480              		.loc 1 348 0
 481              		.cfi_startproc
 482              		@ args = 0, pretend = 0, frame = 0
 483              		@ frame_needed = 1, uses_anonymous_args = 0
 484 0000 80B5     		push	{r7, lr}
 485              		.cfi_def_cfa_offset 8
 486              		.cfi_offset 7, -8
 487              		.cfi_offset 14, -4
 488 0002 00AF     		add	r7, sp, #0
 489              		.cfi_def_cfa_register 7
 349:Generated_Source\PSoC4/SENT_TX_1.c ****     if (SENT_TX_1_bufTx == SENT_TX_1_buf0)
 490              		.loc 1 349 0
 491 0004 0A4B     		ldr	r3, .L35
 492 0006 1A68     		ldr	r2, [r3]
 493 0008 0A4B     		ldr	r3, .L35+4
 494 000a 9A42     		cmp	r2, r3
 495 000c 06D1     		bne	.L32
 350:Generated_Source\PSoC4/SENT_TX_1.c ****     {
 351:Generated_Source\PSoC4/SENT_TX_1.c ****         SENT_TX_1_bufTx = SENT_TX_1_buf1;
 496              		.loc 1 351 0
ARM GAS  C:\Users\Ala\AppData\Local\Temp\cc2dsWuO.s 			page 16


 497 000e 084B     		ldr	r3, .L35
 498 0010 094A     		ldr	r2, .L35+8
 499 0012 1A60     		str	r2, [r3]
 352:Generated_Source\PSoC4/SENT_TX_1.c ****         SENT_TX_1_bufPr = SENT_TX_1_buf0;
 500              		.loc 1 352 0
 501 0014 094B     		ldr	r3, .L35+12
 502 0016 074A     		ldr	r2, .L35+4
 503 0018 1A60     		str	r2, [r3]
 353:Generated_Source\PSoC4/SENT_TX_1.c ****     }
 354:Generated_Source\PSoC4/SENT_TX_1.c ****     else
 355:Generated_Source\PSoC4/SENT_TX_1.c ****     {
 356:Generated_Source\PSoC4/SENT_TX_1.c ****         SENT_TX_1_bufTx = SENT_TX_1_buf0;
 357:Generated_Source\PSoC4/SENT_TX_1.c ****         SENT_TX_1_bufPr = SENT_TX_1_buf1;
 358:Generated_Source\PSoC4/SENT_TX_1.c ****     }
 359:Generated_Source\PSoC4/SENT_TX_1.c **** }
 504              		.loc 1 359 0
 505 001a 05E0     		b	.L34
 506              	.L32:
 356:Generated_Source\PSoC4/SENT_TX_1.c ****         SENT_TX_1_bufPr = SENT_TX_1_buf1;
 507              		.loc 1 356 0
 508 001c 044B     		ldr	r3, .L35
 509 001e 054A     		ldr	r2, .L35+4
 510 0020 1A60     		str	r2, [r3]
 357:Generated_Source\PSoC4/SENT_TX_1.c ****     }
 511              		.loc 1 357 0
 512 0022 064B     		ldr	r3, .L35+12
 513 0024 044A     		ldr	r2, .L35+8
 514 0026 1A60     		str	r2, [r3]
 515              	.L34:
 516              		.loc 1 359 0
 517 0028 C046     		nop
 518 002a BD46     		mov	sp, r7
 519              		@ sp needed
 520 002c 80BD     		pop	{r7, pc}
 521              	.L36:
 522 002e C046     		.align	2
 523              	.L35:
 524 0030 14000000 		.word	SENT_TX_1_bufTx
 525 0034 04000000 		.word	SENT_TX_1_buf0
 526 0038 0C000000 		.word	SENT_TX_1_buf1
 527 003c 18000000 		.word	SENT_TX_1_bufPr
 528              		.cfi_endproc
 529              	.LFE9:
 530              		.size	SENT_TX_1_SwapBuffers, .-SENT_TX_1_SwapBuffers
 531              		.section	.rodata
 532              		.align	2
 533              		.type	crcTable.4999, %object
 534              		.size	crcTable.4999, 16
 535              	crcTable.4999:
 536 0000 00       		.byte	0
 537 0001 0D       		.byte	13
 538 0002 07       		.byte	7
 539 0003 0A       		.byte	10
 540 0004 0E       		.byte	14
 541 0005 03       		.byte	3
 542 0006 09       		.byte	9
 543 0007 04       		.byte	4
ARM GAS  C:\Users\Ala\AppData\Local\Temp\cc2dsWuO.s 			page 17


 544 0008 01       		.byte	1
 545 0009 0C       		.byte	12
 546 000a 06       		.byte	6
 547 000b 0B       		.byte	11
 548 000c 0F       		.byte	15
 549 000d 02       		.byte	2
 550 000e 08       		.byte	8
 551 000f 05       		.byte	5
 552              		.text
 553              	.Letext0:
 554              		.file 2 "Generated_Source\\PSoC4\\cytypes.h"
 555              		.section	.debug_info,"",%progbits
 556              	.Ldebug_info0:
 557 0000 3C020000 		.4byte	0x23c
 558 0004 0400     		.2byte	0x4
 559 0006 00000000 		.4byte	.Ldebug_abbrev0
 560 000a 04       		.byte	0x4
 561 000b 01       		.uleb128 0x1
 562 000c C6000000 		.4byte	.LASF30
 563 0010 0C       		.byte	0xc
 564 0011 54010000 		.4byte	.LASF31
 565 0015 31020000 		.4byte	.LASF32
 566 0019 00000000 		.4byte	.Ldebug_ranges0+0
 567 001d 00000000 		.4byte	0
 568 0021 00000000 		.4byte	.Ldebug_line0
 569 0025 02       		.uleb128 0x2
 570 0026 01       		.byte	0x1
 571 0027 06       		.byte	0x6
 572 0028 83020000 		.4byte	.LASF0
 573 002c 02       		.uleb128 0x2
 574 002d 01       		.byte	0x1
 575 002e 08       		.byte	0x8
 576 002f 89000000 		.4byte	.LASF1
 577 0033 02       		.uleb128 0x2
 578 0034 02       		.byte	0x2
 579 0035 05       		.byte	0x5
 580 0036 27020000 		.4byte	.LASF2
 581 003a 02       		.uleb128 0x2
 582 003b 02       		.byte	0x2
 583 003c 07       		.byte	0x7
 584 003d 3B000000 		.4byte	.LASF3
 585 0041 02       		.uleb128 0x2
 586 0042 04       		.byte	0x4
 587 0043 05       		.byte	0x5
 588 0044 6E020000 		.4byte	.LASF4
 589 0048 02       		.uleb128 0x2
 590 0049 04       		.byte	0x4
 591 004a 07       		.byte	0x7
 592 004b AE000000 		.4byte	.LASF5
 593 004f 02       		.uleb128 0x2
 594 0050 08       		.byte	0x8
 595 0051 05       		.byte	0x5
 596 0052 14020000 		.4byte	.LASF6
 597 0056 02       		.uleb128 0x2
 598 0057 08       		.byte	0x8
 599 0058 07       		.byte	0x7
 600 0059 BF010000 		.4byte	.LASF7
ARM GAS  C:\Users\Ala\AppData\Local\Temp\cc2dsWuO.s 			page 18


 601 005d 03       		.uleb128 0x3
 602 005e 04       		.byte	0x4
 603 005f 05       		.byte	0x5
 604 0060 696E7400 		.ascii	"int\000"
 605 0064 02       		.uleb128 0x2
 606 0065 04       		.byte	0x4
 607 0066 07       		.byte	0x7
 608 0067 B2010000 		.4byte	.LASF8
 609 006b 04       		.uleb128 0x4
 610 006c C0000000 		.4byte	.LASF9
 611 0070 02       		.byte	0x2
 612 0071 F701     		.2byte	0x1f7
 613 0073 2C000000 		.4byte	0x2c
 614 0077 04       		.uleb128 0x4
 615 0078 8F010000 		.4byte	.LASF10
 616 007c 02       		.byte	0x2
 617 007d F801     		.2byte	0x1f8
 618 007f 3A000000 		.4byte	0x3a
 619 0083 04       		.uleb128 0x4
 620 0084 AB010000 		.4byte	.LASF11
 621 0088 02       		.byte	0x2
 622 0089 F901     		.2byte	0x1f9
 623 008b 48000000 		.4byte	0x48
 624 008f 02       		.uleb128 0x2
 625 0090 04       		.byte	0x4
 626 0091 04       		.byte	0x4
 627 0092 60000000 		.4byte	.LASF12
 628 0096 02       		.uleb128 0x2
 629 0097 08       		.byte	0x8
 630 0098 04       		.byte	0x4
 631 0099 77010000 		.4byte	.LASF13
 632 009d 02       		.uleb128 0x2
 633 009e 01       		.byte	0x1
 634 009f 08       		.byte	0x8
 635 00a0 22020000 		.4byte	.LASF14
 636 00a4 02       		.uleb128 0x2
 637 00a5 08       		.byte	0x8
 638 00a6 04       		.byte	0x4
 639 00a7 77020000 		.4byte	.LASF15
 640 00ab 02       		.uleb128 0x2
 641 00ac 04       		.byte	0x4
 642 00ad 07       		.byte	0x7
 643 00ae 0B020000 		.4byte	.LASF16
 644 00b2 05       		.uleb128 0x5
 645 00b3 27000000 		.4byte	.LASF17
 646 00b7 01       		.byte	0x1
 647 00b8 40       		.byte	0x40
 648 00b9 00000000 		.4byte	.LFB4
 649 00bd 90000000 		.4byte	.LFE4-.LFB4
 650 00c1 01       		.uleb128 0x1
 651 00c2 9C       		.byte	0x9c
 652 00c3 05       		.uleb128 0x5
 653 00c4 EC010000 		.4byte	.LASF18
 654 00c8 01       		.byte	0x1
 655 00c9 98       		.byte	0x98
 656 00ca 00000000 		.4byte	.LFB5
 657 00ce 24000000 		.4byte	.LFE5-.LFB5
ARM GAS  C:\Users\Ala\AppData\Local\Temp\cc2dsWuO.s 			page 19


 658 00d2 01       		.uleb128 0x1
 659 00d3 9C       		.byte	0x9c
 660 00d4 06       		.uleb128 0x6
 661 00d5 17000000 		.4byte	.LASF19
 662 00d9 01       		.byte	0x1
 663 00da B5       		.byte	0xb5
 664 00db 00000000 		.4byte	.LFB6
 665 00df 64000000 		.4byte	.LFE6-.LFB6
 666 00e3 01       		.uleb128 0x1
 667 00e4 9C       		.byte	0x9c
 668 00e5 F8000000 		.4byte	0xf8
 669 00e9 07       		.uleb128 0x7
 670 00ea 66000000 		.4byte	.LASF21
 671 00ee 01       		.byte	0x1
 672 00ef B5       		.byte	0xb5
 673 00f0 F8000000 		.4byte	0xf8
 674 00f4 02       		.uleb128 0x2
 675 00f5 91       		.byte	0x91
 676 00f6 74       		.sleb128 -12
 677 00f7 00       		.byte	0
 678 00f8 08       		.uleb128 0x8
 679 00f9 04       		.byte	0x4
 680 00fa FE000000 		.4byte	0xfe
 681 00fe 09       		.uleb128 0x9
 682 00ff 6B000000 		.4byte	0x6b
 683 0103 06       		.uleb128 0x6
 684 0104 96010000 		.4byte	.LASF20
 685 0108 01       		.byte	0x1
 686 0109 DB       		.byte	0xdb
 687 010a 00000000 		.4byte	.LFB7
 688 010e B0000000 		.4byte	.LFE7-.LFB7
 689 0112 01       		.uleb128 0x1
 690 0113 9C       		.byte	0x9c
 691 0114 33010000 		.4byte	0x133
 692 0118 07       		.uleb128 0x7
 693 0119 66000000 		.4byte	.LASF21
 694 011d 01       		.byte	0x1
 695 011e DB       		.byte	0xdb
 696 011f F8000000 		.4byte	0xf8
 697 0123 02       		.uleb128 0x2
 698 0124 91       		.byte	0x91
 699 0125 64       		.sleb128 -28
 700 0126 0A       		.uleb128 0xa
 701 0127 6900     		.ascii	"i\000"
 702 0129 01       		.byte	0x1
 703 012a DD       		.byte	0xdd
 704 012b 6B000000 		.4byte	0x6b
 705 012f 02       		.uleb128 0x2
 706 0130 91       		.byte	0x91
 707 0131 6F       		.sleb128 -17
 708 0132 00       		.byte	0
 709 0133 0B       		.uleb128 0xb
 710 0134 97000000 		.4byte	.LASF33
 711 0138 01       		.byte	0x1
 712 0139 1801     		.2byte	0x118
 713 013b 6B000000 		.4byte	0x6b
 714 013f 00000000 		.4byte	.LFB8
ARM GAS  C:\Users\Ala\AppData\Local\Temp\cc2dsWuO.s 			page 20


 715 0143 64000000 		.4byte	.LFE8-.LFB8
 716 0147 01       		.uleb128 0x1
 717 0148 9C       		.byte	0x9c
 718 0149 8B010000 		.4byte	0x18b
 719 014d 0C       		.uleb128 0xc
 720 014e 66000000 		.4byte	.LASF21
 721 0152 01       		.byte	0x1
 722 0153 1801     		.2byte	0x118
 723 0155 F8000000 		.4byte	0xf8
 724 0159 02       		.uleb128 0x2
 725 015a 91       		.byte	0x91
 726 015b 6C       		.sleb128 -20
 727 015c 0D       		.uleb128 0xd
 728 015d 00000000 		.4byte	.LASF22
 729 0161 01       		.byte	0x1
 730 0162 1B01     		.2byte	0x11b
 731 0164 9B010000 		.4byte	0x19b
 732 0168 05       		.uleb128 0x5
 733 0169 03       		.byte	0x3
 734 016a 00000000 		.4byte	crcTable.4999
 735 016e 0E       		.uleb128 0xe
 736 016f 63726300 		.ascii	"crc\000"
 737 0173 01       		.byte	0x1
 738 0174 2201     		.2byte	0x122
 739 0176 6B000000 		.4byte	0x6b
 740 017a 02       		.uleb128 0x2
 741 017b 91       		.byte	0x91
 742 017c 77       		.sleb128 -9
 743 017d 0E       		.uleb128 0xe
 744 017e 6900     		.ascii	"i\000"
 745 0180 01       		.byte	0x1
 746 0181 2301     		.2byte	0x123
 747 0183 83000000 		.4byte	0x83
 748 0187 02       		.uleb128 0x2
 749 0188 91       		.byte	0x91
 750 0189 70       		.sleb128 -16
 751 018a 00       		.byte	0
 752 018b 0F       		.uleb128 0xf
 753 018c FE000000 		.4byte	0xfe
 754 0190 9B010000 		.4byte	0x19b
 755 0194 10       		.uleb128 0x10
 756 0195 AB000000 		.4byte	0xab
 757 0199 0F       		.byte	0xf
 758 019a 00       		.byte	0
 759 019b 09       		.uleb128 0x9
 760 019c 8B010000 		.4byte	0x18b
 761 01a0 11       		.uleb128 0x11
 762 01a1 D6010000 		.4byte	.LASF34
 763 01a5 01       		.byte	0x1
 764 01a6 5B01     		.2byte	0x15b
 765 01a8 00000000 		.4byte	.LFB9
 766 01ac 40000000 		.4byte	.LFE9-.LFB9
 767 01b0 01       		.uleb128 0x1
 768 01b1 9C       		.byte	0x9c
 769 01b2 0F       		.uleb128 0xf
 770 01b3 6B000000 		.4byte	0x6b
 771 01b7 C2010000 		.4byte	0x1c2
ARM GAS  C:\Users\Ala\AppData\Local\Temp\cc2dsWuO.s 			page 21


 772 01bb 10       		.uleb128 0x10
 773 01bc AB000000 		.4byte	0xab
 774 01c0 07       		.byte	0x7
 775 01c1 00       		.byte	0
 776 01c2 12       		.uleb128 0x12
 777 01c3 6B000000 		.4byte	.LASF23
 778 01c7 01       		.byte	0x1
 779 01c8 2B       		.byte	0x2b
 780 01c9 B2010000 		.4byte	0x1b2
 781 01cd 05       		.uleb128 0x5
 782 01ce 03       		.byte	0x3
 783 01cf 04000000 		.4byte	SENT_TX_1_buf0
 784 01d3 12       		.uleb128 0x12
 785 01d4 7A000000 		.4byte	.LASF24
 786 01d8 01       		.byte	0x1
 787 01d9 2C       		.byte	0x2c
 788 01da B2010000 		.4byte	0x1b2
 789 01de 05       		.uleb128 0x5
 790 01df 03       		.byte	0x3
 791 01e0 0C000000 		.4byte	SENT_TX_1_buf1
 792 01e4 12       		.uleb128 0x12
 793 01e5 5E020000 		.4byte	.LASF25
 794 01e9 01       		.byte	0x1
 795 01ea 2F       		.byte	0x2f
 796 01eb F5010000 		.4byte	0x1f5
 797 01ef 05       		.uleb128 0x5
 798 01f0 03       		.byte	0x3
 799 01f1 14000000 		.4byte	SENT_TX_1_bufTx
 800 01f5 08       		.uleb128 0x8
 801 01f6 04       		.byte	0x4
 802 01f7 6B000000 		.4byte	0x6b
 803 01fb 12       		.uleb128 0x12
 804 01fc FB010000 		.4byte	.LASF26
 805 0200 01       		.byte	0x1
 806 0201 30       		.byte	0x30
 807 0202 F5010000 		.4byte	0x1f5
 808 0206 05       		.uleb128 0x5
 809 0207 03       		.byte	0x3
 810 0208 18000000 		.4byte	SENT_TX_1_bufPr
 811 020c 12       		.uleb128 0x12
 812 020d 09000000 		.4byte	.LASF27
 813 0211 01       		.byte	0x1
 814 0212 33       		.byte	0x33
 815 0213 6B000000 		.4byte	0x6b
 816 0217 05       		.uleb128 0x5
 817 0218 03       		.byte	0x3
 818 0219 1C000000 		.4byte	SENT_TX_1_idx
 819 021d 13       		.uleb128 0x13
 820 021e 4E000000 		.4byte	.LASF28
 821 0222 01       		.byte	0x1
 822 0223 20       		.byte	0x20
 823 0224 6B000000 		.4byte	0x6b
 824 0228 05       		.uleb128 0x5
 825 0229 03       		.byte	0x3
 826 022a 00000000 		.4byte	SENT_TX_1_initVar
 827 022e 13       		.uleb128 0x13
 828 022f 7E010000 		.4byte	.LASF29
ARM GAS  C:\Users\Ala\AppData\Local\Temp\cc2dsWuO.s 			page 22


 829 0233 01       		.byte	0x1
 830 0234 23       		.byte	0x23
 831 0235 6B000000 		.4byte	0x6b
 832 0239 05       		.uleb128 0x5
 833 023a 03       		.byte	0x3
 834 023b 00000000 		.4byte	SENT_TX_1_status
 835 023f 00       		.byte	0
 836              		.section	.debug_abbrev,"",%progbits
 837              	.Ldebug_abbrev0:
 838 0000 01       		.uleb128 0x1
 839 0001 11       		.uleb128 0x11
 840 0002 01       		.byte	0x1
 841 0003 25       		.uleb128 0x25
 842 0004 0E       		.uleb128 0xe
 843 0005 13       		.uleb128 0x13
 844 0006 0B       		.uleb128 0xb
 845 0007 03       		.uleb128 0x3
 846 0008 0E       		.uleb128 0xe
 847 0009 1B       		.uleb128 0x1b
 848 000a 0E       		.uleb128 0xe
 849 000b 55       		.uleb128 0x55
 850 000c 17       		.uleb128 0x17
 851 000d 11       		.uleb128 0x11
 852 000e 01       		.uleb128 0x1
 853 000f 10       		.uleb128 0x10
 854 0010 17       		.uleb128 0x17
 855 0011 00       		.byte	0
 856 0012 00       		.byte	0
 857 0013 02       		.uleb128 0x2
 858 0014 24       		.uleb128 0x24
 859 0015 00       		.byte	0
 860 0016 0B       		.uleb128 0xb
 861 0017 0B       		.uleb128 0xb
 862 0018 3E       		.uleb128 0x3e
 863 0019 0B       		.uleb128 0xb
 864 001a 03       		.uleb128 0x3
 865 001b 0E       		.uleb128 0xe
 866 001c 00       		.byte	0
 867 001d 00       		.byte	0
 868 001e 03       		.uleb128 0x3
 869 001f 24       		.uleb128 0x24
 870 0020 00       		.byte	0
 871 0021 0B       		.uleb128 0xb
 872 0022 0B       		.uleb128 0xb
 873 0023 3E       		.uleb128 0x3e
 874 0024 0B       		.uleb128 0xb
 875 0025 03       		.uleb128 0x3
 876 0026 08       		.uleb128 0x8
 877 0027 00       		.byte	0
 878 0028 00       		.byte	0
 879 0029 04       		.uleb128 0x4
 880 002a 16       		.uleb128 0x16
 881 002b 00       		.byte	0
 882 002c 03       		.uleb128 0x3
 883 002d 0E       		.uleb128 0xe
 884 002e 3A       		.uleb128 0x3a
 885 002f 0B       		.uleb128 0xb
ARM GAS  C:\Users\Ala\AppData\Local\Temp\cc2dsWuO.s 			page 23


 886 0030 3B       		.uleb128 0x3b
 887 0031 05       		.uleb128 0x5
 888 0032 49       		.uleb128 0x49
 889 0033 13       		.uleb128 0x13
 890 0034 00       		.byte	0
 891 0035 00       		.byte	0
 892 0036 05       		.uleb128 0x5
 893 0037 2E       		.uleb128 0x2e
 894 0038 00       		.byte	0
 895 0039 3F       		.uleb128 0x3f
 896 003a 19       		.uleb128 0x19
 897 003b 03       		.uleb128 0x3
 898 003c 0E       		.uleb128 0xe
 899 003d 3A       		.uleb128 0x3a
 900 003e 0B       		.uleb128 0xb
 901 003f 3B       		.uleb128 0x3b
 902 0040 0B       		.uleb128 0xb
 903 0041 27       		.uleb128 0x27
 904 0042 19       		.uleb128 0x19
 905 0043 11       		.uleb128 0x11
 906 0044 01       		.uleb128 0x1
 907 0045 12       		.uleb128 0x12
 908 0046 06       		.uleb128 0x6
 909 0047 40       		.uleb128 0x40
 910 0048 18       		.uleb128 0x18
 911 0049 9642     		.uleb128 0x2116
 912 004b 19       		.uleb128 0x19
 913 004c 00       		.byte	0
 914 004d 00       		.byte	0
 915 004e 06       		.uleb128 0x6
 916 004f 2E       		.uleb128 0x2e
 917 0050 01       		.byte	0x1
 918 0051 3F       		.uleb128 0x3f
 919 0052 19       		.uleb128 0x19
 920 0053 03       		.uleb128 0x3
 921 0054 0E       		.uleb128 0xe
 922 0055 3A       		.uleb128 0x3a
 923 0056 0B       		.uleb128 0xb
 924 0057 3B       		.uleb128 0x3b
 925 0058 0B       		.uleb128 0xb
 926 0059 27       		.uleb128 0x27
 927 005a 19       		.uleb128 0x19
 928 005b 11       		.uleb128 0x11
 929 005c 01       		.uleb128 0x1
 930 005d 12       		.uleb128 0x12
 931 005e 06       		.uleb128 0x6
 932 005f 40       		.uleb128 0x40
 933 0060 18       		.uleb128 0x18
 934 0061 9642     		.uleb128 0x2116
 935 0063 19       		.uleb128 0x19
 936 0064 01       		.uleb128 0x1
 937 0065 13       		.uleb128 0x13
 938 0066 00       		.byte	0
 939 0067 00       		.byte	0
 940 0068 07       		.uleb128 0x7
 941 0069 05       		.uleb128 0x5
 942 006a 00       		.byte	0
ARM GAS  C:\Users\Ala\AppData\Local\Temp\cc2dsWuO.s 			page 24


 943 006b 03       		.uleb128 0x3
 944 006c 0E       		.uleb128 0xe
 945 006d 3A       		.uleb128 0x3a
 946 006e 0B       		.uleb128 0xb
 947 006f 3B       		.uleb128 0x3b
 948 0070 0B       		.uleb128 0xb
 949 0071 49       		.uleb128 0x49
 950 0072 13       		.uleb128 0x13
 951 0073 02       		.uleb128 0x2
 952 0074 18       		.uleb128 0x18
 953 0075 00       		.byte	0
 954 0076 00       		.byte	0
 955 0077 08       		.uleb128 0x8
 956 0078 0F       		.uleb128 0xf
 957 0079 00       		.byte	0
 958 007a 0B       		.uleb128 0xb
 959 007b 0B       		.uleb128 0xb
 960 007c 49       		.uleb128 0x49
 961 007d 13       		.uleb128 0x13
 962 007e 00       		.byte	0
 963 007f 00       		.byte	0
 964 0080 09       		.uleb128 0x9
 965 0081 26       		.uleb128 0x26
 966 0082 00       		.byte	0
 967 0083 49       		.uleb128 0x49
 968 0084 13       		.uleb128 0x13
 969 0085 00       		.byte	0
 970 0086 00       		.byte	0
 971 0087 0A       		.uleb128 0xa
 972 0088 34       		.uleb128 0x34
 973 0089 00       		.byte	0
 974 008a 03       		.uleb128 0x3
 975 008b 08       		.uleb128 0x8
 976 008c 3A       		.uleb128 0x3a
 977 008d 0B       		.uleb128 0xb
 978 008e 3B       		.uleb128 0x3b
 979 008f 0B       		.uleb128 0xb
 980 0090 49       		.uleb128 0x49
 981 0091 13       		.uleb128 0x13
 982 0092 02       		.uleb128 0x2
 983 0093 18       		.uleb128 0x18
 984 0094 00       		.byte	0
 985 0095 00       		.byte	0
 986 0096 0B       		.uleb128 0xb
 987 0097 2E       		.uleb128 0x2e
 988 0098 01       		.byte	0x1
 989 0099 03       		.uleb128 0x3
 990 009a 0E       		.uleb128 0xe
 991 009b 3A       		.uleb128 0x3a
 992 009c 0B       		.uleb128 0xb
 993 009d 3B       		.uleb128 0x3b
 994 009e 05       		.uleb128 0x5
 995 009f 27       		.uleb128 0x27
 996 00a0 19       		.uleb128 0x19
 997 00a1 49       		.uleb128 0x49
 998 00a2 13       		.uleb128 0x13
 999 00a3 11       		.uleb128 0x11
ARM GAS  C:\Users\Ala\AppData\Local\Temp\cc2dsWuO.s 			page 25


 1000 00a4 01       		.uleb128 0x1
 1001 00a5 12       		.uleb128 0x12
 1002 00a6 06       		.uleb128 0x6
 1003 00a7 40       		.uleb128 0x40
 1004 00a8 18       		.uleb128 0x18
 1005 00a9 9742     		.uleb128 0x2117
 1006 00ab 19       		.uleb128 0x19
 1007 00ac 01       		.uleb128 0x1
 1008 00ad 13       		.uleb128 0x13
 1009 00ae 00       		.byte	0
 1010 00af 00       		.byte	0
 1011 00b0 0C       		.uleb128 0xc
 1012 00b1 05       		.uleb128 0x5
 1013 00b2 00       		.byte	0
 1014 00b3 03       		.uleb128 0x3
 1015 00b4 0E       		.uleb128 0xe
 1016 00b5 3A       		.uleb128 0x3a
 1017 00b6 0B       		.uleb128 0xb
 1018 00b7 3B       		.uleb128 0x3b
 1019 00b8 05       		.uleb128 0x5
 1020 00b9 49       		.uleb128 0x49
 1021 00ba 13       		.uleb128 0x13
 1022 00bb 02       		.uleb128 0x2
 1023 00bc 18       		.uleb128 0x18
 1024 00bd 00       		.byte	0
 1025 00be 00       		.byte	0
 1026 00bf 0D       		.uleb128 0xd
 1027 00c0 34       		.uleb128 0x34
 1028 00c1 00       		.byte	0
 1029 00c2 03       		.uleb128 0x3
 1030 00c3 0E       		.uleb128 0xe
 1031 00c4 3A       		.uleb128 0x3a
 1032 00c5 0B       		.uleb128 0xb
 1033 00c6 3B       		.uleb128 0x3b
 1034 00c7 05       		.uleb128 0x5
 1035 00c8 49       		.uleb128 0x49
 1036 00c9 13       		.uleb128 0x13
 1037 00ca 02       		.uleb128 0x2
 1038 00cb 18       		.uleb128 0x18
 1039 00cc 00       		.byte	0
 1040 00cd 00       		.byte	0
 1041 00ce 0E       		.uleb128 0xe
 1042 00cf 34       		.uleb128 0x34
 1043 00d0 00       		.byte	0
 1044 00d1 03       		.uleb128 0x3
 1045 00d2 08       		.uleb128 0x8
 1046 00d3 3A       		.uleb128 0x3a
 1047 00d4 0B       		.uleb128 0xb
 1048 00d5 3B       		.uleb128 0x3b
 1049 00d6 05       		.uleb128 0x5
 1050 00d7 49       		.uleb128 0x49
 1051 00d8 13       		.uleb128 0x13
 1052 00d9 02       		.uleb128 0x2
 1053 00da 18       		.uleb128 0x18
 1054 00db 00       		.byte	0
 1055 00dc 00       		.byte	0
 1056 00dd 0F       		.uleb128 0xf
ARM GAS  C:\Users\Ala\AppData\Local\Temp\cc2dsWuO.s 			page 26


 1057 00de 01       		.uleb128 0x1
 1058 00df 01       		.byte	0x1
 1059 00e0 49       		.uleb128 0x49
 1060 00e1 13       		.uleb128 0x13
 1061 00e2 01       		.uleb128 0x1
 1062 00e3 13       		.uleb128 0x13
 1063 00e4 00       		.byte	0
 1064 00e5 00       		.byte	0
 1065 00e6 10       		.uleb128 0x10
 1066 00e7 21       		.uleb128 0x21
 1067 00e8 00       		.byte	0
 1068 00e9 49       		.uleb128 0x49
 1069 00ea 13       		.uleb128 0x13
 1070 00eb 2F       		.uleb128 0x2f
 1071 00ec 0B       		.uleb128 0xb
 1072 00ed 00       		.byte	0
 1073 00ee 00       		.byte	0
 1074 00ef 11       		.uleb128 0x11
 1075 00f0 2E       		.uleb128 0x2e
 1076 00f1 00       		.byte	0
 1077 00f2 03       		.uleb128 0x3
 1078 00f3 0E       		.uleb128 0xe
 1079 00f4 3A       		.uleb128 0x3a
 1080 00f5 0B       		.uleb128 0xb
 1081 00f6 3B       		.uleb128 0x3b
 1082 00f7 05       		.uleb128 0x5
 1083 00f8 27       		.uleb128 0x27
 1084 00f9 19       		.uleb128 0x19
 1085 00fa 11       		.uleb128 0x11
 1086 00fb 01       		.uleb128 0x1
 1087 00fc 12       		.uleb128 0x12
 1088 00fd 06       		.uleb128 0x6
 1089 00fe 40       		.uleb128 0x40
 1090 00ff 18       		.uleb128 0x18
 1091 0100 9742     		.uleb128 0x2117
 1092 0102 19       		.uleb128 0x19
 1093 0103 00       		.byte	0
 1094 0104 00       		.byte	0
 1095 0105 12       		.uleb128 0x12
 1096 0106 34       		.uleb128 0x34
 1097 0107 00       		.byte	0
 1098 0108 03       		.uleb128 0x3
 1099 0109 0E       		.uleb128 0xe
 1100 010a 3A       		.uleb128 0x3a
 1101 010b 0B       		.uleb128 0xb
 1102 010c 3B       		.uleb128 0x3b
 1103 010d 0B       		.uleb128 0xb
 1104 010e 49       		.uleb128 0x49
 1105 010f 13       		.uleb128 0x13
 1106 0110 02       		.uleb128 0x2
 1107 0111 18       		.uleb128 0x18
 1108 0112 00       		.byte	0
 1109 0113 00       		.byte	0
 1110 0114 13       		.uleb128 0x13
 1111 0115 34       		.uleb128 0x34
 1112 0116 00       		.byte	0
 1113 0117 03       		.uleb128 0x3
ARM GAS  C:\Users\Ala\AppData\Local\Temp\cc2dsWuO.s 			page 27


 1114 0118 0E       		.uleb128 0xe
 1115 0119 3A       		.uleb128 0x3a
 1116 011a 0B       		.uleb128 0xb
 1117 011b 3B       		.uleb128 0x3b
 1118 011c 0B       		.uleb128 0xb
 1119 011d 49       		.uleb128 0x49
 1120 011e 13       		.uleb128 0x13
 1121 011f 3F       		.uleb128 0x3f
 1122 0120 19       		.uleb128 0x19
 1123 0121 02       		.uleb128 0x2
 1124 0122 18       		.uleb128 0x18
 1125 0123 00       		.byte	0
 1126 0124 00       		.byte	0
 1127 0125 00       		.byte	0
 1128              		.section	.debug_aranges,"",%progbits
 1129 0000 44000000 		.4byte	0x44
 1130 0004 0200     		.2byte	0x2
 1131 0006 00000000 		.4byte	.Ldebug_info0
 1132 000a 04       		.byte	0x4
 1133 000b 00       		.byte	0
 1134 000c 0000     		.2byte	0
 1135 000e 0000     		.2byte	0
 1136 0010 00000000 		.4byte	.LFB4
 1137 0014 90000000 		.4byte	.LFE4-.LFB4
 1138 0018 00000000 		.4byte	.LFB5
 1139 001c 24000000 		.4byte	.LFE5-.LFB5
 1140 0020 00000000 		.4byte	.LFB6
 1141 0024 64000000 		.4byte	.LFE6-.LFB6
 1142 0028 00000000 		.4byte	.LFB7
 1143 002c B0000000 		.4byte	.LFE7-.LFB7
 1144 0030 00000000 		.4byte	.LFB8
 1145 0034 64000000 		.4byte	.LFE8-.LFB8
 1146 0038 00000000 		.4byte	.LFB9
 1147 003c 40000000 		.4byte	.LFE9-.LFB9
 1148 0040 00000000 		.4byte	0
 1149 0044 00000000 		.4byte	0
 1150              		.section	.debug_ranges,"",%progbits
 1151              	.Ldebug_ranges0:
 1152 0000 00000000 		.4byte	.LFB4
 1153 0004 90000000 		.4byte	.LFE4
 1154 0008 00000000 		.4byte	.LFB5
 1155 000c 24000000 		.4byte	.LFE5
 1156 0010 00000000 		.4byte	.LFB6
 1157 0014 64000000 		.4byte	.LFE6
 1158 0018 00000000 		.4byte	.LFB7
 1159 001c B0000000 		.4byte	.LFE7
 1160 0020 00000000 		.4byte	.LFB8
 1161 0024 64000000 		.4byte	.LFE8
 1162 0028 00000000 		.4byte	.LFB9
 1163 002c 40000000 		.4byte	.LFE9
 1164 0030 00000000 		.4byte	0
 1165 0034 00000000 		.4byte	0
 1166              		.section	.debug_line,"",%progbits
 1167              	.Ldebug_line0:
 1168 0000 13010000 		.section	.debug_str,"MS",%progbits,1
 1168      02004600 
 1168      00000201 
ARM GAS  C:\Users\Ala\AppData\Local\Temp\cc2dsWuO.s 			page 28


 1168      FB0E0D00 
 1168      01010101 
 1169              	.LASF22:
 1170 0000 63726354 		.ascii	"crcTable\000"
 1170      61626C65 
 1170      00
 1171              	.LASF27:
 1172 0009 53454E54 		.ascii	"SENT_TX_1_idx\000"
 1172      5F54585F 
 1172      315F6964 
 1172      7800
 1173              	.LASF19:
 1174 0017 53454E54 		.ascii	"SENT_TX_1_Start\000"
 1174      5F54585F 
 1174      315F5374 
 1174      61727400 
 1175              	.LASF17:
 1176 0027 53454E54 		.ascii	"SENT_TX_1_Interrupt\000"
 1176      5F54585F 
 1176      315F496E 
 1176      74657272 
 1176      75707400 
 1177              	.LASF3:
 1178 003b 73686F72 		.ascii	"short unsigned int\000"
 1178      7420756E 
 1178      7369676E 
 1178      65642069 
 1178      6E7400
 1179              	.LASF28:
 1180 004e 53454E54 		.ascii	"SENT_TX_1_initVar\000"
 1180      5F54585F 
 1180      315F696E 
 1180      69745661 
 1180      7200
 1181              	.LASF12:
 1182 0060 666C6F61 		.ascii	"float\000"
 1182      7400
 1183              	.LASF21:
 1184 0066 64617461 		.ascii	"data\000"
 1184      00
 1185              	.LASF23:
 1186 006b 53454E54 		.ascii	"SENT_TX_1_buf0\000"
 1186      5F54585F 
 1186      315F6275 
 1186      663000
 1187              	.LASF24:
 1188 007a 53454E54 		.ascii	"SENT_TX_1_buf1\000"
 1188      5F54585F 
 1188      315F6275 
 1188      663100
 1189              	.LASF1:
 1190 0089 756E7369 		.ascii	"unsigned char\000"
 1190      676E6564 
 1190      20636861 
 1190      7200
 1191              	.LASF33:
 1192 0097 53454E54 		.ascii	"SENT_TX_1_CalculateCrc\000"
ARM GAS  C:\Users\Ala\AppData\Local\Temp\cc2dsWuO.s 			page 29


 1192      5F54585F 
 1192      315F4361 
 1192      6C63756C 
 1192      61746543 
 1193              	.LASF5:
 1194 00ae 6C6F6E67 		.ascii	"long unsigned int\000"
 1194      20756E73 
 1194      69676E65 
 1194      6420696E 
 1194      7400
 1195              	.LASF9:
 1196 00c0 75696E74 		.ascii	"uint8\000"
 1196      3800
 1197              	.LASF30:
 1198 00c6 474E5520 		.ascii	"GNU C11 5.4.1 20160609 (release) [ARM/embedded-5-br"
 1198      43313120 
 1198      352E342E 
 1198      31203230 
 1198      31363036 
 1199 00f9 616E6368 		.ascii	"anch revision 237715] -mcpu=cortex-m0 -mthumb -g -O"
 1199      20726576 
 1199      6973696F 
 1199      6E203233 
 1199      37373135 
 1200 012c 30202D66 		.ascii	"0 -ffunction-sections -ffat-lto-objects\000"
 1200      66756E63 
 1200      74696F6E 
 1200      2D736563 
 1200      74696F6E 
 1201              	.LASF31:
 1202 0154 47656E65 		.ascii	"Generated_Source\\PSoC4\\SENT_TX_1.c\000"
 1202      72617465 
 1202      645F536F 
 1202      75726365 
 1202      5C50536F 
 1203              	.LASF13:
 1204 0177 646F7562 		.ascii	"double\000"
 1204      6C6500
 1205              	.LASF29:
 1206 017e 53454E54 		.ascii	"SENT_TX_1_status\000"
 1206      5F54585F 
 1206      315F7374 
 1206      61747573 
 1206      00
 1207              	.LASF10:
 1208 018f 75696E74 		.ascii	"uint16\000"
 1208      313600
 1209              	.LASF20:
 1210 0196 53454E54 		.ascii	"SENT_TX_1_UpdateData\000"
 1210      5F54585F 
 1210      315F5570 
 1210      64617465 
 1210      44617461 
 1211              	.LASF11:
 1212 01ab 75696E74 		.ascii	"uint32\000"
 1212      333200
 1213              	.LASF8:
ARM GAS  C:\Users\Ala\AppData\Local\Temp\cc2dsWuO.s 			page 30


 1214 01b2 756E7369 		.ascii	"unsigned int\000"
 1214      676E6564 
 1214      20696E74 
 1214      00
 1215              	.LASF7:
 1216 01bf 6C6F6E67 		.ascii	"long long unsigned int\000"
 1216      206C6F6E 
 1216      6720756E 
 1216      7369676E 
 1216      65642069 
 1217              	.LASF34:
 1218 01d6 53454E54 		.ascii	"SENT_TX_1_SwapBuffers\000"
 1218      5F54585F 
 1218      315F5377 
 1218      61704275 
 1218      66666572 
 1219              	.LASF18:
 1220 01ec 53454E54 		.ascii	"SENT_TX_1_Init\000"
 1220      5F54585F 
 1220      315F496E 
 1220      697400
 1221              	.LASF26:
 1222 01fb 53454E54 		.ascii	"SENT_TX_1_bufPr\000"
 1222      5F54585F 
 1222      315F6275 
 1222      66507200 
 1223              	.LASF16:
 1224 020b 73697A65 		.ascii	"sizetype\000"
 1224      74797065 
 1224      00
 1225              	.LASF6:
 1226 0214 6C6F6E67 		.ascii	"long long int\000"
 1226      206C6F6E 
 1226      6720696E 
 1226      7400
 1227              	.LASF14:
 1228 0222 63686172 		.ascii	"char\000"
 1228      00
 1229              	.LASF2:
 1230 0227 73686F72 		.ascii	"short int\000"
 1230      7420696E 
 1230      7400
 1231              	.LASF32:
 1232 0231 433A5C55 		.ascii	"C:\\Users\\Ala\\Desktop\\Cypress\\BeoM_main.cydsn\000"
 1232      73657273 
 1232      5C416C61 
 1232      5C446573 
 1232      6B746F70 
 1233              	.LASF25:
 1234 025e 53454E54 		.ascii	"SENT_TX_1_bufTx\000"
 1234      5F54585F 
 1234      315F6275 
 1234      66547800 
 1235              	.LASF4:
 1236 026e 6C6F6E67 		.ascii	"long int\000"
 1236      20696E74 
 1236      00
ARM GAS  C:\Users\Ala\AppData\Local\Temp\cc2dsWuO.s 			page 31


 1237              	.LASF15:
 1238 0277 6C6F6E67 		.ascii	"long double\000"
 1238      20646F75 
 1238      626C6500 
 1239              	.LASF0:
 1240 0283 7369676E 		.ascii	"signed char\000"
 1240      65642063 
 1240      68617200 
 1241              		.ident	"GCC: (GNU Tools for ARM Embedded Processors) 5.4.1 20160609 (release) [ARM/embedded-5-bran
