ARM GAS  C:\Users\Ala\AppData\Local\Temp\ccQms6bP.s 			page 1


   1              		.syntax unified
   2              		.cpu cortex-m0
   3              		.fpu softvfp
   4              		.eabi_attribute 20, 1
   5              		.eabi_attribute 21, 1
   6              		.eabi_attribute 23, 3
   7              		.eabi_attribute 24, 1
   8              		.eabi_attribute 25, 1
   9              		.eabi_attribute 26, 1
  10              		.eabi_attribute 30, 6
  11              		.eabi_attribute 34, 0
  12              		.eabi_attribute 18, 4
  13              		.thumb
  14              		.syntax unified
  15              		.file	"SENT_TX_1_ISR.c"
  16              		.text
  17              	.Ltext0:
  18              		.cfi_sections	.debug_frame
  19              		.section	.text.SENT_TX_1_ISR_Start,"ax",%progbits
  20              		.align	2
  21              		.global	SENT_TX_1_ISR_Start
  22              		.code	16
  23              		.thumb_func
  24              		.type	SENT_TX_1_ISR_Start, %function
  25              	SENT_TX_1_ISR_Start:
  26              	.LFB0:
  27              		.file 1 "Generated_Source\\PSoC4\\SENT_TX_1_ISR.c"
   1:Generated_Source\PSoC4/SENT_TX_1_ISR.c **** /*******************************************************************************
   2:Generated_Source\PSoC4/SENT_TX_1_ISR.c **** * File Name: SENT_TX_1_ISR.c  
   3:Generated_Source\PSoC4/SENT_TX_1_ISR.c **** * Version 1.70
   4:Generated_Source\PSoC4/SENT_TX_1_ISR.c **** *
   5:Generated_Source\PSoC4/SENT_TX_1_ISR.c **** *  Description:
   6:Generated_Source\PSoC4/SENT_TX_1_ISR.c **** *   API for controlling the state of an interrupt.
   7:Generated_Source\PSoC4/SENT_TX_1_ISR.c **** *
   8:Generated_Source\PSoC4/SENT_TX_1_ISR.c **** *
   9:Generated_Source\PSoC4/SENT_TX_1_ISR.c **** *  Note:
  10:Generated_Source\PSoC4/SENT_TX_1_ISR.c **** *
  11:Generated_Source\PSoC4/SENT_TX_1_ISR.c **** ********************************************************************************
  12:Generated_Source\PSoC4/SENT_TX_1_ISR.c **** * Copyright 2008-2015, Cypress Semiconductor Corporation.  All rights reserved.
  13:Generated_Source\PSoC4/SENT_TX_1_ISR.c **** * You may use this file only in accordance with the license, terms, conditions, 
  14:Generated_Source\PSoC4/SENT_TX_1_ISR.c **** * disclaimers, and limitations in the end user license agreement accompanying 
  15:Generated_Source\PSoC4/SENT_TX_1_ISR.c **** * the software package with which this file was provided.
  16:Generated_Source\PSoC4/SENT_TX_1_ISR.c **** *******************************************************************************/
  17:Generated_Source\PSoC4/SENT_TX_1_ISR.c **** 
  18:Generated_Source\PSoC4/SENT_TX_1_ISR.c **** 
  19:Generated_Source\PSoC4/SENT_TX_1_ISR.c **** #include <cydevice_trm.h>
  20:Generated_Source\PSoC4/SENT_TX_1_ISR.c **** #include <CyLib.h>
  21:Generated_Source\PSoC4/SENT_TX_1_ISR.c **** #include <SENT_TX_1_ISR.h>
  22:Generated_Source\PSoC4/SENT_TX_1_ISR.c **** 
  23:Generated_Source\PSoC4/SENT_TX_1_ISR.c **** 
  24:Generated_Source\PSoC4/SENT_TX_1_ISR.c **** #if !defined(SENT_TX_1_ISR__REMOVED) /* Check for removal by optimization */
  25:Generated_Source\PSoC4/SENT_TX_1_ISR.c **** 
  26:Generated_Source\PSoC4/SENT_TX_1_ISR.c **** /*******************************************************************************
  27:Generated_Source\PSoC4/SENT_TX_1_ISR.c **** *  Place your includes, defines and code here 
  28:Generated_Source\PSoC4/SENT_TX_1_ISR.c **** ********************************************************************************/
  29:Generated_Source\PSoC4/SENT_TX_1_ISR.c **** /* `#START SENT_TX_1_ISR_intc` */
  30:Generated_Source\PSoC4/SENT_TX_1_ISR.c **** 
ARM GAS  C:\Users\Ala\AppData\Local\Temp\ccQms6bP.s 			page 2


  31:Generated_Source\PSoC4/SENT_TX_1_ISR.c **** /* `#END` */
  32:Generated_Source\PSoC4/SENT_TX_1_ISR.c **** 
  33:Generated_Source\PSoC4/SENT_TX_1_ISR.c **** extern cyisraddress CyRamVectors[CYINT_IRQ_BASE + CY_NUM_INTERRUPTS];
  34:Generated_Source\PSoC4/SENT_TX_1_ISR.c **** 
  35:Generated_Source\PSoC4/SENT_TX_1_ISR.c **** /* Declared in startup, used to set unused interrupts to. */
  36:Generated_Source\PSoC4/SENT_TX_1_ISR.c **** CY_ISR_PROTO(IntDefaultHandler);
  37:Generated_Source\PSoC4/SENT_TX_1_ISR.c **** 
  38:Generated_Source\PSoC4/SENT_TX_1_ISR.c **** 
  39:Generated_Source\PSoC4/SENT_TX_1_ISR.c **** /*******************************************************************************
  40:Generated_Source\PSoC4/SENT_TX_1_ISR.c **** * Function Name: SENT_TX_1_ISR_Start
  41:Generated_Source\PSoC4/SENT_TX_1_ISR.c **** ********************************************************************************
  42:Generated_Source\PSoC4/SENT_TX_1_ISR.c **** *
  43:Generated_Source\PSoC4/SENT_TX_1_ISR.c **** * Summary:
  44:Generated_Source\PSoC4/SENT_TX_1_ISR.c **** *  Set up the interrupt and enable it. This function disables the interrupt, 
  45:Generated_Source\PSoC4/SENT_TX_1_ISR.c **** *  sets the default interrupt vector, sets the priority from the value in the
  46:Generated_Source\PSoC4/SENT_TX_1_ISR.c **** *  Design Wide Resources Interrupt Editor, then enables the interrupt to the 
  47:Generated_Source\PSoC4/SENT_TX_1_ISR.c **** *  interrupt controller.
  48:Generated_Source\PSoC4/SENT_TX_1_ISR.c **** *
  49:Generated_Source\PSoC4/SENT_TX_1_ISR.c **** * Parameters:  
  50:Generated_Source\PSoC4/SENT_TX_1_ISR.c **** *   None
  51:Generated_Source\PSoC4/SENT_TX_1_ISR.c **** *
  52:Generated_Source\PSoC4/SENT_TX_1_ISR.c **** * Return:
  53:Generated_Source\PSoC4/SENT_TX_1_ISR.c **** *   None
  54:Generated_Source\PSoC4/SENT_TX_1_ISR.c **** *
  55:Generated_Source\PSoC4/SENT_TX_1_ISR.c **** *******************************************************************************/
  56:Generated_Source\PSoC4/SENT_TX_1_ISR.c **** void SENT_TX_1_ISR_Start(void)
  57:Generated_Source\PSoC4/SENT_TX_1_ISR.c **** {
  28              		.loc 1 57 0
  29              		.cfi_startproc
  30              		@ args = 0, pretend = 0, frame = 0
  31              		@ frame_needed = 1, uses_anonymous_args = 0
  32 0000 80B5     		push	{r7, lr}
  33              		.cfi_def_cfa_offset 8
  34              		.cfi_offset 7, -8
  35              		.cfi_offset 14, -4
  36 0002 00AF     		add	r7, sp, #0
  37              		.cfi_def_cfa_register 7
  58:Generated_Source\PSoC4/SENT_TX_1_ISR.c ****     /* For all we know the interrupt is active. */
  59:Generated_Source\PSoC4/SENT_TX_1_ISR.c ****     SENT_TX_1_ISR_Disable();
  38              		.loc 1 59 0
  39 0004 FFF7FEFF 		bl	SENT_TX_1_ISR_Disable
  60:Generated_Source\PSoC4/SENT_TX_1_ISR.c **** 
  61:Generated_Source\PSoC4/SENT_TX_1_ISR.c ****     /* Set the ISR to point to the SENT_TX_1_ISR Interrupt. */
  62:Generated_Source\PSoC4/SENT_TX_1_ISR.c ****     SENT_TX_1_ISR_SetVector(&SENT_TX_1_ISR_Interrupt);
  40              		.loc 1 62 0
  41 0008 054B     		ldr	r3, .L2
  42 000a 1800     		movs	r0, r3
  43 000c FFF7FEFF 		bl	SENT_TX_1_ISR_SetVector
  63:Generated_Source\PSoC4/SENT_TX_1_ISR.c **** 
  64:Generated_Source\PSoC4/SENT_TX_1_ISR.c ****     /* Set the priority. */
  65:Generated_Source\PSoC4/SENT_TX_1_ISR.c ****     SENT_TX_1_ISR_SetPriority((uint8)SENT_TX_1_ISR_INTC_PRIOR_NUMBER);
  44              		.loc 1 65 0
  45 0010 0320     		movs	r0, #3
  46 0012 FFF7FEFF 		bl	SENT_TX_1_ISR_SetPriority
  66:Generated_Source\PSoC4/SENT_TX_1_ISR.c **** 
  67:Generated_Source\PSoC4/SENT_TX_1_ISR.c ****     /* Enable it. */
  68:Generated_Source\PSoC4/SENT_TX_1_ISR.c ****     SENT_TX_1_ISR_Enable();
ARM GAS  C:\Users\Ala\AppData\Local\Temp\ccQms6bP.s 			page 3


  47              		.loc 1 68 0
  48 0016 FFF7FEFF 		bl	SENT_TX_1_ISR_Enable
  69:Generated_Source\PSoC4/SENT_TX_1_ISR.c **** }
  49              		.loc 1 69 0
  50 001a C046     		nop
  51 001c BD46     		mov	sp, r7
  52              		@ sp needed
  53 001e 80BD     		pop	{r7, pc}
  54              	.L3:
  55              		.align	2
  56              	.L2:
  57 0020 00000000 		.word	SENT_TX_1_ISR_Interrupt
  58              		.cfi_endproc
  59              	.LFE0:
  60              		.size	SENT_TX_1_ISR_Start, .-SENT_TX_1_ISR_Start
  61              		.section	.text.SENT_TX_1_ISR_StartEx,"ax",%progbits
  62              		.align	2
  63              		.global	SENT_TX_1_ISR_StartEx
  64              		.code	16
  65              		.thumb_func
  66              		.type	SENT_TX_1_ISR_StartEx, %function
  67              	SENT_TX_1_ISR_StartEx:
  68              	.LFB1:
  70:Generated_Source\PSoC4/SENT_TX_1_ISR.c **** 
  71:Generated_Source\PSoC4/SENT_TX_1_ISR.c **** 
  72:Generated_Source\PSoC4/SENT_TX_1_ISR.c **** /*******************************************************************************
  73:Generated_Source\PSoC4/SENT_TX_1_ISR.c **** * Function Name: SENT_TX_1_ISR_StartEx
  74:Generated_Source\PSoC4/SENT_TX_1_ISR.c **** ********************************************************************************
  75:Generated_Source\PSoC4/SENT_TX_1_ISR.c **** *
  76:Generated_Source\PSoC4/SENT_TX_1_ISR.c **** * Summary:
  77:Generated_Source\PSoC4/SENT_TX_1_ISR.c **** *  Sets up the interrupt and enables it. This function disables the interrupt,
  78:Generated_Source\PSoC4/SENT_TX_1_ISR.c **** *  sets the interrupt vector based on the address passed in, sets the priority 
  79:Generated_Source\PSoC4/SENT_TX_1_ISR.c **** *  from the value in the Design Wide Resources Interrupt Editor, then enables 
  80:Generated_Source\PSoC4/SENT_TX_1_ISR.c **** *  the interrupt to the interrupt controller.
  81:Generated_Source\PSoC4/SENT_TX_1_ISR.c **** *  
  82:Generated_Source\PSoC4/SENT_TX_1_ISR.c **** *  When defining ISR functions, the CY_ISR and CY_ISR_PROTO macros should be 
  83:Generated_Source\PSoC4/SENT_TX_1_ISR.c **** *  used to provide consistent definition across compilers:
  84:Generated_Source\PSoC4/SENT_TX_1_ISR.c **** *  
  85:Generated_Source\PSoC4/SENT_TX_1_ISR.c **** *  Function definition example:
  86:Generated_Source\PSoC4/SENT_TX_1_ISR.c **** *   CY_ISR(MyISR)
  87:Generated_Source\PSoC4/SENT_TX_1_ISR.c **** *   {
  88:Generated_Source\PSoC4/SENT_TX_1_ISR.c **** *   }
  89:Generated_Source\PSoC4/SENT_TX_1_ISR.c **** *   Function prototype example:
  90:Generated_Source\PSoC4/SENT_TX_1_ISR.c **** *   CY_ISR_PROTO(MyISR);
  91:Generated_Source\PSoC4/SENT_TX_1_ISR.c **** *
  92:Generated_Source\PSoC4/SENT_TX_1_ISR.c **** * Parameters:  
  93:Generated_Source\PSoC4/SENT_TX_1_ISR.c **** *   address: Address of the ISR to set in the interrupt vector table.
  94:Generated_Source\PSoC4/SENT_TX_1_ISR.c **** *
  95:Generated_Source\PSoC4/SENT_TX_1_ISR.c **** * Return:
  96:Generated_Source\PSoC4/SENT_TX_1_ISR.c **** *   None
  97:Generated_Source\PSoC4/SENT_TX_1_ISR.c **** *
  98:Generated_Source\PSoC4/SENT_TX_1_ISR.c **** *******************************************************************************/
  99:Generated_Source\PSoC4/SENT_TX_1_ISR.c **** void SENT_TX_1_ISR_StartEx(cyisraddress address)
 100:Generated_Source\PSoC4/SENT_TX_1_ISR.c **** {
  69              		.loc 1 100 0
  70              		.cfi_startproc
  71              		@ args = 0, pretend = 0, frame = 8
ARM GAS  C:\Users\Ala\AppData\Local\Temp\ccQms6bP.s 			page 4


  72              		@ frame_needed = 1, uses_anonymous_args = 0
  73 0000 80B5     		push	{r7, lr}
  74              		.cfi_def_cfa_offset 8
  75              		.cfi_offset 7, -8
  76              		.cfi_offset 14, -4
  77 0002 82B0     		sub	sp, sp, #8
  78              		.cfi_def_cfa_offset 16
  79 0004 00AF     		add	r7, sp, #0
  80              		.cfi_def_cfa_register 7
  81 0006 7860     		str	r0, [r7, #4]
 101:Generated_Source\PSoC4/SENT_TX_1_ISR.c ****     /* For all we know the interrupt is active. */
 102:Generated_Source\PSoC4/SENT_TX_1_ISR.c ****     SENT_TX_1_ISR_Disable();
  82              		.loc 1 102 0
  83 0008 FFF7FEFF 		bl	SENT_TX_1_ISR_Disable
 103:Generated_Source\PSoC4/SENT_TX_1_ISR.c **** 
 104:Generated_Source\PSoC4/SENT_TX_1_ISR.c ****     /* Set the ISR to point to the SENT_TX_1_ISR Interrupt. */
 105:Generated_Source\PSoC4/SENT_TX_1_ISR.c ****     SENT_TX_1_ISR_SetVector(address);
  84              		.loc 1 105 0
  85 000c 7B68     		ldr	r3, [r7, #4]
  86 000e 1800     		movs	r0, r3
  87 0010 FFF7FEFF 		bl	SENT_TX_1_ISR_SetVector
 106:Generated_Source\PSoC4/SENT_TX_1_ISR.c **** 
 107:Generated_Source\PSoC4/SENT_TX_1_ISR.c ****     /* Set the priority. */
 108:Generated_Source\PSoC4/SENT_TX_1_ISR.c ****     SENT_TX_1_ISR_SetPriority((uint8)SENT_TX_1_ISR_INTC_PRIOR_NUMBER);
  88              		.loc 1 108 0
  89 0014 0320     		movs	r0, #3
  90 0016 FFF7FEFF 		bl	SENT_TX_1_ISR_SetPriority
 109:Generated_Source\PSoC4/SENT_TX_1_ISR.c **** 
 110:Generated_Source\PSoC4/SENT_TX_1_ISR.c ****     /* Enable it. */
 111:Generated_Source\PSoC4/SENT_TX_1_ISR.c ****     SENT_TX_1_ISR_Enable();
  91              		.loc 1 111 0
  92 001a FFF7FEFF 		bl	SENT_TX_1_ISR_Enable
 112:Generated_Source\PSoC4/SENT_TX_1_ISR.c **** }
  93              		.loc 1 112 0
  94 001e C046     		nop
  95 0020 BD46     		mov	sp, r7
  96 0022 02B0     		add	sp, sp, #8
  97              		@ sp needed
  98 0024 80BD     		pop	{r7, pc}
  99              		.cfi_endproc
 100              	.LFE1:
 101              		.size	SENT_TX_1_ISR_StartEx, .-SENT_TX_1_ISR_StartEx
 102 0026 C046     		.section	.text.SENT_TX_1_ISR_Stop,"ax",%progbits
 103              		.align	2
 104              		.global	SENT_TX_1_ISR_Stop
 105              		.code	16
 106              		.thumb_func
 107              		.type	SENT_TX_1_ISR_Stop, %function
 108              	SENT_TX_1_ISR_Stop:
 109              	.LFB2:
 113:Generated_Source\PSoC4/SENT_TX_1_ISR.c **** 
 114:Generated_Source\PSoC4/SENT_TX_1_ISR.c **** 
 115:Generated_Source\PSoC4/SENT_TX_1_ISR.c **** /*******************************************************************************
 116:Generated_Source\PSoC4/SENT_TX_1_ISR.c **** * Function Name: SENT_TX_1_ISR_Stop
 117:Generated_Source\PSoC4/SENT_TX_1_ISR.c **** ********************************************************************************
 118:Generated_Source\PSoC4/SENT_TX_1_ISR.c **** *
 119:Generated_Source\PSoC4/SENT_TX_1_ISR.c **** * Summary:
ARM GAS  C:\Users\Ala\AppData\Local\Temp\ccQms6bP.s 			page 5


 120:Generated_Source\PSoC4/SENT_TX_1_ISR.c **** *   Disables and removes the interrupt.
 121:Generated_Source\PSoC4/SENT_TX_1_ISR.c **** *
 122:Generated_Source\PSoC4/SENT_TX_1_ISR.c **** * Parameters:  
 123:Generated_Source\PSoC4/SENT_TX_1_ISR.c **** *   None
 124:Generated_Source\PSoC4/SENT_TX_1_ISR.c **** *
 125:Generated_Source\PSoC4/SENT_TX_1_ISR.c **** * Return:
 126:Generated_Source\PSoC4/SENT_TX_1_ISR.c **** *   None
 127:Generated_Source\PSoC4/SENT_TX_1_ISR.c **** *
 128:Generated_Source\PSoC4/SENT_TX_1_ISR.c **** *******************************************************************************/
 129:Generated_Source\PSoC4/SENT_TX_1_ISR.c **** void SENT_TX_1_ISR_Stop(void)
 130:Generated_Source\PSoC4/SENT_TX_1_ISR.c **** {
 110              		.loc 1 130 0
 111              		.cfi_startproc
 112              		@ args = 0, pretend = 0, frame = 0
 113              		@ frame_needed = 1, uses_anonymous_args = 0
 114 0000 80B5     		push	{r7, lr}
 115              		.cfi_def_cfa_offset 8
 116              		.cfi_offset 7, -8
 117              		.cfi_offset 14, -4
 118 0002 00AF     		add	r7, sp, #0
 119              		.cfi_def_cfa_register 7
 131:Generated_Source\PSoC4/SENT_TX_1_ISR.c ****     /* Disable this interrupt. */
 132:Generated_Source\PSoC4/SENT_TX_1_ISR.c ****     SENT_TX_1_ISR_Disable();
 120              		.loc 1 132 0
 121 0004 FFF7FEFF 		bl	SENT_TX_1_ISR_Disable
 133:Generated_Source\PSoC4/SENT_TX_1_ISR.c **** 
 134:Generated_Source\PSoC4/SENT_TX_1_ISR.c ****     /* Set the ISR to point to the passive one. */
 135:Generated_Source\PSoC4/SENT_TX_1_ISR.c ****     SENT_TX_1_ISR_SetVector(&IntDefaultHandler);
 122              		.loc 1 135 0
 123 0008 034B     		ldr	r3, .L6
 124 000a 1800     		movs	r0, r3
 125 000c FFF7FEFF 		bl	SENT_TX_1_ISR_SetVector
 136:Generated_Source\PSoC4/SENT_TX_1_ISR.c **** }
 126              		.loc 1 136 0
 127 0010 C046     		nop
 128 0012 BD46     		mov	sp, r7
 129              		@ sp needed
 130 0014 80BD     		pop	{r7, pc}
 131              	.L7:
 132 0016 C046     		.align	2
 133              	.L6:
 134 0018 00000000 		.word	IntDefaultHandler
 135              		.cfi_endproc
 136              	.LFE2:
 137              		.size	SENT_TX_1_ISR_Stop, .-SENT_TX_1_ISR_Stop
 138              		.section	.text.SENT_TX_1_ISR_Interrupt,"ax",%progbits
 139              		.align	2
 140              		.global	SENT_TX_1_ISR_Interrupt
 141              		.code	16
 142              		.thumb_func
 143              		.type	SENT_TX_1_ISR_Interrupt, %function
 144              	SENT_TX_1_ISR_Interrupt:
 145              	.LFB3:
 137:Generated_Source\PSoC4/SENT_TX_1_ISR.c **** 
 138:Generated_Source\PSoC4/SENT_TX_1_ISR.c **** 
 139:Generated_Source\PSoC4/SENT_TX_1_ISR.c **** /*******************************************************************************
 140:Generated_Source\PSoC4/SENT_TX_1_ISR.c **** * Function Name: SENT_TX_1_ISR_Interrupt
ARM GAS  C:\Users\Ala\AppData\Local\Temp\ccQms6bP.s 			page 6


 141:Generated_Source\PSoC4/SENT_TX_1_ISR.c **** ********************************************************************************
 142:Generated_Source\PSoC4/SENT_TX_1_ISR.c **** *
 143:Generated_Source\PSoC4/SENT_TX_1_ISR.c **** * Summary:
 144:Generated_Source\PSoC4/SENT_TX_1_ISR.c **** *   The default Interrupt Service Routine for SENT_TX_1_ISR.
 145:Generated_Source\PSoC4/SENT_TX_1_ISR.c **** *
 146:Generated_Source\PSoC4/SENT_TX_1_ISR.c **** *   Add custom code between the START and END comments to keep the next version
 147:Generated_Source\PSoC4/SENT_TX_1_ISR.c **** *   of this file from over-writing your code.
 148:Generated_Source\PSoC4/SENT_TX_1_ISR.c **** *
 149:Generated_Source\PSoC4/SENT_TX_1_ISR.c **** *   Note You may use either the default ISR by using this API, or you may define
 150:Generated_Source\PSoC4/SENT_TX_1_ISR.c **** *   your own separate ISR through ISR_StartEx().
 151:Generated_Source\PSoC4/SENT_TX_1_ISR.c **** *
 152:Generated_Source\PSoC4/SENT_TX_1_ISR.c **** * Parameters:  
 153:Generated_Source\PSoC4/SENT_TX_1_ISR.c **** *   None
 154:Generated_Source\PSoC4/SENT_TX_1_ISR.c **** *
 155:Generated_Source\PSoC4/SENT_TX_1_ISR.c **** * Return:
 156:Generated_Source\PSoC4/SENT_TX_1_ISR.c **** *   None
 157:Generated_Source\PSoC4/SENT_TX_1_ISR.c **** *
 158:Generated_Source\PSoC4/SENT_TX_1_ISR.c **** *******************************************************************************/
 159:Generated_Source\PSoC4/SENT_TX_1_ISR.c **** CY_ISR(SENT_TX_1_ISR_Interrupt)
 160:Generated_Source\PSoC4/SENT_TX_1_ISR.c **** {
 146              		.loc 1 160 0
 147              		.cfi_startproc
 148              		@ args = 0, pretend = 0, frame = 0
 149              		@ frame_needed = 1, uses_anonymous_args = 0
 150 0000 80B5     		push	{r7, lr}
 151              		.cfi_def_cfa_offset 8
 152              		.cfi_offset 7, -8
 153              		.cfi_offset 14, -4
 154 0002 00AF     		add	r7, sp, #0
 155              		.cfi_def_cfa_register 7
 161:Generated_Source\PSoC4/SENT_TX_1_ISR.c ****     #ifdef SENT_TX_1_ISR_INTERRUPT_INTERRUPT_CALLBACK
 162:Generated_Source\PSoC4/SENT_TX_1_ISR.c ****         SENT_TX_1_ISR_Interrupt_InterruptCallback();
 163:Generated_Source\PSoC4/SENT_TX_1_ISR.c ****     #endif /* SENT_TX_1_ISR_INTERRUPT_INTERRUPT_CALLBACK */ 
 164:Generated_Source\PSoC4/SENT_TX_1_ISR.c **** 
 165:Generated_Source\PSoC4/SENT_TX_1_ISR.c ****     /*  Place your Interrupt code here. */
 166:Generated_Source\PSoC4/SENT_TX_1_ISR.c ****     /* `#START SENT_TX_1_ISR_Interrupt` */
 167:Generated_Source\PSoC4/SENT_TX_1_ISR.c **** 
 168:Generated_Source\PSoC4/SENT_TX_1_ISR.c ****     /* `#END` */
 169:Generated_Source\PSoC4/SENT_TX_1_ISR.c **** }
 156              		.loc 1 169 0
 157 0004 C046     		nop
 158 0006 BD46     		mov	sp, r7
 159              		@ sp needed
 160 0008 80BD     		pop	{r7, pc}
 161              		.cfi_endproc
 162              	.LFE3:
 163              		.size	SENT_TX_1_ISR_Interrupt, .-SENT_TX_1_ISR_Interrupt
 164              		.section	.text.SENT_TX_1_ISR_SetVector,"ax",%progbits
 165              		.align	2
 166              		.global	SENT_TX_1_ISR_SetVector
 167              		.code	16
 168              		.thumb_func
 169              		.type	SENT_TX_1_ISR_SetVector, %function
 170              	SENT_TX_1_ISR_SetVector:
 171              	.LFB4:
 170:Generated_Source\PSoC4/SENT_TX_1_ISR.c **** 
 171:Generated_Source\PSoC4/SENT_TX_1_ISR.c **** 
ARM GAS  C:\Users\Ala\AppData\Local\Temp\ccQms6bP.s 			page 7


 172:Generated_Source\PSoC4/SENT_TX_1_ISR.c **** /*******************************************************************************
 173:Generated_Source\PSoC4/SENT_TX_1_ISR.c **** * Function Name: SENT_TX_1_ISR_SetVector
 174:Generated_Source\PSoC4/SENT_TX_1_ISR.c **** ********************************************************************************
 175:Generated_Source\PSoC4/SENT_TX_1_ISR.c **** *
 176:Generated_Source\PSoC4/SENT_TX_1_ISR.c **** * Summary:
 177:Generated_Source\PSoC4/SENT_TX_1_ISR.c **** *   Change the ISR vector for the Interrupt. Note calling SENT_TX_1_ISR_Start
 178:Generated_Source\PSoC4/SENT_TX_1_ISR.c **** *   will override any effect this method would have had. To set the vector 
 179:Generated_Source\PSoC4/SENT_TX_1_ISR.c **** *   before the component has been started use SENT_TX_1_ISR_StartEx instead.
 180:Generated_Source\PSoC4/SENT_TX_1_ISR.c **** * 
 181:Generated_Source\PSoC4/SENT_TX_1_ISR.c **** *   When defining ISR functions, the CY_ISR and CY_ISR_PROTO macros should be 
 182:Generated_Source\PSoC4/SENT_TX_1_ISR.c **** *   used to provide consistent definition across compilers:
 183:Generated_Source\PSoC4/SENT_TX_1_ISR.c **** *
 184:Generated_Source\PSoC4/SENT_TX_1_ISR.c **** *   Function definition example:
 185:Generated_Source\PSoC4/SENT_TX_1_ISR.c **** *   CY_ISR(MyISR)
 186:Generated_Source\PSoC4/SENT_TX_1_ISR.c **** *   {
 187:Generated_Source\PSoC4/SENT_TX_1_ISR.c **** *   }
 188:Generated_Source\PSoC4/SENT_TX_1_ISR.c **** *
 189:Generated_Source\PSoC4/SENT_TX_1_ISR.c **** *   Function prototype example:
 190:Generated_Source\PSoC4/SENT_TX_1_ISR.c **** *     CY_ISR_PROTO(MyISR);
 191:Generated_Source\PSoC4/SENT_TX_1_ISR.c **** *
 192:Generated_Source\PSoC4/SENT_TX_1_ISR.c **** * Parameters:
 193:Generated_Source\PSoC4/SENT_TX_1_ISR.c **** *   address: Address of the ISR to set in the interrupt vector table.
 194:Generated_Source\PSoC4/SENT_TX_1_ISR.c **** *
 195:Generated_Source\PSoC4/SENT_TX_1_ISR.c **** * Return:
 196:Generated_Source\PSoC4/SENT_TX_1_ISR.c **** *   None
 197:Generated_Source\PSoC4/SENT_TX_1_ISR.c **** *
 198:Generated_Source\PSoC4/SENT_TX_1_ISR.c **** *******************************************************************************/
 199:Generated_Source\PSoC4/SENT_TX_1_ISR.c **** void SENT_TX_1_ISR_SetVector(cyisraddress address)
 200:Generated_Source\PSoC4/SENT_TX_1_ISR.c **** {
 172              		.loc 1 200 0
 173              		.cfi_startproc
 174              		@ args = 0, pretend = 0, frame = 8
 175              		@ frame_needed = 1, uses_anonymous_args = 0
 176 0000 80B5     		push	{r7, lr}
 177              		.cfi_def_cfa_offset 8
 178              		.cfi_offset 7, -8
 179              		.cfi_offset 14, -4
 180 0002 82B0     		sub	sp, sp, #8
 181              		.cfi_def_cfa_offset 16
 182 0004 00AF     		add	r7, sp, #0
 183              		.cfi_def_cfa_register 7
 184 0006 7860     		str	r0, [r7, #4]
 201:Generated_Source\PSoC4/SENT_TX_1_ISR.c ****     CyRamVectors[CYINT_IRQ_BASE + SENT_TX_1_ISR__INTC_NUMBER] = address;
 185              		.loc 1 201 0
 186 0008 034B     		ldr	r3, .L10
 187 000a 8021     		movs	r1, #128
 188 000c 7A68     		ldr	r2, [r7, #4]
 189 000e 5A50     		str	r2, [r3, r1]
 202:Generated_Source\PSoC4/SENT_TX_1_ISR.c **** }
 190              		.loc 1 202 0
 191 0010 C046     		nop
 192 0012 BD46     		mov	sp, r7
 193 0014 02B0     		add	sp, sp, #8
 194              		@ sp needed
 195 0016 80BD     		pop	{r7, pc}
 196              	.L11:
 197              		.align	2
ARM GAS  C:\Users\Ala\AppData\Local\Temp\ccQms6bP.s 			page 8


 198              	.L10:
 199 0018 00000000 		.word	CyRamVectors
 200              		.cfi_endproc
 201              	.LFE4:
 202              		.size	SENT_TX_1_ISR_SetVector, .-SENT_TX_1_ISR_SetVector
 203              		.section	.text.SENT_TX_1_ISR_GetVector,"ax",%progbits
 204              		.align	2
 205              		.global	SENT_TX_1_ISR_GetVector
 206              		.code	16
 207              		.thumb_func
 208              		.type	SENT_TX_1_ISR_GetVector, %function
 209              	SENT_TX_1_ISR_GetVector:
 210              	.LFB5:
 203:Generated_Source\PSoC4/SENT_TX_1_ISR.c **** 
 204:Generated_Source\PSoC4/SENT_TX_1_ISR.c **** 
 205:Generated_Source\PSoC4/SENT_TX_1_ISR.c **** /*******************************************************************************
 206:Generated_Source\PSoC4/SENT_TX_1_ISR.c **** * Function Name: SENT_TX_1_ISR_GetVector
 207:Generated_Source\PSoC4/SENT_TX_1_ISR.c **** ********************************************************************************
 208:Generated_Source\PSoC4/SENT_TX_1_ISR.c **** *
 209:Generated_Source\PSoC4/SENT_TX_1_ISR.c **** * Summary:
 210:Generated_Source\PSoC4/SENT_TX_1_ISR.c **** *   Gets the "address" of the current ISR vector for the Interrupt.
 211:Generated_Source\PSoC4/SENT_TX_1_ISR.c **** *
 212:Generated_Source\PSoC4/SENT_TX_1_ISR.c **** * Parameters:
 213:Generated_Source\PSoC4/SENT_TX_1_ISR.c **** *   None
 214:Generated_Source\PSoC4/SENT_TX_1_ISR.c **** *
 215:Generated_Source\PSoC4/SENT_TX_1_ISR.c **** * Return:
 216:Generated_Source\PSoC4/SENT_TX_1_ISR.c **** *   Address of the ISR in the interrupt vector table.
 217:Generated_Source\PSoC4/SENT_TX_1_ISR.c **** *
 218:Generated_Source\PSoC4/SENT_TX_1_ISR.c **** *******************************************************************************/
 219:Generated_Source\PSoC4/SENT_TX_1_ISR.c **** cyisraddress SENT_TX_1_ISR_GetVector(void)
 220:Generated_Source\PSoC4/SENT_TX_1_ISR.c **** {
 211              		.loc 1 220 0
 212              		.cfi_startproc
 213              		@ args = 0, pretend = 0, frame = 0
 214              		@ frame_needed = 1, uses_anonymous_args = 0
 215 0000 80B5     		push	{r7, lr}
 216              		.cfi_def_cfa_offset 8
 217              		.cfi_offset 7, -8
 218              		.cfi_offset 14, -4
 219 0002 00AF     		add	r7, sp, #0
 220              		.cfi_def_cfa_register 7
 221:Generated_Source\PSoC4/SENT_TX_1_ISR.c ****     return CyRamVectors[CYINT_IRQ_BASE + SENT_TX_1_ISR__INTC_NUMBER];
 221              		.loc 1 221 0
 222 0004 024B     		ldr	r3, .L14
 223 0006 8022     		movs	r2, #128
 224 0008 9B58     		ldr	r3, [r3, r2]
 222:Generated_Source\PSoC4/SENT_TX_1_ISR.c **** }
 225              		.loc 1 222 0
 226 000a 1800     		movs	r0, r3
 227 000c BD46     		mov	sp, r7
 228              		@ sp needed
 229 000e 80BD     		pop	{r7, pc}
 230              	.L15:
 231              		.align	2
 232              	.L14:
 233 0010 00000000 		.word	CyRamVectors
 234              		.cfi_endproc
ARM GAS  C:\Users\Ala\AppData\Local\Temp\ccQms6bP.s 			page 9


 235              	.LFE5:
 236              		.size	SENT_TX_1_ISR_GetVector, .-SENT_TX_1_ISR_GetVector
 237              		.section	.text.SENT_TX_1_ISR_SetPriority,"ax",%progbits
 238              		.align	2
 239              		.global	SENT_TX_1_ISR_SetPriority
 240              		.code	16
 241              		.thumb_func
 242              		.type	SENT_TX_1_ISR_SetPriority, %function
 243              	SENT_TX_1_ISR_SetPriority:
 244              	.LFB6:
 223:Generated_Source\PSoC4/SENT_TX_1_ISR.c **** 
 224:Generated_Source\PSoC4/SENT_TX_1_ISR.c **** 
 225:Generated_Source\PSoC4/SENT_TX_1_ISR.c **** /*******************************************************************************
 226:Generated_Source\PSoC4/SENT_TX_1_ISR.c **** * Function Name: SENT_TX_1_ISR_SetPriority
 227:Generated_Source\PSoC4/SENT_TX_1_ISR.c **** ********************************************************************************
 228:Generated_Source\PSoC4/SENT_TX_1_ISR.c **** *
 229:Generated_Source\PSoC4/SENT_TX_1_ISR.c **** * Summary:
 230:Generated_Source\PSoC4/SENT_TX_1_ISR.c **** *   Sets the Priority of the Interrupt. 
 231:Generated_Source\PSoC4/SENT_TX_1_ISR.c **** *
 232:Generated_Source\PSoC4/SENT_TX_1_ISR.c **** *   Note calling SENT_TX_1_ISR_Start or SENT_TX_1_ISR_StartEx will 
 233:Generated_Source\PSoC4/SENT_TX_1_ISR.c **** *   override any effect this API would have had. This API should only be called
 234:Generated_Source\PSoC4/SENT_TX_1_ISR.c **** *   after SENT_TX_1_ISR_Start or SENT_TX_1_ISR_StartEx has been called. 
 235:Generated_Source\PSoC4/SENT_TX_1_ISR.c **** *   To set the initial priority for the component, use the Design-Wide Resources
 236:Generated_Source\PSoC4/SENT_TX_1_ISR.c **** *   Interrupt Editor.
 237:Generated_Source\PSoC4/SENT_TX_1_ISR.c **** *
 238:Generated_Source\PSoC4/SENT_TX_1_ISR.c **** *   Note This API has no effect on Non-maskable interrupt NMI).
 239:Generated_Source\PSoC4/SENT_TX_1_ISR.c **** *
 240:Generated_Source\PSoC4/SENT_TX_1_ISR.c **** * Parameters:
 241:Generated_Source\PSoC4/SENT_TX_1_ISR.c **** *   priority: Priority of the interrupt, 0 being the highest priority
 242:Generated_Source\PSoC4/SENT_TX_1_ISR.c **** *             PSoC 3 and PSoC 5LP: Priority is from 0 to 7.
 243:Generated_Source\PSoC4/SENT_TX_1_ISR.c **** *             PSoC 4: Priority is from 0 to 3.
 244:Generated_Source\PSoC4/SENT_TX_1_ISR.c **** *
 245:Generated_Source\PSoC4/SENT_TX_1_ISR.c **** * Return:
 246:Generated_Source\PSoC4/SENT_TX_1_ISR.c **** *   None
 247:Generated_Source\PSoC4/SENT_TX_1_ISR.c **** *
 248:Generated_Source\PSoC4/SENT_TX_1_ISR.c **** *******************************************************************************/
 249:Generated_Source\PSoC4/SENT_TX_1_ISR.c **** void SENT_TX_1_ISR_SetPriority(uint8 priority)
 250:Generated_Source\PSoC4/SENT_TX_1_ISR.c **** {
 245              		.loc 1 250 0
 246              		.cfi_startproc
 247              		@ args = 0, pretend = 0, frame = 16
 248              		@ frame_needed = 1, uses_anonymous_args = 0
 249 0000 90B5     		push	{r4, r7, lr}
 250              		.cfi_def_cfa_offset 12
 251              		.cfi_offset 4, -12
 252              		.cfi_offset 7, -8
 253              		.cfi_offset 14, -4
 254 0002 85B0     		sub	sp, sp, #20
 255              		.cfi_def_cfa_offset 32
 256 0004 00AF     		add	r7, sp, #0
 257              		.cfi_def_cfa_register 7
 258 0006 0200     		movs	r2, r0
 259 0008 FB1D     		adds	r3, r7, #7
 260 000a 1A70     		strb	r2, [r3]
 251:Generated_Source\PSoC4/SENT_TX_1_ISR.c **** 	uint8 interruptState;
 252:Generated_Source\PSoC4/SENT_TX_1_ISR.c ****     uint32 priorityOffset = ((SENT_TX_1_ISR__INTC_NUMBER % 4u) * 8u) + 6u;
 261              		.loc 1 252 0
ARM GAS  C:\Users\Ala\AppData\Local\Temp\ccQms6bP.s 			page 10


 262 000c 0623     		movs	r3, #6
 263 000e FB60     		str	r3, [r7, #12]
 253:Generated_Source\PSoC4/SENT_TX_1_ISR.c ****     
 254:Generated_Source\PSoC4/SENT_TX_1_ISR.c **** 	interruptState = CyEnterCriticalSection();
 264              		.loc 1 254 0
 265 0010 0B23     		movs	r3, #11
 266 0012 FC18     		adds	r4, r7, r3
 267 0014 FFF7FEFF 		bl	CyEnterCriticalSection
 268 0018 0300     		movs	r3, r0
 269 001a 2370     		strb	r3, [r4]
 255:Generated_Source\PSoC4/SENT_TX_1_ISR.c ****     *SENT_TX_1_ISR_INTC_PRIOR = (*SENT_TX_1_ISR_INTC_PRIOR & (uint32)(~SENT_TX_1_ISR__INTC_PRIOR_MA
 270              		.loc 1 255 0
 271 001c 0B4B     		ldr	r3, .L17
 272 001e 0B4A     		ldr	r2, .L17
 273 0020 1268     		ldr	r2, [r2]
 274 0022 C021     		movs	r1, #192
 275 0024 8A43     		bics	r2, r1
 276 0026 1100     		movs	r1, r2
 256:Generated_Source\PSoC4/SENT_TX_1_ISR.c ****                                     ((uint32)priority << priorityOffset);
 277              		.loc 1 256 0
 278 0028 FA1D     		adds	r2, r7, #7
 279 002a 1078     		ldrb	r0, [r2]
 280 002c FA68     		ldr	r2, [r7, #12]
 281 002e 9040     		lsls	r0, r0, r2
 282 0030 0200     		movs	r2, r0
 255:Generated_Source\PSoC4/SENT_TX_1_ISR.c ****     *SENT_TX_1_ISR_INTC_PRIOR = (*SENT_TX_1_ISR_INTC_PRIOR & (uint32)(~SENT_TX_1_ISR__INTC_PRIOR_MA
 283              		.loc 1 255 0
 284 0032 0A43     		orrs	r2, r1
 285 0034 1A60     		str	r2, [r3]
 257:Generated_Source\PSoC4/SENT_TX_1_ISR.c **** 	CyExitCriticalSection(interruptState);
 286              		.loc 1 257 0
 287 0036 0B23     		movs	r3, #11
 288 0038 FB18     		adds	r3, r7, r3
 289 003a 1B78     		ldrb	r3, [r3]
 290 003c 1800     		movs	r0, r3
 291 003e FFF7FEFF 		bl	CyExitCriticalSection
 258:Generated_Source\PSoC4/SENT_TX_1_ISR.c **** }
 292              		.loc 1 258 0
 293 0042 C046     		nop
 294 0044 BD46     		mov	sp, r7
 295 0046 05B0     		add	sp, sp, #20
 296              		@ sp needed
 297 0048 90BD     		pop	{r4, r7, pc}
 298              	.L18:
 299 004a C046     		.align	2
 300              	.L17:
 301 004c 10E400E0 		.word	-536812528
 302              		.cfi_endproc
 303              	.LFE6:
 304              		.size	SENT_TX_1_ISR_SetPriority, .-SENT_TX_1_ISR_SetPriority
 305              		.section	.text.SENT_TX_1_ISR_GetPriority,"ax",%progbits
 306              		.align	2
 307              		.global	SENT_TX_1_ISR_GetPriority
 308              		.code	16
 309              		.thumb_func
 310              		.type	SENT_TX_1_ISR_GetPriority, %function
 311              	SENT_TX_1_ISR_GetPriority:
ARM GAS  C:\Users\Ala\AppData\Local\Temp\ccQms6bP.s 			page 11


 312              	.LFB7:
 259:Generated_Source\PSoC4/SENT_TX_1_ISR.c **** 
 260:Generated_Source\PSoC4/SENT_TX_1_ISR.c **** 
 261:Generated_Source\PSoC4/SENT_TX_1_ISR.c **** /*******************************************************************************
 262:Generated_Source\PSoC4/SENT_TX_1_ISR.c **** * Function Name: SENT_TX_1_ISR_GetPriority
 263:Generated_Source\PSoC4/SENT_TX_1_ISR.c **** ********************************************************************************
 264:Generated_Source\PSoC4/SENT_TX_1_ISR.c **** *
 265:Generated_Source\PSoC4/SENT_TX_1_ISR.c **** * Summary:
 266:Generated_Source\PSoC4/SENT_TX_1_ISR.c **** *   Gets the Priority of the Interrupt.
 267:Generated_Source\PSoC4/SENT_TX_1_ISR.c **** *
 268:Generated_Source\PSoC4/SENT_TX_1_ISR.c **** * Parameters:
 269:Generated_Source\PSoC4/SENT_TX_1_ISR.c **** *   None
 270:Generated_Source\PSoC4/SENT_TX_1_ISR.c **** *
 271:Generated_Source\PSoC4/SENT_TX_1_ISR.c **** * Return:
 272:Generated_Source\PSoC4/SENT_TX_1_ISR.c **** *   Priority of the interrupt, 0 being the highest priority
 273:Generated_Source\PSoC4/SENT_TX_1_ISR.c **** *    PSoC 3 and PSoC 5LP: Priority is from 0 to 7.
 274:Generated_Source\PSoC4/SENT_TX_1_ISR.c **** *    PSoC 4: Priority is from 0 to 3.
 275:Generated_Source\PSoC4/SENT_TX_1_ISR.c **** *
 276:Generated_Source\PSoC4/SENT_TX_1_ISR.c **** *******************************************************************************/
 277:Generated_Source\PSoC4/SENT_TX_1_ISR.c **** uint8 SENT_TX_1_ISR_GetPriority(void)
 278:Generated_Source\PSoC4/SENT_TX_1_ISR.c **** {
 313              		.loc 1 278 0
 314              		.cfi_startproc
 315              		@ args = 0, pretend = 0, frame = 8
 316              		@ frame_needed = 1, uses_anonymous_args = 0
 317 0000 80B5     		push	{r7, lr}
 318              		.cfi_def_cfa_offset 8
 319              		.cfi_offset 7, -8
 320              		.cfi_offset 14, -4
 321 0002 82B0     		sub	sp, sp, #8
 322              		.cfi_def_cfa_offset 16
 323 0004 00AF     		add	r7, sp, #0
 324              		.cfi_def_cfa_register 7
 279:Generated_Source\PSoC4/SENT_TX_1_ISR.c ****     uint32 priority;
 280:Generated_Source\PSoC4/SENT_TX_1_ISR.c **** 	uint32 priorityOffset = ((SENT_TX_1_ISR__INTC_NUMBER % 4u) * 8u) + 6u;
 325              		.loc 1 280 0
 326 0006 0623     		movs	r3, #6
 327 0008 7B60     		str	r3, [r7, #4]
 281:Generated_Source\PSoC4/SENT_TX_1_ISR.c **** 
 282:Generated_Source\PSoC4/SENT_TX_1_ISR.c ****     priority = (*SENT_TX_1_ISR_INTC_PRIOR & SENT_TX_1_ISR__INTC_PRIOR_MASK) >> priorityOffset;
 328              		.loc 1 282 0
 329 000a 074B     		ldr	r3, .L21
 330 000c 1B68     		ldr	r3, [r3]
 331 000e C022     		movs	r2, #192
 332 0010 1A40     		ands	r2, r3
 333 0012 7B68     		ldr	r3, [r7, #4]
 334 0014 DA40     		lsrs	r2, r2, r3
 335 0016 1300     		movs	r3, r2
 336 0018 3B60     		str	r3, [r7]
 283:Generated_Source\PSoC4/SENT_TX_1_ISR.c **** 
 284:Generated_Source\PSoC4/SENT_TX_1_ISR.c ****     return (uint8)priority;
 337              		.loc 1 284 0
 338 001a 3B68     		ldr	r3, [r7]
 339 001c DBB2     		uxtb	r3, r3
 285:Generated_Source\PSoC4/SENT_TX_1_ISR.c **** }
 340              		.loc 1 285 0
 341 001e 1800     		movs	r0, r3
ARM GAS  C:\Users\Ala\AppData\Local\Temp\ccQms6bP.s 			page 12


 342 0020 BD46     		mov	sp, r7
 343 0022 02B0     		add	sp, sp, #8
 344              		@ sp needed
 345 0024 80BD     		pop	{r7, pc}
 346              	.L22:
 347 0026 C046     		.align	2
 348              	.L21:
 349 0028 10E400E0 		.word	-536812528
 350              		.cfi_endproc
 351              	.LFE7:
 352              		.size	SENT_TX_1_ISR_GetPriority, .-SENT_TX_1_ISR_GetPriority
 353              		.section	.text.SENT_TX_1_ISR_Enable,"ax",%progbits
 354              		.align	2
 355              		.global	SENT_TX_1_ISR_Enable
 356              		.code	16
 357              		.thumb_func
 358              		.type	SENT_TX_1_ISR_Enable, %function
 359              	SENT_TX_1_ISR_Enable:
 360              	.LFB8:
 286:Generated_Source\PSoC4/SENT_TX_1_ISR.c **** 
 287:Generated_Source\PSoC4/SENT_TX_1_ISR.c **** 
 288:Generated_Source\PSoC4/SENT_TX_1_ISR.c **** /*******************************************************************************
 289:Generated_Source\PSoC4/SENT_TX_1_ISR.c **** * Function Name: SENT_TX_1_ISR_Enable
 290:Generated_Source\PSoC4/SENT_TX_1_ISR.c **** ********************************************************************************
 291:Generated_Source\PSoC4/SENT_TX_1_ISR.c **** *
 292:Generated_Source\PSoC4/SENT_TX_1_ISR.c **** * Summary:
 293:Generated_Source\PSoC4/SENT_TX_1_ISR.c **** *   Enables the interrupt to the interrupt controller. Do not call this function
 294:Generated_Source\PSoC4/SENT_TX_1_ISR.c **** *   unless ISR_Start() has been called or the functionality of the ISR_Start() 
 295:Generated_Source\PSoC4/SENT_TX_1_ISR.c **** *   function, which sets the vector and the priority, has been called.
 296:Generated_Source\PSoC4/SENT_TX_1_ISR.c **** *
 297:Generated_Source\PSoC4/SENT_TX_1_ISR.c **** * Parameters:
 298:Generated_Source\PSoC4/SENT_TX_1_ISR.c **** *   None
 299:Generated_Source\PSoC4/SENT_TX_1_ISR.c **** *
 300:Generated_Source\PSoC4/SENT_TX_1_ISR.c **** * Return:
 301:Generated_Source\PSoC4/SENT_TX_1_ISR.c **** *   None
 302:Generated_Source\PSoC4/SENT_TX_1_ISR.c **** *
 303:Generated_Source\PSoC4/SENT_TX_1_ISR.c **** *******************************************************************************/
 304:Generated_Source\PSoC4/SENT_TX_1_ISR.c **** void SENT_TX_1_ISR_Enable(void)
 305:Generated_Source\PSoC4/SENT_TX_1_ISR.c **** {
 361              		.loc 1 305 0
 362              		.cfi_startproc
 363              		@ args = 0, pretend = 0, frame = 0
 364              		@ frame_needed = 1, uses_anonymous_args = 0
 365 0000 80B5     		push	{r7, lr}
 366              		.cfi_def_cfa_offset 8
 367              		.cfi_offset 7, -8
 368              		.cfi_offset 14, -4
 369 0002 00AF     		add	r7, sp, #0
 370              		.cfi_def_cfa_register 7
 306:Generated_Source\PSoC4/SENT_TX_1_ISR.c ****     /* Enable the general interrupt. */
 307:Generated_Source\PSoC4/SENT_TX_1_ISR.c ****     *SENT_TX_1_ISR_INTC_SET_EN = SENT_TX_1_ISR__INTC_MASK;
 371              		.loc 1 307 0
 372 0004 034B     		ldr	r3, .L24
 373 0006 8022     		movs	r2, #128
 374 0008 5202     		lsls	r2, r2, #9
 375 000a 1A60     		str	r2, [r3]
 308:Generated_Source\PSoC4/SENT_TX_1_ISR.c **** }
ARM GAS  C:\Users\Ala\AppData\Local\Temp\ccQms6bP.s 			page 13


 376              		.loc 1 308 0
 377 000c C046     		nop
 378 000e BD46     		mov	sp, r7
 379              		@ sp needed
 380 0010 80BD     		pop	{r7, pc}
 381              	.L25:
 382 0012 C046     		.align	2
 383              	.L24:
 384 0014 00E100E0 		.word	-536813312
 385              		.cfi_endproc
 386              	.LFE8:
 387              		.size	SENT_TX_1_ISR_Enable, .-SENT_TX_1_ISR_Enable
 388              		.section	.text.SENT_TX_1_ISR_GetState,"ax",%progbits
 389              		.align	2
 390              		.global	SENT_TX_1_ISR_GetState
 391              		.code	16
 392              		.thumb_func
 393              		.type	SENT_TX_1_ISR_GetState, %function
 394              	SENT_TX_1_ISR_GetState:
 395              	.LFB9:
 309:Generated_Source\PSoC4/SENT_TX_1_ISR.c **** 
 310:Generated_Source\PSoC4/SENT_TX_1_ISR.c **** 
 311:Generated_Source\PSoC4/SENT_TX_1_ISR.c **** /*******************************************************************************
 312:Generated_Source\PSoC4/SENT_TX_1_ISR.c **** * Function Name: SENT_TX_1_ISR_GetState
 313:Generated_Source\PSoC4/SENT_TX_1_ISR.c **** ********************************************************************************
 314:Generated_Source\PSoC4/SENT_TX_1_ISR.c **** *
 315:Generated_Source\PSoC4/SENT_TX_1_ISR.c **** * Summary:
 316:Generated_Source\PSoC4/SENT_TX_1_ISR.c **** *   Gets the state (enabled, disabled) of the Interrupt.
 317:Generated_Source\PSoC4/SENT_TX_1_ISR.c **** *
 318:Generated_Source\PSoC4/SENT_TX_1_ISR.c **** * Parameters:
 319:Generated_Source\PSoC4/SENT_TX_1_ISR.c **** *   None
 320:Generated_Source\PSoC4/SENT_TX_1_ISR.c **** *
 321:Generated_Source\PSoC4/SENT_TX_1_ISR.c **** * Return:
 322:Generated_Source\PSoC4/SENT_TX_1_ISR.c **** *   1 if enabled, 0 if disabled.
 323:Generated_Source\PSoC4/SENT_TX_1_ISR.c **** *
 324:Generated_Source\PSoC4/SENT_TX_1_ISR.c **** *******************************************************************************/
 325:Generated_Source\PSoC4/SENT_TX_1_ISR.c **** uint8 SENT_TX_1_ISR_GetState(void)
 326:Generated_Source\PSoC4/SENT_TX_1_ISR.c **** {
 396              		.loc 1 326 0
 397              		.cfi_startproc
 398              		@ args = 0, pretend = 0, frame = 0
 399              		@ frame_needed = 1, uses_anonymous_args = 0
 400 0000 80B5     		push	{r7, lr}
 401              		.cfi_def_cfa_offset 8
 402              		.cfi_offset 7, -8
 403              		.cfi_offset 14, -4
 404 0002 00AF     		add	r7, sp, #0
 405              		.cfi_def_cfa_register 7
 327:Generated_Source\PSoC4/SENT_TX_1_ISR.c ****     /* Get the state of the general interrupt. */
 328:Generated_Source\PSoC4/SENT_TX_1_ISR.c ****     return ((*SENT_TX_1_ISR_INTC_SET_EN & (uint32)SENT_TX_1_ISR__INTC_MASK) != 0u) ? 1u:0u;
 406              		.loc 1 328 0
 407 0004 054B     		ldr	r3, .L30
 408 0006 1A68     		ldr	r2, [r3]
 409 0008 8023     		movs	r3, #128
 410 000a 5B02     		lsls	r3, r3, #9
 411 000c 1340     		ands	r3, r2
 412 000e 01D0     		beq	.L27
ARM GAS  C:\Users\Ala\AppData\Local\Temp\ccQms6bP.s 			page 14


 413              		.loc 1 328 0 is_stmt 0 discriminator 1
 414 0010 0123     		movs	r3, #1
 415 0012 00E0     		b	.L28
 416              	.L27:
 417              		.loc 1 328 0 discriminator 2
 418 0014 0023     		movs	r3, #0
 419              	.L28:
 329:Generated_Source\PSoC4/SENT_TX_1_ISR.c **** }
 420              		.loc 1 329 0 is_stmt 1 discriminator 4
 421 0016 1800     		movs	r0, r3
 422 0018 BD46     		mov	sp, r7
 423              		@ sp needed
 424 001a 80BD     		pop	{r7, pc}
 425              	.L31:
 426              		.align	2
 427              	.L30:
 428 001c 00E100E0 		.word	-536813312
 429              		.cfi_endproc
 430              	.LFE9:
 431              		.size	SENT_TX_1_ISR_GetState, .-SENT_TX_1_ISR_GetState
 432              		.section	.text.SENT_TX_1_ISR_Disable,"ax",%progbits
 433              		.align	2
 434              		.global	SENT_TX_1_ISR_Disable
 435              		.code	16
 436              		.thumb_func
 437              		.type	SENT_TX_1_ISR_Disable, %function
 438              	SENT_TX_1_ISR_Disable:
 439              	.LFB10:
 330:Generated_Source\PSoC4/SENT_TX_1_ISR.c **** 
 331:Generated_Source\PSoC4/SENT_TX_1_ISR.c **** 
 332:Generated_Source\PSoC4/SENT_TX_1_ISR.c **** /*******************************************************************************
 333:Generated_Source\PSoC4/SENT_TX_1_ISR.c **** * Function Name: SENT_TX_1_ISR_Disable
 334:Generated_Source\PSoC4/SENT_TX_1_ISR.c **** ********************************************************************************
 335:Generated_Source\PSoC4/SENT_TX_1_ISR.c **** *
 336:Generated_Source\PSoC4/SENT_TX_1_ISR.c **** * Summary:
 337:Generated_Source\PSoC4/SENT_TX_1_ISR.c **** *   Disables the Interrupt in the interrupt controller.
 338:Generated_Source\PSoC4/SENT_TX_1_ISR.c **** *
 339:Generated_Source\PSoC4/SENT_TX_1_ISR.c **** * Parameters:
 340:Generated_Source\PSoC4/SENT_TX_1_ISR.c **** *   None
 341:Generated_Source\PSoC4/SENT_TX_1_ISR.c **** *
 342:Generated_Source\PSoC4/SENT_TX_1_ISR.c **** * Return:
 343:Generated_Source\PSoC4/SENT_TX_1_ISR.c **** *   None
 344:Generated_Source\PSoC4/SENT_TX_1_ISR.c **** *
 345:Generated_Source\PSoC4/SENT_TX_1_ISR.c **** *******************************************************************************/
 346:Generated_Source\PSoC4/SENT_TX_1_ISR.c **** void SENT_TX_1_ISR_Disable(void)
 347:Generated_Source\PSoC4/SENT_TX_1_ISR.c **** {
 440              		.loc 1 347 0
 441              		.cfi_startproc
 442              		@ args = 0, pretend = 0, frame = 0
 443              		@ frame_needed = 1, uses_anonymous_args = 0
 444 0000 80B5     		push	{r7, lr}
 445              		.cfi_def_cfa_offset 8
 446              		.cfi_offset 7, -8
 447              		.cfi_offset 14, -4
 448 0002 00AF     		add	r7, sp, #0
 449              		.cfi_def_cfa_register 7
 348:Generated_Source\PSoC4/SENT_TX_1_ISR.c ****     /* Disable the general interrupt. */
ARM GAS  C:\Users\Ala\AppData\Local\Temp\ccQms6bP.s 			page 15


 349:Generated_Source\PSoC4/SENT_TX_1_ISR.c ****     *SENT_TX_1_ISR_INTC_CLR_EN = SENT_TX_1_ISR__INTC_MASK;
 450              		.loc 1 349 0
 451 0004 034B     		ldr	r3, .L33
 452 0006 8022     		movs	r2, #128
 453 0008 5202     		lsls	r2, r2, #9
 454 000a 1A60     		str	r2, [r3]
 350:Generated_Source\PSoC4/SENT_TX_1_ISR.c **** }
 455              		.loc 1 350 0
 456 000c C046     		nop
 457 000e BD46     		mov	sp, r7
 458              		@ sp needed
 459 0010 80BD     		pop	{r7, pc}
 460              	.L34:
 461 0012 C046     		.align	2
 462              	.L33:
 463 0014 80E100E0 		.word	-536813184
 464              		.cfi_endproc
 465              	.LFE10:
 466              		.size	SENT_TX_1_ISR_Disable, .-SENT_TX_1_ISR_Disable
 467              		.section	.text.SENT_TX_1_ISR_SetPending,"ax",%progbits
 468              		.align	2
 469              		.global	SENT_TX_1_ISR_SetPending
 470              		.code	16
 471              		.thumb_func
 472              		.type	SENT_TX_1_ISR_SetPending, %function
 473              	SENT_TX_1_ISR_SetPending:
 474              	.LFB11:
 351:Generated_Source\PSoC4/SENT_TX_1_ISR.c **** 
 352:Generated_Source\PSoC4/SENT_TX_1_ISR.c **** 
 353:Generated_Source\PSoC4/SENT_TX_1_ISR.c **** /*******************************************************************************
 354:Generated_Source\PSoC4/SENT_TX_1_ISR.c **** * Function Name: SENT_TX_1_ISR_SetPending
 355:Generated_Source\PSoC4/SENT_TX_1_ISR.c **** ********************************************************************************
 356:Generated_Source\PSoC4/SENT_TX_1_ISR.c **** *
 357:Generated_Source\PSoC4/SENT_TX_1_ISR.c **** * Summary:
 358:Generated_Source\PSoC4/SENT_TX_1_ISR.c **** *   Causes the Interrupt to enter the pending state, a software method of
 359:Generated_Source\PSoC4/SENT_TX_1_ISR.c **** *   generating the interrupt.
 360:Generated_Source\PSoC4/SENT_TX_1_ISR.c **** *
 361:Generated_Source\PSoC4/SENT_TX_1_ISR.c **** * Parameters:
 362:Generated_Source\PSoC4/SENT_TX_1_ISR.c **** *   None
 363:Generated_Source\PSoC4/SENT_TX_1_ISR.c **** *
 364:Generated_Source\PSoC4/SENT_TX_1_ISR.c **** * Return:
 365:Generated_Source\PSoC4/SENT_TX_1_ISR.c **** *   None
 366:Generated_Source\PSoC4/SENT_TX_1_ISR.c **** *
 367:Generated_Source\PSoC4/SENT_TX_1_ISR.c **** * Side Effects:
 368:Generated_Source\PSoC4/SENT_TX_1_ISR.c **** *   If interrupts are enabled and the interrupt is set up properly, the ISR is
 369:Generated_Source\PSoC4/SENT_TX_1_ISR.c **** *   entered (depending on the priority of this interrupt and other pending 
 370:Generated_Source\PSoC4/SENT_TX_1_ISR.c **** *   interrupts).
 371:Generated_Source\PSoC4/SENT_TX_1_ISR.c **** *
 372:Generated_Source\PSoC4/SENT_TX_1_ISR.c **** *******************************************************************************/
 373:Generated_Source\PSoC4/SENT_TX_1_ISR.c **** void SENT_TX_1_ISR_SetPending(void)
 374:Generated_Source\PSoC4/SENT_TX_1_ISR.c **** {
 475              		.loc 1 374 0
 476              		.cfi_startproc
 477              		@ args = 0, pretend = 0, frame = 0
 478              		@ frame_needed = 1, uses_anonymous_args = 0
 479 0000 80B5     		push	{r7, lr}
 480              		.cfi_def_cfa_offset 8
ARM GAS  C:\Users\Ala\AppData\Local\Temp\ccQms6bP.s 			page 16


 481              		.cfi_offset 7, -8
 482              		.cfi_offset 14, -4
 483 0002 00AF     		add	r7, sp, #0
 484              		.cfi_def_cfa_register 7
 375:Generated_Source\PSoC4/SENT_TX_1_ISR.c ****     *SENT_TX_1_ISR_INTC_SET_PD = SENT_TX_1_ISR__INTC_MASK;
 485              		.loc 1 375 0
 486 0004 034B     		ldr	r3, .L36
 487 0006 8022     		movs	r2, #128
 488 0008 5202     		lsls	r2, r2, #9
 489 000a 1A60     		str	r2, [r3]
 376:Generated_Source\PSoC4/SENT_TX_1_ISR.c **** }
 490              		.loc 1 376 0
 491 000c C046     		nop
 492 000e BD46     		mov	sp, r7
 493              		@ sp needed
 494 0010 80BD     		pop	{r7, pc}
 495              	.L37:
 496 0012 C046     		.align	2
 497              	.L36:
 498 0014 00E200E0 		.word	-536813056
 499              		.cfi_endproc
 500              	.LFE11:
 501              		.size	SENT_TX_1_ISR_SetPending, .-SENT_TX_1_ISR_SetPending
 502              		.section	.text.SENT_TX_1_ISR_ClearPending,"ax",%progbits
 503              		.align	2
 504              		.global	SENT_TX_1_ISR_ClearPending
 505              		.code	16
 506              		.thumb_func
 507              		.type	SENT_TX_1_ISR_ClearPending, %function
 508              	SENT_TX_1_ISR_ClearPending:
 509              	.LFB12:
 377:Generated_Source\PSoC4/SENT_TX_1_ISR.c **** 
 378:Generated_Source\PSoC4/SENT_TX_1_ISR.c **** 
 379:Generated_Source\PSoC4/SENT_TX_1_ISR.c **** /*******************************************************************************
 380:Generated_Source\PSoC4/SENT_TX_1_ISR.c **** * Function Name: SENT_TX_1_ISR_ClearPending
 381:Generated_Source\PSoC4/SENT_TX_1_ISR.c **** ********************************************************************************
 382:Generated_Source\PSoC4/SENT_TX_1_ISR.c **** *
 383:Generated_Source\PSoC4/SENT_TX_1_ISR.c **** * Summary:
 384:Generated_Source\PSoC4/SENT_TX_1_ISR.c **** *   Clears a pending interrupt in the interrupt controller.
 385:Generated_Source\PSoC4/SENT_TX_1_ISR.c **** *
 386:Generated_Source\PSoC4/SENT_TX_1_ISR.c **** *   Note Some interrupt sources are clear-on-read and require the block 
 387:Generated_Source\PSoC4/SENT_TX_1_ISR.c **** *   interrupt/status register to be read/cleared with the appropriate block API 
 388:Generated_Source\PSoC4/SENT_TX_1_ISR.c **** *   (GPIO, UART, and so on). Otherwise the ISR will continue to remain in 
 389:Generated_Source\PSoC4/SENT_TX_1_ISR.c **** *   pending state even though the interrupt itself is cleared using this API.
 390:Generated_Source\PSoC4/SENT_TX_1_ISR.c **** *
 391:Generated_Source\PSoC4/SENT_TX_1_ISR.c **** * Parameters:
 392:Generated_Source\PSoC4/SENT_TX_1_ISR.c **** *   None
 393:Generated_Source\PSoC4/SENT_TX_1_ISR.c **** *
 394:Generated_Source\PSoC4/SENT_TX_1_ISR.c **** * Return:
 395:Generated_Source\PSoC4/SENT_TX_1_ISR.c **** *   None
 396:Generated_Source\PSoC4/SENT_TX_1_ISR.c **** *
 397:Generated_Source\PSoC4/SENT_TX_1_ISR.c **** *******************************************************************************/
 398:Generated_Source\PSoC4/SENT_TX_1_ISR.c **** void SENT_TX_1_ISR_ClearPending(void)
 399:Generated_Source\PSoC4/SENT_TX_1_ISR.c **** {
 510              		.loc 1 399 0
 511              		.cfi_startproc
 512              		@ args = 0, pretend = 0, frame = 0
ARM GAS  C:\Users\Ala\AppData\Local\Temp\ccQms6bP.s 			page 17


 513              		@ frame_needed = 1, uses_anonymous_args = 0
 514 0000 80B5     		push	{r7, lr}
 515              		.cfi_def_cfa_offset 8
 516              		.cfi_offset 7, -8
 517              		.cfi_offset 14, -4
 518 0002 00AF     		add	r7, sp, #0
 519              		.cfi_def_cfa_register 7
 400:Generated_Source\PSoC4/SENT_TX_1_ISR.c ****     *SENT_TX_1_ISR_INTC_CLR_PD = SENT_TX_1_ISR__INTC_MASK;
 520              		.loc 1 400 0
 521 0004 034B     		ldr	r3, .L39
 522 0006 8022     		movs	r2, #128
 523 0008 5202     		lsls	r2, r2, #9
 524 000a 1A60     		str	r2, [r3]
 401:Generated_Source\PSoC4/SENT_TX_1_ISR.c **** }
 525              		.loc 1 401 0
 526 000c C046     		nop
 527 000e BD46     		mov	sp, r7
 528              		@ sp needed
 529 0010 80BD     		pop	{r7, pc}
 530              	.L40:
 531 0012 C046     		.align	2
 532              	.L39:
 533 0014 80E200E0 		.word	-536812928
 534              		.cfi_endproc
 535              	.LFE12:
 536              		.size	SENT_TX_1_ISR_ClearPending, .-SENT_TX_1_ISR_ClearPending
 537              		.text
 538              	.Letext0:
 539              		.file 2 "Generated_Source\\PSoC4/cytypes.h"