ARM GAS  C:\Users\Ala\AppData\Local\Temp\cc2dsWuO.s 			page 1


   1              		.syntax unified
   2              		.cpu cortex-m0
   3              		.fpu softvfp
   4              		.eabi_attribute 20, 1
   5              		.eabi_attribute 21, 1
   6              		.eabi_attribute 23, 3
   7              		.eabi_attribute 24, 1
   8              		.eabi_attribute 25, 1
   9              		.eabi_attribute 26, 1
  10              		.eabi_attribute 30, 6
  11              		.eabi_attribute 34, 0
  12              		.eabi_attribute 18, 4
  13              		.thumb
  14              		.syntax unified
  15              		.file	"SENT_TX_1.c"
  16              		.text
  17              	.Ltext0:
  18              		.cfi_sections	.debug_frame
  19              		.global	SENT_TX_1_initVar
  20              		.bss
  21              		.type	SENT_TX_1_initVar, %object
  22              		.size	SENT_TX_1_initVar, 1
  23              	SENT_TX_1_initVar:
  24 0000 00       		.space	1
  25              		.global	SENT_TX_1_status
  26              		.type	SENT_TX_1_status, %object
  27              		.size	SENT_TX_1_status, 1
  28              	SENT_TX_1_status:
  29 0001 00       		.space	1
  30 0002 0000     		.align	2
  31              	SENT_TX_1_buf0:
  32 0004 00000000 		.space	8
  32      00000000 
  33              		.align	2
  34              	SENT_TX_1_buf1:
  35 000c 00000000 		.space	8
  35      00000000 
  36              		.align	2
  37              	SENT_TX_1_bufTx:
  38 0014 00000000 		.space	4
  39              		.align	2
  40              	SENT_TX_1_bufPr:
  41 0018 00000000 		.space	4
  42              	SENT_TX_1_idx:
  43 001c 00       		.space	1
  44              		.section	.text.SENT_TX_1_Interrupt,"ax",%progbits
  45              		.align	2
  46              		.global	SENT_TX_1_Interrupt
  47              		.code	16
  48              		.thumb_func
  49              		.type	SENT_TX_1_Interrupt, %function
  50              	SENT_TX_1_Interrupt:
  51              	.LFB4:
  52              		.file 1 "Generated_Source\\PSoC4\\SENT_TX_1.c"
   1:Generated_Source\PSoC4/SENT_TX_1.c **** /*******************************************************************************
   2:Generated_Source\PSoC4/SENT_TX_1.c **** * \file SENT_TX_1.c
   3:Generated_Source\PSoC4/SENT_TX_1.c **** * \version 1.0
ARM GAS  C:\Users\Ala\AppData\Local\Temp\cc2dsWuO.s 			page 2


   4:Generated_Source\PSoC4/SENT_TX_1.c **** *
   5:Generated_Source\PSoC4/SENT_TX_1.c **** *  This file provides all API functionality of the SENT component
   6:Generated_Source\PSoC4/SENT_TX_1.c **** *
   7:Generated_Source\PSoC4/SENT_TX_1.c **** ********************************************************************************
   8:Generated_Source\PSoC4/SENT_TX_1.c **** * \copyright
   9:Generated_Source\PSoC4/SENT_TX_1.c **** * Copyright 2017, Cypress Semiconductor Corporation.  All rights reserved.
  10:Generated_Source\PSoC4/SENT_TX_1.c **** * You may use this file only in accordance with the license, terms, conditions,
  11:Generated_Source\PSoC4/SENT_TX_1.c **** * disclaimers, and limitations in the end user license agreement accompanying
  12:Generated_Source\PSoC4/SENT_TX_1.c **** * the software package with which this file was provided.
  13:Generated_Source\PSoC4/SENT_TX_1.c **** *******************************************************************************/
  14:Generated_Source\PSoC4/SENT_TX_1.c **** 
  15:Generated_Source\PSoC4/SENT_TX_1.c **** #include "SENT_TX_1.h"
  16:Generated_Source\PSoC4/SENT_TX_1.c **** 
  17:Generated_Source\PSoC4/SENT_TX_1.c **** static uint8 SENT_TX_1_CalculateCrc(uint8 const data[]);
  18:Generated_Source\PSoC4/SENT_TX_1.c **** static void SENT_TX_1_SwapBuffers(void);
  19:Generated_Source\PSoC4/SENT_TX_1.c **** 
  20:Generated_Source\PSoC4/SENT_TX_1.c **** #if (SENT_TX_1_PAUSE_PULSE == SENT_TX_1__ENABLED)
  21:Generated_Source\PSoC4/SENT_TX_1.c ****     static uint8 SENT_TX_1_CalculatePauseData(uint8 const data[]);
  22:Generated_Source\PSoC4/SENT_TX_1.c **** #endif /* SENT_TX_1_PAUSE_PULSE == SENT_TX_1__ENABLED */
  23:Generated_Source\PSoC4/SENT_TX_1.c **** 
  24:Generated_Source\PSoC4/SENT_TX_1.c **** 
  25:Generated_Source\PSoC4/SENT_TX_1.c **** /*******************************************************************************
  26:Generated_Source\PSoC4/SENT_TX_1.c **** *   Global variables
  27:Generated_Source\PSoC4/SENT_TX_1.c **** *******************************************************************************/
  28:Generated_Source\PSoC4/SENT_TX_1.c **** 
  29:Generated_Source\PSoC4/SENT_TX_1.c **** /** The global variable that indicates the initialization status of the 
  30:Generated_Source\PSoC4/SENT_TX_1.c **** *  SENT_TX_1 component
  31:Generated_Source\PSoC4/SENT_TX_1.c **** */
  32:Generated_Source\PSoC4/SENT_TX_1.c **** uint8 SENT_TX_1_initVar = 0U;
  33:Generated_Source\PSoC4/SENT_TX_1.c **** 
  34:Generated_Source\PSoC4/SENT_TX_1.c **** /** The variable that indicates a component status, see \ref group_sent_status */
  35:Generated_Source\PSoC4/SENT_TX_1.c **** uint8 SENT_TX_1_status = SENT_TX_1_READY;
  36:Generated_Source\PSoC4/SENT_TX_1.c **** 
  37:Generated_Source\PSoC4/SENT_TX_1.c **** 
  38:Generated_Source\PSoC4/SENT_TX_1.c **** /*******************************************************************************
  39:Generated_Source\PSoC4/SENT_TX_1.c **** *       Local variables
  40:Generated_Source\PSoC4/SENT_TX_1.c **** *******************************************************************************/
  41:Generated_Source\PSoC4/SENT_TX_1.c **** 
  42:Generated_Source\PSoC4/SENT_TX_1.c **** /* The buffers that provide continuous data transmission */
  43:Generated_Source\PSoC4/SENT_TX_1.c **** static uint8 SENT_TX_1_buf0[SENT_TX_1_LAST_IDX];
  44:Generated_Source\PSoC4/SENT_TX_1.c **** static uint8 SENT_TX_1_buf1[SENT_TX_1_LAST_IDX];
  45:Generated_Source\PSoC4/SENT_TX_1.c **** 
  46:Generated_Source\PSoC4/SENT_TX_1.c **** /* The pointers to switch through the buffers */
  47:Generated_Source\PSoC4/SENT_TX_1.c **** static uint8 *SENT_TX_1_bufTx; /* Pointer to the "transfer" data buffer */
  48:Generated_Source\PSoC4/SENT_TX_1.c **** static uint8 *SENT_TX_1_bufPr; /* Pointer to the "prepare" data buffer */
  49:Generated_Source\PSoC4/SENT_TX_1.c **** 
  50:Generated_Source\PSoC4/SENT_TX_1.c **** /* The local index used to jump through pulses */
  51:Generated_Source\PSoC4/SENT_TX_1.c **** static uint8 SENT_TX_1_idx = SENT_TX_1_NEW_FRAME;
  52:Generated_Source\PSoC4/SENT_TX_1.c **** 
  53:Generated_Source\PSoC4/SENT_TX_1.c **** 
  54:Generated_Source\PSoC4/SENT_TX_1.c **** /*******************************************************************************
  55:Generated_Source\PSoC4/SENT_TX_1.c **** * Function Name: SENT_TX_1_Interrupt
  56:Generated_Source\PSoC4/SENT_TX_1.c **** ****************************************************************************//**
  57:Generated_Source\PSoC4/SENT_TX_1.c **** *
  58:Generated_Source\PSoC4/SENT_TX_1.c **** * Provides SENT transmission.
  59:Generated_Source\PSoC4/SENT_TX_1.c **** *
  60:Generated_Source\PSoC4/SENT_TX_1.c **** * This is the interrupt handler which prepares the TCPWM component for the next 
ARM GAS  C:\Users\Ala\AppData\Local\Temp\cc2dsWuO.s 			page 3


  61:Generated_Source\PSoC4/SENT_TX_1.c **** * nibble pulse generation.
  62:Generated_Source\PSoC4/SENT_TX_1.c **** *
  63:Generated_Source\PSoC4/SENT_TX_1.c **** *******************************************************************************/
  64:Generated_Source\PSoC4/SENT_TX_1.c **** CY_ISR(SENT_TX_1_Interrupt)
  65:Generated_Source\PSoC4/SENT_TX_1.c **** {
  53              		.loc 1 65 0
  54              		.cfi_startproc
  55              		@ args = 0, pretend = 0, frame = 0
  56              		@ frame_needed = 1, uses_anonymous_args = 0
  57 0000 80B5     		push	{r7, lr}
  58              		.cfi_def_cfa_offset 8
  59              		.cfi_offset 7, -8
  60              		.cfi_offset 14, -4
  61 0002 00AF     		add	r7, sp, #0
  62              		.cfi_def_cfa_register 7
  66:Generated_Source\PSoC4/SENT_TX_1.c ****     switch(SENT_TX_1_idx)
  63              		.loc 1 66 0
  64 0004 1F4B     		ldr	r3, .L7
  65 0006 1B78     		ldrb	r3, [r3]
  66 0008 0A2B     		cmp	r3, #10
  67 000a 02D0     		beq	.L3
  68 000c 0B2B     		cmp	r3, #11
  69 000e 0AD0     		beq	.L4
  70 0010 1DE0     		b	.L6
  71              	.L3:
  67:Generated_Source\PSoC4/SENT_TX_1.c ****     {
  68:Generated_Source\PSoC4/SENT_TX_1.c **** 
  69:Generated_Source\PSoC4/SENT_TX_1.c ****     #if (SENT_TX_1_TRANSMIT_MODE == SENT_TX_1__SINGLE_MODE)
  70:Generated_Source\PSoC4/SENT_TX_1.c **** 
  71:Generated_Source\PSoC4/SENT_TX_1.c ****         /* Prepare PWM to be stopped on the next PWM interrupt */
  72:Generated_Source\PSoC4/SENT_TX_1.c ****         case SENT_TX_1_PREPARE_TO_STOP_COUNTER:
  73:Generated_Source\PSoC4/SENT_TX_1.c ****         {
  74:Generated_Source\PSoC4/SENT_TX_1.c ****             SENT_TX_1_PWM_WritePeriod(SENT_TX_1_TICKS_PREP_TO_STOP);
  72              		.loc 1 74 0
  73 0012 0420     		movs	r0, #4
  74 0014 FFF7FEFF 		bl	SENT_TX_1_PWM_WritePeriod
  75:Generated_Source\PSoC4/SENT_TX_1.c ****             SENT_TX_1_PWM_WriteCompare(SENT_TX_1_COMP_PREP_TO_STOP);
  75              		.loc 1 75 0
  76 0018 0020     		movs	r0, #0
  77 001a FFF7FEFF 		bl	SENT_TX_1_PWM_WriteCompare
  76:Generated_Source\PSoC4/SENT_TX_1.c **** 
  77:Generated_Source\PSoC4/SENT_TX_1.c ****             /* Update the index value to stop the counter in the next interrupt */
  78:Generated_Source\PSoC4/SENT_TX_1.c ****             SENT_TX_1_idx = SENT_TX_1_STOP_COUNTER;
  78              		.loc 1 78 0
  79 001e 194B     		ldr	r3, .L7
  80 0020 0B22     		movs	r2, #11
  81 0022 1A70     		strb	r2, [r3]
  79:Generated_Source\PSoC4/SENT_TX_1.c ****         }
  80:Generated_Source\PSoC4/SENT_TX_1.c ****         break;
  82              		.loc 1 80 0
  83 0024 24E0     		b	.L5
  84              	.L4:
  81:Generated_Source\PSoC4/SENT_TX_1.c **** 
  82:Generated_Source\PSoC4/SENT_TX_1.c ****         /* One frame transmission was done (Single mode). Stop the PWM and 
  83:Generated_Source\PSoC4/SENT_TX_1.c ****         *  prepare the PWM to sent new frame
  84:Generated_Source\PSoC4/SENT_TX_1.c ****         */
  85:Generated_Source\PSoC4/SENT_TX_1.c ****         case SENT_TX_1_STOP_COUNTER:
ARM GAS  C:\Users\Ala\AppData\Local\Temp\cc2dsWuO.s 			page 4


  86:Generated_Source\PSoC4/SENT_TX_1.c ****         {
  87:Generated_Source\PSoC4/SENT_TX_1.c ****             SENT_TX_1_PWM_TriggerCommand(SENT_TX_1_PWM_MASK, SENT_TX_1_PWM_CMD_STOP);
  85              		.loc 1 87 0
  86 0026 1021     		movs	r1, #16
  87 0028 0120     		movs	r0, #1
  88 002a FFF7FEFF 		bl	SENT_TX_1_PWM_TriggerCommand
  88:Generated_Source\PSoC4/SENT_TX_1.c **** 
  89:Generated_Source\PSoC4/SENT_TX_1.c ****             /* Prepare PWM to sent sync pulse if new frame transmission would be
  90:Generated_Source\PSoC4/SENT_TX_1.c ****             *  requested.
  91:Generated_Source\PSoC4/SENT_TX_1.c ****             */
  92:Generated_Source\PSoC4/SENT_TX_1.c ****             SENT_TX_1_PWM_WritePeriod(SENT_TX_1_SYNC_TICKS - 1U);
  89              		.loc 1 92 0
  90 002e 3720     		movs	r0, #55
  91 0030 FFF7FEFF 		bl	SENT_TX_1_PWM_WritePeriod
  93:Generated_Source\PSoC4/SENT_TX_1.c ****             
  94:Generated_Source\PSoC4/SENT_TX_1.c ****             /* Clear all required PWM registers */
  95:Generated_Source\PSoC4/SENT_TX_1.c ****             SENT_TX_1_PWM_WriteCompare(0U);
  92              		.loc 1 95 0
  93 0034 0020     		movs	r0, #0
  94 0036 FFF7FEFF 		bl	SENT_TX_1_PWM_WriteCompare
  96:Generated_Source\PSoC4/SENT_TX_1.c ****             SENT_TX_1_PWM_WriteCounter(0U);
  95              		.loc 1 96 0
  96 003a 0020     		movs	r0, #0
  97 003c FFF7FEFF 		bl	SENT_TX_1_PWM_WriteCounter
  97:Generated_Source\PSoC4/SENT_TX_1.c ****             SENT_TX_1_PWM_WritePeriodBuf(0U);
  98              		.loc 1 97 0
  99 0040 0020     		movs	r0, #0
 100 0042 FFF7FEFF 		bl	SENT_TX_1_PWM_WritePeriodBuf
  98:Generated_Source\PSoC4/SENT_TX_1.c **** 
  99:Generated_Source\PSoC4/SENT_TX_1.c ****             SENT_TX_1_status = SENT_TX_1_READY;
 101              		.loc 1 99 0
 102 0046 104B     		ldr	r3, .L7+4
 103 0048 0022     		movs	r2, #0
 104 004a 1A70     		strb	r2, [r3]
 100:Generated_Source\PSoC4/SENT_TX_1.c ****         }
 101:Generated_Source\PSoC4/SENT_TX_1.c ****         break;
 105              		.loc 1 101 0
 106 004c 10E0     		b	.L5
 107              	.L6:
 102:Generated_Source\PSoC4/SENT_TX_1.c ****     #else
 103:Generated_Source\PSoC4/SENT_TX_1.c **** 
 104:Generated_Source\PSoC4/SENT_TX_1.c ****         /* One frame transmission was done (Continuous mode). If new data is 
 105:Generated_Source\PSoC4/SENT_TX_1.c ****         *  ready swap the buffers, and send the sync pulse
 106:Generated_Source\PSoC4/SENT_TX_1.c ****         */
 107:Generated_Source\PSoC4/SENT_TX_1.c ****         case SENT_TX_1_END_OF_FRAME:
 108:Generated_Source\PSoC4/SENT_TX_1.c ****         {
 109:Generated_Source\PSoC4/SENT_TX_1.c ****             SENT_TX_1_PWM_WriteCompare(SENT_TX_1_PWM_LOW_TICKS);
 110:Generated_Source\PSoC4/SENT_TX_1.c ****             SENT_TX_1_idx = SENT_TX_1_NEW_FRAME;
 111:Generated_Source\PSoC4/SENT_TX_1.c **** 
 112:Generated_Source\PSoC4/SENT_TX_1.c ****             /* Check for the new data available */
 113:Generated_Source\PSoC4/SENT_TX_1.c ****             if (SENT_TX_1_status == SENT_TX_1_BUSY)
 114:Generated_Source\PSoC4/SENT_TX_1.c ****             {
 115:Generated_Source\PSoC4/SENT_TX_1.c ****                 SENT_TX_1_SwapBuffers();
 116:Generated_Source\PSoC4/SENT_TX_1.c ****                 SENT_TX_1_status = SENT_TX_1_READY;
 117:Generated_Source\PSoC4/SENT_TX_1.c ****             }
 118:Generated_Source\PSoC4/SENT_TX_1.c **** 
 119:Generated_Source\PSoC4/SENT_TX_1.c ****             SENT_TX_1_PWM_WritePeriodBuf(SENT_TX_1_SYNC_TICKS - 1U);
ARM GAS  C:\Users\Ala\AppData\Local\Temp\cc2dsWuO.s 			page 5


 120:Generated_Source\PSoC4/SENT_TX_1.c **** 
 121:Generated_Source\PSoC4/SENT_TX_1.c ****         }
 122:Generated_Source\PSoC4/SENT_TX_1.c ****         break;
 123:Generated_Source\PSoC4/SENT_TX_1.c ****     #endif /* SENT_TX_1_TRANSMIT_MODE == SENT_TX_1__SINGLE_MODE */
 124:Generated_Source\PSoC4/SENT_TX_1.c **** 
 125:Generated_Source\PSoC4/SENT_TX_1.c ****         /* The default case indicates that message sending is in progress and 
 126:Generated_Source\PSoC4/SENT_TX_1.c ****         *  the next nibble pulse should be prepared
 127:Generated_Source\PSoC4/SENT_TX_1.c ****         */
 128:Generated_Source\PSoC4/SENT_TX_1.c ****         default:
 129:Generated_Source\PSoC4/SENT_TX_1.c ****         {
 130:Generated_Source\PSoC4/SENT_TX_1.c ****             SENT_TX_1_PWM_WritePeriodBuf((SENT_TX_1_ZERO_TICKS - 1U) + 
 131:Generated_Source\PSoC4/SENT_TX_1.c ****             (uint32) SENT_TX_1_bufTx[SENT_TX_1_idx]);
 108              		.loc 1 131 0
 109 004e 0F4B     		ldr	r3, .L7+8
 110 0050 1B68     		ldr	r3, [r3]
 111 0052 0C4A     		ldr	r2, .L7
 112 0054 1278     		ldrb	r2, [r2]
 113 0056 9B18     		adds	r3, r3, r2
 114 0058 1B78     		ldrb	r3, [r3]
 130:Generated_Source\PSoC4/SENT_TX_1.c ****             (uint32) SENT_TX_1_bufTx[SENT_TX_1_idx]);
 115              		.loc 1 130 0
 116 005a 0B33     		adds	r3, r3, #11
 117 005c 1800     		movs	r0, r3
 118 005e FFF7FEFF 		bl	SENT_TX_1_PWM_WritePeriodBuf
 132:Generated_Source\PSoC4/SENT_TX_1.c **** 
 133:Generated_Source\PSoC4/SENT_TX_1.c ****             ++SENT_TX_1_idx;
 119              		.loc 1 133 0
 120 0062 084B     		ldr	r3, .L7
 121 0064 1B78     		ldrb	r3, [r3]
 122 0066 0133     		adds	r3, r3, #1
 123 0068 DAB2     		uxtb	r2, r3
 124 006a 064B     		ldr	r3, .L7
 125 006c 1A70     		strb	r2, [r3]
 134:Generated_Source\PSoC4/SENT_TX_1.c ****         }
 135:Generated_Source\PSoC4/SENT_TX_1.c ****         break;
 126              		.loc 1 135 0
 127 006e C046     		nop
 128              	.L5:
 136:Generated_Source\PSoC4/SENT_TX_1.c ****     }
 137:Generated_Source\PSoC4/SENT_TX_1.c ****     /* Set a switch trigger flag in the TCPWM trigger register */
 138:Generated_Source\PSoC4/SENT_TX_1.c ****     SENT_TX_1_PWM_TriggerCommand(SENT_TX_1_PWM_MASK, SENT_TX_1_PWM_CMD_CAPTURE);
 129              		.loc 1 138 0
 130 0070 0021     		movs	r1, #0
 131 0072 0120     		movs	r0, #1
 132 0074 FFF7FEFF 		bl	SENT_TX_1_PWM_TriggerCommand
 139:Generated_Source\PSoC4/SENT_TX_1.c **** 
 140:Generated_Source\PSoC4/SENT_TX_1.c ****     /* Clear the interrupt pending flag*/
 141:Generated_Source\PSoC4/SENT_TX_1.c ****     SENT_TX_1_PWM_ClearInterrupt(SENT_TX_1_PWM_INTR_MASK_TC);
 133              		.loc 1 141 0
 134 0078 0120     		movs	r0, #1
 135 007a FFF7FEFF 		bl	SENT_TX_1_PWM_ClearInterrupt
 142:Generated_Source\PSoC4/SENT_TX_1.c **** }
 136              		.loc 1 142 0
 137 007e C046     		nop
 138 0080 BD46     		mov	sp, r7
 139              		@ sp needed
 140 0082 80BD     		pop	{r7, pc}
ARM GAS  C:\Users\Ala\AppData\Local\Temp\cc2dsWuO.s 			page 6


 141              	.L8:
 142              		.align	2
 143              	.L7:
 144 0084 1C000000 		.word	SENT_TX_1_idx
 145 0088 00000000 		.word	SENT_TX_1_status
 146 008c 14000000 		.word	SENT_TX_1_bufTx
 147              		.cfi_endproc
 148              	.LFE4:
 149              		.size	SENT_TX_1_Interrupt, .-SENT_TX_1_Interrupt
 150              		.section	.text.SENT_TX_1_Init,"ax",%progbits
 151              		.align	2
 152              		.global	SENT_TX_1_Init
 153              		.code	16
 154              		.thumb_func
 155              		.type	SENT_TX_1_Init, %function
 156              	SENT_TX_1_Init:
 157              	.LFB5:
 143:Generated_Source\PSoC4/SENT_TX_1.c **** 
 144:Generated_Source\PSoC4/SENT_TX_1.c **** 
 145:Generated_Source\PSoC4/SENT_TX_1.c **** /*******************************************************************************
 146:Generated_Source\PSoC4/SENT_TX_1.c **** * Function Name: SENT_TX_1_Init
 147:Generated_Source\PSoC4/SENT_TX_1.c **** ****************************************************************************//**
 148:Generated_Source\PSoC4/SENT_TX_1.c **** *
 149:Generated_Source\PSoC4/SENT_TX_1.c **** * Initialize/Restore default SENT_TX_1 configuration.
 150:Generated_Source\PSoC4/SENT_TX_1.c **** *
 151:Generated_Source\PSoC4/SENT_TX_1.c **** *******************************************************************************/
 152:Generated_Source\PSoC4/SENT_TX_1.c **** void   SENT_TX_1_Init(void)
 153:Generated_Source\PSoC4/SENT_TX_1.c **** {
 158              		.loc 1 153 0
 159              		.cfi_startproc
 160              		@ args = 0, pretend = 0, frame = 0
 161              		@ frame_needed = 1, uses_anonymous_args = 0
 162 0000 80B5     		push	{r7, lr}
 163              		.cfi_def_cfa_offset 8
 164              		.cfi_offset 7, -8
 165              		.cfi_offset 14, -4
 166 0002 00AF     		add	r7, sp, #0
 167              		.cfi_def_cfa_register 7
 154:Generated_Source\PSoC4/SENT_TX_1.c ****     SENT_TX_1_CLK_SetDividerValue(SENT_TX_1_CLOCK_DIVIDER);
 168              		.loc 1 154 0
 169 0004 0021     		movs	r1, #0
 170 0006 4720     		movs	r0, #71
 171 0008 FFF7FEFF 		bl	SENT_TX_1_CLK_SetFractionalDividerRegister
 155:Generated_Source\PSoC4/SENT_TX_1.c ****     
 156:Generated_Source\PSoC4/SENT_TX_1.c ****     SENT_TX_1_PWM_Init();
 172              		.loc 1 156 0
 173 000c FFF7FEFF 		bl	SENT_TX_1_PWM_Init
 157:Generated_Source\PSoC4/SENT_TX_1.c ****     SENT_TX_1_ISR_StartEx(&SENT_TX_1_Interrupt);
 174              		.loc 1 157 0
 175 0010 034B     		ldr	r3, .L10
 176 0012 1800     		movs	r0, r3
 177 0014 FFF7FEFF 		bl	SENT_TX_1_ISR_StartEx
 158:Generated_Source\PSoC4/SENT_TX_1.c **** }
 178              		.loc 1 158 0
 179 0018 C046     		nop
 180 001a BD46     		mov	sp, r7
 181              		@ sp needed
ARM GAS  C:\Users\Ala\AppData\Local\Temp\cc2dsWuO.s 			page 7


 182 001c 80BD     		pop	{r7, pc}
 183              	.L11:
 184 001e C046     		.align	2
 185              	.L10:
 186 0020 00000000 		.word	SENT_TX_1_Interrupt
 187              		.cfi_endproc
 188              	.LFE5:
 189              		.size	SENT_TX_1_Init, .-SENT_TX_1_Init
 190              		.section	.text.SENT_TX_1_Start,"ax",%progbits
 191              		.align	2
 192              		.global	SENT_TX_1_Start
 193              		.code	16
 194              		.thumb_func
 195              		.type	SENT_TX_1_Start, %function
 196              	SENT_TX_1_Start:
 197              	.LFB6:
 159:Generated_Source\PSoC4/SENT_TX_1.c **** 
 160:Generated_Source\PSoC4/SENT_TX_1.c **** 
 161:Generated_Source\PSoC4/SENT_TX_1.c **** /*******************************************************************************
 162:Generated_Source\PSoC4/SENT_TX_1.c **** * Function Name: SENT_TX_1_Start
 163:Generated_Source\PSoC4/SENT_TX_1.c **** ****************************************************************************//**
 164:Generated_Source\PSoC4/SENT_TX_1.c **** *
 165:Generated_Source\PSoC4/SENT_TX_1.c **** * Initializes SENT_TX_1 with default customizer values when called
 166:Generated_Source\PSoC4/SENT_TX_1.c **** * the first time and enables SENT_TX_1.
 167:Generated_Source\PSoC4/SENT_TX_1.c **** * For subsequent calls the configuration is left unchanged and only the 
 168:Generated_Source\PSoC4/SENT_TX_1.c **** * component is enabled.
 169:Generated_Source\PSoC4/SENT_TX_1.c **** *
 170:Generated_Source\PSoC4/SENT_TX_1.c **** * \param data
 171:Generated_Source\PSoC4/SENT_TX_1.c **** * The pointer to the uint8 array of length SENT_TX_1_USER_NIBBLES, where
 172:Generated_Source\PSoC4/SENT_TX_1.c **** * the 1st byte is the status nibble and the next 6 bytes are data nibbles.
 173:Generated_Source\PSoC4/SENT_TX_1.c **** *
 174:Generated_Source\PSoC4/SENT_TX_1.c **** * \globalvars 
 175:Generated_Source\PSoC4/SENT_TX_1.c **** * \ref SENT_TX_1_initVar
 176:Generated_Source\PSoC4/SENT_TX_1.c **** *
 177:Generated_Source\PSoC4/SENT_TX_1.c **** * Note each call of SENT_TX_1_Start() will restart the counter and the 
 178:Generated_Source\PSoC4/SENT_TX_1.c **** * message will be transmitted from the first nibble.
 179:Generated_Source\PSoC4/SENT_TX_1.c **** *
 180:Generated_Source\PSoC4/SENT_TX_1.c **** *******************************************************************************/
 181:Generated_Source\PSoC4/SENT_TX_1.c **** void SENT_TX_1_Start(uint8 const data[]) 
 182:Generated_Source\PSoC4/SENT_TX_1.c **** {
 198              		.loc 1 182 0
 199              		.cfi_startproc
 200              		@ args = 0, pretend = 0, frame = 8
 201              		@ frame_needed = 1, uses_anonymous_args = 0
 202 0000 80B5     		push	{r7, lr}
 203              		.cfi_def_cfa_offset 8
 204              		.cfi_offset 7, -8
 205              		.cfi_offset 14, -4
 206 0002 82B0     		sub	sp, sp, #8
 207              		.cfi_def_cfa_offset 16
 208 0004 00AF     		add	r7, sp, #0
 209              		.cfi_def_cfa_register 7
 210 0006 7860     		str	r0, [r7, #4]
 183:Generated_Source\PSoC4/SENT_TX_1.c ****     if (SENT_TX_1_initVar == 0U)
 211              		.loc 1 183 0
 212 0008 104B     		ldr	r3, .L14
 213 000a 1B78     		ldrb	r3, [r3]
ARM GAS  C:\Users\Ala\AppData\Local\Temp\cc2dsWuO.s 			page 8


 214 000c 002B     		cmp	r3, #0
 215 000e 04D1     		bne	.L13
 184:Generated_Source\PSoC4/SENT_TX_1.c ****     {
 185:Generated_Source\PSoC4/SENT_TX_1.c ****         SENT_TX_1_Init();
 216              		.loc 1 185 0
 217 0010 FFF7FEFF 		bl	SENT_TX_1_Init
 186:Generated_Source\PSoC4/SENT_TX_1.c ****         SENT_TX_1_initVar = 1U; 
 218              		.loc 1 186 0
 219 0014 0D4B     		ldr	r3, .L14
 220 0016 0122     		movs	r2, #1
 221 0018 1A70     		strb	r2, [r3]
 222              	.L13:
 187:Generated_Source\PSoC4/SENT_TX_1.c ****     }
 188:Generated_Source\PSoC4/SENT_TX_1.c **** 
 189:Generated_Source\PSoC4/SENT_TX_1.c ****     SENT_TX_1_bufPr = SENT_TX_1_buf0;
 223              		.loc 1 189 0
 224 001a 0D4B     		ldr	r3, .L14+4
 225 001c 0D4A     		ldr	r2, .L14+8
 226 001e 1A60     		str	r2, [r3]
 190:Generated_Source\PSoC4/SENT_TX_1.c ****     SENT_TX_1_UpdateData(data);
 227              		.loc 1 190 0
 228 0020 7B68     		ldr	r3, [r7, #4]
 229 0022 1800     		movs	r0, r3
 230 0024 FFF7FEFF 		bl	SENT_TX_1_UpdateData
 191:Generated_Source\PSoC4/SENT_TX_1.c **** 
 192:Generated_Source\PSoC4/SENT_TX_1.c ****     SENT_TX_1_bufTx = SENT_TX_1_buf0;
 231              		.loc 1 192 0
 232 0028 0B4B     		ldr	r3, .L14+12
 233 002a 0A4A     		ldr	r2, .L14+8
 234 002c 1A60     		str	r2, [r3]
 193:Generated_Source\PSoC4/SENT_TX_1.c ****     SENT_TX_1_bufPr = SENT_TX_1_buf1;
 235              		.loc 1 193 0
 236 002e 084B     		ldr	r3, .L14+4
 237 0030 0A4A     		ldr	r2, .L14+16
 238 0032 1A60     		str	r2, [r3]
 194:Generated_Source\PSoC4/SENT_TX_1.c **** 
 195:Generated_Source\PSoC4/SENT_TX_1.c **** #if (SENT_TX_1_TRANSMIT_MODE != SENT_TX_1__SINGLE_MODE)
 196:Generated_Source\PSoC4/SENT_TX_1.c ****     SENT_TX_1_status = SENT_TX_1_READY;
 197:Generated_Source\PSoC4/SENT_TX_1.c **** #endif /* SENT_TX_1_TRANSMIT_MODE != SENT_TX_1__SINGLE_MODE */
 198:Generated_Source\PSoC4/SENT_TX_1.c **** 
 199:Generated_Source\PSoC4/SENT_TX_1.c ****     /* Reset a SENT_TX interrupt state machine */
 200:Generated_Source\PSoC4/SENT_TX_1.c ****     SENT_TX_1_idx = SENT_TX_1_NEW_FRAME;
 239              		.loc 1 200 0
 240 0034 0A4B     		ldr	r3, .L14+20
 241 0036 0022     		movs	r2, #0
 242 0038 1A70     		strb	r2, [r3]
 201:Generated_Source\PSoC4/SENT_TX_1.c ****     SENT_TX_1_PWM_WritePeriod(SENT_TX_1_SYNC_TICKS - 1U);
 243              		.loc 1 201 0
 244 003a 3720     		movs	r0, #55
 245 003c FFF7FEFF 		bl	SENT_TX_1_PWM_WritePeriod
 202:Generated_Source\PSoC4/SENT_TX_1.c ****     
 203:Generated_Source\PSoC4/SENT_TX_1.c ****     /* Enable the PWM component */
 204:Generated_Source\PSoC4/SENT_TX_1.c ****     SENT_TX_1_PWM_Enable();
 246              		.loc 1 204 0
 247 0040 FFF7FEFF 		bl	SENT_TX_1_PWM_Enable
 205:Generated_Source\PSoC4/SENT_TX_1.c **** }
 248              		.loc 1 205 0
ARM GAS  C:\Users\Ala\AppData\Local\Temp\cc2dsWuO.s 			page 9


 249 0044 C046     		nop
 250 0046 BD46     		mov	sp, r7
 251 0048 02B0     		add	sp, sp, #8
 252              		@ sp needed
 253 004a 80BD     		pop	{r7, pc}
 254              	.L15:
 255              		.align	2
 256              	.L14:
 257 004c 00000000 		.word	SENT_TX_1_initVar
 258 0050 18000000 		.word	SENT_TX_1_bufPr
 259 0054 04000000 		.word	SENT_TX_1_buf0
 260 0058 14000000 		.word	SENT_TX_1_bufTx
 261 005c 0C000000 		.word	SENT_TX_1_buf1
 262 0060 1C000000 		.word	SENT_TX_1_idx
 263              		.cfi_endproc
 264              	.LFE6:
 265              		.size	SENT_TX_1_Start, .-SENT_TX_1_Start
 266              		.section	.text.SENT_TX_1_UpdateData,"ax",%progbits
 267              		.align	2
 268              		.global	SENT_TX_1_UpdateData
 269              		.code	16
 270              		.thumb_func
 271              		.type	SENT_TX_1_UpdateData, %function
 272              	SENT_TX_1_UpdateData:
 273              	.LFB7:
 206:Generated_Source\PSoC4/SENT_TX_1.c **** 
 207:Generated_Source\PSoC4/SENT_TX_1.c **** 
 208:Generated_Source\PSoC4/SENT_TX_1.c **** /*******************************************************************************
 209:Generated_Source\PSoC4/SENT_TX_1.c **** * Function Name: SENT_TX_1_UpdateData
 210:Generated_Source\PSoC4/SENT_TX_1.c **** ****************************************************************************//**
 211:Generated_Source\PSoC4/SENT_TX_1.c **** *
 212:Generated_Source\PSoC4/SENT_TX_1.c **** * Writes the frame with new data into the transfer buffer.
 213:Generated_Source\PSoC4/SENT_TX_1.c **** *
 214:Generated_Source\PSoC4/SENT_TX_1.c **** * \param data
 215:Generated_Source\PSoC4/SENT_TX_1.c **** * The pointer to the uint8 array of length SENT_TX_1_USER_NIBBLES, where
 216:Generated_Source\PSoC4/SENT_TX_1.c **** * the first byte is the status nibble and the next six bytes are data nibbles.
 217:Generated_Source\PSoC4/SENT_TX_1.c **** *
 218:Generated_Source\PSoC4/SENT_TX_1.c **** *******************************************************************************/
 219:Generated_Source\PSoC4/SENT_TX_1.c **** void SENT_TX_1_UpdateData(uint8 const data[])
 220:Generated_Source\PSoC4/SENT_TX_1.c **** {
 274              		.loc 1 220 0
 275              		.cfi_startproc
 276              		@ args = 0, pretend = 0, frame = 16
 277              		@ frame_needed = 1, uses_anonymous_args = 0
 278 0000 90B5     		push	{r4, r7, lr}
 279              		.cfi_def_cfa_offset 12
 280              		.cfi_offset 4, -12
 281              		.cfi_offset 7, -8
 282              		.cfi_offset 14, -4
 283 0002 85B0     		sub	sp, sp, #20
 284              		.cfi_def_cfa_offset 32
 285 0004 00AF     		add	r7, sp, #0
 286              		.cfi_def_cfa_register 7
 287 0006 7860     		str	r0, [r7, #4]
 221:Generated_Source\PSoC4/SENT_TX_1.c ****     uint8 i;
 222:Generated_Source\PSoC4/SENT_TX_1.c **** 
 223:Generated_Source\PSoC4/SENT_TX_1.c ****     SENT_TX_1_status = SENT_TX_1_READY;
ARM GAS  C:\Users\Ala\AppData\Local\Temp\cc2dsWuO.s 			page 10


 288              		.loc 1 223 0
 289 0008 264B     		ldr	r3, .L23
 290 000a 0022     		movs	r2, #0
 291 000c 1A70     		strb	r2, [r3]
 224:Generated_Source\PSoC4/SENT_TX_1.c **** 
 225:Generated_Source\PSoC4/SENT_TX_1.c ****     /* Check for the "prepare" data buffer allocation */
 226:Generated_Source\PSoC4/SENT_TX_1.c ****     if (SENT_TX_1_bufPr != NULL)
 292              		.loc 1 226 0
 293 000e 264B     		ldr	r3, .L23+4
 294 0010 1B68     		ldr	r3, [r3]
 295 0012 002B     		cmp	r3, #0
 296 0014 3ED0     		beq	.L17
 227:Generated_Source\PSoC4/SENT_TX_1.c ****     {
 228:Generated_Source\PSoC4/SENT_TX_1.c ****         for(i = 0U; i < SENT_TX_1_USER_NIBBLES; i++)
 297              		.loc 1 228 0
 298 0016 0F23     		movs	r3, #15
 299 0018 FB18     		adds	r3, r7, r3
 300 001a 0022     		movs	r2, #0
 301 001c 1A70     		strb	r2, [r3]
 302 001e 16E0     		b	.L18
 303              	.L19:
 229:Generated_Source\PSoC4/SENT_TX_1.c ****         {
 230:Generated_Source\PSoC4/SENT_TX_1.c ****             SENT_TX_1_bufPr[i] = data[i] & SENT_TX_1_NIBBLE_MASK;
 304              		.loc 1 230 0 discriminator 3
 305 0020 214B     		ldr	r3, .L23+4
 306 0022 1A68     		ldr	r2, [r3]
 307 0024 0F23     		movs	r3, #15
 308 0026 FB18     		adds	r3, r7, r3
 309 0028 1B78     		ldrb	r3, [r3]
 310 002a D318     		adds	r3, r2, r3
 311 002c 0F22     		movs	r2, #15
 312 002e BA18     		adds	r2, r7, r2
 313 0030 1278     		ldrb	r2, [r2]
 314 0032 7968     		ldr	r1, [r7, #4]
 315 0034 8A18     		adds	r2, r1, r2
 316 0036 1278     		ldrb	r2, [r2]
 317 0038 0F21     		movs	r1, #15
 318 003a 0A40     		ands	r2, r1
 319 003c D2B2     		uxtb	r2, r2
 320 003e 1A70     		strb	r2, [r3]
 228:Generated_Source\PSoC4/SENT_TX_1.c ****         {
 321              		.loc 1 228 0 discriminator 3
 322 0040 0F23     		movs	r3, #15
 323 0042 FB18     		adds	r3, r7, r3
 324 0044 1A78     		ldrb	r2, [r3]
 325 0046 0F23     		movs	r3, #15
 326 0048 FB18     		adds	r3, r7, r3
 327 004a 0132     		adds	r2, r2, #1
 328 004c 1A70     		strb	r2, [r3]
 329              	.L18:
 228:Generated_Source\PSoC4/SENT_TX_1.c ****         {
 330              		.loc 1 228 0 is_stmt 0 discriminator 1
 331 004e 0F23     		movs	r3, #15
 332 0050 FB18     		adds	r3, r7, r3
 333 0052 1B78     		ldrb	r3, [r3]
 334 0054 062B     		cmp	r3, #6
 335 0056 E3D9     		bls	.L19
ARM GAS  C:\Users\Ala\AppData\Local\Temp\cc2dsWuO.s 			page 11


 231:Generated_Source\PSoC4/SENT_TX_1.c ****         }
 232:Generated_Source\PSoC4/SENT_TX_1.c **** 
 233:Generated_Source\PSoC4/SENT_TX_1.c ****         SENT_TX_1_bufPr[SENT_TX_1_CRC_IDX] = SENT_TX_1_CalculateCrc(SENT_TX_1_bufPr);
 336              		.loc 1 233 0 is_stmt 1
 337 0058 134B     		ldr	r3, .L23+4
 338 005a 1B68     		ldr	r3, [r3]
 339 005c DC1D     		adds	r4, r3, #7
 340 005e 124B     		ldr	r3, .L23+4
 341 0060 1B68     		ldr	r3, [r3]
 342 0062 1800     		movs	r0, r3
 343 0064 FFF7FEFF 		bl	SENT_TX_1_CalculateCrc
 344 0068 0300     		movs	r3, r0
 345 006a 2370     		strb	r3, [r4]
 234:Generated_Source\PSoC4/SENT_TX_1.c **** 
 235:Generated_Source\PSoC4/SENT_TX_1.c ****     #if (SENT_TX_1_PAUSE_PULSE == SENT_TX_1__ENABLED)
 236:Generated_Source\PSoC4/SENT_TX_1.c **** 
 237:Generated_Source\PSoC4/SENT_TX_1.c ****         /* Calculate pause pulse value */
 238:Generated_Source\PSoC4/SENT_TX_1.c ****         SENT_TX_1_bufPr[SENT_TX_1_PAUSE_IDX] = 
 239:Generated_Source\PSoC4/SENT_TX_1.c ****         SENT_TX_1_CalculatePauseData(SENT_TX_1_bufPr);
 240:Generated_Source\PSoC4/SENT_TX_1.c ****     #endif /* SENT_TX_1_PAUSE_PULSE == SENT_TX_1__ENABLED */
 241:Generated_Source\PSoC4/SENT_TX_1.c **** 
 242:Generated_Source\PSoC4/SENT_TX_1.c ****     #if (SENT_TX_1_TRANSMIT_MODE == SENT_TX_1__SINGLE_MODE)
 243:Generated_Source\PSoC4/SENT_TX_1.c **** 
 244:Generated_Source\PSoC4/SENT_TX_1.c ****         /* Restart the PWM (Single mode), swap the buffers for the new frame
 245:Generated_Source\PSoC4/SENT_TX_1.c ****         *  transition
 246:Generated_Source\PSoC4/SENT_TX_1.c ****         */
 247:Generated_Source\PSoC4/SENT_TX_1.c ****         if (SENT_TX_1_idx == SENT_TX_1_STOP_COUNTER)
 346              		.loc 1 247 0
 347 006c 0F4B     		ldr	r3, .L23+8
 348 006e 1B78     		ldrb	r3, [r3]
 349 0070 0B2B     		cmp	r3, #11
 350 0072 0BD1     		bne	.L20
 248:Generated_Source\PSoC4/SENT_TX_1.c ****         {
 249:Generated_Source\PSoC4/SENT_TX_1.c ****             SENT_TX_1_idx = SENT_TX_1_NEW_FRAME;
 351              		.loc 1 249 0
 352 0074 0D4B     		ldr	r3, .L23+8
 353 0076 0022     		movs	r2, #0
 354 0078 1A70     		strb	r2, [r3]
 250:Generated_Source\PSoC4/SENT_TX_1.c ****             SENT_TX_1_SwapBuffers();
 355              		.loc 1 250 0
 356 007a FFF7FEFF 		bl	SENT_TX_1_SwapBuffers
 251:Generated_Source\PSoC4/SENT_TX_1.c **** 
 252:Generated_Source\PSoC4/SENT_TX_1.c ****             SENT_TX_1_PWM_WriteCompare(SENT_TX_1_PWM_LOW_TICKS);
 357              		.loc 1 252 0
 358 007e 0520     		movs	r0, #5
 359 0080 FFF7FEFF 		bl	SENT_TX_1_PWM_WriteCompare
 253:Generated_Source\PSoC4/SENT_TX_1.c ****             SENT_TX_1_PWM_TriggerCommand(SENT_TX_1_PWM_MASK, SENT_TX_1_PWM_CMD_START);
 360              		.loc 1 253 0
 361 0084 1821     		movs	r1, #24
 362 0086 0120     		movs	r0, #1
 363 0088 FFF7FEFF 		bl	SENT_TX_1_PWM_TriggerCommand
 364              	.L20:
 254:Generated_Source\PSoC4/SENT_TX_1.c ****         }
 255:Generated_Source\PSoC4/SENT_TX_1.c ****     #endif /* SENT_TX_1_TRANSMIT_MODE == SENT_TX_1__SINGLE_MODE */ 
 256:Generated_Source\PSoC4/SENT_TX_1.c **** 
 257:Generated_Source\PSoC4/SENT_TX_1.c ****         SENT_TX_1_status = SENT_TX_1_BUSY;
 365              		.loc 1 257 0
ARM GAS  C:\Users\Ala\AppData\Local\Temp\cc2dsWuO.s 			page 12


 366 008c 054B     		ldr	r3, .L23
 367 008e 0122     		movs	r2, #1
 368 0090 1A70     		strb	r2, [r3]
 258:Generated_Source\PSoC4/SENT_TX_1.c ****     }
 259:Generated_Source\PSoC4/SENT_TX_1.c ****     else
 260:Generated_Source\PSoC4/SENT_TX_1.c ****     {
 261:Generated_Source\PSoC4/SENT_TX_1.c ****        CYASSERT(0U != 0U);
 262:Generated_Source\PSoC4/SENT_TX_1.c ****     }
 263:Generated_Source\PSoC4/SENT_TX_1.c **** }
 369              		.loc 1 263 0
 370 0092 02E0     		b	.L22
 371              	.L17:
 261:Generated_Source\PSoC4/SENT_TX_1.c ****     }
 372              		.loc 1 261 0 discriminator 1
 373 0094 0020     		movs	r0, #0
 374 0096 FFF7FEFF 		bl	CyHalt
 375              	.L22:
 376              		.loc 1 263 0
 377 009a C046     		nop
 378 009c BD46     		mov	sp, r7
 379 009e 05B0     		add	sp, sp, #20
 380              		@ sp needed
 381 00a0 90BD     		pop	{r4, r7, pc}
 382              	.L24:
 383 00a2 C046     		.align	2
 384              	.L23:
 385 00a4 00000000 		.word	SENT_TX_1_status
 386 00a8 18000000 		.word	SENT_TX_1_bufPr
 387 00ac 1C000000 		.word	SENT_TX_1_idx
 388              		.cfi_endproc
 389              	.LFE7:
 390              		.size	SENT_TX_1_UpdateData, .-SENT_TX_1_UpdateData
 391              		.section	.text.SENT_TX_1_CalculateCrc,"ax",%progbits
 392              		.align	2
 393              		.code	16
 394              		.thumb_func
 395              		.type	SENT_TX_1_CalculateCrc, %function
 396              	SENT_TX_1_CalculateCrc:
 397              	.LFB8:
 264:Generated_Source\PSoC4/SENT_TX_1.c **** 
 265:Generated_Source\PSoC4/SENT_TX_1.c **** 
 266:Generated_Source\PSoC4/SENT_TX_1.c **** /*******************************************************************************
 267:Generated_Source\PSoC4/SENT_TX_1.c **** * Function Name: SENT_TX_1_CalculateCrc
 268:Generated_Source\PSoC4/SENT_TX_1.c **** ****************************************************************************//**
 269:Generated_Source\PSoC4/SENT_TX_1.c **** *
 270:Generated_Source\PSoC4/SENT_TX_1.c **** * Calculates the cyclic redundancy check value.
 271:Generated_Source\PSoC4/SENT_TX_1.c **** *
 272:Generated_Source\PSoC4/SENT_TX_1.c **** * \param data
 273:Generated_Source\PSoC4/SENT_TX_1.c **** * The pointer to the uint8 array of length SENT_TX_1_USER_NIBBLES, where
 274:Generated_Source\PSoC4/SENT_TX_1.c **** * the 1st byte is the status nibble and the next 6 bytes are data nibbles.
 275:Generated_Source\PSoC4/SENT_TX_1.c **** *
 276:Generated_Source\PSoC4/SENT_TX_1.c **** * \return
 277:Generated_Source\PSoC4/SENT_TX_1.c **** * The cyclic redundancy check value of the new data nibbles.
 278:Generated_Source\PSoC4/SENT_TX_1.c **** *
 279:Generated_Source\PSoC4/SENT_TX_1.c **** *******************************************************************************/
 280:Generated_Source\PSoC4/SENT_TX_1.c **** static uint8 SENT_TX_1_CalculateCrc(uint8 const data[])
 281:Generated_Source\PSoC4/SENT_TX_1.c **** {
ARM GAS  C:\Users\Ala\AppData\Local\Temp\cc2dsWuO.s 			page 13


 398              		.loc 1 281 0
 399              		.cfi_startproc
 400              		@ args = 0, pretend = 0, frame = 16
 401              		@ frame_needed = 1, uses_anonymous_args = 0
 402 0000 80B5     		push	{r7, lr}
 403              		.cfi_def_cfa_offset 8
 404              		.cfi_offset 7, -8
 405              		.cfi_offset 14, -4
 406 0002 84B0     		sub	sp, sp, #16
 407              		.cfi_def_cfa_offset 24
 408 0004 00AF     		add	r7, sp, #0
 409              		.cfi_def_cfa_register 7
 410 0006 7860     		str	r0, [r7, #4]
 282:Generated_Source\PSoC4/SENT_TX_1.c ****     /* This is a lookup table that writes in the RAM memory */
 283:Generated_Source\PSoC4/SENT_TX_1.c ****     static const uint8 crcTable[] = 
 284:Generated_Source\PSoC4/SENT_TX_1.c ****     {
 285:Generated_Source\PSoC4/SENT_TX_1.c ****         0U, 13U, 7U, 10U, 14U, 3U, 9U, 4U,
 286:Generated_Source\PSoC4/SENT_TX_1.c ****         1U, 12U, 6U, 11U, 15U, 2U, 8U, 5U
 287:Generated_Source\PSoC4/SENT_TX_1.c ****     };
 288:Generated_Source\PSoC4/SENT_TX_1.c ****     
 289:Generated_Source\PSoC4/SENT_TX_1.c ****     /* Write the seed value in the crc variable before calculations */
 290:Generated_Source\PSoC4/SENT_TX_1.c ****     uint8 crc = SENT_TX_1_SEED;
 411              		.loc 1 290 0
 412 0008 0F23     		movs	r3, #15
 413 000a FB18     		adds	r3, r7, r3
 414 000c 0522     		movs	r2, #5
 415 000e 1A70     		strb	r2, [r3]
 291:Generated_Source\PSoC4/SENT_TX_1.c ****     uint32 i;
 292:Generated_Source\PSoC4/SENT_TX_1.c ****     
 293:Generated_Source\PSoC4/SENT_TX_1.c ****     /* Calculate the data CRC value */
 294:Generated_Source\PSoC4/SENT_TX_1.c ****     for(i = 1U; i < SENT_TX_1_USER_NIBBLES; i++)
 416              		.loc 1 294 0
 417 0010 0123     		movs	r3, #1
 418 0012 BB60     		str	r3, [r7, #8]
 419 0014 12E0     		b	.L26
 420              	.L27:
 295:Generated_Source\PSoC4/SENT_TX_1.c ****     {
 296:Generated_Source\PSoC4/SENT_TX_1.c ****         crc = crcTable[crc] ^ (data[i] & SENT_TX_1_NIBBLE_MASK);
 421              		.loc 1 296 0 discriminator 3
 422 0016 0F23     		movs	r3, #15
 423 0018 FB18     		adds	r3, r7, r3
 424 001a 1B78     		ldrb	r3, [r3]
 425 001c 104A     		ldr	r2, .L29
 426 001e D15C     		ldrb	r1, [r2, r3]
 427 0020 7A68     		ldr	r2, [r7, #4]
 428 0022 BB68     		ldr	r3, [r7, #8]
 429 0024 D318     		adds	r3, r2, r3
 430 0026 1B78     		ldrb	r3, [r3]
 431 0028 0F22     		movs	r2, #15
 432 002a 1340     		ands	r3, r2
 433 002c DAB2     		uxtb	r2, r3
 434 002e 0F23     		movs	r3, #15
 435 0030 FB18     		adds	r3, r7, r3
 436 0032 4A40     		eors	r2, r1
 437 0034 1A70     		strb	r2, [r3]
 294:Generated_Source\PSoC4/SENT_TX_1.c ****     {
 438              		.loc 1 294 0 discriminator 3
ARM GAS  C:\Users\Ala\AppData\Local\Temp\cc2dsWuO.s 			page 14


 439 0036 BB68     		ldr	r3, [r7, #8]
 440 0038 0133     		adds	r3, r3, #1
 441 003a BB60     		str	r3, [r7, #8]
 442              	.L26:
 294:Generated_Source\PSoC4/SENT_TX_1.c ****     {
 443              		.loc 1 294 0 is_stmt 0 discriminator 1
 444 003c BB68     		ldr	r3, [r7, #8]
 445 003e 062B     		cmp	r3, #6
 446 0040 E9D9     		bls	.L27
 297:Generated_Source\PSoC4/SENT_TX_1.c ****     }
 298:Generated_Source\PSoC4/SENT_TX_1.c **** 
 299:Generated_Source\PSoC4/SENT_TX_1.c **** #if (SENT_TX_1_CRC_IMPLEMENTATION == SENT_TX_1__NEWCRC)
 300:Generated_Source\PSoC4/SENT_TX_1.c ****     /* The checksum using new CRC method */
 301:Generated_Source\PSoC4/SENT_TX_1.c ****     crc = crcTable[crc];
 447              		.loc 1 301 0 is_stmt 1
 448 0042 0F23     		movs	r3, #15
 449 0044 FB18     		adds	r3, r7, r3
 450 0046 1A78     		ldrb	r2, [r3]
 451 0048 0F23     		movs	r3, #15
 452 004a FB18     		adds	r3, r7, r3
 453 004c 0449     		ldr	r1, .L29
 454 004e 8A5C     		ldrb	r2, [r1, r2]
 455 0050 1A70     		strb	r2, [r3]
 302:Generated_Source\PSoC4/SENT_TX_1.c **** #endif /* SENT_TX_1_CRC_IMPLEMENTATION == SENT_TX_1__NEWCRC */
 303:Generated_Source\PSoC4/SENT_TX_1.c **** 
 304:Generated_Source\PSoC4/SENT_TX_1.c ****     return (crc);
 456              		.loc 1 304 0
 457 0052 0F23     		movs	r3, #15
 458 0054 FB18     		adds	r3, r7, r3
 459 0056 1B78     		ldrb	r3, [r3]
 305:Generated_Source\PSoC4/SENT_TX_1.c **** }
 460              		.loc 1 305 0
 461 0058 1800     		movs	r0, r3
 462 005a BD46     		mov	sp, r7
 463 005c 04B0     		add	sp, sp, #16
 464              		@ sp needed
 465 005e 80BD     		pop	{r7, pc}
 466              	.L30:
 467              		.align	2
 468              	.L29:
 469 0060 00000000 		.word	crcTable.4999
 470              		.cfi_endproc
 471              	.LFE8:
 472              		.size	SENT_TX_1_CalculateCrc, .-SENT_TX_1_CalculateCrc
 473              		.section	.text.SENT_TX_1_SwapBuffers,"ax",%progbits
 474              		.align	2
 475              		.code	16
 476              		.thumb_func
 477              		.type	SENT_TX_1_SwapBuffers, %function
 478              	SENT_TX_1_SwapBuffers:
 479              	.LFB9:
 306:Generated_Source\PSoC4/SENT_TX_1.c **** 
 307:Generated_Source\PSoC4/SENT_TX_1.c **** #if (SENT_TX_1_PAUSE_PULSE == SENT_TX_1__ENABLED)
 308:Generated_Source\PSoC4/SENT_TX_1.c **** 
 309:Generated_Source\PSoC4/SENT_TX_1.c ****     /*******************************************************************************
 310:Generated_Source\PSoC4/SENT_TX_1.c ****     * Function Name: SENT_TX_1_CalculatePauseData
 311:Generated_Source\PSoC4/SENT_TX_1.c ****     ****************************************************************************//**
ARM GAS  C:\Users\Ala\AppData\Local\Temp\cc2dsWuO.s 			page 15


 312:Generated_Source\PSoC4/SENT_TX_1.c ****     *
 313:Generated_Source\PSoC4/SENT_TX_1.c ****     * Calculates the duration of the pause nibble, for the frame with new data.
 314:Generated_Source\PSoC4/SENT_TX_1.c ****     *
 315:Generated_Source\PSoC4/SENT_TX_1.c ****     * \param data
 316:Generated_Source\PSoC4/SENT_TX_1.c ****     * The pointer to the uint8 array of length SENT_TX_1_ALL_NIBBLES, where
 317:Generated_Source\PSoC4/SENT_TX_1.c ****     * the 1st byte is the status nibble, the next 6 bytes are data nibbles,
 318:Generated_Source\PSoC4/SENT_TX_1.c ****     * and the last nibble is a CRC value.
 319:Generated_Source\PSoC4/SENT_TX_1.c ****     *
 320:Generated_Source\PSoC4/SENT_TX_1.c ****     * \return
 321:Generated_Source\PSoC4/SENT_TX_1.c ****     * The duration of the pause period (in clock period units).
 322:Generated_Source\PSoC4/SENT_TX_1.c ****     *
 323:Generated_Source\PSoC4/SENT_TX_1.c ****     *******************************************************************************/
 324:Generated_Source\PSoC4/SENT_TX_1.c ****     static uint8 SENT_TX_1_CalculatePauseData(uint8 const data[])
 325:Generated_Source\PSoC4/SENT_TX_1.c ****     {
 326:Generated_Source\PSoC4/SENT_TX_1.c ****         uint8 frameDuration = SENT_TX_1_ALL_TICKS - ((uint8)SENT_TX_1_SYNC_TICKS + SENT_TX_1_ZERO_T
 327:Generated_Source\PSoC4/SENT_TX_1.c **** 
 328:Generated_Source\PSoC4/SENT_TX_1.c ****         uint8 i;
 329:Generated_Source\PSoC4/SENT_TX_1.c **** 
 330:Generated_Source\PSoC4/SENT_TX_1.c ****         for(i = 0U; i < SENT_TX_1_ALL_NIBBLES; i++)
 331:Generated_Source\PSoC4/SENT_TX_1.c ****         {
 332:Generated_Source\PSoC4/SENT_TX_1.c ****             frameDuration -= (SENT_TX_1_ZERO_TICKS + (data[i] & SENT_TX_1_NIBBLE_MASK));
 333:Generated_Source\PSoC4/SENT_TX_1.c ****         }
 334:Generated_Source\PSoC4/SENT_TX_1.c **** 
 335:Generated_Source\PSoC4/SENT_TX_1.c ****         return (frameDuration);
 336:Generated_Source\PSoC4/SENT_TX_1.c ****     }
 337:Generated_Source\PSoC4/SENT_TX_1.c **** #endif /* SENT_TX_1_PAUSE_PULSE == SENT_TX_1__ENABLED */
 338:Generated_Source\PSoC4/SENT_TX_1.c **** 
 339:Generated_Source\PSoC4/SENT_TX_1.c **** 
 340:Generated_Source\PSoC4/SENT_TX_1.c **** /*******************************************************************************
 341:Generated_Source\PSoC4/SENT_TX_1.c **** * Function Name: SENT_TX_1_SwapBuffers
 342:Generated_Source\PSoC4/SENT_TX_1.c **** ****************************************************************************//**
 343:Generated_Source\PSoC4/SENT_TX_1.c **** *
 344:Generated_Source\PSoC4/SENT_TX_1.c **** * Internal function which swaps the "transmition" and "prepare" buffers
 345:Generated_Source\PSoC4/SENT_TX_1.c **** *
 346:Generated_Source\PSoC4/SENT_TX_1.c **** *******************************************************************************/
 347:Generated_Source\PSoC4/SENT_TX_1.c **** static void SENT_TX_1_SwapBuffers(void)
 348:Generated_Source\PSoC4/SENT_TX_1.c **** {
 480              		.loc 1 348 0
 481              		.cfi_startproc
 482              		@ args = 0, pretend = 0, frame = 0
 483              		@ frame_needed = 1, uses_anonymous_args = 0
 484 0000 80B5     		push	{r7, lr}
 485              		.cfi_def_cfa_offset 8
 486              		.cfi_offset 7, -8
 487              		.cfi_offset 14, -4
 488 0002 00AF     		add	r7, sp, #0
 489              		.cfi_def_cfa_register 7
 349:Generated_Source\PSoC4/SENT_TX_1.c ****     if (SENT_TX_1_bufTx == SENT_TX_1_buf0)
 490              		.loc 1 349 0
 491 0004 0A4B     		ldr	r3, .L35
 492 0006 1A68     		ldr	r2, [r3]
 493 0008 0A4B     		ldr	r3, .L35+4
 494 000a 9A42     		cmp	r2, r3
 495 000c 06D1     		bne	.L32
 350:Generated_Source\PSoC4/SENT_TX_1.c ****     {
 351:Generated_Source\PSoC4/SENT_TX_1.c ****         SENT_TX_1_bufTx = SENT_TX_1_buf1;
 496              		.loc 1 351 0
ARM GAS  C:\Users\Ala\AppData\Local\Temp\cc2dsWuO.s 			page 16


 497 000e 084B     		ldr	r3, .L35
 498 0010 094A     		ldr	r2, .L35+8
 499 0012 1A60     		str	r2, [r3]
 352:Generated_Source\PSoC4/SENT_TX_1.c ****         SENT_TX_1_bufPr = SENT_TX_1_buf0;
 500              		.loc 1 352 0
 501 0014 094B     		ldr	r3, .L35+12
 502 0016 074A     		ldr	r2, .L35+4
 503 0018 1A60     		str	r2, [r3]
 353:Generated_Source\PSoC4/SENT_TX_1.c ****     }
 354:Generated_Source\PSoC4/SENT_TX_1.c ****     else
 355:Generated_Source\PSoC4/SENT_TX_1.c ****     {
 356:Generated_Source\PSoC4/SENT_TX_1.c ****         SENT_TX_1_bufTx = SENT_TX_1_buf0;
 357:Generated_Source\PSoC4/SENT_TX_1.c ****         SENT_TX_1_bufPr = SENT_TX_1_buf1;
 358:Generated_Source\PSoC4/SENT_TX_1.c ****     }
 359:Generated_Source\PSoC4/SENT_TX_1.c **** }
 504              		.loc 1 359 0
 505 001a 05E0     		b	.L34
 506              	.L32:
 356:Generated_Source\PSoC4/SENT_TX_1.c ****         SENT_TX_1_bufPr = SENT_TX_1_buf1;
 507              		.loc 1 356 0
 508 001c 044B     		ldr	r3, .L35
 509 001e 054A     		ldr	r2, .L35+4
 510 0020 1A60     		str	r2, [r3]
 357:Generated_Source\PSoC4/SENT_TX_1.c ****     }
 511              		.loc 1 357 0
 512 0022 064B     		ldr	r3, .L35+12
 513 0024 044A     		ldr	r2, .L35+8
 514 0026 1A60     		str	r2, [r3]
 515              	.L34:
 516              		.loc 1 359 0
 517 0028 C046     		nop
 518 002a BD46     		mov	sp, r7
 519              		@ sp needed
 520 002c 80BD     		pop	{r7, pc}
 521              	.L36:
 522 002e C046     		.align	2
 523              	.L35:
 524 0030 14000000 		.word	SENT_TX_1_bufTx
 525 0034 04000000 		.word	SENT_TX_1_buf0
 526 0038 0C000000 		.word	SENT_TX_1_buf1
 527 003c 18000000 		.word	SENT_TX_1_bufPr
 528              		.cfi_endproc
 529              	.LFE9:
 530              		.size	SENT_TX_1_SwapBuffers, .-SENT_TX_1_SwapBuffers
 531              		.section	.rodata
 532              		.align	2
 533              		.type	crcTable.4999, %object
 534              		.size	crcTable.4999, 16
 535              	crcTable.4999:
 536 0000 00       		.byte	0
 537 0001 0D       		.byte	13
 538 0002 07       		.byte	7
 539 0003 0A       		.byte	10
 540 0004 0E       		.byte	14
 541 0005 03       		.byte	3
 542 0006 09       		.byte	9
 543 0007 04       		.byte	4
ARM GAS  C:\Users\Ala\AppData\Local\Temp\cc2dsWuO.s 			page 17


 544 0008 01       		.byte	1
 545 0009 0C       		.byte	12
 546 000a 06       		.byte	6
 547 000b 0B       		.byte	11
 548 000c 0F       		.byte	15
 549 000d 02       		.byte	2
 550 000e 08       		.byte	8
 551 000f 05       		.byte	5
 552              		.text
 553              	.Letext0:
 554              		.file 2 "Generated_Source\\PSoC4\\cytypes.h"