ARM GAS  C:\Users\Ala\AppData\Local\Temp\ccmkTB7a.s 			page 1


   1              		.syntax unified
   2              		.cpu cortex-m0
   3              		.fpu softvfp
   4              		.eabi_attribute 20, 1
   5              		.eabi_attribute 21, 1
   6              		.eabi_attribute 23, 3
   7              		.eabi_attribute 24, 1
   8              		.eabi_attribute 25, 1
   9              		.eabi_attribute 26, 1
  10              		.eabi_attribute 30, 6
  11              		.eabi_attribute 34, 0
  12              		.eabi_attribute 18, 4
  13              		.thumb
  14              		.syntax unified
  15              		.file	"SENT_TX_1_PM.c"
  16              		.text
  17              	.Ltext0:
  18              		.cfi_sections	.debug_frame
  19              		.section	.text.SENT_TX_1_Sleep,"ax",%progbits
  20              		.align	2
  21              		.global	SENT_TX_1_Sleep
  22              		.code	16
  23              		.thumb_func
  24              		.type	SENT_TX_1_Sleep, %function
  25              	SENT_TX_1_Sleep:
  26              	.LFB4:
  27              		.file 1 "Generated_Source\\PSoC4\\SENT_TX_1_PM.c"
   1:Generated_Source\PSoC4/SENT_TX_1_PM.c **** /*******************************************************************************
   2:Generated_Source\PSoC4/SENT_TX_1_PM.c **** * \file Name: SENT_TX_1_PM.c
   3:Generated_Source\PSoC4/SENT_TX_1_PM.c **** * \version 1.0
   4:Generated_Source\PSoC4/SENT_TX_1_PM.c **** *
   5:Generated_Source\PSoC4/SENT_TX_1_PM.c **** * This file contains the setup, control, and status commands to support
   6:Generated_Source\PSoC4/SENT_TX_1_PM.c **** * the component in Low-Power modes.
   7:Generated_Source\PSoC4/SENT_TX_1_PM.c **** *
   8:Generated_Source\PSoC4/SENT_TX_1_PM.c **** ********************************************************************************
   9:Generated_Source\PSoC4/SENT_TX_1_PM.c **** * \copyright
  10:Generated_Source\PSoC4/SENT_TX_1_PM.c **** * Copyright 2017, Cypress Semiconductor Corporation.  All rights reserved.
  11:Generated_Source\PSoC4/SENT_TX_1_PM.c **** * You may use this file only in accordance with the license, terms, conditions,
  12:Generated_Source\PSoC4/SENT_TX_1_PM.c **** * disclaimers, and limitations in the end user license agreement accompanying
  13:Generated_Source\PSoC4/SENT_TX_1_PM.c **** * the software package with which this file was provided.
  14:Generated_Source\PSoC4/SENT_TX_1_PM.c **** *******************************************************************************/
  15:Generated_Source\PSoC4/SENT_TX_1_PM.c **** 
  16:Generated_Source\PSoC4/SENT_TX_1_PM.c **** #include "SENT_TX_1.h"
  17:Generated_Source\PSoC4/SENT_TX_1_PM.c **** 
  18:Generated_Source\PSoC4/SENT_TX_1_PM.c **** 
  19:Generated_Source\PSoC4/SENT_TX_1_PM.c **** /*******************************************************************************
  20:Generated_Source\PSoC4/SENT_TX_1_PM.c **** * Function Name: SENT_TX_1_Sleep
  21:Generated_Source\PSoC4/SENT_TX_1_PM.c **** ****************************************************************************//**
  22:Generated_Source\PSoC4/SENT_TX_1_PM.c **** *
  23:Generated_Source\PSoC4/SENT_TX_1_PM.c **** * Stops the component operation and saves the user configuration.
  24:Generated_Source\PSoC4/SENT_TX_1_PM.c **** *
  25:Generated_Source\PSoC4/SENT_TX_1_PM.c **** * Before call this function, ensure that SENT is ready to sleep by checking the 
  26:Generated_Source\PSoC4/SENT_TX_1_PM.c **** * SENT_TX_1_status flag. For this purpose, use the 
  27:Generated_Source\PSoC4/SENT_TX_1_PM.c **** * SENT_TX_1_GetStatus() function.
  28:Generated_Source\PSoC4/SENT_TX_1_PM.c **** *
  29:Generated_Source\PSoC4/SENT_TX_1_PM.c **** * \return
  30:Generated_Source\PSoC4/SENT_TX_1_PM.c **** * CYRET_SUCCESS the SENT went into sleep. <br>
ARM GAS  C:\Users\Ala\AppData\Local\Temp\ccmkTB7a.s 			page 2


  31:Generated_Source\PSoC4/SENT_TX_1_PM.c **** * CYRET_CANCELED the SENT did not go into sleep, because SENT still sending 
  32:Generated_Source\PSoC4/SENT_TX_1_PM.c **** * previous data, SENT_TX_1_status = SENT_TX_1_BUSY. 
  33:Generated_Source\PSoC4/SENT_TX_1_PM.c **** *
  34:Generated_Source\PSoC4/SENT_TX_1_PM.c **** *******************************************************************************/
  35:Generated_Source\PSoC4/SENT_TX_1_PM.c **** uint32 SENT_TX_1_Sleep(void)
  36:Generated_Source\PSoC4/SENT_TX_1_PM.c **** {
  28              		.loc 1 36 0
  29              		.cfi_startproc
  30              		@ args = 0, pretend = 0, frame = 8
  31              		@ frame_needed = 1, uses_anonymous_args = 0
  32 0000 80B5     		push	{r7, lr}
  33              		.cfi_def_cfa_offset 8
  34              		.cfi_offset 7, -8
  35              		.cfi_offset 14, -4
  36 0002 82B0     		sub	sp, sp, #8
  37              		.cfi_def_cfa_offset 16
  38 0004 00AF     		add	r7, sp, #0
  39              		.cfi_def_cfa_register 7
  37:Generated_Source\PSoC4/SENT_TX_1_PM.c ****     uint32 retVal = CYRET_CANCELED;
  40              		.loc 1 37 0
  41 0006 0923     		movs	r3, #9
  42 0008 7B60     		str	r3, [r7, #4]
  38:Generated_Source\PSoC4/SENT_TX_1_PM.c **** 
  39:Generated_Source\PSoC4/SENT_TX_1_PM.c ****     if(SENT_TX_1_READY == SENT_TX_1_status)
  43              		.loc 1 39 0
  44 000a 064B     		ldr	r3, .L4
  45 000c 1B78     		ldrb	r3, [r3]
  46 000e 002B     		cmp	r3, #0
  47 0010 03D1     		bne	.L2
  40:Generated_Source\PSoC4/SENT_TX_1_PM.c ****     {
  41:Generated_Source\PSoC4/SENT_TX_1_PM.c ****         SENT_TX_1_PWM_Sleep();
  48              		.loc 1 41 0
  49 0012 FFF7FEFF 		bl	SENT_TX_1_PWM_Sleep
  42:Generated_Source\PSoC4/SENT_TX_1_PM.c ****         retVal = CYRET_SUCCESS;
  50              		.loc 1 42 0
  51 0016 0023     		movs	r3, #0
  52 0018 7B60     		str	r3, [r7, #4]
  53              	.L2:
  43:Generated_Source\PSoC4/SENT_TX_1_PM.c ****     }
  44:Generated_Source\PSoC4/SENT_TX_1_PM.c **** 
  45:Generated_Source\PSoC4/SENT_TX_1_PM.c ****     return (retVal);
  54              		.loc 1 45 0
  55 001a 7B68     		ldr	r3, [r7, #4]
  46:Generated_Source\PSoC4/SENT_TX_1_PM.c **** }
  56              		.loc 1 46 0
  57 001c 1800     		movs	r0, r3
  58 001e BD46     		mov	sp, r7
  59 0020 02B0     		add	sp, sp, #8
  60              		@ sp needed
  61 0022 80BD     		pop	{r7, pc}
  62              	.L5:
  63              		.align	2
  64              	.L4:
  65 0024 00000000 		.word	SENT_TX_1_status
  66              		.cfi_endproc
  67              	.LFE4:
  68              		.size	SENT_TX_1_Sleep, .-SENT_TX_1_Sleep
ARM GAS  C:\Users\Ala\AppData\Local\Temp\ccmkTB7a.s 			page 3


  69              		.text
  70              	.Letext0:
  71              		.file 2 "Generated_Source\\PSoC4\\cytypes.h"
  72              		.file 3 "Generated_Source\\PSoC4\\SENT_TX_1.h"