ARM GAS  C:\Users\Ala\AppData\Local\Temp\ccC0tUEi.s 			page 1


   1              		.syntax unified
   2              		.cpu cortex-m0
   3              		.fpu softvfp
   4              		.eabi_attribute 20, 1
   5              		.eabi_attribute 21, 1
   6              		.eabi_attribute 23, 3
   7              		.eabi_attribute 24, 1
   8              		.eabi_attribute 25, 1
   9              		.eabi_attribute 26, 1
  10              		.eabi_attribute 30, 6
  11              		.eabi_attribute 34, 0
  12              		.eabi_attribute 18, 4
  13              		.thumb
  14              		.syntax unified
  15              		.file	"ShiftReg_1.c"
  16              		.text
  17              	.Ltext0:
  18              		.cfi_sections	.debug_frame
  19              		.global	ShiftReg_1_initVar
  20              		.bss
  21              		.type	ShiftReg_1_initVar, %object
  22              		.size	ShiftReg_1_initVar, 1
  23              	ShiftReg_1_initVar:
  24 0000 00       		.space	1
  25              		.section	.text.ShiftReg_1_Start,"ax",%progbits
  26              		.align	2
  27              		.global	ShiftReg_1_Start
  28              		.code	16
  29              		.thumb_func
  30              		.type	ShiftReg_1_Start, %function
  31              	ShiftReg_1_Start:
  32              	.LFB0:
  33              		.file 1 "Generated_Source\\PSoC4\\ShiftReg_1.c"
   1:Generated_Source\PSoC4/ShiftReg_1.c **** /*******************************************************************************
   2:Generated_Source\PSoC4/ShiftReg_1.c **** * File Name: ShiftReg_1.c
   3:Generated_Source\PSoC4/ShiftReg_1.c **** * Version 2.30
   4:Generated_Source\PSoC4/ShiftReg_1.c **** *
   5:Generated_Source\PSoC4/ShiftReg_1.c **** * Description:
   6:Generated_Source\PSoC4/ShiftReg_1.c **** *  This file provides the API source code for the Shift Register component.
   7:Generated_Source\PSoC4/ShiftReg_1.c **** *
   8:Generated_Source\PSoC4/ShiftReg_1.c **** * Note: none
   9:Generated_Source\PSoC4/ShiftReg_1.c **** *
  10:Generated_Source\PSoC4/ShiftReg_1.c **** ********************************************************************************
  11:Generated_Source\PSoC4/ShiftReg_1.c **** * Copyright 2008-2013, Cypress Semiconductor Corporation.  All rights reserved.
  12:Generated_Source\PSoC4/ShiftReg_1.c **** * You may use this file only in accordance with the license, terms, conditions,
  13:Generated_Source\PSoC4/ShiftReg_1.c **** * disclaimers, and limitations in the end user license agreement accompanying
  14:Generated_Source\PSoC4/ShiftReg_1.c **** * the software package with which this file was provided.
  15:Generated_Source\PSoC4/ShiftReg_1.c **** ********************************************************************************/
  16:Generated_Source\PSoC4/ShiftReg_1.c **** 
  17:Generated_Source\PSoC4/ShiftReg_1.c **** #include "ShiftReg_1.h"
  18:Generated_Source\PSoC4/ShiftReg_1.c **** 
  19:Generated_Source\PSoC4/ShiftReg_1.c **** uint8 ShiftReg_1_initVar = 0u;
  20:Generated_Source\PSoC4/ShiftReg_1.c **** 
  21:Generated_Source\PSoC4/ShiftReg_1.c **** 
  22:Generated_Source\PSoC4/ShiftReg_1.c **** /*******************************************************************************
  23:Generated_Source\PSoC4/ShiftReg_1.c **** * Function Name: ShiftReg_1_Start
  24:Generated_Source\PSoC4/ShiftReg_1.c **** ********************************************************************************
ARM GAS  C:\Users\Ala\AppData\Local\Temp\ccC0tUEi.s 			page 2


  25:Generated_Source\PSoC4/ShiftReg_1.c **** *
  26:Generated_Source\PSoC4/ShiftReg_1.c **** * Summary:
  27:Generated_Source\PSoC4/ShiftReg_1.c **** *  Starts the Shift Register.
  28:Generated_Source\PSoC4/ShiftReg_1.c **** *
  29:Generated_Source\PSoC4/ShiftReg_1.c **** * Parameters:
  30:Generated_Source\PSoC4/ShiftReg_1.c **** *  None.
  31:Generated_Source\PSoC4/ShiftReg_1.c **** *
  32:Generated_Source\PSoC4/ShiftReg_1.c **** * Return:
  33:Generated_Source\PSoC4/ShiftReg_1.c **** *  None.
  34:Generated_Source\PSoC4/ShiftReg_1.c **** *
  35:Generated_Source\PSoC4/ShiftReg_1.c **** * Global Variables:
  36:Generated_Source\PSoC4/ShiftReg_1.c **** *  ShiftReg_1_initVar - used to check initial configuration, modified on
  37:Generated_Source\PSoC4/ShiftReg_1.c **** *  first function call.
  38:Generated_Source\PSoC4/ShiftReg_1.c **** *
  39:Generated_Source\PSoC4/ShiftReg_1.c **** * Reentrant:
  40:Generated_Source\PSoC4/ShiftReg_1.c **** *  No.
  41:Generated_Source\PSoC4/ShiftReg_1.c **** *
  42:Generated_Source\PSoC4/ShiftReg_1.c **** *******************************************************************************/
  43:Generated_Source\PSoC4/ShiftReg_1.c **** void ShiftReg_1_Start(void) 
  44:Generated_Source\PSoC4/ShiftReg_1.c **** {
  34              		.loc 1 44 0
  35              		.cfi_startproc
  36              		@ args = 0, pretend = 0, frame = 0
  37              		@ frame_needed = 1, uses_anonymous_args = 0
  38 0000 80B5     		push	{r7, lr}
  39              		.cfi_def_cfa_offset 8
  40              		.cfi_offset 7, -8
  41              		.cfi_offset 14, -4
  42 0002 00AF     		add	r7, sp, #0
  43              		.cfi_def_cfa_register 7
  45:Generated_Source\PSoC4/ShiftReg_1.c ****     if(0u == ShiftReg_1_initVar)
  44              		.loc 1 45 0
  45 0004 064B     		ldr	r3, .L3
  46 0006 1B78     		ldrb	r3, [r3]
  47 0008 002B     		cmp	r3, #0
  48 000a 04D1     		bne	.L2
  46:Generated_Source\PSoC4/ShiftReg_1.c ****     {
  47:Generated_Source\PSoC4/ShiftReg_1.c ****         ShiftReg_1_Init();
  49              		.loc 1 47 0
  50 000c FFF7FEFF 		bl	ShiftReg_1_Init
  48:Generated_Source\PSoC4/ShiftReg_1.c ****         ShiftReg_1_initVar = 1u; /* Component initialized */
  51              		.loc 1 48 0
  52 0010 034B     		ldr	r3, .L3
  53 0012 0122     		movs	r2, #1
  54 0014 1A70     		strb	r2, [r3]
  55              	.L2:
  49:Generated_Source\PSoC4/ShiftReg_1.c ****     }
  50:Generated_Source\PSoC4/ShiftReg_1.c **** 
  51:Generated_Source\PSoC4/ShiftReg_1.c ****     ShiftReg_1_Enable();
  56              		.loc 1 51 0
  57 0016 FFF7FEFF 		bl	ShiftReg_1_Enable
  52:Generated_Source\PSoC4/ShiftReg_1.c **** }
  58              		.loc 1 52 0
  59 001a C046     		nop
  60 001c BD46     		mov	sp, r7
  61              		@ sp needed
  62 001e 80BD     		pop	{r7, pc}
ARM GAS  C:\Users\Ala\AppData\Local\Temp\ccC0tUEi.s 			page 3


  63              	.L4:
  64              		.align	2
  65              	.L3:
  66 0020 00000000 		.word	ShiftReg_1_initVar
  67              		.cfi_endproc
  68              	.LFE0:
  69              		.size	ShiftReg_1_Start, .-ShiftReg_1_Start
  70              		.section	.text.ShiftReg_1_Enable,"ax",%progbits
  71              		.align	2
  72              		.global	ShiftReg_1_Enable
  73              		.code	16
  74              		.thumb_func
  75              		.type	ShiftReg_1_Enable, %function
  76              	ShiftReg_1_Enable:
  77              	.LFB1:
  53:Generated_Source\PSoC4/ShiftReg_1.c **** 
  54:Generated_Source\PSoC4/ShiftReg_1.c **** 
  55:Generated_Source\PSoC4/ShiftReg_1.c **** /*******************************************************************************
  56:Generated_Source\PSoC4/ShiftReg_1.c **** * Function Name: ShiftReg_1_Enable
  57:Generated_Source\PSoC4/ShiftReg_1.c **** ********************************************************************************
  58:Generated_Source\PSoC4/ShiftReg_1.c **** *
  59:Generated_Source\PSoC4/ShiftReg_1.c **** * Summary:
  60:Generated_Source\PSoC4/ShiftReg_1.c **** *  Enables the Shift Register.
  61:Generated_Source\PSoC4/ShiftReg_1.c **** *
  62:Generated_Source\PSoC4/ShiftReg_1.c **** * Parameters:
  63:Generated_Source\PSoC4/ShiftReg_1.c **** *  void.
  64:Generated_Source\PSoC4/ShiftReg_1.c **** *
  65:Generated_Source\PSoC4/ShiftReg_1.c **** * Return:
  66:Generated_Source\PSoC4/ShiftReg_1.c **** *  void.
  67:Generated_Source\PSoC4/ShiftReg_1.c **** *
  68:Generated_Source\PSoC4/ShiftReg_1.c **** *******************************************************************************/
  69:Generated_Source\PSoC4/ShiftReg_1.c **** void ShiftReg_1_Enable(void) 
  70:Generated_Source\PSoC4/ShiftReg_1.c **** {
  78              		.loc 1 70 0
  79              		.cfi_startproc
  80              		@ args = 0, pretend = 0, frame = 0
  81              		@ frame_needed = 1, uses_anonymous_args = 0
  82 0000 80B5     		push	{r7, lr}
  83              		.cfi_def_cfa_offset 8
  84              		.cfi_offset 7, -8
  85              		.cfi_offset 14, -4
  86 0002 00AF     		add	r7, sp, #0
  87              		.cfi_def_cfa_register 7
  71:Generated_Source\PSoC4/ShiftReg_1.c ****     /* Changing address in Datapath Control Store
  72:Generated_Source\PSoC4/ShiftReg_1.c ****        from NOP to component state machine commands space */
  73:Generated_Source\PSoC4/ShiftReg_1.c ****     ShiftReg_1_SR_CONTROL |= ShiftReg_1_CLK_EN;
  88              		.loc 1 73 0
  89 0004 064A     		ldr	r2, .L6
  90 0006 064B     		ldr	r3, .L6
  91 0008 1B78     		ldrb	r3, [r3]
  92 000a DBB2     		uxtb	r3, r3
  93 000c 0121     		movs	r1, #1
  94 000e 0B43     		orrs	r3, r1
  95 0010 DBB2     		uxtb	r3, r3
  96 0012 1370     		strb	r3, [r2]
  74:Generated_Source\PSoC4/ShiftReg_1.c **** 
  75:Generated_Source\PSoC4/ShiftReg_1.c ****     ShiftReg_1_EnableInt();
ARM GAS  C:\Users\Ala\AppData\Local\Temp\ccC0tUEi.s 			page 4


  97              		.loc 1 75 0
  98 0014 FFF7FEFF 		bl	ShiftReg_1_EnableInt
  76:Generated_Source\PSoC4/ShiftReg_1.c **** }
  99              		.loc 1 76 0
 100 0018 C046     		nop
 101 001a BD46     		mov	sp, r7
 102              		@ sp needed
 103 001c 80BD     		pop	{r7, pc}
 104              	.L7:
 105 001e C046     		.align	2
 106              	.L6:
 107 0020 71000F40 		.word	1074724977
 108              		.cfi_endproc
 109              	.LFE1:
 110              		.size	ShiftReg_1_Enable, .-ShiftReg_1_Enable
 111              		.section	.text.ShiftReg_1_Init,"ax",%progbits
 112              		.align	2
 113              		.global	ShiftReg_1_Init
 114              		.code	16
 115              		.thumb_func
 116              		.type	ShiftReg_1_Init, %function
 117              	ShiftReg_1_Init:
 118              	.LFB2:
  77:Generated_Source\PSoC4/ShiftReg_1.c **** 
  78:Generated_Source\PSoC4/ShiftReg_1.c **** 
  79:Generated_Source\PSoC4/ShiftReg_1.c **** /*******************************************************************************
  80:Generated_Source\PSoC4/ShiftReg_1.c **** * Function Name: ShiftReg_1_Init
  81:Generated_Source\PSoC4/ShiftReg_1.c **** ********************************************************************************
  82:Generated_Source\PSoC4/ShiftReg_1.c **** *
  83:Generated_Source\PSoC4/ShiftReg_1.c **** * Summary:
  84:Generated_Source\PSoC4/ShiftReg_1.c **** *  Initializes Tx and/or Rx interrupt sources with initial values.
  85:Generated_Source\PSoC4/ShiftReg_1.c **** *
  86:Generated_Source\PSoC4/ShiftReg_1.c **** * Parameters:
  87:Generated_Source\PSoC4/ShiftReg_1.c **** *  void.
  88:Generated_Source\PSoC4/ShiftReg_1.c **** *
  89:Generated_Source\PSoC4/ShiftReg_1.c **** * Return:
  90:Generated_Source\PSoC4/ShiftReg_1.c **** *  void.
  91:Generated_Source\PSoC4/ShiftReg_1.c **** *
  92:Generated_Source\PSoC4/ShiftReg_1.c **** *******************************************************************************/
  93:Generated_Source\PSoC4/ShiftReg_1.c **** void ShiftReg_1_Init(void) 
  94:Generated_Source\PSoC4/ShiftReg_1.c **** {
 119              		.loc 1 94 0
 120              		.cfi_startproc
 121              		@ args = 0, pretend = 0, frame = 0
 122              		@ frame_needed = 1, uses_anonymous_args = 0
 123 0000 80B5     		push	{r7, lr}
 124              		.cfi_def_cfa_offset 8
 125              		.cfi_offset 7, -8
 126              		.cfi_offset 14, -4
 127 0002 00AF     		add	r7, sp, #0
 128              		.cfi_def_cfa_register 7
  95:Generated_Source\PSoC4/ShiftReg_1.c ****     ShiftReg_1_SetIntMode(ShiftReg_1_INT_SRC);
 129              		.loc 1 95 0
 130 0004 0020     		movs	r0, #0
 131 0006 FFF7FEFF 		bl	ShiftReg_1_SetIntMode
  96:Generated_Source\PSoC4/ShiftReg_1.c **** }
 132              		.loc 1 96 0
ARM GAS  C:\Users\Ala\AppData\Local\Temp\ccC0tUEi.s 			page 5


 133 000a C046     		nop
 134 000c BD46     		mov	sp, r7
 135              		@ sp needed
 136 000e 80BD     		pop	{r7, pc}
 137              		.cfi_endproc
 138              	.LFE2:
 139              		.size	ShiftReg_1_Init, .-ShiftReg_1_Init
 140              		.section	.text.ShiftReg_1_Stop,"ax",%progbits
 141              		.align	2
 142              		.global	ShiftReg_1_Stop
 143              		.code	16
 144              		.thumb_func
 145              		.type	ShiftReg_1_Stop, %function
 146              	ShiftReg_1_Stop:
 147              	.LFB3:
  97:Generated_Source\PSoC4/ShiftReg_1.c **** 
  98:Generated_Source\PSoC4/ShiftReg_1.c **** 
  99:Generated_Source\PSoC4/ShiftReg_1.c **** /*******************************************************************************
 100:Generated_Source\PSoC4/ShiftReg_1.c **** * Function Name: ShiftReg_1_Stop
 101:Generated_Source\PSoC4/ShiftReg_1.c **** ********************************************************************************
 102:Generated_Source\PSoC4/ShiftReg_1.c **** *
 103:Generated_Source\PSoC4/ShiftReg_1.c **** * Summary:
 104:Generated_Source\PSoC4/ShiftReg_1.c **** *  Disables the Shift Register
 105:Generated_Source\PSoC4/ShiftReg_1.c **** *
 106:Generated_Source\PSoC4/ShiftReg_1.c **** * Parameters:
 107:Generated_Source\PSoC4/ShiftReg_1.c **** *  None.
 108:Generated_Source\PSoC4/ShiftReg_1.c **** *
 109:Generated_Source\PSoC4/ShiftReg_1.c **** * Return:
 110:Generated_Source\PSoC4/ShiftReg_1.c **** *  None.
 111:Generated_Source\PSoC4/ShiftReg_1.c **** *
 112:Generated_Source\PSoC4/ShiftReg_1.c **** *******************************************************************************/
 113:Generated_Source\PSoC4/ShiftReg_1.c **** void ShiftReg_1_Stop(void) 
 114:Generated_Source\PSoC4/ShiftReg_1.c **** {
 148              		.loc 1 114 0
 149              		.cfi_startproc
 150              		@ args = 0, pretend = 0, frame = 0
 151              		@ frame_needed = 1, uses_anonymous_args = 0
 152 0000 80B5     		push	{r7, lr}
 153              		.cfi_def_cfa_offset 8
 154              		.cfi_offset 7, -8
 155              		.cfi_offset 14, -4
 156 0002 00AF     		add	r7, sp, #0
 157              		.cfi_def_cfa_register 7
 115:Generated_Source\PSoC4/ShiftReg_1.c ****     /*changing Datapath Control Store address to NOP space*/
 116:Generated_Source\PSoC4/ShiftReg_1.c ****     ShiftReg_1_SR_CONTROL &= ((uint8) ~ShiftReg_1_CLK_EN);
 158              		.loc 1 116 0
 159 0004 064A     		ldr	r2, .L10
 160 0006 064B     		ldr	r3, .L10
 161 0008 1B78     		ldrb	r3, [r3]
 162 000a DBB2     		uxtb	r3, r3
 163 000c 0121     		movs	r1, #1
 164 000e 8B43     		bics	r3, r1
 165 0010 DBB2     		uxtb	r3, r3
 166 0012 1370     		strb	r3, [r2]
 117:Generated_Source\PSoC4/ShiftReg_1.c ****     ShiftReg_1_DisableInt();
 167              		.loc 1 117 0
 168 0014 FFF7FEFF 		bl	ShiftReg_1_DisableInt
ARM GAS  C:\Users\Ala\AppData\Local\Temp\ccC0tUEi.s 			page 6


 118:Generated_Source\PSoC4/ShiftReg_1.c **** }
 169              		.loc 1 118 0
 170 0018 C046     		nop
 171 001a BD46     		mov	sp, r7
 172              		@ sp needed
 173 001c 80BD     		pop	{r7, pc}
 174              	.L11:
 175 001e C046     		.align	2
 176              	.L10:
 177 0020 71000F40 		.word	1074724977
 178              		.cfi_endproc
 179              	.LFE3:
 180              		.size	ShiftReg_1_Stop, .-ShiftReg_1_Stop
 181              		.section	.text.ShiftReg_1_EnableInt,"ax",%progbits
 182              		.align	2
 183              		.global	ShiftReg_1_EnableInt
 184              		.code	16
 185              		.thumb_func
 186              		.type	ShiftReg_1_EnableInt, %function
 187              	ShiftReg_1_EnableInt:
 188              	.LFB4:
 119:Generated_Source\PSoC4/ShiftReg_1.c **** 
 120:Generated_Source\PSoC4/ShiftReg_1.c **** 
 121:Generated_Source\PSoC4/ShiftReg_1.c **** /*******************************************************************************
 122:Generated_Source\PSoC4/ShiftReg_1.c **** * Function Name: ShiftReg_1_EnableInt
 123:Generated_Source\PSoC4/ShiftReg_1.c **** ********************************************************************************
 124:Generated_Source\PSoC4/ShiftReg_1.c **** *
 125:Generated_Source\PSoC4/ShiftReg_1.c **** * Summary:
 126:Generated_Source\PSoC4/ShiftReg_1.c **** *  Enables the Shift Register interrupt.
 127:Generated_Source\PSoC4/ShiftReg_1.c **** *
 128:Generated_Source\PSoC4/ShiftReg_1.c **** * Parameters:
 129:Generated_Source\PSoC4/ShiftReg_1.c **** *  None.
 130:Generated_Source\PSoC4/ShiftReg_1.c **** *
 131:Generated_Source\PSoC4/ShiftReg_1.c **** * Return:
 132:Generated_Source\PSoC4/ShiftReg_1.c **** *  None.
 133:Generated_Source\PSoC4/ShiftReg_1.c **** *
 134:Generated_Source\PSoC4/ShiftReg_1.c **** *******************************************************************************/
 135:Generated_Source\PSoC4/ShiftReg_1.c **** void ShiftReg_1_EnableInt(void) 
 136:Generated_Source\PSoC4/ShiftReg_1.c **** {
 189              		.loc 1 136 0
 190              		.cfi_startproc
 191              		@ args = 0, pretend = 0, frame = 8
 192              		@ frame_needed = 1, uses_anonymous_args = 0
 193 0000 90B5     		push	{r4, r7, lr}
 194              		.cfi_def_cfa_offset 12
 195              		.cfi_offset 4, -12
 196              		.cfi_offset 7, -8
 197              		.cfi_offset 14, -4
 198 0002 83B0     		sub	sp, sp, #12
 199              		.cfi_def_cfa_offset 24
 200 0004 00AF     		add	r7, sp, #0
 201              		.cfi_def_cfa_register 7
 137:Generated_Source\PSoC4/ShiftReg_1.c ****     uint8 interruptState;
 138:Generated_Source\PSoC4/ShiftReg_1.c **** 
 139:Generated_Source\PSoC4/ShiftReg_1.c ****     interruptState = CyEnterCriticalSection();
 202              		.loc 1 139 0
 203 0006 FC1D     		adds	r4, r7, #7
ARM GAS  C:\Users\Ala\AppData\Local\Temp\ccC0tUEi.s 			page 7


 204 0008 FFF7FEFF 		bl	CyEnterCriticalSection
 205 000c 0300     		movs	r3, r0
 206 000e 2370     		strb	r3, [r4]
 140:Generated_Source\PSoC4/ShiftReg_1.c ****     ShiftReg_1_SR_AUX_CONTROL |= ShiftReg_1_INTERRUPTS_ENABLE;
 207              		.loc 1 140 0
 208 0010 084A     		ldr	r2, .L13
 209 0012 084B     		ldr	r3, .L13
 210 0014 1B78     		ldrb	r3, [r3]
 211 0016 DBB2     		uxtb	r3, r3
 212 0018 1021     		movs	r1, #16
 213 001a 0B43     		orrs	r3, r1
 214 001c DBB2     		uxtb	r3, r3
 215 001e 1370     		strb	r3, [r2]
 141:Generated_Source\PSoC4/ShiftReg_1.c ****     CyExitCriticalSection(interruptState);
 216              		.loc 1 141 0
 217 0020 FB1D     		adds	r3, r7, #7
 218 0022 1B78     		ldrb	r3, [r3]
 219 0024 1800     		movs	r0, r3
 220 0026 FFF7FEFF 		bl	CyExitCriticalSection
 142:Generated_Source\PSoC4/ShiftReg_1.c **** }
 221              		.loc 1 142 0
 222 002a C046     		nop
 223 002c BD46     		mov	sp, r7
 224 002e 03B0     		add	sp, sp, #12
 225              		@ sp needed
 226 0030 90BD     		pop	{r4, r7, pc}
 227              	.L14:
 228 0032 C046     		.align	2
 229              	.L13:
 230 0034 93000F40 		.word	1074725011
 231              		.cfi_endproc
 232              	.LFE4:
 233              		.size	ShiftReg_1_EnableInt, .-ShiftReg_1_EnableInt
 234              		.section	.text.ShiftReg_1_DisableInt,"ax",%progbits
 235              		.align	2
 236              		.global	ShiftReg_1_DisableInt
 237              		.code	16
 238              		.thumb_func
 239              		.type	ShiftReg_1_DisableInt, %function
 240              	ShiftReg_1_DisableInt:
 241              	.LFB5:
 143:Generated_Source\PSoC4/ShiftReg_1.c **** 
 144:Generated_Source\PSoC4/ShiftReg_1.c **** 
 145:Generated_Source\PSoC4/ShiftReg_1.c **** /*******************************************************************************
 146:Generated_Source\PSoC4/ShiftReg_1.c **** * Function Name: ShiftReg_1_DisableInt
 147:Generated_Source\PSoC4/ShiftReg_1.c **** ********************************************************************************
 148:Generated_Source\PSoC4/ShiftReg_1.c **** *
 149:Generated_Source\PSoC4/ShiftReg_1.c **** * Summary:
 150:Generated_Source\PSoC4/ShiftReg_1.c **** *  Disables the Shift Register interrupt.
 151:Generated_Source\PSoC4/ShiftReg_1.c **** *
 152:Generated_Source\PSoC4/ShiftReg_1.c **** * Parameters:
 153:Generated_Source\PSoC4/ShiftReg_1.c **** *  None.
 154:Generated_Source\PSoC4/ShiftReg_1.c **** *
 155:Generated_Source\PSoC4/ShiftReg_1.c **** * Return:
 156:Generated_Source\PSoC4/ShiftReg_1.c **** *  None.
 157:Generated_Source\PSoC4/ShiftReg_1.c **** *
 158:Generated_Source\PSoC4/ShiftReg_1.c **** *******************************************************************************/
ARM GAS  C:\Users\Ala\AppData\Local\Temp\ccC0tUEi.s 			page 8


 159:Generated_Source\PSoC4/ShiftReg_1.c **** void ShiftReg_1_DisableInt(void) 
 160:Generated_Source\PSoC4/ShiftReg_1.c **** {
 242              		.loc 1 160 0
 243              		.cfi_startproc
 244              		@ args = 0, pretend = 0, frame = 8
 245              		@ frame_needed = 1, uses_anonymous_args = 0
 246 0000 90B5     		push	{r4, r7, lr}
 247              		.cfi_def_cfa_offset 12
 248              		.cfi_offset 4, -12
 249              		.cfi_offset 7, -8
 250              		.cfi_offset 14, -4
 251 0002 83B0     		sub	sp, sp, #12
 252              		.cfi_def_cfa_offset 24
 253 0004 00AF     		add	r7, sp, #0
 254              		.cfi_def_cfa_register 7
 161:Generated_Source\PSoC4/ShiftReg_1.c ****     uint8 interruptState;
 162:Generated_Source\PSoC4/ShiftReg_1.c **** 
 163:Generated_Source\PSoC4/ShiftReg_1.c ****     interruptState = CyEnterCriticalSection();
 255              		.loc 1 163 0
 256 0006 FC1D     		adds	r4, r7, #7
 257 0008 FFF7FEFF 		bl	CyEnterCriticalSection
 258 000c 0300     		movs	r3, r0
 259 000e 2370     		strb	r3, [r4]
 164:Generated_Source\PSoC4/ShiftReg_1.c ****     ShiftReg_1_SR_AUX_CONTROL &= ((uint8) ~ShiftReg_1_INTERRUPTS_ENABLE);
 260              		.loc 1 164 0
 261 0010 084A     		ldr	r2, .L16
 262 0012 084B     		ldr	r3, .L16
 263 0014 1B78     		ldrb	r3, [r3]
 264 0016 DBB2     		uxtb	r3, r3
 265 0018 1021     		movs	r1, #16
 266 001a 8B43     		bics	r3, r1
 267 001c DBB2     		uxtb	r3, r3
 268 001e 1370     		strb	r3, [r2]
 165:Generated_Source\PSoC4/ShiftReg_1.c ****     CyExitCriticalSection(interruptState);
 269              		.loc 1 165 0
 270 0020 FB1D     		adds	r3, r7, #7
 271 0022 1B78     		ldrb	r3, [r3]
 272 0024 1800     		movs	r0, r3
 273 0026 FFF7FEFF 		bl	CyExitCriticalSection
 166:Generated_Source\PSoC4/ShiftReg_1.c **** }
 274              		.loc 1 166 0
 275 002a C046     		nop
 276 002c BD46     		mov	sp, r7
 277 002e 03B0     		add	sp, sp, #12
 278              		@ sp needed
 279 0030 90BD     		pop	{r4, r7, pc}
 280              	.L17:
 281 0032 C046     		.align	2
 282              	.L16:
 283 0034 93000F40 		.word	1074725011
 284              		.cfi_endproc
 285              	.LFE5:
 286              		.size	ShiftReg_1_DisableInt, .-ShiftReg_1_DisableInt
 287              		.section	.text.ShiftReg_1_GetFIFOStatus,"ax",%progbits
 288              		.align	2
 289              		.global	ShiftReg_1_GetFIFOStatus
 290              		.code	16
ARM GAS  C:\Users\Ala\AppData\Local\Temp\ccC0tUEi.s 			page 9


 291              		.thumb_func
 292              		.type	ShiftReg_1_GetFIFOStatus, %function
 293              	ShiftReg_1_GetFIFOStatus:
 294              	.LFB6:
 167:Generated_Source\PSoC4/ShiftReg_1.c **** 
 168:Generated_Source\PSoC4/ShiftReg_1.c **** 
 169:Generated_Source\PSoC4/ShiftReg_1.c **** /*******************************************************************************
 170:Generated_Source\PSoC4/ShiftReg_1.c **** * Function Name: ShiftReg_1_GetFIFOStatus
 171:Generated_Source\PSoC4/ShiftReg_1.c **** ********************************************************************************
 172:Generated_Source\PSoC4/ShiftReg_1.c **** *
 173:Generated_Source\PSoC4/ShiftReg_1.c **** * Summary:
 174:Generated_Source\PSoC4/ShiftReg_1.c **** *  Returns current status of input or output FIFO.
 175:Generated_Source\PSoC4/ShiftReg_1.c **** *
 176:Generated_Source\PSoC4/ShiftReg_1.c **** * Parameters:
 177:Generated_Source\PSoC4/ShiftReg_1.c **** *  fifoId.
 178:Generated_Source\PSoC4/ShiftReg_1.c **** *
 179:Generated_Source\PSoC4/ShiftReg_1.c **** * Return:
 180:Generated_Source\PSoC4/ShiftReg_1.c **** *  FIFO status.
 181:Generated_Source\PSoC4/ShiftReg_1.c **** *
 182:Generated_Source\PSoC4/ShiftReg_1.c **** *******************************************************************************/
 183:Generated_Source\PSoC4/ShiftReg_1.c **** uint8 ShiftReg_1_GetFIFOStatus(uint8 fifoId) 
 184:Generated_Source\PSoC4/ShiftReg_1.c **** {
 295              		.loc 1 184 0
 296              		.cfi_startproc
 297              		@ args = 0, pretend = 0, frame = 16
 298              		@ frame_needed = 1, uses_anonymous_args = 0
 299 0000 80B5     		push	{r7, lr}
 300              		.cfi_def_cfa_offset 8
 301              		.cfi_offset 7, -8
 302              		.cfi_offset 14, -4
 303 0002 84B0     		sub	sp, sp, #16
 304              		.cfi_def_cfa_offset 24
 305 0004 00AF     		add	r7, sp, #0
 306              		.cfi_def_cfa_register 7
 307 0006 0200     		movs	r2, r0
 308 0008 FB1D     		adds	r3, r7, #7
 309 000a 1A70     		strb	r2, [r3]
 185:Generated_Source\PSoC4/ShiftReg_1.c ****     uint8 result;
 186:Generated_Source\PSoC4/ShiftReg_1.c **** 
 187:Generated_Source\PSoC4/ShiftReg_1.c ****     result = ShiftReg_1_RET_FIFO_NOT_DEFINED;
 310              		.loc 1 187 0
 311 000c 0F23     		movs	r3, #15
 312 000e FB18     		adds	r3, r7, r3
 313 0010 FE22     		movs	r2, #254
 314 0012 1A70     		strb	r2, [r3]
 188:Generated_Source\PSoC4/ShiftReg_1.c **** 
 189:Generated_Source\PSoC4/ShiftReg_1.c ****     #if(0u != ShiftReg_1_USE_INPUT_FIFO)
 190:Generated_Source\PSoC4/ShiftReg_1.c ****         if(ShiftReg_1_IN_FIFO == fifoId)
 191:Generated_Source\PSoC4/ShiftReg_1.c ****         {
 192:Generated_Source\PSoC4/ShiftReg_1.c ****             switch(ShiftReg_1_GET_IN_FIFO_STS)
 193:Generated_Source\PSoC4/ShiftReg_1.c ****             {
 194:Generated_Source\PSoC4/ShiftReg_1.c ****                 case ShiftReg_1_IN_FIFO_FULL :
 195:Generated_Source\PSoC4/ShiftReg_1.c ****                     result = ShiftReg_1_RET_FIFO_FULL;
 196:Generated_Source\PSoC4/ShiftReg_1.c ****                     break;
 197:Generated_Source\PSoC4/ShiftReg_1.c **** 
 198:Generated_Source\PSoC4/ShiftReg_1.c ****                 case ShiftReg_1_IN_FIFO_EMPTY :
 199:Generated_Source\PSoC4/ShiftReg_1.c ****                     result = ShiftReg_1_RET_FIFO_EMPTY;
ARM GAS  C:\Users\Ala\AppData\Local\Temp\ccC0tUEi.s 			page 10


 200:Generated_Source\PSoC4/ShiftReg_1.c ****                     break;
 201:Generated_Source\PSoC4/ShiftReg_1.c **** 
 202:Generated_Source\PSoC4/ShiftReg_1.c ****                 case ShiftReg_1_IN_FIFO_PARTIAL:
 203:Generated_Source\PSoC4/ShiftReg_1.c ****                     result = ShiftReg_1_RET_FIFO_PARTIAL;
 204:Generated_Source\PSoC4/ShiftReg_1.c ****                     break;
 205:Generated_Source\PSoC4/ShiftReg_1.c ****                     
 206:Generated_Source\PSoC4/ShiftReg_1.c ****                 default:
 207:Generated_Source\PSoC4/ShiftReg_1.c ****                     /* Initial result value, while 
 208:Generated_Source\PSoC4/ShiftReg_1.c ****                        IN_FIFO_EMPTY case is false 
 209:Generated_Source\PSoC4/ShiftReg_1.c ****                      */
 210:Generated_Source\PSoC4/ShiftReg_1.c ****                     result = ShiftReg_1_RET_FIFO_EMPTY;
 211:Generated_Source\PSoC4/ShiftReg_1.c ****                     break;
 212:Generated_Source\PSoC4/ShiftReg_1.c ****             }   
 213:Generated_Source\PSoC4/ShiftReg_1.c ****         }
 214:Generated_Source\PSoC4/ShiftReg_1.c ****     #endif /* (0u != ShiftReg_1_USE_INPUT_FIFO) */
 215:Generated_Source\PSoC4/ShiftReg_1.c **** 
 216:Generated_Source\PSoC4/ShiftReg_1.c ****     if(ShiftReg_1_OUT_FIFO == fifoId)
 315              		.loc 1 216 0
 316 0014 FB1D     		adds	r3, r7, #7
 317 0016 1B78     		ldrb	r3, [r3]
 318 0018 022B     		cmp	r3, #2
 319 001a 20D1     		bne	.L19
 217:Generated_Source\PSoC4/ShiftReg_1.c ****     {
 218:Generated_Source\PSoC4/ShiftReg_1.c ****         switch(ShiftReg_1_GET_OUT_FIFO_STS)
 320              		.loc 1 218 0
 321 001c 134B     		ldr	r3, .L26
 322 001e 1B78     		ldrb	r3, [r3]
 323 0020 DBB2     		uxtb	r3, r3
 324 0022 1A00     		movs	r2, r3
 325 0024 6023     		movs	r3, #96
 326 0026 1340     		ands	r3, r2
 327 0028 5B09     		lsrs	r3, r3, #5
 328 002a 012B     		cmp	r3, #1
 329 002c 03D0     		beq	.L21
 330 002e 07D3     		bcc	.L22
 331 0030 022B     		cmp	r3, #2
 332 0032 0AD0     		beq	.L23
 333 0034 0EE0     		b	.L25
 334              	.L21:
 219:Generated_Source\PSoC4/ShiftReg_1.c ****         {
 220:Generated_Source\PSoC4/ShiftReg_1.c ****             case ShiftReg_1_OUT_FIFO_FULL :
 221:Generated_Source\PSoC4/ShiftReg_1.c ****                 result = ShiftReg_1_RET_FIFO_FULL;
 335              		.loc 1 221 0
 336 0036 0F23     		movs	r3, #15
 337 0038 FB18     		adds	r3, r7, r3
 338 003a 0022     		movs	r2, #0
 339 003c 1A70     		strb	r2, [r3]
 222:Generated_Source\PSoC4/ShiftReg_1.c ****                 break;
 340              		.loc 1 222 0
 341 003e 0EE0     		b	.L19
 342              	.L22:
 223:Generated_Source\PSoC4/ShiftReg_1.c **** 
 224:Generated_Source\PSoC4/ShiftReg_1.c ****             case ShiftReg_1_OUT_FIFO_EMPTY :
 225:Generated_Source\PSoC4/ShiftReg_1.c ****                 result = ShiftReg_1_RET_FIFO_EMPTY;
 343              		.loc 1 225 0
 344 0040 0F23     		movs	r3, #15
 345 0042 FB18     		adds	r3, r7, r3
ARM GAS  C:\Users\Ala\AppData\Local\Temp\ccC0tUEi.s 			page 11


 346 0044 0222     		movs	r2, #2
 347 0046 1A70     		strb	r2, [r3]
 226:Generated_Source\PSoC4/ShiftReg_1.c ****                 break;
 348              		.loc 1 226 0
 349 0048 09E0     		b	.L19
 350              	.L23:
 227:Generated_Source\PSoC4/ShiftReg_1.c **** 
 228:Generated_Source\PSoC4/ShiftReg_1.c ****             case ShiftReg_1_OUT_FIFO_PARTIAL :
 229:Generated_Source\PSoC4/ShiftReg_1.c ****                 result = ShiftReg_1_RET_FIFO_PARTIAL;
 351              		.loc 1 229 0
 352 004a 0F23     		movs	r3, #15
 353 004c FB18     		adds	r3, r7, r3
 354 004e 0122     		movs	r2, #1
 355 0050 1A70     		strb	r2, [r3]
 230:Generated_Source\PSoC4/ShiftReg_1.c ****                 break;
 356              		.loc 1 230 0
 357 0052 04E0     		b	.L19
 358              	.L25:
 231:Generated_Source\PSoC4/ShiftReg_1.c **** 
 232:Generated_Source\PSoC4/ShiftReg_1.c ****             default:
 233:Generated_Source\PSoC4/ShiftReg_1.c ****                 /* Initial result value, while 
 234:Generated_Source\PSoC4/ShiftReg_1.c ****                    OUT_FIFO_FULL case is false 
 235:Generated_Source\PSoC4/ShiftReg_1.c ****                  */
 236:Generated_Source\PSoC4/ShiftReg_1.c ****                 result = ShiftReg_1_RET_FIFO_FULL;
 359              		.loc 1 236 0
 360 0054 0F23     		movs	r3, #15
 361 0056 FB18     		adds	r3, r7, r3
 362 0058 0022     		movs	r2, #0
 363 005a 1A70     		strb	r2, [r3]
 237:Generated_Source\PSoC4/ShiftReg_1.c ****                 break;
 364              		.loc 1 237 0
 365 005c C046     		nop
 366              	.L19:
 238:Generated_Source\PSoC4/ShiftReg_1.c ****         }
 239:Generated_Source\PSoC4/ShiftReg_1.c ****     }
 240:Generated_Source\PSoC4/ShiftReg_1.c **** 
 241:Generated_Source\PSoC4/ShiftReg_1.c ****     return(result);
 367              		.loc 1 241 0
 368 005e 0F23     		movs	r3, #15
 369 0060 FB18     		adds	r3, r7, r3
 370 0062 1B78     		ldrb	r3, [r3]
 242:Generated_Source\PSoC4/ShiftReg_1.c **** }
 371              		.loc 1 242 0
 372 0064 1800     		movs	r0, r3
 373 0066 BD46     		mov	sp, r7
 374 0068 04B0     		add	sp, sp, #16
 375              		@ sp needed
 376 006a 80BD     		pop	{r7, pc}
 377              	.L27:
 378              		.align	2
 379              	.L26:
 380 006c 63000F40 		.word	1074724963
 381              		.cfi_endproc
 382              	.LFE6:
 383              		.size	ShiftReg_1_GetFIFOStatus, .-ShiftReg_1_GetFIFOStatus
 384              		.section	.text.ShiftReg_1_SetIntMode,"ax",%progbits
 385              		.align	2
ARM GAS  C:\Users\Ala\AppData\Local\Temp\ccC0tUEi.s 			page 12


 386              		.global	ShiftReg_1_SetIntMode
 387              		.code	16
 388              		.thumb_func
 389              		.type	ShiftReg_1_SetIntMode, %function
 390              	ShiftReg_1_SetIntMode:
 391              	.LFB7:
 243:Generated_Source\PSoC4/ShiftReg_1.c **** 
 244:Generated_Source\PSoC4/ShiftReg_1.c **** 
 245:Generated_Source\PSoC4/ShiftReg_1.c **** /*******************************************************************************
 246:Generated_Source\PSoC4/ShiftReg_1.c **** * Function Name: ShiftReg_1_SetIntMode
 247:Generated_Source\PSoC4/ShiftReg_1.c **** ********************************************************************************
 248:Generated_Source\PSoC4/ShiftReg_1.c **** *
 249:Generated_Source\PSoC4/ShiftReg_1.c **** * Summary:
 250:Generated_Source\PSoC4/ShiftReg_1.c **** *  Sets the Interrupt Source for the Shift Register interrupt. Multiple
 251:Generated_Source\PSoC4/ShiftReg_1.c **** *  sources may be ORed together
 252:Generated_Source\PSoC4/ShiftReg_1.c **** *
 253:Generated_Source\PSoC4/ShiftReg_1.c **** * Parameters:
 254:Generated_Source\PSoC4/ShiftReg_1.c **** *  interruptSource: Byte containing the constant for the selected interrupt
 255:Generated_Source\PSoC4/ShiftReg_1.c **** *  source/s.
 256:Generated_Source\PSoC4/ShiftReg_1.c **** *
 257:Generated_Source\PSoC4/ShiftReg_1.c **** * Return:
 258:Generated_Source\PSoC4/ShiftReg_1.c **** *  None.
 259:Generated_Source\PSoC4/ShiftReg_1.c **** *
 260:Generated_Source\PSoC4/ShiftReg_1.c **** *******************************************************************************/
 261:Generated_Source\PSoC4/ShiftReg_1.c **** void ShiftReg_1_SetIntMode(uint8 interruptSource) 
 262:Generated_Source\PSoC4/ShiftReg_1.c **** {
 392              		.loc 1 262 0
 393              		.cfi_startproc
 394              		@ args = 0, pretend = 0, frame = 8
 395              		@ frame_needed = 1, uses_anonymous_args = 0
 396 0000 80B5     		push	{r7, lr}
 397              		.cfi_def_cfa_offset 8
 398              		.cfi_offset 7, -8
 399              		.cfi_offset 14, -4
 400 0002 82B0     		sub	sp, sp, #8
 401              		.cfi_def_cfa_offset 16
 402 0004 00AF     		add	r7, sp, #0
 403              		.cfi_def_cfa_register 7
 404 0006 0200     		movs	r2, r0
 405 0008 FB1D     		adds	r3, r7, #7
 406 000a 1A70     		strb	r2, [r3]
 263:Generated_Source\PSoC4/ShiftReg_1.c ****     ShiftReg_1_SR_STATUS_MASK &= ((uint8) ~ShiftReg_1_INTS_EN_MASK);          /* Clear existing int
 407              		.loc 1 263 0
 408 000c 0B4A     		ldr	r2, .L29
 409 000e 0B4B     		ldr	r3, .L29
 410 0010 1B78     		ldrb	r3, [r3]
 411 0012 DBB2     		uxtb	r3, r3
 412 0014 0721     		movs	r1, #7
 413 0016 8B43     		bics	r3, r1
 414 0018 DBB2     		uxtb	r3, r3
 415 001a 1370     		strb	r3, [r2]
 264:Generated_Source\PSoC4/ShiftReg_1.c ****     ShiftReg_1_SR_STATUS_MASK |= (interruptSource & ShiftReg_1_INTS_EN_MASK); /* Set int */
 416              		.loc 1 264 0
 417 001c 0749     		ldr	r1, .L29
 418 001e 074B     		ldr	r3, .L29
 419 0020 1B78     		ldrb	r3, [r3]
 420 0022 DAB2     		uxtb	r2, r3
ARM GAS  C:\Users\Ala\AppData\Local\Temp\ccC0tUEi.s 			page 13


 421 0024 FB1D     		adds	r3, r7, #7
 422 0026 1B78     		ldrb	r3, [r3]
 423 0028 0720     		movs	r0, #7
 424 002a 0340     		ands	r3, r0
 425 002c DBB2     		uxtb	r3, r3
 426 002e 1343     		orrs	r3, r2
 427 0030 DBB2     		uxtb	r3, r3
 428 0032 0B70     		strb	r3, [r1]
 265:Generated_Source\PSoC4/ShiftReg_1.c **** }
 429              		.loc 1 265 0
 430 0034 C046     		nop
 431 0036 BD46     		mov	sp, r7
 432 0038 02B0     		add	sp, sp, #8
 433              		@ sp needed
 434 003a 80BD     		pop	{r7, pc}
 435              	.L30:
 436              		.align	2
 437              	.L29:
 438 003c 83000F40 		.word	1074724995
 439              		.cfi_endproc
 440              	.LFE7:
 441              		.size	ShiftReg_1_SetIntMode, .-ShiftReg_1_SetIntMode
 442              		.section	.text.ShiftReg_1_GetIntStatus,"ax",%progbits
 443              		.align	2
 444              		.global	ShiftReg_1_GetIntStatus
 445              		.code	16
 446              		.thumb_func
 447              		.type	ShiftReg_1_GetIntStatus, %function
 448              	ShiftReg_1_GetIntStatus:
 449              	.LFB8:
 266:Generated_Source\PSoC4/ShiftReg_1.c **** 
 267:Generated_Source\PSoC4/ShiftReg_1.c **** 
 268:Generated_Source\PSoC4/ShiftReg_1.c **** /*******************************************************************************
 269:Generated_Source\PSoC4/ShiftReg_1.c **** * Function Name: ShiftReg_1_GetIntStatus
 270:Generated_Source\PSoC4/ShiftReg_1.c **** ********************************************************************************
 271:Generated_Source\PSoC4/ShiftReg_1.c **** *
 272:Generated_Source\PSoC4/ShiftReg_1.c **** * Summary:
 273:Generated_Source\PSoC4/ShiftReg_1.c **** *  Gets the Shift Register Interrupt status.
 274:Generated_Source\PSoC4/ShiftReg_1.c **** *
 275:Generated_Source\PSoC4/ShiftReg_1.c **** * Parameters:
 276:Generated_Source\PSoC4/ShiftReg_1.c **** *  None.
 277:Generated_Source\PSoC4/ShiftReg_1.c **** *
 278:Generated_Source\PSoC4/ShiftReg_1.c **** * Return:
 279:Generated_Source\PSoC4/ShiftReg_1.c **** *  Byte containing the constant for the selected interrupt source/s.
 280:Generated_Source\PSoC4/ShiftReg_1.c **** *
 281:Generated_Source\PSoC4/ShiftReg_1.c **** *******************************************************************************/
 282:Generated_Source\PSoC4/ShiftReg_1.c **** uint8 ShiftReg_1_GetIntStatus(void) 
 283:Generated_Source\PSoC4/ShiftReg_1.c **** {
 450              		.loc 1 283 0
 451              		.cfi_startproc
 452              		@ args = 0, pretend = 0, frame = 0
 453              		@ frame_needed = 1, uses_anonymous_args = 0
 454 0000 80B5     		push	{r7, lr}
 455              		.cfi_def_cfa_offset 8
 456              		.cfi_offset 7, -8
 457              		.cfi_offset 14, -4
 458 0002 00AF     		add	r7, sp, #0
ARM GAS  C:\Users\Ala\AppData\Local\Temp\ccC0tUEi.s 			page 14


 459              		.cfi_def_cfa_register 7
 284:Generated_Source\PSoC4/ShiftReg_1.c ****     return(ShiftReg_1_SR_STATUS & ShiftReg_1_INTS_EN_MASK);
 460              		.loc 1 284 0
 461 0004 044B     		ldr	r3, .L33
 462 0006 1B78     		ldrb	r3, [r3]
 463 0008 DBB2     		uxtb	r3, r3
 464 000a 0722     		movs	r2, #7
 465 000c 1340     		ands	r3, r2
 466 000e DBB2     		uxtb	r3, r3
 285:Generated_Source\PSoC4/ShiftReg_1.c **** }
 467              		.loc 1 285 0
 468 0010 1800     		movs	r0, r3
 469 0012 BD46     		mov	sp, r7
 470              		@ sp needed
 471 0014 80BD     		pop	{r7, pc}
 472              	.L34:
 473 0016 C046     		.align	2
 474              	.L33:
 475 0018 63000F40 		.word	1074724963
 476              		.cfi_endproc
 477              	.LFE8:
 478              		.size	ShiftReg_1_GetIntStatus, .-ShiftReg_1_GetIntStatus
 479              		.section	.text.ShiftReg_1_WriteRegValue,"ax",%progbits
 480              		.align	2
 481              		.global	ShiftReg_1_WriteRegValue
 482              		.code	16
 483              		.thumb_func
 484              		.type	ShiftReg_1_WriteRegValue, %function
 485              	ShiftReg_1_WriteRegValue:
 486              	.LFB9:
 286:Generated_Source\PSoC4/ShiftReg_1.c **** 
 287:Generated_Source\PSoC4/ShiftReg_1.c **** 
 288:Generated_Source\PSoC4/ShiftReg_1.c **** /*******************************************************************************
 289:Generated_Source\PSoC4/ShiftReg_1.c **** * Function Name: ShiftReg_1_WriteRegValue
 290:Generated_Source\PSoC4/ShiftReg_1.c **** ********************************************************************************
 291:Generated_Source\PSoC4/ShiftReg_1.c **** *
 292:Generated_Source\PSoC4/ShiftReg_1.c **** * Summary:
 293:Generated_Source\PSoC4/ShiftReg_1.c **** *  Send state directly to shift register
 294:Generated_Source\PSoC4/ShiftReg_1.c **** *
 295:Generated_Source\PSoC4/ShiftReg_1.c **** * Parameters:
 296:Generated_Source\PSoC4/ShiftReg_1.c **** *  shiftData: containing shift register state.
 297:Generated_Source\PSoC4/ShiftReg_1.c **** *
 298:Generated_Source\PSoC4/ShiftReg_1.c **** * Return:
 299:Generated_Source\PSoC4/ShiftReg_1.c **** *  None.
 300:Generated_Source\PSoC4/ShiftReg_1.c **** *
 301:Generated_Source\PSoC4/ShiftReg_1.c **** *******************************************************************************/
 302:Generated_Source\PSoC4/ShiftReg_1.c **** void ShiftReg_1_WriteRegValue(uint32 shiftData)
 303:Generated_Source\PSoC4/ShiftReg_1.c ****                                                                      
 304:Generated_Source\PSoC4/ShiftReg_1.c **** {
 487              		.loc 1 304 0
 488              		.cfi_startproc
 489              		@ args = 0, pretend = 0, frame = 8
 490              		@ frame_needed = 1, uses_anonymous_args = 0
 491 0000 80B5     		push	{r7, lr}
 492              		.cfi_def_cfa_offset 8
 493              		.cfi_offset 7, -8
 494              		.cfi_offset 14, -4
ARM GAS  C:\Users\Ala\AppData\Local\Temp\ccC0tUEi.s 			page 15


 495 0002 82B0     		sub	sp, sp, #8
 496              		.cfi_def_cfa_offset 16
 497 0004 00AF     		add	r7, sp, #0
 498              		.cfi_def_cfa_register 7
 499 0006 7860     		str	r0, [r7, #4]
 305:Generated_Source\PSoC4/ShiftReg_1.c ****     CY_SET_REG32(ShiftReg_1_SHIFT_REG_LSB_PTR, shiftData);
 500              		.loc 1 305 0
 501 0008 034B     		ldr	r3, .L36
 502 000a 7A68     		ldr	r2, [r7, #4]
 503 000c 1A60     		str	r2, [r3]
 306:Generated_Source\PSoC4/ShiftReg_1.c **** }
 504              		.loc 1 306 0
 505 000e C046     		nop
 506 0010 BD46     		mov	sp, r7
 507 0012 02B0     		add	sp, sp, #8
 508              		@ sp needed
 509 0014 80BD     		pop	{r7, pc}
 510              	.L37:
 511 0016 C046     		.align	2
 512              	.L36:
 513 0018 00200F40 		.word	1074733056
 514              		.cfi_endproc
 515              	.LFE9:
 516              		.size	ShiftReg_1_WriteRegValue, .-ShiftReg_1_WriteRegValue
 517              		.section	.text.ShiftReg_1_ReadRegValue,"ax",%progbits
 518              		.align	2
 519              		.global	ShiftReg_1_ReadRegValue
 520              		.code	16
 521              		.thumb_func
 522              		.type	ShiftReg_1_ReadRegValue, %function
 523              	ShiftReg_1_ReadRegValue:
 524              	.LFB10:
 307:Generated_Source\PSoC4/ShiftReg_1.c **** 
 308:Generated_Source\PSoC4/ShiftReg_1.c **** 
 309:Generated_Source\PSoC4/ShiftReg_1.c **** #if(0u != ShiftReg_1_USE_INPUT_FIFO)
 310:Generated_Source\PSoC4/ShiftReg_1.c ****     /*******************************************************************************
 311:Generated_Source\PSoC4/ShiftReg_1.c ****     * Function Name: ShiftReg_1_WriteData
 312:Generated_Source\PSoC4/ShiftReg_1.c ****     ********************************************************************************
 313:Generated_Source\PSoC4/ShiftReg_1.c ****     *
 314:Generated_Source\PSoC4/ShiftReg_1.c ****     * Summary:
 315:Generated_Source\PSoC4/ShiftReg_1.c ****     *  Send state to FIFO for later transfer to shift register based on the Load
 316:Generated_Source\PSoC4/ShiftReg_1.c ****     *  input
 317:Generated_Source\PSoC4/ShiftReg_1.c ****     *
 318:Generated_Source\PSoC4/ShiftReg_1.c ****     * Parameters:
 319:Generated_Source\PSoC4/ShiftReg_1.c ****     *  shiftData: containing shift register state.
 320:Generated_Source\PSoC4/ShiftReg_1.c ****     *
 321:Generated_Source\PSoC4/ShiftReg_1.c ****     * Return:
 322:Generated_Source\PSoC4/ShiftReg_1.c ****     *  Indicates: successful execution of function
 323:Generated_Source\PSoC4/ShiftReg_1.c ****     *  when FIFO is empty; and error when FIFO is full.
 324:Generated_Source\PSoC4/ShiftReg_1.c ****     *
 325:Generated_Source\PSoC4/ShiftReg_1.c ****     * Reentrant:
 326:Generated_Source\PSoC4/ShiftReg_1.c ****     *  No.
 327:Generated_Source\PSoC4/ShiftReg_1.c ****     *
 328:Generated_Source\PSoC4/ShiftReg_1.c ****     *******************************************************************************/
 329:Generated_Source\PSoC4/ShiftReg_1.c ****     cystatus ShiftReg_1_WriteData(uint32 shiftData)
 330:Generated_Source\PSoC4/ShiftReg_1.c ****                                                                          
 331:Generated_Source\PSoC4/ShiftReg_1.c ****     {
ARM GAS  C:\Users\Ala\AppData\Local\Temp\ccC0tUEi.s 			page 16


 332:Generated_Source\PSoC4/ShiftReg_1.c ****         cystatus result;
 333:Generated_Source\PSoC4/ShiftReg_1.c **** 
 334:Generated_Source\PSoC4/ShiftReg_1.c ****         result = CYRET_INVALID_STATE;
 335:Generated_Source\PSoC4/ShiftReg_1.c **** 
 336:Generated_Source\PSoC4/ShiftReg_1.c ****         /* Writes data into the input FIFO if it is not FULL */
 337:Generated_Source\PSoC4/ShiftReg_1.c ****         if(ShiftReg_1_RET_FIFO_FULL != (ShiftReg_1_GetFIFOStatus(ShiftReg_1_IN_FIFO)))
 338:Generated_Source\PSoC4/ShiftReg_1.c ****         {
 339:Generated_Source\PSoC4/ShiftReg_1.c ****             CY_SET_REG32(ShiftReg_1_IN_FIFO_VAL_LSB_PTR, shiftData);
 340:Generated_Source\PSoC4/ShiftReg_1.c ****             result = CYRET_SUCCESS;
 341:Generated_Source\PSoC4/ShiftReg_1.c ****         }
 342:Generated_Source\PSoC4/ShiftReg_1.c **** 
 343:Generated_Source\PSoC4/ShiftReg_1.c ****         return(result);
 344:Generated_Source\PSoC4/ShiftReg_1.c ****     }
 345:Generated_Source\PSoC4/ShiftReg_1.c **** #endif /* (0u != ShiftReg_1_USE_INPUT_FIFO) */
 346:Generated_Source\PSoC4/ShiftReg_1.c **** 
 347:Generated_Source\PSoC4/ShiftReg_1.c **** 
 348:Generated_Source\PSoC4/ShiftReg_1.c **** #if(0u != ShiftReg_1_USE_OUTPUT_FIFO)
 349:Generated_Source\PSoC4/ShiftReg_1.c ****     /*******************************************************************************
 350:Generated_Source\PSoC4/ShiftReg_1.c ****     * Function Name: ShiftReg_1_ReadData
 351:Generated_Source\PSoC4/ShiftReg_1.c ****     ********************************************************************************
 352:Generated_Source\PSoC4/ShiftReg_1.c ****     *
 353:Generated_Source\PSoC4/ShiftReg_1.c ****     * Summary:
 354:Generated_Source\PSoC4/ShiftReg_1.c ****     *  Returns state in FIFO due to Store input.
 355:Generated_Source\PSoC4/ShiftReg_1.c ****     *
 356:Generated_Source\PSoC4/ShiftReg_1.c ****     * Parameters:
 357:Generated_Source\PSoC4/ShiftReg_1.c ****     *  None.
 358:Generated_Source\PSoC4/ShiftReg_1.c ****     *
 359:Generated_Source\PSoC4/ShiftReg_1.c ****     * Return:
 360:Generated_Source\PSoC4/ShiftReg_1.c ****     *  Shift Register state
 361:Generated_Source\PSoC4/ShiftReg_1.c ****     *
 362:Generated_Source\PSoC4/ShiftReg_1.c ****     * Reentrant:
 363:Generated_Source\PSoC4/ShiftReg_1.c ****     *  No.
 364:Generated_Source\PSoC4/ShiftReg_1.c ****     *
 365:Generated_Source\PSoC4/ShiftReg_1.c ****     *******************************************************************************/
 366:Generated_Source\PSoC4/ShiftReg_1.c ****     uint32 ShiftReg_1_ReadData(void) 
 367:Generated_Source\PSoC4/ShiftReg_1.c ****     {
 368:Generated_Source\PSoC4/ShiftReg_1.c ****         return(CY_GET_REG32(ShiftReg_1_OUT_FIFO_VAL_LSB_PTR));
 369:Generated_Source\PSoC4/ShiftReg_1.c ****     }
 370:Generated_Source\PSoC4/ShiftReg_1.c **** #endif /* (0u != ShiftReg_1_USE_OUTPUT_FIFO) */
 371:Generated_Source\PSoC4/ShiftReg_1.c **** 
 372:Generated_Source\PSoC4/ShiftReg_1.c **** 
 373:Generated_Source\PSoC4/ShiftReg_1.c **** /*******************************************************************************
 374:Generated_Source\PSoC4/ShiftReg_1.c **** * Function Name: ShiftReg_1_ReadRegValue
 375:Generated_Source\PSoC4/ShiftReg_1.c **** ********************************************************************************
 376:Generated_Source\PSoC4/ShiftReg_1.c **** *
 377:Generated_Source\PSoC4/ShiftReg_1.c **** * Summary:
 378:Generated_Source\PSoC4/ShiftReg_1.c **** *  Directly returns current state in shift register, not data in FIFO due
 379:Generated_Source\PSoC4/ShiftReg_1.c **** *  to Store input.
 380:Generated_Source\PSoC4/ShiftReg_1.c **** *
 381:Generated_Source\PSoC4/ShiftReg_1.c **** * Parameters:
 382:Generated_Source\PSoC4/ShiftReg_1.c **** *  None.
 383:Generated_Source\PSoC4/ShiftReg_1.c **** *
 384:Generated_Source\PSoC4/ShiftReg_1.c **** * Return:
 385:Generated_Source\PSoC4/ShiftReg_1.c **** *  Shift Register state. Clears output FIFO.
 386:Generated_Source\PSoC4/ShiftReg_1.c **** *
 387:Generated_Source\PSoC4/ShiftReg_1.c **** * Reentrant:
 388:Generated_Source\PSoC4/ShiftReg_1.c **** *  No.
ARM GAS  C:\Users\Ala\AppData\Local\Temp\ccC0tUEi.s 			page 17


 389:Generated_Source\PSoC4/ShiftReg_1.c **** *
 390:Generated_Source\PSoC4/ShiftReg_1.c **** *******************************************************************************/
 391:Generated_Source\PSoC4/ShiftReg_1.c **** uint32 ShiftReg_1_ReadRegValue(void) 
 392:Generated_Source\PSoC4/ShiftReg_1.c **** {
 525              		.loc 1 392 0
 526              		.cfi_startproc
 527              		@ args = 0, pretend = 0, frame = 8
 528              		@ frame_needed = 1, uses_anonymous_args = 0
 529 0000 80B5     		push	{r7, lr}
 530              		.cfi_def_cfa_offset 8
 531              		.cfi_offset 7, -8
 532              		.cfi_offset 14, -4
 533 0002 82B0     		sub	sp, sp, #8
 534              		.cfi_def_cfa_offset 16
 535 0004 00AF     		add	r7, sp, #0
 536              		.cfi_def_cfa_register 7
 393:Generated_Source\PSoC4/ShiftReg_1.c ****     uint32 result;
 394:Generated_Source\PSoC4/ShiftReg_1.c **** 
 395:Generated_Source\PSoC4/ShiftReg_1.c ****     /* Clear FIFO before software capture */
 396:Generated_Source\PSoC4/ShiftReg_1.c ****     while(ShiftReg_1_RET_FIFO_EMPTY != ShiftReg_1_GetFIFOStatus(ShiftReg_1_OUT_FIFO))
 537              		.loc 1 396 0
 538 0006 01E0     		b	.L39
 539              	.L40:
 397:Generated_Source\PSoC4/ShiftReg_1.c ****     {
 398:Generated_Source\PSoC4/ShiftReg_1.c ****         (void) CY_GET_REG32(ShiftReg_1_OUT_FIFO_VAL_LSB_PTR);
 540              		.loc 1 398 0
 541 0008 084B     		ldr	r3, .L42
 542 000a 1B68     		ldr	r3, [r3]
 543              	.L39:
 396:Generated_Source\PSoC4/ShiftReg_1.c ****     {
 544              		.loc 1 396 0
 545 000c 0220     		movs	r0, #2
 546 000e FFF7FEFF 		bl	ShiftReg_1_GetFIFOStatus
 547 0012 0300     		movs	r3, r0
 548 0014 022B     		cmp	r3, #2
 549 0016 F7D1     		bne	.L40
 399:Generated_Source\PSoC4/ShiftReg_1.c ****     }
 400:Generated_Source\PSoC4/ShiftReg_1.c **** 
 401:Generated_Source\PSoC4/ShiftReg_1.c ****     /* Read of 8 bits from A1 causes capture to output FIFO */
 402:Generated_Source\PSoC4/ShiftReg_1.c ****     (void) CY_GET_REG8(ShiftReg_1_SHIFT_REG_CAPTURE_PTR);
 550              		.loc 1 402 0
 551 0018 054B     		ldr	r3, .L42+4
 552 001a 1B78     		ldrb	r3, [r3]
 403:Generated_Source\PSoC4/ShiftReg_1.c **** 
 404:Generated_Source\PSoC4/ShiftReg_1.c ****     /* Read output FIFO */
 405:Generated_Source\PSoC4/ShiftReg_1.c ****     result  = CY_GET_REG32(ShiftReg_1_OUT_FIFO_VAL_LSB_PTR);
 553              		.loc 1 405 0
 554 001c 034B     		ldr	r3, .L42
 555 001e 1B68     		ldr	r3, [r3]
 556 0020 7B60     		str	r3, [r7, #4]
 406:Generated_Source\PSoC4/ShiftReg_1.c ****     
 407:Generated_Source\PSoC4/ShiftReg_1.c ****     #if(0u != (ShiftReg_1_SR_SIZE % 8u))
 408:Generated_Source\PSoC4/ShiftReg_1.c ****         result &= ((uint32) ShiftReg_1_SR_MASK);
 409:Generated_Source\PSoC4/ShiftReg_1.c ****     #endif /* (0u != (ShiftReg_1_SR_SIZE % 8u)) */
 410:Generated_Source\PSoC4/ShiftReg_1.c ****     
 411:Generated_Source\PSoC4/ShiftReg_1.c ****     return(result);
 557              		.loc 1 411 0
ARM GAS  C:\Users\Ala\AppData\Local\Temp\ccC0tUEi.s 			page 18


 558 0022 7B68     		ldr	r3, [r7, #4]
 412:Generated_Source\PSoC4/ShiftReg_1.c **** }
 559              		.loc 1 412 0
 560 0024 1800     		movs	r0, r3
 561 0026 BD46     		mov	sp, r7
 562 0028 02B0     		add	sp, sp, #8
 563              		@ sp needed
 564 002a 80BD     		pop	{r7, pc}
 565              	.L43:
 566              		.align	2
 567              	.L42:
 568 002c 40210F40 		.word	1074733376
 569 0030 10000F40 		.word	1074724880
 570              		.cfi_endproc
 571              	.LFE10:
 572              		.size	ShiftReg_1_ReadRegValue, .-ShiftReg_1_ReadRegValue
 573              		.text
 574              	.Letext0:
 575              		.file 2 "Generated_Source\\PSoC4\\cytypes.h"