ARM GAS  C:\Users\Ala\AppData\Local\Temp\ccMfiCyE.s 			page 1


   1              		.syntax unified
   2              		.cpu cortex-m0
   3              		.fpu softvfp
   4              		.eabi_attribute 20, 1
   5              		.eabi_attribute 21, 1
   6              		.eabi_attribute 23, 3
   7              		.eabi_attribute 24, 1
   8              		.eabi_attribute 25, 1
   9              		.eabi_attribute 26, 1
  10              		.eabi_attribute 30, 6
  11              		.eabi_attribute 34, 0
  12              		.eabi_attribute 18, 4
  13              		.thumb
  14              		.syntax unified
  15              		.file	"ShiftReg_1_PM.c"
  16              		.text
  17              	.Ltext0:
  18              		.cfi_sections	.debug_frame
  19              		.bss
  20              		.align	2
  21              	ShiftReg_1_backup:
  22 0000 00000000 		.space	12
  22      00000000 
  22      00000000 
  23              		.section	.text.ShiftReg_1_SaveConfig,"ax",%progbits
  24              		.align	2
  25              		.global	ShiftReg_1_SaveConfig
  26              		.code	16
  27              		.thumb_func
  28              		.type	ShiftReg_1_SaveConfig, %function
  29              	ShiftReg_1_SaveConfig:
  30              	.LFB0:
  31              		.file 1 "Generated_Source\\PSoC4\\ShiftReg_1_PM.c"
   1:Generated_Source\PSoC4/ShiftReg_1_PM.c **** /*******************************************************************************
   2:Generated_Source\PSoC4/ShiftReg_1_PM.c **** * File Name: ShiftReg_1_PM.c
   3:Generated_Source\PSoC4/ShiftReg_1_PM.c **** * Version 2.30
   4:Generated_Source\PSoC4/ShiftReg_1_PM.c **** *
   5:Generated_Source\PSoC4/ShiftReg_1_PM.c **** * Description:
   6:Generated_Source\PSoC4/ShiftReg_1_PM.c **** *  This file provides the API source code for sleep mode support for Shift
   7:Generated_Source\PSoC4/ShiftReg_1_PM.c **** *  Register component.
   8:Generated_Source\PSoC4/ShiftReg_1_PM.c **** *
   9:Generated_Source\PSoC4/ShiftReg_1_PM.c **** * Note:
  10:Generated_Source\PSoC4/ShiftReg_1_PM.c **** *
  11:Generated_Source\PSoC4/ShiftReg_1_PM.c **** ********************************************************************************
  12:Generated_Source\PSoC4/ShiftReg_1_PM.c **** * Copyright 2008-2013, Cypress Semiconductor Corporation.  All rights reserved.
  13:Generated_Source\PSoC4/ShiftReg_1_PM.c **** * You may use this file only in accordance with the license, terms, conditions,
  14:Generated_Source\PSoC4/ShiftReg_1_PM.c **** * disclaimers, and limitations in the end user license agreement accompanying
  15:Generated_Source\PSoC4/ShiftReg_1_PM.c **** * the software package with which this file was provided.
  16:Generated_Source\PSoC4/ShiftReg_1_PM.c **** *******************************************************************************/
  17:Generated_Source\PSoC4/ShiftReg_1_PM.c **** 
  18:Generated_Source\PSoC4/ShiftReg_1_PM.c **** #include "ShiftReg_1.h"
  19:Generated_Source\PSoC4/ShiftReg_1_PM.c **** 
  20:Generated_Source\PSoC4/ShiftReg_1_PM.c **** static ShiftReg_1_BACKUP_STRUCT ShiftReg_1_backup =
  21:Generated_Source\PSoC4/ShiftReg_1_PM.c **** {
  22:Generated_Source\PSoC4/ShiftReg_1_PM.c ****     ShiftReg_1_DISABLED,
  23:Generated_Source\PSoC4/ShiftReg_1_PM.c **** 
  24:Generated_Source\PSoC4/ShiftReg_1_PM.c ****     ((uint32) ShiftReg_1_DEFAULT_A0),
ARM GAS  C:\Users\Ala\AppData\Local\Temp\ccMfiCyE.s 			page 2


  25:Generated_Source\PSoC4/ShiftReg_1_PM.c ****     ((uint32) ShiftReg_1_DEFAULT_A1),
  26:Generated_Source\PSoC4/ShiftReg_1_PM.c **** 
  27:Generated_Source\PSoC4/ShiftReg_1_PM.c ****     #if(CY_UDB_V0)
  28:Generated_Source\PSoC4/ShiftReg_1_PM.c ****         ((uint32) ShiftReg_1_INT_SRC),
  29:Generated_Source\PSoC4/ShiftReg_1_PM.c ****     #endif /* (CY_UDB_V0) */
  30:Generated_Source\PSoC4/ShiftReg_1_PM.c **** };
  31:Generated_Source\PSoC4/ShiftReg_1_PM.c **** 
  32:Generated_Source\PSoC4/ShiftReg_1_PM.c **** 
  33:Generated_Source\PSoC4/ShiftReg_1_PM.c **** /*******************************************************************************
  34:Generated_Source\PSoC4/ShiftReg_1_PM.c **** * Function Name: ShiftReg_1_SaveConfig
  35:Generated_Source\PSoC4/ShiftReg_1_PM.c **** ********************************************************************************
  36:Generated_Source\PSoC4/ShiftReg_1_PM.c **** *
  37:Generated_Source\PSoC4/ShiftReg_1_PM.c **** * Summary:
  38:Generated_Source\PSoC4/ShiftReg_1_PM.c **** *  Saves Shift Register configuration.
  39:Generated_Source\PSoC4/ShiftReg_1_PM.c **** *
  40:Generated_Source\PSoC4/ShiftReg_1_PM.c **** * Parameters:
  41:Generated_Source\PSoC4/ShiftReg_1_PM.c **** *  None.
  42:Generated_Source\PSoC4/ShiftReg_1_PM.c **** *
  43:Generated_Source\PSoC4/ShiftReg_1_PM.c **** * Return:
  44:Generated_Source\PSoC4/ShiftReg_1_PM.c **** *  None.
  45:Generated_Source\PSoC4/ShiftReg_1_PM.c **** *
  46:Generated_Source\PSoC4/ShiftReg_1_PM.c **** * Reentrant:
  47:Generated_Source\PSoC4/ShiftReg_1_PM.c **** *  No.
  48:Generated_Source\PSoC4/ShiftReg_1_PM.c **** *
  49:Generated_Source\PSoC4/ShiftReg_1_PM.c **** *******************************************************************************/
  50:Generated_Source\PSoC4/ShiftReg_1_PM.c **** void ShiftReg_1_SaveConfig(void) 
  51:Generated_Source\PSoC4/ShiftReg_1_PM.c **** {
  32              		.loc 1 51 0
  33              		.cfi_startproc
  34              		@ args = 0, pretend = 0, frame = 0
  35              		@ frame_needed = 1, uses_anonymous_args = 0
  36 0000 80B5     		push	{r7, lr}
  37              		.cfi_def_cfa_offset 8
  38              		.cfi_offset 7, -8
  39              		.cfi_offset 14, -4
  40 0002 00AF     		add	r7, sp, #0
  41              		.cfi_def_cfa_register 7
  52:Generated_Source\PSoC4/ShiftReg_1_PM.c ****     /* Store working registers A0 and A1 */
  53:Generated_Source\PSoC4/ShiftReg_1_PM.c ****     ShiftReg_1_backup.saveSrA0Reg   = CY_GET_REG32(ShiftReg_1_SHIFT_REG_LSB_PTR);
  42              		.loc 1 53 0
  43 0004 054B     		ldr	r3, .L2
  44 0006 1A68     		ldr	r2, [r3]
  45 0008 054B     		ldr	r3, .L2+4
  46 000a 5A60     		str	r2, [r3, #4]
  54:Generated_Source\PSoC4/ShiftReg_1_PM.c ****     ShiftReg_1_backup.saveSrA1Reg   = CY_GET_REG32(ShiftReg_1_SHIFT_REG_VALUE_LSB_PTR);
  47              		.loc 1 54 0
  48 000c 054B     		ldr	r3, .L2+8
  49 000e 1A68     		ldr	r2, [r3]
  50 0010 034B     		ldr	r3, .L2+4
  51 0012 9A60     		str	r2, [r3, #8]
  55:Generated_Source\PSoC4/ShiftReg_1_PM.c **** 
  56:Generated_Source\PSoC4/ShiftReg_1_PM.c ****     #if(CY_UDB_V0)
  57:Generated_Source\PSoC4/ShiftReg_1_PM.c ****         ShiftReg_1_backup.saveSrIntMask = ShiftReg_1_SR_STATUS_MASK;
  58:Generated_Source\PSoC4/ShiftReg_1_PM.c ****     #endif /* (CY_UDB_V0) */
  59:Generated_Source\PSoC4/ShiftReg_1_PM.c **** }
  52              		.loc 1 59 0
  53 0014 C046     		nop
ARM GAS  C:\Users\Ala\AppData\Local\Temp\ccMfiCyE.s 			page 3


  54 0016 BD46     		mov	sp, r7
  55              		@ sp needed
  56 0018 80BD     		pop	{r7, pc}
  57              	.L3:
  58 001a C046     		.align	2
  59              	.L2:
  60 001c 00200F40 		.word	1074733056
  61 0020 00000000 		.word	ShiftReg_1_backup
  62 0024 40200F40 		.word	1074733120
  63              		.cfi_endproc
  64              	.LFE0:
  65              		.size	ShiftReg_1_SaveConfig, .-ShiftReg_1_SaveConfig
  66              		.section	.text.ShiftReg_1_RestoreConfig,"ax",%progbits
  67              		.align	2
  68              		.global	ShiftReg_1_RestoreConfig
  69              		.code	16
  70              		.thumb_func
  71              		.type	ShiftReg_1_RestoreConfig, %function
  72              	ShiftReg_1_RestoreConfig:
  73              	.LFB1:
  60:Generated_Source\PSoC4/ShiftReg_1_PM.c **** 
  61:Generated_Source\PSoC4/ShiftReg_1_PM.c **** 
  62:Generated_Source\PSoC4/ShiftReg_1_PM.c **** /*******************************************************************************
  63:Generated_Source\PSoC4/ShiftReg_1_PM.c **** * Function Name: ShiftReg_1_RestoreConfig
  64:Generated_Source\PSoC4/ShiftReg_1_PM.c **** ********************************************************************************
  65:Generated_Source\PSoC4/ShiftReg_1_PM.c **** *
  66:Generated_Source\PSoC4/ShiftReg_1_PM.c **** * Summary:
  67:Generated_Source\PSoC4/ShiftReg_1_PM.c **** *  Restores Shift Register configuration.
  68:Generated_Source\PSoC4/ShiftReg_1_PM.c **** *
  69:Generated_Source\PSoC4/ShiftReg_1_PM.c **** * Parameters:
  70:Generated_Source\PSoC4/ShiftReg_1_PM.c **** *  None.
  71:Generated_Source\PSoC4/ShiftReg_1_PM.c **** *
  72:Generated_Source\PSoC4/ShiftReg_1_PM.c **** * Return:
  73:Generated_Source\PSoC4/ShiftReg_1_PM.c **** *  None.
  74:Generated_Source\PSoC4/ShiftReg_1_PM.c **** *
  75:Generated_Source\PSoC4/ShiftReg_1_PM.c **** *******************************************************************************/
  76:Generated_Source\PSoC4/ShiftReg_1_PM.c **** void ShiftReg_1_RestoreConfig(void) 
  77:Generated_Source\PSoC4/ShiftReg_1_PM.c **** {
  74              		.loc 1 77 0
  75              		.cfi_startproc
  76              		@ args = 0, pretend = 0, frame = 0
  77              		@ frame_needed = 1, uses_anonymous_args = 0
  78 0000 80B5     		push	{r7, lr}
  79              		.cfi_def_cfa_offset 8
  80              		.cfi_offset 7, -8
  81              		.cfi_offset 14, -4
  82 0002 00AF     		add	r7, sp, #0
  83              		.cfi_def_cfa_register 7
  78:Generated_Source\PSoC4/ShiftReg_1_PM.c ****     /* Restore working registers A0 and A1 */
  79:Generated_Source\PSoC4/ShiftReg_1_PM.c ****     CY_SET_REG32(ShiftReg_1_SHIFT_REG_LSB_PTR, ShiftReg_1_backup.saveSrA0Reg);
  84              		.loc 1 79 0
  85 0004 054A     		ldr	r2, .L5
  86 0006 064B     		ldr	r3, .L5+4
  87 0008 5B68     		ldr	r3, [r3, #4]
  88 000a 1360     		str	r3, [r2]
  80:Generated_Source\PSoC4/ShiftReg_1_PM.c ****     CY_SET_REG32(ShiftReg_1_SHIFT_REG_VALUE_LSB_PTR, ShiftReg_1_backup.saveSrA1Reg);
  89              		.loc 1 80 0
ARM GAS  C:\Users\Ala\AppData\Local\Temp\ccMfiCyE.s 			page 4


  90 000c 054A     		ldr	r2, .L5+8
  91 000e 044B     		ldr	r3, .L5+4
  92 0010 9B68     		ldr	r3, [r3, #8]
  93 0012 1360     		str	r3, [r2]
  81:Generated_Source\PSoC4/ShiftReg_1_PM.c **** 
  82:Generated_Source\PSoC4/ShiftReg_1_PM.c ****     #if(CY_UDB_V0)
  83:Generated_Source\PSoC4/ShiftReg_1_PM.c ****         ShiftReg_1_SR_STATUS_MASK = ((uint8) ShiftReg_1_backup.saveSrIntMask);
  84:Generated_Source\PSoC4/ShiftReg_1_PM.c ****     #endif /* (CY_UDB_V0) */
  85:Generated_Source\PSoC4/ShiftReg_1_PM.c **** }
  94              		.loc 1 85 0
  95 0014 C046     		nop
  96 0016 BD46     		mov	sp, r7
  97              		@ sp needed
  98 0018 80BD     		pop	{r7, pc}
  99              	.L6:
 100 001a C046     		.align	2
 101              	.L5:
 102 001c 00200F40 		.word	1074733056
 103 0020 00000000 		.word	ShiftReg_1_backup
 104 0024 40200F40 		.word	1074733120
 105              		.cfi_endproc
 106              	.LFE1:
 107              		.size	ShiftReg_1_RestoreConfig, .-ShiftReg_1_RestoreConfig
 108              		.section	.text.ShiftReg_1_Sleep,"ax",%progbits
 109              		.align	2
 110              		.global	ShiftReg_1_Sleep
 111              		.code	16
 112              		.thumb_func
 113              		.type	ShiftReg_1_Sleep, %function
 114              	ShiftReg_1_Sleep:
 115              	.LFB2:
  86:Generated_Source\PSoC4/ShiftReg_1_PM.c **** 
  87:Generated_Source\PSoC4/ShiftReg_1_PM.c **** 
  88:Generated_Source\PSoC4/ShiftReg_1_PM.c **** /*******************************************************************************
  89:Generated_Source\PSoC4/ShiftReg_1_PM.c **** * Function Name: ShiftReg_1_Sleep
  90:Generated_Source\PSoC4/ShiftReg_1_PM.c **** ********************************************************************************
  91:Generated_Source\PSoC4/ShiftReg_1_PM.c **** *
  92:Generated_Source\PSoC4/ShiftReg_1_PM.c **** * Summary:
  93:Generated_Source\PSoC4/ShiftReg_1_PM.c **** *  Prepare the component to enter a Sleep mode.
  94:Generated_Source\PSoC4/ShiftReg_1_PM.c **** *
  95:Generated_Source\PSoC4/ShiftReg_1_PM.c **** * Parameters:
  96:Generated_Source\PSoC4/ShiftReg_1_PM.c **** *  None.
  97:Generated_Source\PSoC4/ShiftReg_1_PM.c **** *
  98:Generated_Source\PSoC4/ShiftReg_1_PM.c **** * Return:
  99:Generated_Source\PSoC4/ShiftReg_1_PM.c **** *  None.
 100:Generated_Source\PSoC4/ShiftReg_1_PM.c **** *
 101:Generated_Source\PSoC4/ShiftReg_1_PM.c **** * Reentrant:
 102:Generated_Source\PSoC4/ShiftReg_1_PM.c **** *  No.
 103:Generated_Source\PSoC4/ShiftReg_1_PM.c **** *
 104:Generated_Source\PSoC4/ShiftReg_1_PM.c **** *******************************************************************************/
 105:Generated_Source\PSoC4/ShiftReg_1_PM.c **** void ShiftReg_1_Sleep(void) 
 106:Generated_Source\PSoC4/ShiftReg_1_PM.c **** {
 116              		.loc 1 106 0
 117              		.cfi_startproc
 118              		@ args = 0, pretend = 0, frame = 0
 119              		@ frame_needed = 1, uses_anonymous_args = 0
 120 0000 80B5     		push	{r7, lr}
ARM GAS  C:\Users\Ala\AppData\Local\Temp\ccMfiCyE.s 			page 5


 121              		.cfi_def_cfa_offset 8
 122              		.cfi_offset 7, -8
 123              		.cfi_offset 14, -4
 124 0002 00AF     		add	r7, sp, #0
 125              		.cfi_def_cfa_register 7
 107:Generated_Source\PSoC4/ShiftReg_1_PM.c ****     ShiftReg_1_backup.enableState = ((uint8) ShiftReg_1_IS_ENABLED);
 126              		.loc 1 107 0
 127 0004 094B     		ldr	r3, .L8
 128 0006 1B78     		ldrb	r3, [r3]
 129 0008 DBB2     		uxtb	r3, r3
 130 000a 1A00     		movs	r2, r3
 131 000c 0123     		movs	r3, #1
 132 000e 1340     		ands	r3, r2
 133 0010 5A1E     		subs	r2, r3, #1
 134 0012 9341     		sbcs	r3, r3, r2
 135 0014 DBB2     		uxtb	r3, r3
 136 0016 1A00     		movs	r2, r3
 137 0018 054B     		ldr	r3, .L8+4
 138 001a 1A70     		strb	r2, [r3]
 108:Generated_Source\PSoC4/ShiftReg_1_PM.c **** 
 109:Generated_Source\PSoC4/ShiftReg_1_PM.c ****     ShiftReg_1_Stop();
 139              		.loc 1 109 0
 140 001c FFF7FEFF 		bl	ShiftReg_1_Stop
 110:Generated_Source\PSoC4/ShiftReg_1_PM.c ****     ShiftReg_1_SaveConfig();
 141              		.loc 1 110 0
 142 0020 FFF7FEFF 		bl	ShiftReg_1_SaveConfig
 111:Generated_Source\PSoC4/ShiftReg_1_PM.c **** }
 143              		.loc 1 111 0
 144 0024 C046     		nop
 145 0026 BD46     		mov	sp, r7
 146              		@ sp needed
 147 0028 80BD     		pop	{r7, pc}
 148              	.L9:
 149 002a C046     		.align	2
 150              	.L8:
 151 002c 71000F40 		.word	1074724977
 152 0030 00000000 		.word	ShiftReg_1_backup
 153              		.cfi_endproc
 154              	.LFE2:
 155              		.size	ShiftReg_1_Sleep, .-ShiftReg_1_Sleep
 156              		.section	.text.ShiftReg_1_Wakeup,"ax",%progbits
 157              		.align	2
 158              		.global	ShiftReg_1_Wakeup
 159              		.code	16
 160              		.thumb_func
 161              		.type	ShiftReg_1_Wakeup, %function
 162              	ShiftReg_1_Wakeup:
 163              	.LFB3:
 112:Generated_Source\PSoC4/ShiftReg_1_PM.c **** 
 113:Generated_Source\PSoC4/ShiftReg_1_PM.c **** 
 114:Generated_Source\PSoC4/ShiftReg_1_PM.c **** /*******************************************************************************
 115:Generated_Source\PSoC4/ShiftReg_1_PM.c **** * Function Name: ShiftReg_1_Wakeup
 116:Generated_Source\PSoC4/ShiftReg_1_PM.c **** ********************************************************************************
 117:Generated_Source\PSoC4/ShiftReg_1_PM.c **** *
 118:Generated_Source\PSoC4/ShiftReg_1_PM.c **** * Summary:
 119:Generated_Source\PSoC4/ShiftReg_1_PM.c **** *  Restores and enables the user configuration.
 120:Generated_Source\PSoC4/ShiftReg_1_PM.c **** *
ARM GAS  C:\Users\Ala\AppData\Local\Temp\ccMfiCyE.s 			page 6


 121:Generated_Source\PSoC4/ShiftReg_1_PM.c **** * Parameters:
 122:Generated_Source\PSoC4/ShiftReg_1_PM.c **** *  None.
 123:Generated_Source\PSoC4/ShiftReg_1_PM.c **** *
 124:Generated_Source\PSoC4/ShiftReg_1_PM.c **** * Return:
 125:Generated_Source\PSoC4/ShiftReg_1_PM.c **** *  None.
 126:Generated_Source\PSoC4/ShiftReg_1_PM.c **** *
 127:Generated_Source\PSoC4/ShiftReg_1_PM.c **** *******************************************************************************/
 128:Generated_Source\PSoC4/ShiftReg_1_PM.c **** void ShiftReg_1_Wakeup(void) 
 129:Generated_Source\PSoC4/ShiftReg_1_PM.c **** {
 164              		.loc 1 129 0
 165              		.cfi_startproc
 166              		@ args = 0, pretend = 0, frame = 0
 167              		@ frame_needed = 1, uses_anonymous_args = 0
 168 0000 80B5     		push	{r7, lr}
 169              		.cfi_def_cfa_offset 8
 170              		.cfi_offset 7, -8
 171              		.cfi_offset 14, -4
 172 0002 00AF     		add	r7, sp, #0
 173              		.cfi_def_cfa_register 7
 130:Generated_Source\PSoC4/ShiftReg_1_PM.c ****     ShiftReg_1_RestoreConfig();
 174              		.loc 1 130 0
 175 0004 FFF7FEFF 		bl	ShiftReg_1_RestoreConfig
 131:Generated_Source\PSoC4/ShiftReg_1_PM.c **** 
 132:Generated_Source\PSoC4/ShiftReg_1_PM.c ****     if(0u != ShiftReg_1_backup.enableState)
 176              		.loc 1 132 0
 177 0008 044B     		ldr	r3, .L13
 178 000a 1B78     		ldrb	r3, [r3]
 179 000c 002B     		cmp	r3, #0
 180 000e 01D0     		beq	.L12
 133:Generated_Source\PSoC4/ShiftReg_1_PM.c ****     {
 134:Generated_Source\PSoC4/ShiftReg_1_PM.c ****         ShiftReg_1_Enable();
 181              		.loc 1 134 0
 182 0010 FFF7FEFF 		bl	ShiftReg_1_Enable
 183              	.L12:
 135:Generated_Source\PSoC4/ShiftReg_1_PM.c ****     }
 136:Generated_Source\PSoC4/ShiftReg_1_PM.c **** }
 184              		.loc 1 136 0
 185 0014 C046     		nop
 186 0016 BD46     		mov	sp, r7
 187              		@ sp needed
 188 0018 80BD     		pop	{r7, pc}
 189              	.L14:
 190 001a C046     		.align	2
 191              	.L13:
 192 001c 00000000 		.word	ShiftReg_1_backup
 193              		.cfi_endproc
 194              	.LFE3:
 195              		.size	ShiftReg_1_Wakeup, .-ShiftReg_1_Wakeup
 196              		.text
 197              	.Letext0:
 198              		.file 2 "Generated_Source\\PSoC4\\cytypes.h"
 199              		.file 3 "Generated_Source\\PSoC4\\ShiftReg_1.h"