ARM GAS  C:\Users\Ala\AppData\Local\Temp\cctOFRHR.s 			page 1


   1              		.syntax unified
   2              		.cpu cortex-m0
   3              		.fpu softvfp
   4              		.eabi_attribute 20, 1
   5              		.eabi_attribute 21, 1
   6              		.eabi_attribute 23, 3
   7              		.eabi_attribute 24, 1
   8              		.eabi_attribute 25, 1
   9              		.eabi_attribute 26, 1
  10              		.eabi_attribute 30, 4
  11              		.eabi_attribute 34, 0
  12              		.eabi_attribute 18, 4
  13              		.thumb
  14              		.syntax unified
  15              		.file	"SPIM.c"
  16              		.text
  17              	.Ltext0:
  18              		.cfi_sections	.debug_frame
  19              		.section	.text.SPIM_Init,"ax",%progbits
  20              		.align	1
  21              		.global	SPIM_Init
  22              		.code	16
  23              		.thumb_func
  24              		.type	SPIM_Init, %function
  25              	SPIM_Init:
  26              	.LFB0:
  27              		.file 1 "Generated_Source\\PSoC4\\SPIM.c"
   1:Generated_Source\PSoC4/SPIM.c **** /***************************************************************************//**
   2:Generated_Source\PSoC4/SPIM.c **** * \file SPIM.c
   3:Generated_Source\PSoC4/SPIM.c **** * \version 4.0
   4:Generated_Source\PSoC4/SPIM.c **** *
   5:Generated_Source\PSoC4/SPIM.c **** * \brief
   6:Generated_Source\PSoC4/SPIM.c **** *  This file provides the source code to the API for the SCB Component.
   7:Generated_Source\PSoC4/SPIM.c **** *
   8:Generated_Source\PSoC4/SPIM.c **** * Note:
   9:Generated_Source\PSoC4/SPIM.c **** *
  10:Generated_Source\PSoC4/SPIM.c **** *******************************************************************************
  11:Generated_Source\PSoC4/SPIM.c **** * \copyright
  12:Generated_Source\PSoC4/SPIM.c **** * Copyright 2013-2017, Cypress Semiconductor Corporation.  All rights reserved.
  13:Generated_Source\PSoC4/SPIM.c **** * You may use this file only in accordance with the license, terms, conditions,
  14:Generated_Source\PSoC4/SPIM.c **** * disclaimers, and limitations in the end user license agreement accompanying
  15:Generated_Source\PSoC4/SPIM.c **** * the software package with which this file was provided.
  16:Generated_Source\PSoC4/SPIM.c **** *******************************************************************************/
  17:Generated_Source\PSoC4/SPIM.c **** 
  18:Generated_Source\PSoC4/SPIM.c **** #include "SPIM_PVT.h"
  19:Generated_Source\PSoC4/SPIM.c **** 
  20:Generated_Source\PSoC4/SPIM.c **** #if (SPIM_SCB_MODE_I2C_INC)
  21:Generated_Source\PSoC4/SPIM.c ****     #include "SPIM_I2C_PVT.h"
  22:Generated_Source\PSoC4/SPIM.c **** #endif /* (SPIM_SCB_MODE_I2C_INC) */
  23:Generated_Source\PSoC4/SPIM.c **** 
  24:Generated_Source\PSoC4/SPIM.c **** #if (SPIM_SCB_MODE_EZI2C_INC)
  25:Generated_Source\PSoC4/SPIM.c ****     #include "SPIM_EZI2C_PVT.h"
  26:Generated_Source\PSoC4/SPIM.c **** #endif /* (SPIM_SCB_MODE_EZI2C_INC) */
  27:Generated_Source\PSoC4/SPIM.c **** 
  28:Generated_Source\PSoC4/SPIM.c **** #if (SPIM_SCB_MODE_SPI_INC || SPIM_SCB_MODE_UART_INC)
  29:Generated_Source\PSoC4/SPIM.c ****     #include "SPIM_SPI_UART_PVT.h"
  30:Generated_Source\PSoC4/SPIM.c **** #endif /* (SPIM_SCB_MODE_SPI_INC || SPIM_SCB_MODE_UART_INC) */
ARM GAS  C:\Users\Ala\AppData\Local\Temp\cctOFRHR.s 			page 2


  31:Generated_Source\PSoC4/SPIM.c **** 
  32:Generated_Source\PSoC4/SPIM.c **** 
  33:Generated_Source\PSoC4/SPIM.c **** /***************************************
  34:Generated_Source\PSoC4/SPIM.c **** *    Run Time Configuration Vars
  35:Generated_Source\PSoC4/SPIM.c **** ***************************************/
  36:Generated_Source\PSoC4/SPIM.c **** 
  37:Generated_Source\PSoC4/SPIM.c **** /* Stores internal component configuration for Unconfigured mode */
  38:Generated_Source\PSoC4/SPIM.c **** #if (SPIM_SCB_MODE_UNCONFIG_CONST_CFG)
  39:Generated_Source\PSoC4/SPIM.c ****     /* Common configuration variables */
  40:Generated_Source\PSoC4/SPIM.c ****     uint8 SPIM_scbMode = SPIM_SCB_MODE_UNCONFIG;
  41:Generated_Source\PSoC4/SPIM.c ****     uint8 SPIM_scbEnableWake;
  42:Generated_Source\PSoC4/SPIM.c ****     uint8 SPIM_scbEnableIntr;
  43:Generated_Source\PSoC4/SPIM.c **** 
  44:Generated_Source\PSoC4/SPIM.c ****     /* I2C configuration variables */
  45:Generated_Source\PSoC4/SPIM.c ****     uint8 SPIM_mode;
  46:Generated_Source\PSoC4/SPIM.c ****     uint8 SPIM_acceptAddr;
  47:Generated_Source\PSoC4/SPIM.c **** 
  48:Generated_Source\PSoC4/SPIM.c ****     /* SPI/UART configuration variables */
  49:Generated_Source\PSoC4/SPIM.c ****     volatile uint8 * SPIM_rxBuffer;
  50:Generated_Source\PSoC4/SPIM.c ****     uint8  SPIM_rxDataBits;
  51:Generated_Source\PSoC4/SPIM.c ****     uint32 SPIM_rxBufferSize;
  52:Generated_Source\PSoC4/SPIM.c **** 
  53:Generated_Source\PSoC4/SPIM.c ****     volatile uint8 * SPIM_txBuffer;
  54:Generated_Source\PSoC4/SPIM.c ****     uint8  SPIM_txDataBits;
  55:Generated_Source\PSoC4/SPIM.c ****     uint32 SPIM_txBufferSize;
  56:Generated_Source\PSoC4/SPIM.c **** 
  57:Generated_Source\PSoC4/SPIM.c ****     /* EZI2C configuration variables */
  58:Generated_Source\PSoC4/SPIM.c ****     uint8 SPIM_numberOfAddr;
  59:Generated_Source\PSoC4/SPIM.c ****     uint8 SPIM_subAddrSize;
  60:Generated_Source\PSoC4/SPIM.c **** #endif /* (SPIM_SCB_MODE_UNCONFIG_CONST_CFG) */
  61:Generated_Source\PSoC4/SPIM.c **** 
  62:Generated_Source\PSoC4/SPIM.c **** 
  63:Generated_Source\PSoC4/SPIM.c **** /***************************************
  64:Generated_Source\PSoC4/SPIM.c **** *     Common SCB Vars
  65:Generated_Source\PSoC4/SPIM.c **** ***************************************/
  66:Generated_Source\PSoC4/SPIM.c **** /**
  67:Generated_Source\PSoC4/SPIM.c **** * \addtogroup group_general
  68:Generated_Source\PSoC4/SPIM.c **** * \{
  69:Generated_Source\PSoC4/SPIM.c **** */
  70:Generated_Source\PSoC4/SPIM.c **** 
  71:Generated_Source\PSoC4/SPIM.c **** /** SPIM_initVar indicates whether the SPIM 
  72:Generated_Source\PSoC4/SPIM.c **** *  component has been initialized. The variable is initialized to 0 
  73:Generated_Source\PSoC4/SPIM.c **** *  and set to 1 the first time SCB_Start() is called. This allows 
  74:Generated_Source\PSoC4/SPIM.c **** *  the component to restart without reinitialization after the first 
  75:Generated_Source\PSoC4/SPIM.c **** *  call to the SPIM_Start() routine.
  76:Generated_Source\PSoC4/SPIM.c **** *
  77:Generated_Source\PSoC4/SPIM.c **** *  If re-initialization of the component is required, then the 
  78:Generated_Source\PSoC4/SPIM.c **** *  SPIM_Init() function can be called before the 
  79:Generated_Source\PSoC4/SPIM.c **** *  SPIM_Start() or SPIM_Enable() function.
  80:Generated_Source\PSoC4/SPIM.c **** */
  81:Generated_Source\PSoC4/SPIM.c **** uint8 SPIM_initVar = 0u;
  82:Generated_Source\PSoC4/SPIM.c **** 
  83:Generated_Source\PSoC4/SPIM.c **** 
  84:Generated_Source\PSoC4/SPIM.c **** #if (! (SPIM_SCB_MODE_I2C_CONST_CFG || \
  85:Generated_Source\PSoC4/SPIM.c ****         SPIM_SCB_MODE_EZI2C_CONST_CFG))
  86:Generated_Source\PSoC4/SPIM.c ****     /** This global variable stores TX interrupt sources after 
  87:Generated_Source\PSoC4/SPIM.c ****     * SPIM_Stop() is called. Only these TX interrupt sources 
ARM GAS  C:\Users\Ala\AppData\Local\Temp\cctOFRHR.s 			page 3


  88:Generated_Source\PSoC4/SPIM.c ****     * will be restored on a subsequent SPIM_Enable() call.
  89:Generated_Source\PSoC4/SPIM.c ****     */
  90:Generated_Source\PSoC4/SPIM.c ****     uint16 SPIM_IntrTxMask = 0u;
  91:Generated_Source\PSoC4/SPIM.c **** #endif /* (! (SPIM_SCB_MODE_I2C_CONST_CFG || \
  92:Generated_Source\PSoC4/SPIM.c ****               SPIM_SCB_MODE_EZI2C_CONST_CFG)) */
  93:Generated_Source\PSoC4/SPIM.c **** /** \} globals */
  94:Generated_Source\PSoC4/SPIM.c **** 
  95:Generated_Source\PSoC4/SPIM.c **** #if (SPIM_SCB_IRQ_INTERNAL)
  96:Generated_Source\PSoC4/SPIM.c **** #if !defined (CY_REMOVE_SPIM_CUSTOM_INTR_HANDLER)
  97:Generated_Source\PSoC4/SPIM.c ****     void (*SPIM_customIntrHandler)(void) = NULL;
  98:Generated_Source\PSoC4/SPIM.c **** #endif /* !defined (CY_REMOVE_SPIM_CUSTOM_INTR_HANDLER) */
  99:Generated_Source\PSoC4/SPIM.c **** #endif /* (SPIM_SCB_IRQ_INTERNAL) */
 100:Generated_Source\PSoC4/SPIM.c **** 
 101:Generated_Source\PSoC4/SPIM.c **** 
 102:Generated_Source\PSoC4/SPIM.c **** /***************************************
 103:Generated_Source\PSoC4/SPIM.c **** *    Private Function Prototypes
 104:Generated_Source\PSoC4/SPIM.c **** ***************************************/
 105:Generated_Source\PSoC4/SPIM.c **** 
 106:Generated_Source\PSoC4/SPIM.c **** static void SPIM_ScbEnableIntr(void);
 107:Generated_Source\PSoC4/SPIM.c **** static void SPIM_ScbModeStop(void);
 108:Generated_Source\PSoC4/SPIM.c **** static void SPIM_ScbModePostEnable(void);
 109:Generated_Source\PSoC4/SPIM.c **** 
 110:Generated_Source\PSoC4/SPIM.c **** 
 111:Generated_Source\PSoC4/SPIM.c **** /*******************************************************************************
 112:Generated_Source\PSoC4/SPIM.c **** * Function Name: SPIM_Init
 113:Generated_Source\PSoC4/SPIM.c **** ****************************************************************************//**
 114:Generated_Source\PSoC4/SPIM.c **** *
 115:Generated_Source\PSoC4/SPIM.c **** *  Initializes the SPIM component to operate in one of the selected
 116:Generated_Source\PSoC4/SPIM.c **** *  configurations: I2C, SPI, UART or EZI2C.
 117:Generated_Source\PSoC4/SPIM.c **** *  When the configuration is set to "Unconfigured SCB", this function does
 118:Generated_Source\PSoC4/SPIM.c **** *  not do any initialization. Use mode-specific initialization APIs instead:
 119:Generated_Source\PSoC4/SPIM.c **** *  SPIM_I2CInit, SPIM_SpiInit, 
 120:Generated_Source\PSoC4/SPIM.c **** *  SPIM_UartInit or SPIM_EzI2CInit.
 121:Generated_Source\PSoC4/SPIM.c **** *
 122:Generated_Source\PSoC4/SPIM.c **** *******************************************************************************/
 123:Generated_Source\PSoC4/SPIM.c **** void SPIM_Init(void)
 124:Generated_Source\PSoC4/SPIM.c **** {
  28              		.loc 1 124 0
  29              		.cfi_startproc
  30              		@ args = 0, pretend = 0, frame = 0
  31              		@ frame_needed = 0, uses_anonymous_args = 0
  32 0000 10B5     		push	{r4, lr}
  33              		.cfi_def_cfa_offset 8
  34              		.cfi_offset 4, -8
  35              		.cfi_offset 14, -4
 125:Generated_Source\PSoC4/SPIM.c **** #if (SPIM_SCB_MODE_UNCONFIG_CONST_CFG)
 126:Generated_Source\PSoC4/SPIM.c ****     if (SPIM_SCB_MODE_UNCONFIG_RUNTM_CFG)
 127:Generated_Source\PSoC4/SPIM.c ****     {
 128:Generated_Source\PSoC4/SPIM.c ****         SPIM_initVar = 0u;
 129:Generated_Source\PSoC4/SPIM.c ****     }
 130:Generated_Source\PSoC4/SPIM.c ****     else
 131:Generated_Source\PSoC4/SPIM.c ****     {
 132:Generated_Source\PSoC4/SPIM.c ****         /* Initialization was done before this function call */
 133:Generated_Source\PSoC4/SPIM.c ****     }
 134:Generated_Source\PSoC4/SPIM.c **** 
 135:Generated_Source\PSoC4/SPIM.c **** #elif (SPIM_SCB_MODE_I2C_CONST_CFG)
 136:Generated_Source\PSoC4/SPIM.c ****     SPIM_I2CInit();
ARM GAS  C:\Users\Ala\AppData\Local\Temp\cctOFRHR.s 			page 4


 137:Generated_Source\PSoC4/SPIM.c **** 
 138:Generated_Source\PSoC4/SPIM.c **** #elif (SPIM_SCB_MODE_SPI_CONST_CFG)
 139:Generated_Source\PSoC4/SPIM.c ****     SPIM_SpiInit();
  36              		.loc 1 139 0
  37 0002 FFF7FEFF 		bl	SPIM_SpiInit
  38              	.LVL0:
 140:Generated_Source\PSoC4/SPIM.c **** 
 141:Generated_Source\PSoC4/SPIM.c **** #elif (SPIM_SCB_MODE_UART_CONST_CFG)
 142:Generated_Source\PSoC4/SPIM.c ****     SPIM_UartInit();
 143:Generated_Source\PSoC4/SPIM.c **** 
 144:Generated_Source\PSoC4/SPIM.c **** #elif (SPIM_SCB_MODE_EZI2C_CONST_CFG)
 145:Generated_Source\PSoC4/SPIM.c ****     SPIM_EzI2CInit();
 146:Generated_Source\PSoC4/SPIM.c **** 
 147:Generated_Source\PSoC4/SPIM.c **** #endif /* (SPIM_SCB_MODE_UNCONFIG_CONST_CFG) */
 148:Generated_Source\PSoC4/SPIM.c **** }
  39              		.loc 1 148 0
  40              		@ sp needed
  41 0006 10BD     		pop	{r4, pc}
  42              		.cfi_endproc
  43              	.LFE0:
  44              		.size	SPIM_Init, .-SPIM_Init
  45              		.section	.text.SPIM_Enable,"ax",%progbits
  46              		.align	1
  47              		.global	SPIM_Enable
  48              		.code	16
  49              		.thumb_func
  50              		.type	SPIM_Enable, %function
  51              	SPIM_Enable:
  52              	.LFB1:
 149:Generated_Source\PSoC4/SPIM.c **** 
 150:Generated_Source\PSoC4/SPIM.c **** 
 151:Generated_Source\PSoC4/SPIM.c **** /*******************************************************************************
 152:Generated_Source\PSoC4/SPIM.c **** * Function Name: SPIM_Enable
 153:Generated_Source\PSoC4/SPIM.c **** ****************************************************************************//**
 154:Generated_Source\PSoC4/SPIM.c **** *
 155:Generated_Source\PSoC4/SPIM.c **** *  Enables SPIM component operation: activates the hardware and 
 156:Generated_Source\PSoC4/SPIM.c **** *  internal interrupt. It also restores TX interrupt sources disabled after the 
 157:Generated_Source\PSoC4/SPIM.c **** *  SPIM_Stop() function was called (note that level-triggered TX 
 158:Generated_Source\PSoC4/SPIM.c **** *  interrupt sources remain disabled to not cause code lock-up).
 159:Generated_Source\PSoC4/SPIM.c **** *  For I2C and EZI2C modes the interrupt is internal and mandatory for 
 160:Generated_Source\PSoC4/SPIM.c **** *  operation. For SPI and UART modes the interrupt can be configured as none, 
 161:Generated_Source\PSoC4/SPIM.c **** *  internal or external.
 162:Generated_Source\PSoC4/SPIM.c **** *  The SPIM configuration should be not changed when the component
 163:Generated_Source\PSoC4/SPIM.c **** *  is enabled. Any configuration changes should be made after disabling the 
 164:Generated_Source\PSoC4/SPIM.c **** *  component.
 165:Generated_Source\PSoC4/SPIM.c **** *  When configuration is set to “Unconfigured SPIM”, the component 
 166:Generated_Source\PSoC4/SPIM.c **** *  must first be initialized to operate in one of the following configurations: 
 167:Generated_Source\PSoC4/SPIM.c **** *  I2C, SPI, UART or EZ I2C, using the mode-specific initialization API. 
 168:Generated_Source\PSoC4/SPIM.c **** *  Otherwise this function does not enable the component.
 169:Generated_Source\PSoC4/SPIM.c **** *
 170:Generated_Source\PSoC4/SPIM.c **** *******************************************************************************/
 171:Generated_Source\PSoC4/SPIM.c **** void SPIM_Enable(void)
 172:Generated_Source\PSoC4/SPIM.c **** {
  53              		.loc 1 172 0
  54              		.cfi_startproc
  55              		@ args = 0, pretend = 0, frame = 0
  56              		@ frame_needed = 0, uses_anonymous_args = 0
ARM GAS  C:\Users\Ala\AppData\Local\Temp\cctOFRHR.s 			page 5


 173:Generated_Source\PSoC4/SPIM.c **** #if (SPIM_SCB_MODE_UNCONFIG_CONST_CFG)
 174:Generated_Source\PSoC4/SPIM.c ****     /* Enable SCB block, only if it is already configured */
 175:Generated_Source\PSoC4/SPIM.c ****     if (!SPIM_SCB_MODE_UNCONFIG_RUNTM_CFG)
 176:Generated_Source\PSoC4/SPIM.c ****     {
 177:Generated_Source\PSoC4/SPIM.c ****         SPIM_CTRL_REG |= SPIM_CTRL_ENABLED;
 178:Generated_Source\PSoC4/SPIM.c **** 
 179:Generated_Source\PSoC4/SPIM.c ****         SPIM_ScbEnableIntr();
 180:Generated_Source\PSoC4/SPIM.c **** 
 181:Generated_Source\PSoC4/SPIM.c ****         /* Call PostEnable function specific to current operation mode */
 182:Generated_Source\PSoC4/SPIM.c ****         SPIM_ScbModePostEnable();
 183:Generated_Source\PSoC4/SPIM.c ****     }
 184:Generated_Source\PSoC4/SPIM.c **** #else
 185:Generated_Source\PSoC4/SPIM.c ****     SPIM_CTRL_REG |= SPIM_CTRL_ENABLED;
  57              		.loc 1 185 0
  58 0000 8021     		movs	r1, #128
  59 0002 064A     		ldr	r2, .L3
 172:Generated_Source\PSoC4/SPIM.c **** #if (SPIM_SCB_MODE_UNCONFIG_CONST_CFG)
  60              		.loc 1 172 0
  61 0004 10B5     		push	{r4, lr}
  62              		.cfi_def_cfa_offset 8
  63              		.cfi_offset 4, -8
  64              		.cfi_offset 14, -4
  65              		.loc 1 185 0
  66 0006 1368     		ldr	r3, [r2]
  67 0008 0906     		lsls	r1, r1, #24
  68 000a 0B43     		orrs	r3, r1
  69 000c 1360     		str	r3, [r2]
  70              	.LBB12:
  71              	.LBB13:
 186:Generated_Source\PSoC4/SPIM.c **** 
 187:Generated_Source\PSoC4/SPIM.c ****     SPIM_ScbEnableIntr();
 188:Generated_Source\PSoC4/SPIM.c **** 
 189:Generated_Source\PSoC4/SPIM.c ****     /* Call PostEnable function specific to current operation mode */
 190:Generated_Source\PSoC4/SPIM.c ****     SPIM_ScbModePostEnable();
 191:Generated_Source\PSoC4/SPIM.c **** #endif /* (SPIM_SCB_MODE_UNCONFIG_CONST_CFG) */
 192:Generated_Source\PSoC4/SPIM.c **** }
 193:Generated_Source\PSoC4/SPIM.c **** 
 194:Generated_Source\PSoC4/SPIM.c **** 
 195:Generated_Source\PSoC4/SPIM.c **** /*******************************************************************************
 196:Generated_Source\PSoC4/SPIM.c **** * Function Name: SPIM_Start
 197:Generated_Source\PSoC4/SPIM.c **** ****************************************************************************//**
 198:Generated_Source\PSoC4/SPIM.c **** *
 199:Generated_Source\PSoC4/SPIM.c **** *  Invokes SPIM_Init() and SPIM_Enable().
 200:Generated_Source\PSoC4/SPIM.c **** *  After this function call, the component is enabled and ready for operation.
 201:Generated_Source\PSoC4/SPIM.c **** *  When configuration is set to "Unconfigured SCB", the component must first be
 202:Generated_Source\PSoC4/SPIM.c **** *  initialized to operate in one of the following configurations: I2C, SPI, UART
 203:Generated_Source\PSoC4/SPIM.c **** *  or EZI2C. Otherwise this function does not enable the component.
 204:Generated_Source\PSoC4/SPIM.c **** *
 205:Generated_Source\PSoC4/SPIM.c **** * \globalvars
 206:Generated_Source\PSoC4/SPIM.c **** *  SPIM_initVar - used to check initial configuration, modified
 207:Generated_Source\PSoC4/SPIM.c **** *  on first function call.
 208:Generated_Source\PSoC4/SPIM.c **** *
 209:Generated_Source\PSoC4/SPIM.c **** *******************************************************************************/
 210:Generated_Source\PSoC4/SPIM.c **** void SPIM_Start(void)
 211:Generated_Source\PSoC4/SPIM.c **** {
 212:Generated_Source\PSoC4/SPIM.c ****     if (0u == SPIM_initVar)
 213:Generated_Source\PSoC4/SPIM.c ****     {
ARM GAS  C:\Users\Ala\AppData\Local\Temp\cctOFRHR.s 			page 6


 214:Generated_Source\PSoC4/SPIM.c ****         SPIM_Init();
 215:Generated_Source\PSoC4/SPIM.c ****         SPIM_initVar = 1u; /* Component was initialized */
 216:Generated_Source\PSoC4/SPIM.c ****     }
 217:Generated_Source\PSoC4/SPIM.c **** 
 218:Generated_Source\PSoC4/SPIM.c ****     SPIM_Enable();
 219:Generated_Source\PSoC4/SPIM.c **** }
 220:Generated_Source\PSoC4/SPIM.c **** 
 221:Generated_Source\PSoC4/SPIM.c **** 
 222:Generated_Source\PSoC4/SPIM.c **** /*******************************************************************************
 223:Generated_Source\PSoC4/SPIM.c **** * Function Name: SPIM_Stop
 224:Generated_Source\PSoC4/SPIM.c **** ****************************************************************************//**
 225:Generated_Source\PSoC4/SPIM.c **** *
 226:Generated_Source\PSoC4/SPIM.c **** *  Disables the SPIM component: disable the hardware and internal 
 227:Generated_Source\PSoC4/SPIM.c **** *  interrupt. It also disables all TX interrupt sources so as not to cause an 
 228:Generated_Source\PSoC4/SPIM.c **** *  unexpected interrupt trigger because after the component is enabled, the 
 229:Generated_Source\PSoC4/SPIM.c **** *  TX FIFO is empty.
 230:Generated_Source\PSoC4/SPIM.c **** *  Refer to the function SPIM_Enable() for the interrupt 
 231:Generated_Source\PSoC4/SPIM.c **** *  configuration details.
 232:Generated_Source\PSoC4/SPIM.c **** *  This function disables the SCB component without checking to see if 
 233:Generated_Source\PSoC4/SPIM.c **** *  communication is in progress. Before calling this function it may be 
 234:Generated_Source\PSoC4/SPIM.c **** *  necessary to check the status of communication to make sure communication 
 235:Generated_Source\PSoC4/SPIM.c **** *  is complete. If this is not done then communication could be stopped mid 
 236:Generated_Source\PSoC4/SPIM.c **** *  byte and corrupted data could result.
 237:Generated_Source\PSoC4/SPIM.c **** *
 238:Generated_Source\PSoC4/SPIM.c **** *******************************************************************************/
 239:Generated_Source\PSoC4/SPIM.c **** void SPIM_Stop(void)
 240:Generated_Source\PSoC4/SPIM.c **** {
 241:Generated_Source\PSoC4/SPIM.c **** #if (SPIM_SCB_IRQ_INTERNAL)
 242:Generated_Source\PSoC4/SPIM.c ****     SPIM_DisableInt();
 243:Generated_Source\PSoC4/SPIM.c **** #endif /* (SPIM_SCB_IRQ_INTERNAL) */
 244:Generated_Source\PSoC4/SPIM.c **** 
 245:Generated_Source\PSoC4/SPIM.c ****     /* Call Stop function specific to current operation mode */
 246:Generated_Source\PSoC4/SPIM.c ****     SPIM_ScbModeStop();
 247:Generated_Source\PSoC4/SPIM.c **** 
 248:Generated_Source\PSoC4/SPIM.c ****     /* Disable SCB IP */
 249:Generated_Source\PSoC4/SPIM.c ****     SPIM_CTRL_REG &= (uint32) ~SPIM_CTRL_ENABLED;
 250:Generated_Source\PSoC4/SPIM.c **** 
 251:Generated_Source\PSoC4/SPIM.c ****     /* Disable all TX interrupt sources so as not to cause an unexpected
 252:Generated_Source\PSoC4/SPIM.c ****     * interrupt trigger after the component will be enabled because the 
 253:Generated_Source\PSoC4/SPIM.c ****     * TX FIFO is empty.
 254:Generated_Source\PSoC4/SPIM.c ****     * For SCB IP v0, it is critical as it does not mask-out interrupt
 255:Generated_Source\PSoC4/SPIM.c ****     * sources when it is disabled. This can cause a code lock-up in the
 256:Generated_Source\PSoC4/SPIM.c ****     * interrupt handler because TX FIFO cannot be loaded after the block
 257:Generated_Source\PSoC4/SPIM.c ****     * is disabled.
 258:Generated_Source\PSoC4/SPIM.c ****     */
 259:Generated_Source\PSoC4/SPIM.c ****     SPIM_SetTxInterruptMode(SPIM_NO_INTR_SOURCES);
 260:Generated_Source\PSoC4/SPIM.c **** 
 261:Generated_Source\PSoC4/SPIM.c **** #if (SPIM_SCB_IRQ_INTERNAL)
 262:Generated_Source\PSoC4/SPIM.c ****     SPIM_ClearPendingInt();
 263:Generated_Source\PSoC4/SPIM.c **** #endif /* (SPIM_SCB_IRQ_INTERNAL) */
 264:Generated_Source\PSoC4/SPIM.c **** }
 265:Generated_Source\PSoC4/SPIM.c **** 
 266:Generated_Source\PSoC4/SPIM.c **** 
 267:Generated_Source\PSoC4/SPIM.c **** /*******************************************************************************
 268:Generated_Source\PSoC4/SPIM.c **** * Function Name: SPIM_SetRxFifoLevel
 269:Generated_Source\PSoC4/SPIM.c **** ****************************************************************************//**
 270:Generated_Source\PSoC4/SPIM.c **** *
ARM GAS  C:\Users\Ala\AppData\Local\Temp\cctOFRHR.s 			page 7


 271:Generated_Source\PSoC4/SPIM.c **** *  Sets level in the RX FIFO to generate a RX level interrupt.
 272:Generated_Source\PSoC4/SPIM.c **** *  When the RX FIFO has more entries than the RX FIFO level an RX level
 273:Generated_Source\PSoC4/SPIM.c **** *  interrupt request is generated.
 274:Generated_Source\PSoC4/SPIM.c **** *
 275:Generated_Source\PSoC4/SPIM.c **** *  \param level: Level in the RX FIFO to generate RX level interrupt.
 276:Generated_Source\PSoC4/SPIM.c **** *   The range of valid level values is between 0 and RX FIFO depth - 1.
 277:Generated_Source\PSoC4/SPIM.c **** *
 278:Generated_Source\PSoC4/SPIM.c **** *******************************************************************************/
 279:Generated_Source\PSoC4/SPIM.c **** void SPIM_SetRxFifoLevel(uint32 level)
 280:Generated_Source\PSoC4/SPIM.c **** {
 281:Generated_Source\PSoC4/SPIM.c ****     uint32 rxFifoCtrl;
 282:Generated_Source\PSoC4/SPIM.c **** 
 283:Generated_Source\PSoC4/SPIM.c ****     rxFifoCtrl = SPIM_RX_FIFO_CTRL_REG;
 284:Generated_Source\PSoC4/SPIM.c **** 
 285:Generated_Source\PSoC4/SPIM.c ****     rxFifoCtrl &= ((uint32) ~SPIM_RX_FIFO_CTRL_TRIGGER_LEVEL_MASK); /* Clear level mask bits */
 286:Generated_Source\PSoC4/SPIM.c ****     rxFifoCtrl |= ((uint32) (SPIM_RX_FIFO_CTRL_TRIGGER_LEVEL_MASK & level));
 287:Generated_Source\PSoC4/SPIM.c **** 
 288:Generated_Source\PSoC4/SPIM.c ****     SPIM_RX_FIFO_CTRL_REG = rxFifoCtrl;
 289:Generated_Source\PSoC4/SPIM.c **** }
 290:Generated_Source\PSoC4/SPIM.c **** 
 291:Generated_Source\PSoC4/SPIM.c **** 
 292:Generated_Source\PSoC4/SPIM.c **** /*******************************************************************************
 293:Generated_Source\PSoC4/SPIM.c **** * Function Name: SPIM_SetTxFifoLevel
 294:Generated_Source\PSoC4/SPIM.c **** ****************************************************************************//**
 295:Generated_Source\PSoC4/SPIM.c **** *
 296:Generated_Source\PSoC4/SPIM.c **** *  Sets level in the TX FIFO to generate a TX level interrupt.
 297:Generated_Source\PSoC4/SPIM.c **** *  When the TX FIFO has less entries than the TX FIFO level an TX level
 298:Generated_Source\PSoC4/SPIM.c **** *  interrupt request is generated.
 299:Generated_Source\PSoC4/SPIM.c **** *
 300:Generated_Source\PSoC4/SPIM.c **** *  \param level: Level in the TX FIFO to generate TX level interrupt.
 301:Generated_Source\PSoC4/SPIM.c **** *   The range of valid level values is between 0 and TX FIFO depth - 1.
 302:Generated_Source\PSoC4/SPIM.c **** *
 303:Generated_Source\PSoC4/SPIM.c **** *******************************************************************************/
 304:Generated_Source\PSoC4/SPIM.c **** void SPIM_SetTxFifoLevel(uint32 level)
 305:Generated_Source\PSoC4/SPIM.c **** {
 306:Generated_Source\PSoC4/SPIM.c ****     uint32 txFifoCtrl;
 307:Generated_Source\PSoC4/SPIM.c **** 
 308:Generated_Source\PSoC4/SPIM.c ****     txFifoCtrl = SPIM_TX_FIFO_CTRL_REG;
 309:Generated_Source\PSoC4/SPIM.c **** 
 310:Generated_Source\PSoC4/SPIM.c ****     txFifoCtrl &= ((uint32) ~SPIM_TX_FIFO_CTRL_TRIGGER_LEVEL_MASK); /* Clear level mask bits */
 311:Generated_Source\PSoC4/SPIM.c ****     txFifoCtrl |= ((uint32) (SPIM_TX_FIFO_CTRL_TRIGGER_LEVEL_MASK & level));
 312:Generated_Source\PSoC4/SPIM.c **** 
 313:Generated_Source\PSoC4/SPIM.c ****     SPIM_TX_FIFO_CTRL_REG = txFifoCtrl;
 314:Generated_Source\PSoC4/SPIM.c **** }
 315:Generated_Source\PSoC4/SPIM.c **** 
 316:Generated_Source\PSoC4/SPIM.c **** 
 317:Generated_Source\PSoC4/SPIM.c **** #if (SPIM_SCB_IRQ_INTERNAL)
 318:Generated_Source\PSoC4/SPIM.c ****     /*******************************************************************************
 319:Generated_Source\PSoC4/SPIM.c ****     * Function Name: SPIM_SetCustomInterruptHandler
 320:Generated_Source\PSoC4/SPIM.c ****     ****************************************************************************//**
 321:Generated_Source\PSoC4/SPIM.c ****     *
 322:Generated_Source\PSoC4/SPIM.c ****     *  Registers a function to be called by the internal interrupt handler.
 323:Generated_Source\PSoC4/SPIM.c ****     *  First the function that is registered is called, then the internal interrupt
 324:Generated_Source\PSoC4/SPIM.c ****     *  handler performs any operation such as software buffer management functions
 325:Generated_Source\PSoC4/SPIM.c ****     *  before the interrupt returns.  It is the user's responsibility not to break
 326:Generated_Source\PSoC4/SPIM.c ****     *  the software buffer operations. Only one custom handler is supported, which
 327:Generated_Source\PSoC4/SPIM.c ****     *  is the function provided by the most recent call.
ARM GAS  C:\Users\Ala\AppData\Local\Temp\cctOFRHR.s 			page 8


 328:Generated_Source\PSoC4/SPIM.c ****     *  At the initialization time no custom handler is registered.
 329:Generated_Source\PSoC4/SPIM.c ****     *
 330:Generated_Source\PSoC4/SPIM.c ****     *  \param func: Pointer to the function to register.
 331:Generated_Source\PSoC4/SPIM.c ****     *        The value NULL indicates to remove the current custom interrupt
 332:Generated_Source\PSoC4/SPIM.c ****     *        handler.
 333:Generated_Source\PSoC4/SPIM.c ****     *
 334:Generated_Source\PSoC4/SPIM.c ****     *******************************************************************************/
 335:Generated_Source\PSoC4/SPIM.c ****     void SPIM_SetCustomInterruptHandler(void (*func)(void))
 336:Generated_Source\PSoC4/SPIM.c ****     {
 337:Generated_Source\PSoC4/SPIM.c ****     #if !defined (CY_REMOVE_SPIM_CUSTOM_INTR_HANDLER)
 338:Generated_Source\PSoC4/SPIM.c ****         SPIM_customIntrHandler = func; /* Register interrupt handler */
 339:Generated_Source\PSoC4/SPIM.c ****     #else
 340:Generated_Source\PSoC4/SPIM.c ****         if (NULL != func)
 341:Generated_Source\PSoC4/SPIM.c ****         {
 342:Generated_Source\PSoC4/SPIM.c ****             /* Suppress compiler warning */
 343:Generated_Source\PSoC4/SPIM.c ****         }
 344:Generated_Source\PSoC4/SPIM.c ****     #endif /* !defined (CY_REMOVE_SPIM_CUSTOM_INTR_HANDLER) */
 345:Generated_Source\PSoC4/SPIM.c ****     }
 346:Generated_Source\PSoC4/SPIM.c **** #endif /* (SPIM_SCB_IRQ_INTERNAL) */
 347:Generated_Source\PSoC4/SPIM.c **** 
 348:Generated_Source\PSoC4/SPIM.c **** 
 349:Generated_Source\PSoC4/SPIM.c **** /*******************************************************************************
 350:Generated_Source\PSoC4/SPIM.c **** * Function Name: SPIM_ScbModeEnableIntr
 351:Generated_Source\PSoC4/SPIM.c **** ****************************************************************************//**
 352:Generated_Source\PSoC4/SPIM.c **** *
 353:Generated_Source\PSoC4/SPIM.c **** *  Enables an interrupt for a specific mode.
 354:Generated_Source\PSoC4/SPIM.c **** *
 355:Generated_Source\PSoC4/SPIM.c **** *******************************************************************************/
 356:Generated_Source\PSoC4/SPIM.c **** static void SPIM_ScbEnableIntr(void)
 357:Generated_Source\PSoC4/SPIM.c **** {
 358:Generated_Source\PSoC4/SPIM.c **** #if (SPIM_SCB_IRQ_INTERNAL)
 359:Generated_Source\PSoC4/SPIM.c ****     /* Enable interrupt in NVIC */
 360:Generated_Source\PSoC4/SPIM.c ****     #if (SPIM_SCB_MODE_UNCONFIG_CONST_CFG)
 361:Generated_Source\PSoC4/SPIM.c ****         if (0u != SPIM_scbEnableIntr)
 362:Generated_Source\PSoC4/SPIM.c ****         {
 363:Generated_Source\PSoC4/SPIM.c ****             SPIM_EnableInt();
 364:Generated_Source\PSoC4/SPIM.c ****         }
 365:Generated_Source\PSoC4/SPIM.c **** 
 366:Generated_Source\PSoC4/SPIM.c ****     #else
 367:Generated_Source\PSoC4/SPIM.c ****         SPIM_EnableInt();
  72              		.loc 1 367 0
  73 000e 0B20     		movs	r0, #11
  74 0010 FFF7FEFF 		bl	CyIntEnable
  75              	.LVL1:
  76              	.LBE13:
  77              	.LBE12:
 192:Generated_Source\PSoC4/SPIM.c **** 
  78              		.loc 1 192 0
  79              		@ sp needed
  80              	.LBB14:
  81              	.LBB15:
 368:Generated_Source\PSoC4/SPIM.c **** 
 369:Generated_Source\PSoC4/SPIM.c ****     #endif /* (SPIM_SCB_MODE_UNCONFIG_CONST_CFG) */
 370:Generated_Source\PSoC4/SPIM.c **** #endif /* (SPIM_SCB_IRQ_INTERNAL) */
 371:Generated_Source\PSoC4/SPIM.c **** }
 372:Generated_Source\PSoC4/SPIM.c **** 
 373:Generated_Source\PSoC4/SPIM.c **** 
ARM GAS  C:\Users\Ala\AppData\Local\Temp\cctOFRHR.s 			page 9


 374:Generated_Source\PSoC4/SPIM.c **** /*******************************************************************************
 375:Generated_Source\PSoC4/SPIM.c **** * Function Name: SPIM_ScbModePostEnable
 376:Generated_Source\PSoC4/SPIM.c **** ****************************************************************************//**
 377:Generated_Source\PSoC4/SPIM.c **** *
 378:Generated_Source\PSoC4/SPIM.c **** *  Calls the PostEnable function for a specific operation mode.
 379:Generated_Source\PSoC4/SPIM.c **** *
 380:Generated_Source\PSoC4/SPIM.c **** *******************************************************************************/
 381:Generated_Source\PSoC4/SPIM.c **** static void SPIM_ScbModePostEnable(void)
 382:Generated_Source\PSoC4/SPIM.c **** {
 383:Generated_Source\PSoC4/SPIM.c **** #if (SPIM_SCB_MODE_UNCONFIG_CONST_CFG)
 384:Generated_Source\PSoC4/SPIM.c **** #if (!SPIM_CY_SCBIP_V1)
 385:Generated_Source\PSoC4/SPIM.c ****     if (SPIM_SCB_MODE_SPI_RUNTM_CFG)
 386:Generated_Source\PSoC4/SPIM.c ****     {
 387:Generated_Source\PSoC4/SPIM.c ****         SPIM_SpiPostEnable();
 388:Generated_Source\PSoC4/SPIM.c ****     }
 389:Generated_Source\PSoC4/SPIM.c ****     else if (SPIM_SCB_MODE_UART_RUNTM_CFG)
 390:Generated_Source\PSoC4/SPIM.c ****     {
 391:Generated_Source\PSoC4/SPIM.c ****         SPIM_UartPostEnable();
 392:Generated_Source\PSoC4/SPIM.c ****     }
 393:Generated_Source\PSoC4/SPIM.c ****     else
 394:Generated_Source\PSoC4/SPIM.c ****     {
 395:Generated_Source\PSoC4/SPIM.c ****         /* Unknown mode: do nothing */
 396:Generated_Source\PSoC4/SPIM.c ****     }
 397:Generated_Source\PSoC4/SPIM.c **** #endif /* (!SPIM_CY_SCBIP_V1) */
 398:Generated_Source\PSoC4/SPIM.c **** 
 399:Generated_Source\PSoC4/SPIM.c **** #elif (SPIM_SCB_MODE_SPI_CONST_CFG)
 400:Generated_Source\PSoC4/SPIM.c ****     SPIM_SpiPostEnable();
  82              		.loc 1 400 0
  83 0014 FFF7FEFF 		bl	SPIM_SpiPostEnable
  84              	.LVL2:
  85              	.LBE15:
  86              	.LBE14:
 192:Generated_Source\PSoC4/SPIM.c **** 
  87              		.loc 1 192 0
  88 0018 10BD     		pop	{r4, pc}
  89              	.L4:
  90 001a C046     		.align	2
  91              	.L3:
  92 001c 00000740 		.word	1074200576
  93              		.cfi_endproc
  94              	.LFE1:
  95              		.size	SPIM_Enable, .-SPIM_Enable
  96              		.section	.text.SPIM_Start,"ax",%progbits
  97              		.align	1
  98              		.global	SPIM_Start
  99              		.code	16
 100              		.thumb_func
 101              		.type	SPIM_Start, %function
 102              	SPIM_Start:
 103              	.LFB2:
 211:Generated_Source\PSoC4/SPIM.c ****     if (0u == SPIM_initVar)
 104              		.loc 1 211 0
 105              		.cfi_startproc
 106              		@ args = 0, pretend = 0, frame = 0
 107              		@ frame_needed = 0, uses_anonymous_args = 0
 108 0000 10B5     		push	{r4, lr}
 109              		.cfi_def_cfa_offset 8
ARM GAS  C:\Users\Ala\AppData\Local\Temp\cctOFRHR.s 			page 10


 110              		.cfi_offset 4, -8
 111              		.cfi_offset 14, -4
 212:Generated_Source\PSoC4/SPIM.c ****     {
 112              		.loc 1 212 0
 113 0002 054C     		ldr	r4, .L8
 114 0004 2378     		ldrb	r3, [r4]
 115 0006 002B     		cmp	r3, #0
 116 0008 03D1     		bne	.L6
 117              	.LBB16:
 118              	.LBB17:
 139:Generated_Source\PSoC4/SPIM.c **** 
 119              		.loc 1 139 0
 120 000a FFF7FEFF 		bl	SPIM_SpiInit
 121              	.LVL3:
 122              	.LBE17:
 123              	.LBE16:
 215:Generated_Source\PSoC4/SPIM.c ****     }
 124              		.loc 1 215 0
 125 000e 0123     		movs	r3, #1
 126 0010 2370     		strb	r3, [r4]
 127              	.L6:
 218:Generated_Source\PSoC4/SPIM.c **** }
 128              		.loc 1 218 0
 129 0012 FFF7FEFF 		bl	SPIM_Enable
 130              	.LVL4:
 219:Generated_Source\PSoC4/SPIM.c **** 
 131              		.loc 1 219 0
 132              		@ sp needed
 133 0016 10BD     		pop	{r4, pc}
 134              	.L9:
 135              		.align	2
 136              	.L8:
 137 0018 00000000 		.word	.LANCHOR0
 138              		.cfi_endproc
 139              	.LFE2:
 140              		.size	SPIM_Start, .-SPIM_Start
 141              		.section	.text.SPIM_Stop,"ax",%progbits
 142              		.align	1
 143              		.global	SPIM_Stop
 144              		.code	16
 145              		.thumb_func
 146              		.type	SPIM_Stop, %function
 147              	SPIM_Stop:
 148              	.LFB3:
 240:Generated_Source\PSoC4/SPIM.c **** #if (SPIM_SCB_IRQ_INTERNAL)
 149              		.loc 1 240 0
 150              		.cfi_startproc
 151              		@ args = 0, pretend = 0, frame = 0
 152              		@ frame_needed = 0, uses_anonymous_args = 0
 153 0000 10B5     		push	{r4, lr}
 154              		.cfi_def_cfa_offset 8
 155              		.cfi_offset 4, -8
 156              		.cfi_offset 14, -4
 242:Generated_Source\PSoC4/SPIM.c **** #endif /* (SPIM_SCB_IRQ_INTERNAL) */
 157              		.loc 1 242 0
 158 0002 0B20     		movs	r0, #11
 159 0004 FFF7FEFF 		bl	CyIntDisable
ARM GAS  C:\Users\Ala\AppData\Local\Temp\cctOFRHR.s 			page 11


 160              	.LVL5:
 161              	.LBB18:
 162              	.LBB19:
 401:Generated_Source\PSoC4/SPIM.c **** 
 402:Generated_Source\PSoC4/SPIM.c **** #elif (SPIM_SCB_MODE_UART_CONST_CFG)
 403:Generated_Source\PSoC4/SPIM.c ****     SPIM_UartPostEnable();
 404:Generated_Source\PSoC4/SPIM.c **** 
 405:Generated_Source\PSoC4/SPIM.c **** #else
 406:Generated_Source\PSoC4/SPIM.c ****     /* Unknown mode: do nothing */
 407:Generated_Source\PSoC4/SPIM.c **** #endif /* (SPIM_SCB_MODE_UNCONFIG_CONST_CFG) */
 408:Generated_Source\PSoC4/SPIM.c **** }
 409:Generated_Source\PSoC4/SPIM.c **** 
 410:Generated_Source\PSoC4/SPIM.c **** 
 411:Generated_Source\PSoC4/SPIM.c **** /*******************************************************************************
 412:Generated_Source\PSoC4/SPIM.c **** * Function Name: SPIM_ScbModeStop
 413:Generated_Source\PSoC4/SPIM.c **** ****************************************************************************//**
 414:Generated_Source\PSoC4/SPIM.c **** *
 415:Generated_Source\PSoC4/SPIM.c **** *  Calls the Stop function for a specific operation mode.
 416:Generated_Source\PSoC4/SPIM.c **** *
 417:Generated_Source\PSoC4/SPIM.c **** *******************************************************************************/
 418:Generated_Source\PSoC4/SPIM.c **** static void SPIM_ScbModeStop(void)
 419:Generated_Source\PSoC4/SPIM.c **** {
 420:Generated_Source\PSoC4/SPIM.c **** #if (SPIM_SCB_MODE_UNCONFIG_CONST_CFG)
 421:Generated_Source\PSoC4/SPIM.c ****     if (SPIM_SCB_MODE_I2C_RUNTM_CFG)
 422:Generated_Source\PSoC4/SPIM.c ****     {
 423:Generated_Source\PSoC4/SPIM.c ****         SPIM_I2CStop();
 424:Generated_Source\PSoC4/SPIM.c ****     }
 425:Generated_Source\PSoC4/SPIM.c ****     else if (SPIM_SCB_MODE_EZI2C_RUNTM_CFG)
 426:Generated_Source\PSoC4/SPIM.c ****     {
 427:Generated_Source\PSoC4/SPIM.c ****         SPIM_EzI2CStop();
 428:Generated_Source\PSoC4/SPIM.c ****     }
 429:Generated_Source\PSoC4/SPIM.c **** #if (!SPIM_CY_SCBIP_V1)
 430:Generated_Source\PSoC4/SPIM.c ****     else if (SPIM_SCB_MODE_SPI_RUNTM_CFG)
 431:Generated_Source\PSoC4/SPIM.c ****     {
 432:Generated_Source\PSoC4/SPIM.c ****         SPIM_SpiStop();
 433:Generated_Source\PSoC4/SPIM.c ****     }
 434:Generated_Source\PSoC4/SPIM.c ****     else if (SPIM_SCB_MODE_UART_RUNTM_CFG)
 435:Generated_Source\PSoC4/SPIM.c ****     {
 436:Generated_Source\PSoC4/SPIM.c ****         SPIM_UartStop();
 437:Generated_Source\PSoC4/SPIM.c ****     }
 438:Generated_Source\PSoC4/SPIM.c **** #endif /* (!SPIM_CY_SCBIP_V1) */
 439:Generated_Source\PSoC4/SPIM.c ****     else
 440:Generated_Source\PSoC4/SPIM.c ****     {
 441:Generated_Source\PSoC4/SPIM.c ****         /* Unknown mode: do nothing */
 442:Generated_Source\PSoC4/SPIM.c ****     }
 443:Generated_Source\PSoC4/SPIM.c **** #elif (SPIM_SCB_MODE_I2C_CONST_CFG)
 444:Generated_Source\PSoC4/SPIM.c ****     SPIM_I2CStop();
 445:Generated_Source\PSoC4/SPIM.c **** 
 446:Generated_Source\PSoC4/SPIM.c **** #elif (SPIM_SCB_MODE_EZI2C_CONST_CFG)
 447:Generated_Source\PSoC4/SPIM.c ****     SPIM_EzI2CStop();
 448:Generated_Source\PSoC4/SPIM.c **** 
 449:Generated_Source\PSoC4/SPIM.c **** #elif (SPIM_SCB_MODE_SPI_CONST_CFG)
 450:Generated_Source\PSoC4/SPIM.c ****     SPIM_SpiStop();
 163              		.loc 1 450 0
 164 0008 FFF7FEFF 		bl	SPIM_SpiStop
 165              	.LVL6:
 166              	.LBE19:
ARM GAS  C:\Users\Ala\AppData\Local\Temp\cctOFRHR.s 			page 12


 167              	.LBE18:
 249:Generated_Source\PSoC4/SPIM.c **** 
 168              		.loc 1 249 0
 169 000c 054A     		ldr	r2, .L11
 262:Generated_Source\PSoC4/SPIM.c **** #endif /* (SPIM_SCB_IRQ_INTERNAL) */
 170              		.loc 1 262 0
 171 000e 0B20     		movs	r0, #11
 249:Generated_Source\PSoC4/SPIM.c **** 
 172              		.loc 1 249 0
 173 0010 1368     		ldr	r3, [r2]
 264:Generated_Source\PSoC4/SPIM.c **** 
 174              		.loc 1 264 0
 175              		@ sp needed
 249:Generated_Source\PSoC4/SPIM.c **** 
 176              		.loc 1 249 0
 177 0012 5B00     		lsls	r3, r3, #1
 178 0014 5B08     		lsrs	r3, r3, #1
 179 0016 1360     		str	r3, [r2]
 259:Generated_Source\PSoC4/SPIM.c **** 
 180              		.loc 1 259 0
 181 0018 0022     		movs	r2, #0
 182 001a 034B     		ldr	r3, .L11+4
 183 001c 1A60     		str	r2, [r3]
 262:Generated_Source\PSoC4/SPIM.c **** #endif /* (SPIM_SCB_IRQ_INTERNAL) */
 184              		.loc 1 262 0
 185 001e FFF7FEFF 		bl	CyIntClearPending
 186              	.LVL7:
 264:Generated_Source\PSoC4/SPIM.c **** 
 187              		.loc 1 264 0
 188 0022 10BD     		pop	{r4, pc}
 189              	.L12:
 190              		.align	2
 191              	.L11:
 192 0024 00000740 		.word	1074200576
 193 0028 880F0740 		.word	1074204552
 194              		.cfi_endproc
 195              	.LFE3:
 196              		.size	SPIM_Stop, .-SPIM_Stop
 197              		.section	.text.SPIM_SetRxFifoLevel,"ax",%progbits
 198              		.align	1
 199              		.global	SPIM_SetRxFifoLevel
 200              		.code	16
 201              		.thumb_func
 202              		.type	SPIM_SetRxFifoLevel, %function
 203              	SPIM_SetRxFifoLevel:
 204              	.LFB4:
 280:Generated_Source\PSoC4/SPIM.c ****     uint32 rxFifoCtrl;
 205              		.loc 1 280 0
 206              		.cfi_startproc
 207              		@ args = 0, pretend = 0, frame = 0
 208              		@ frame_needed = 0, uses_anonymous_args = 0
 209              		@ link register save eliminated.
 210              	.LVL8:
 285:Generated_Source\PSoC4/SPIM.c ****     rxFifoCtrl |= ((uint32) (SPIM_RX_FIFO_CTRL_TRIGGER_LEVEL_MASK & level));
 211              		.loc 1 285 0
 212 0000 0722     		movs	r2, #7
 283:Generated_Source\PSoC4/SPIM.c **** 
ARM GAS  C:\Users\Ala\AppData\Local\Temp\cctOFRHR.s 			page 13


 213              		.loc 1 283 0
 214 0002 0349     		ldr	r1, .L14
 286:Generated_Source\PSoC4/SPIM.c **** 
 215              		.loc 1 286 0
 216 0004 1040     		ands	r0, r2
 217              	.LVL9:
 283:Generated_Source\PSoC4/SPIM.c **** 
 218              		.loc 1 283 0
 219 0006 0B68     		ldr	r3, [r1]
 220              	.LVL10:
 289:Generated_Source\PSoC4/SPIM.c **** 
 221              		.loc 1 289 0
 222              		@ sp needed
 285:Generated_Source\PSoC4/SPIM.c ****     rxFifoCtrl |= ((uint32) (SPIM_RX_FIFO_CTRL_TRIGGER_LEVEL_MASK & level));
 223              		.loc 1 285 0
 224 0008 9343     		bics	r3, r2
 225              	.LVL11:
 286:Generated_Source\PSoC4/SPIM.c **** 
 226              		.loc 1 286 0
 227 000a 1843     		orrs	r0, r3
 228              	.LVL12:
 288:Generated_Source\PSoC4/SPIM.c **** }
 229              		.loc 1 288 0
 230 000c 0860     		str	r0, [r1]
 289:Generated_Source\PSoC4/SPIM.c **** 
 231              		.loc 1 289 0
 232 000e 7047     		bx	lr
 233              	.L15:
 234              		.align	2
 235              	.L14:
 236 0010 04030740 		.word	1074201348
 237              		.cfi_endproc
 238              	.LFE4:
 239              		.size	SPIM_SetRxFifoLevel, .-SPIM_SetRxFifoLevel
 240              		.section	.text.SPIM_SetTxFifoLevel,"ax",%progbits
 241              		.align	1
 242              		.global	SPIM_SetTxFifoLevel
 243              		.code	16
 244              		.thumb_func
 245              		.type	SPIM_SetTxFifoLevel, %function
 246              	SPIM_SetTxFifoLevel:
 247              	.LFB5:
 305:Generated_Source\PSoC4/SPIM.c ****     uint32 txFifoCtrl;
 248              		.loc 1 305 0
 249              		.cfi_startproc
 250              		@ args = 0, pretend = 0, frame = 0
 251              		@ frame_needed = 0, uses_anonymous_args = 0
 252              		@ link register save eliminated.
 253              	.LVL13:
 310:Generated_Source\PSoC4/SPIM.c ****     txFifoCtrl |= ((uint32) (SPIM_TX_FIFO_CTRL_TRIGGER_LEVEL_MASK & level));
 254              		.loc 1 310 0
 255 0000 0722     		movs	r2, #7
 308:Generated_Source\PSoC4/SPIM.c **** 
 256              		.loc 1 308 0
 257 0002 0349     		ldr	r1, .L17
 311:Generated_Source\PSoC4/SPIM.c **** 
 258              		.loc 1 311 0
ARM GAS  C:\Users\Ala\AppData\Local\Temp\cctOFRHR.s 			page 14


 259 0004 1040     		ands	r0, r2
 260              	.LVL14:
 308:Generated_Source\PSoC4/SPIM.c **** 
 261              		.loc 1 308 0
 262 0006 0B68     		ldr	r3, [r1]
 263              	.LVL15:
 314:Generated_Source\PSoC4/SPIM.c **** 
 264              		.loc 1 314 0
 265              		@ sp needed
 310:Generated_Source\PSoC4/SPIM.c ****     txFifoCtrl |= ((uint32) (SPIM_TX_FIFO_CTRL_TRIGGER_LEVEL_MASK & level));
 266              		.loc 1 310 0
 267 0008 9343     		bics	r3, r2
 268              	.LVL16:
 311:Generated_Source\PSoC4/SPIM.c **** 
 269              		.loc 1 311 0
 270 000a 1843     		orrs	r0, r3
 271              	.LVL17:
 313:Generated_Source\PSoC4/SPIM.c **** }
 272              		.loc 1 313 0
 273 000c 0860     		str	r0, [r1]
 314:Generated_Source\PSoC4/SPIM.c **** 
 274              		.loc 1 314 0
 275 000e 7047     		bx	lr
 276              	.L18:
 277              		.align	2
 278              	.L17:
 279 0010 04020740 		.word	1074201092
 280              		.cfi_endproc
 281              	.LFE5:
 282              		.size	SPIM_SetTxFifoLevel, .-SPIM_SetTxFifoLevel
 283              		.section	.text.SPIM_SetCustomInterruptHandler,"ax",%progbits
 284              		.align	1
 285              		.global	SPIM_SetCustomInterruptHandler
 286              		.code	16
 287              		.thumb_func
 288              		.type	SPIM_SetCustomInterruptHandler, %function
 289              	SPIM_SetCustomInterruptHandler:
 290              	.LFB6:
 336:Generated_Source\PSoC4/SPIM.c ****     #if !defined (CY_REMOVE_SPIM_CUSTOM_INTR_HANDLER)
 291              		.loc 1 336 0
 292              		.cfi_startproc
 293              		@ args = 0, pretend = 0, frame = 0
 294              		@ frame_needed = 0, uses_anonymous_args = 0
 295              		@ link register save eliminated.
 296              	.LVL18:
 338:Generated_Source\PSoC4/SPIM.c ****     #else
 297              		.loc 1 338 0
 298 0000 014B     		ldr	r3, .L20
 345:Generated_Source\PSoC4/SPIM.c **** #endif /* (SPIM_SCB_IRQ_INTERNAL) */
 299              		.loc 1 345 0
 300              		@ sp needed
 338:Generated_Source\PSoC4/SPIM.c ****     #else
 301              		.loc 1 338 0
 302 0002 5860     		str	r0, [r3, #4]
 345:Generated_Source\PSoC4/SPIM.c **** #endif /* (SPIM_SCB_IRQ_INTERNAL) */
 303              		.loc 1 345 0
 304 0004 7047     		bx	lr
ARM GAS  C:\Users\Ala\AppData\Local\Temp\cctOFRHR.s 			page 15


 305              	.L21:
 306 0006 C046     		.align	2
 307              	.L20:
 308 0008 00000000 		.word	.LANCHOR0
 309              		.cfi_endproc
 310              	.LFE6:
 311              		.size	SPIM_SetCustomInterruptHandler, .-SPIM_SetCustomInterruptHandler
 312              		.section	.text.SPIM_I2CSlaveNackGeneration,"ax",%progbits
 313              		.align	1
 314              		.global	SPIM_I2CSlaveNackGeneration
 315              		.code	16
 316              		.thumb_func
 317              		.type	SPIM_I2CSlaveNackGeneration, %function
 318              	SPIM_I2CSlaveNackGeneration:
 319              	.LFB10:
 451:Generated_Source\PSoC4/SPIM.c **** 
 452:Generated_Source\PSoC4/SPIM.c **** #elif (SPIM_SCB_MODE_UART_CONST_CFG)
 453:Generated_Source\PSoC4/SPIM.c ****     SPIM_UartStop();
 454:Generated_Source\PSoC4/SPIM.c **** 
 455:Generated_Source\PSoC4/SPIM.c **** #else
 456:Generated_Source\PSoC4/SPIM.c ****     /* Unknown mode: do nothing */
 457:Generated_Source\PSoC4/SPIM.c **** #endif /* (SPIM_SCB_MODE_UNCONFIG_CONST_CFG) */
 458:Generated_Source\PSoC4/SPIM.c **** }
 459:Generated_Source\PSoC4/SPIM.c **** 
 460:Generated_Source\PSoC4/SPIM.c **** 
 461:Generated_Source\PSoC4/SPIM.c **** #if (SPIM_SCB_MODE_UNCONFIG_CONST_CFG)
 462:Generated_Source\PSoC4/SPIM.c ****     /*******************************************************************************
 463:Generated_Source\PSoC4/SPIM.c ****     * Function Name: SPIM_SetPins
 464:Generated_Source\PSoC4/SPIM.c ****     ****************************************************************************//**
 465:Generated_Source\PSoC4/SPIM.c ****     *
 466:Generated_Source\PSoC4/SPIM.c ****     *  Sets the pins settings accordingly to the selected operation mode.
 467:Generated_Source\PSoC4/SPIM.c ****     *  Only available in the Unconfigured operation mode. The mode specific
 468:Generated_Source\PSoC4/SPIM.c ****     *  initialization function calls it.
 469:Generated_Source\PSoC4/SPIM.c ****     *  Pins configuration is set by PSoC Creator when a specific mode of operation
 470:Generated_Source\PSoC4/SPIM.c ****     *  is selected in design time.
 471:Generated_Source\PSoC4/SPIM.c ****     *
 472:Generated_Source\PSoC4/SPIM.c ****     *  \param mode:      Mode of SCB operation.
 473:Generated_Source\PSoC4/SPIM.c ****     *  \param subMode:   Sub-mode of SCB operation. It is only required for SPI and UART
 474:Generated_Source\PSoC4/SPIM.c ****     *             modes.
 475:Generated_Source\PSoC4/SPIM.c ****     *  \param uartEnableMask: enables TX or RX direction and RTS and CTS signals.
 476:Generated_Source\PSoC4/SPIM.c ****     *
 477:Generated_Source\PSoC4/SPIM.c ****     *******************************************************************************/
 478:Generated_Source\PSoC4/SPIM.c ****     void SPIM_SetPins(uint32 mode, uint32 subMode, uint32 uartEnableMask)
 479:Generated_Source\PSoC4/SPIM.c ****     {
 480:Generated_Source\PSoC4/SPIM.c ****         uint32 pinsDm[SPIM_SCB_PINS_NUMBER];
 481:Generated_Source\PSoC4/SPIM.c ****         uint32 i;
 482:Generated_Source\PSoC4/SPIM.c ****         
 483:Generated_Source\PSoC4/SPIM.c ****     #if (!SPIM_CY_SCBIP_V1)
 484:Generated_Source\PSoC4/SPIM.c ****         uint32 pinsInBuf = 0u;
 485:Generated_Source\PSoC4/SPIM.c ****     #endif /* (!SPIM_CY_SCBIP_V1) */
 486:Generated_Source\PSoC4/SPIM.c ****         
 487:Generated_Source\PSoC4/SPIM.c ****         uint32 hsiomSel[SPIM_SCB_PINS_NUMBER] = 
 488:Generated_Source\PSoC4/SPIM.c ****         {
 489:Generated_Source\PSoC4/SPIM.c ****             SPIM_RX_SCL_MOSI_HSIOM_SEL_GPIO,
 490:Generated_Source\PSoC4/SPIM.c ****             SPIM_TX_SDA_MISO_HSIOM_SEL_GPIO,
 491:Generated_Source\PSoC4/SPIM.c ****             0u,
 492:Generated_Source\PSoC4/SPIM.c ****             0u,
ARM GAS  C:\Users\Ala\AppData\Local\Temp\cctOFRHR.s 			page 16


 493:Generated_Source\PSoC4/SPIM.c ****             0u,
 494:Generated_Source\PSoC4/SPIM.c ****             0u,
 495:Generated_Source\PSoC4/SPIM.c ****             0u,
 496:Generated_Source\PSoC4/SPIM.c ****         };
 497:Generated_Source\PSoC4/SPIM.c **** 
 498:Generated_Source\PSoC4/SPIM.c ****     #if (SPIM_CY_SCBIP_V1)
 499:Generated_Source\PSoC4/SPIM.c ****         /* Supress compiler warning. */
 500:Generated_Source\PSoC4/SPIM.c ****         if ((0u == subMode) || (0u == uartEnableMask))
 501:Generated_Source\PSoC4/SPIM.c ****         {
 502:Generated_Source\PSoC4/SPIM.c ****         }
 503:Generated_Source\PSoC4/SPIM.c ****     #endif /* (SPIM_CY_SCBIP_V1) */
 504:Generated_Source\PSoC4/SPIM.c **** 
 505:Generated_Source\PSoC4/SPIM.c ****         /* Set default HSIOM to GPIO and Drive Mode to Analog Hi-Z */
 506:Generated_Source\PSoC4/SPIM.c ****         for (i = 0u; i < SPIM_SCB_PINS_NUMBER; i++)
 507:Generated_Source\PSoC4/SPIM.c ****         {
 508:Generated_Source\PSoC4/SPIM.c ****             pinsDm[i] = SPIM_PIN_DM_ALG_HIZ;
 509:Generated_Source\PSoC4/SPIM.c ****         }
 510:Generated_Source\PSoC4/SPIM.c **** 
 511:Generated_Source\PSoC4/SPIM.c ****         if ((SPIM_SCB_MODE_I2C   == mode) ||
 512:Generated_Source\PSoC4/SPIM.c ****             (SPIM_SCB_MODE_EZI2C == mode))
 513:Generated_Source\PSoC4/SPIM.c ****         {
 514:Generated_Source\PSoC4/SPIM.c ****         #if (SPIM_RX_SCL_MOSI_PIN)
 515:Generated_Source\PSoC4/SPIM.c ****             hsiomSel[SPIM_RX_SCL_MOSI_PIN_INDEX] = SPIM_RX_SCL_MOSI_HSIOM_SEL_I2C;
 516:Generated_Source\PSoC4/SPIM.c ****             pinsDm  [SPIM_RX_SCL_MOSI_PIN_INDEX] = SPIM_PIN_DM_OD_LO;
 517:Generated_Source\PSoC4/SPIM.c ****         #elif (SPIM_RX_WAKE_SCL_MOSI_PIN)
 518:Generated_Source\PSoC4/SPIM.c ****             hsiomSel[SPIM_RX_WAKE_SCL_MOSI_PIN_INDEX] = SPIM_RX_WAKE_SCL_MOSI_HSIOM_SEL_I2C;
 519:Generated_Source\PSoC4/SPIM.c ****             pinsDm  [SPIM_RX_WAKE_SCL_MOSI_PIN_INDEX] = SPIM_PIN_DM_OD_LO;
 520:Generated_Source\PSoC4/SPIM.c ****         #else
 521:Generated_Source\PSoC4/SPIM.c ****         #endif /* (SPIM_RX_SCL_MOSI_PIN) */
 522:Generated_Source\PSoC4/SPIM.c ****         
 523:Generated_Source\PSoC4/SPIM.c ****         #if (SPIM_TX_SDA_MISO_PIN)
 524:Generated_Source\PSoC4/SPIM.c ****             hsiomSel[SPIM_TX_SDA_MISO_PIN_INDEX] = SPIM_TX_SDA_MISO_HSIOM_SEL_I2C;
 525:Generated_Source\PSoC4/SPIM.c ****             pinsDm  [SPIM_TX_SDA_MISO_PIN_INDEX] = SPIM_PIN_DM_OD_LO;
 526:Generated_Source\PSoC4/SPIM.c ****         #endif /* (SPIM_TX_SDA_MISO_PIN) */
 527:Generated_Source\PSoC4/SPIM.c ****         }
 528:Generated_Source\PSoC4/SPIM.c ****     #if (!SPIM_CY_SCBIP_V1)
 529:Generated_Source\PSoC4/SPIM.c ****         else if (SPIM_SCB_MODE_SPI == mode)
 530:Generated_Source\PSoC4/SPIM.c ****         {
 531:Generated_Source\PSoC4/SPIM.c ****         #if (SPIM_RX_SCL_MOSI_PIN)
 532:Generated_Source\PSoC4/SPIM.c ****             hsiomSel[SPIM_RX_SCL_MOSI_PIN_INDEX] = SPIM_RX_SCL_MOSI_HSIOM_SEL_SPI;
 533:Generated_Source\PSoC4/SPIM.c ****         #elif (SPIM_RX_WAKE_SCL_MOSI_PIN)
 534:Generated_Source\PSoC4/SPIM.c ****             hsiomSel[SPIM_RX_WAKE_SCL_MOSI_PIN_INDEX] = SPIM_RX_WAKE_SCL_MOSI_HSIOM_SEL_SPI;
 535:Generated_Source\PSoC4/SPIM.c ****         #else
 536:Generated_Source\PSoC4/SPIM.c ****         #endif /* (SPIM_RX_SCL_MOSI_PIN) */
 537:Generated_Source\PSoC4/SPIM.c ****         
 538:Generated_Source\PSoC4/SPIM.c ****         #if (SPIM_TX_SDA_MISO_PIN)
 539:Generated_Source\PSoC4/SPIM.c ****             hsiomSel[SPIM_TX_SDA_MISO_PIN_INDEX] = SPIM_TX_SDA_MISO_HSIOM_SEL_SPI;
 540:Generated_Source\PSoC4/SPIM.c ****         #endif /* (SPIM_TX_SDA_MISO_PIN) */
 541:Generated_Source\PSoC4/SPIM.c ****         
 542:Generated_Source\PSoC4/SPIM.c ****         #if (SPIM_SCLK_PIN)
 543:Generated_Source\PSoC4/SPIM.c ****             hsiomSel[SPIM_SCLK_PIN_INDEX] = SPIM_SCLK_HSIOM_SEL_SPI;
 544:Generated_Source\PSoC4/SPIM.c ****         #endif /* (SPIM_SCLK_PIN) */
 545:Generated_Source\PSoC4/SPIM.c **** 
 546:Generated_Source\PSoC4/SPIM.c ****             if (SPIM_SPI_SLAVE == subMode)
 547:Generated_Source\PSoC4/SPIM.c ****             {
 548:Generated_Source\PSoC4/SPIM.c ****                 /* Slave */
 549:Generated_Source\PSoC4/SPIM.c ****                 pinsDm[SPIM_RX_SCL_MOSI_PIN_INDEX] = SPIM_PIN_DM_DIG_HIZ;
ARM GAS  C:\Users\Ala\AppData\Local\Temp\cctOFRHR.s 			page 17


 550:Generated_Source\PSoC4/SPIM.c ****                 pinsDm[SPIM_TX_SDA_MISO_PIN_INDEX] = SPIM_PIN_DM_STRONG;
 551:Generated_Source\PSoC4/SPIM.c ****                 pinsDm[SPIM_SCLK_PIN_INDEX] = SPIM_PIN_DM_DIG_HIZ;
 552:Generated_Source\PSoC4/SPIM.c **** 
 553:Generated_Source\PSoC4/SPIM.c ****             #if (SPIM_SS0_PIN)
 554:Generated_Source\PSoC4/SPIM.c ****                 /* Only SS0 is valid choice for Slave */
 555:Generated_Source\PSoC4/SPIM.c ****                 hsiomSel[SPIM_SS0_PIN_INDEX] = SPIM_SS0_HSIOM_SEL_SPI;
 556:Generated_Source\PSoC4/SPIM.c ****                 pinsDm  [SPIM_SS0_PIN_INDEX] = SPIM_PIN_DM_DIG_HIZ;
 557:Generated_Source\PSoC4/SPIM.c ****             #endif /* (SPIM_SS0_PIN) */
 558:Generated_Source\PSoC4/SPIM.c **** 
 559:Generated_Source\PSoC4/SPIM.c ****             #if (SPIM_TX_SDA_MISO_PIN)
 560:Generated_Source\PSoC4/SPIM.c ****                 /* Disable input buffer */
 561:Generated_Source\PSoC4/SPIM.c ****                  pinsInBuf |= SPIM_TX_SDA_MISO_PIN_MASK;
 562:Generated_Source\PSoC4/SPIM.c ****             #endif /* (SPIM_TX_SDA_MISO_PIN) */
 563:Generated_Source\PSoC4/SPIM.c ****             }
 564:Generated_Source\PSoC4/SPIM.c ****             else 
 565:Generated_Source\PSoC4/SPIM.c ****             {
 566:Generated_Source\PSoC4/SPIM.c ****                 /* (Master) */
 567:Generated_Source\PSoC4/SPIM.c ****                 pinsDm[SPIM_RX_SCL_MOSI_PIN_INDEX] = SPIM_PIN_DM_STRONG;
 568:Generated_Source\PSoC4/SPIM.c ****                 pinsDm[SPIM_TX_SDA_MISO_PIN_INDEX] = SPIM_PIN_DM_DIG_HIZ;
 569:Generated_Source\PSoC4/SPIM.c ****                 pinsDm[SPIM_SCLK_PIN_INDEX] = SPIM_PIN_DM_STRONG;
 570:Generated_Source\PSoC4/SPIM.c **** 
 571:Generated_Source\PSoC4/SPIM.c ****             #if (SPIM_SS0_PIN)
 572:Generated_Source\PSoC4/SPIM.c ****                 hsiomSel [SPIM_SS0_PIN_INDEX] = SPIM_SS0_HSIOM_SEL_SPI;
 573:Generated_Source\PSoC4/SPIM.c ****                 pinsDm   [SPIM_SS0_PIN_INDEX] = SPIM_PIN_DM_STRONG;
 574:Generated_Source\PSoC4/SPIM.c ****                 pinsInBuf |= SPIM_SS0_PIN_MASK;
 575:Generated_Source\PSoC4/SPIM.c ****             #endif /* (SPIM_SS0_PIN) */
 576:Generated_Source\PSoC4/SPIM.c **** 
 577:Generated_Source\PSoC4/SPIM.c ****             #if (SPIM_SS1_PIN)
 578:Generated_Source\PSoC4/SPIM.c ****                 hsiomSel [SPIM_SS1_PIN_INDEX] = SPIM_SS1_HSIOM_SEL_SPI;
 579:Generated_Source\PSoC4/SPIM.c ****                 pinsDm   [SPIM_SS1_PIN_INDEX] = SPIM_PIN_DM_STRONG;
 580:Generated_Source\PSoC4/SPIM.c ****                 pinsInBuf |= SPIM_SS1_PIN_MASK;
 581:Generated_Source\PSoC4/SPIM.c ****             #endif /* (SPIM_SS1_PIN) */
 582:Generated_Source\PSoC4/SPIM.c **** 
 583:Generated_Source\PSoC4/SPIM.c ****             #if (SPIM_SS2_PIN)
 584:Generated_Source\PSoC4/SPIM.c ****                 hsiomSel [SPIM_SS2_PIN_INDEX] = SPIM_SS2_HSIOM_SEL_SPI;
 585:Generated_Source\PSoC4/SPIM.c ****                 pinsDm   [SPIM_SS2_PIN_INDEX] = SPIM_PIN_DM_STRONG;
 586:Generated_Source\PSoC4/SPIM.c ****                 pinsInBuf |= SPIM_SS2_PIN_MASK;
 587:Generated_Source\PSoC4/SPIM.c ****             #endif /* (SPIM_SS2_PIN) */
 588:Generated_Source\PSoC4/SPIM.c **** 
 589:Generated_Source\PSoC4/SPIM.c ****             #if (SPIM_SS3_PIN)
 590:Generated_Source\PSoC4/SPIM.c ****                 hsiomSel [SPIM_SS3_PIN_INDEX] = SPIM_SS3_HSIOM_SEL_SPI;
 591:Generated_Source\PSoC4/SPIM.c ****                 pinsDm   [SPIM_SS3_PIN_INDEX] = SPIM_PIN_DM_STRONG;
 592:Generated_Source\PSoC4/SPIM.c ****                 pinsInBuf |= SPIM_SS3_PIN_MASK;
 593:Generated_Source\PSoC4/SPIM.c ****             #endif /* (SPIM_SS3_PIN) */
 594:Generated_Source\PSoC4/SPIM.c **** 
 595:Generated_Source\PSoC4/SPIM.c ****                 /* Disable input buffers */
 596:Generated_Source\PSoC4/SPIM.c ****             #if (SPIM_RX_SCL_MOSI_PIN)
 597:Generated_Source\PSoC4/SPIM.c ****                 pinsInBuf |= SPIM_RX_SCL_MOSI_PIN_MASK;
 598:Generated_Source\PSoC4/SPIM.c ****             #elif (SPIM_RX_WAKE_SCL_MOSI_PIN)
 599:Generated_Source\PSoC4/SPIM.c ****                 pinsInBuf |= SPIM_RX_WAKE_SCL_MOSI_PIN_MASK;
 600:Generated_Source\PSoC4/SPIM.c ****             #else
 601:Generated_Source\PSoC4/SPIM.c ****             #endif /* (SPIM_RX_SCL_MOSI_PIN) */
 602:Generated_Source\PSoC4/SPIM.c **** 
 603:Generated_Source\PSoC4/SPIM.c ****             #if (SPIM_SCLK_PIN)
 604:Generated_Source\PSoC4/SPIM.c ****                 pinsInBuf |= SPIM_SCLK_PIN_MASK;
 605:Generated_Source\PSoC4/SPIM.c ****             #endif /* (SPIM_SCLK_PIN) */
 606:Generated_Source\PSoC4/SPIM.c ****             }
ARM GAS  C:\Users\Ala\AppData\Local\Temp\cctOFRHR.s 			page 18


 607:Generated_Source\PSoC4/SPIM.c ****         }
 608:Generated_Source\PSoC4/SPIM.c ****         else /* UART */
 609:Generated_Source\PSoC4/SPIM.c ****         {
 610:Generated_Source\PSoC4/SPIM.c ****             if (SPIM_UART_MODE_SMARTCARD == subMode)
 611:Generated_Source\PSoC4/SPIM.c ****             {
 612:Generated_Source\PSoC4/SPIM.c ****                 /* SmartCard */
 613:Generated_Source\PSoC4/SPIM.c ****             #if (SPIM_TX_SDA_MISO_PIN)
 614:Generated_Source\PSoC4/SPIM.c ****                 hsiomSel[SPIM_TX_SDA_MISO_PIN_INDEX] = SPIM_TX_SDA_MISO_HSIOM_SEL_UART;
 615:Generated_Source\PSoC4/SPIM.c ****                 pinsDm  [SPIM_TX_SDA_MISO_PIN_INDEX] = SPIM_PIN_DM_OD_LO;
 616:Generated_Source\PSoC4/SPIM.c ****             #endif /* (SPIM_TX_SDA_MISO_PIN) */
 617:Generated_Source\PSoC4/SPIM.c ****             }
 618:Generated_Source\PSoC4/SPIM.c ****             else /* Standard or IrDA */
 619:Generated_Source\PSoC4/SPIM.c ****             {
 620:Generated_Source\PSoC4/SPIM.c ****                 if (0u != (SPIM_UART_RX_PIN_ENABLE & uartEnableMask))
 621:Generated_Source\PSoC4/SPIM.c ****                 {
 622:Generated_Source\PSoC4/SPIM.c ****                 #if (SPIM_RX_SCL_MOSI_PIN)
 623:Generated_Source\PSoC4/SPIM.c ****                     hsiomSel[SPIM_RX_SCL_MOSI_PIN_INDEX] = SPIM_RX_SCL_MOSI_HSIOM_SEL_UART;
 624:Generated_Source\PSoC4/SPIM.c ****                     pinsDm  [SPIM_RX_SCL_MOSI_PIN_INDEX] = SPIM_PIN_DM_DIG_HIZ;
 625:Generated_Source\PSoC4/SPIM.c ****                 #elif (SPIM_RX_WAKE_SCL_MOSI_PIN)
 626:Generated_Source\PSoC4/SPIM.c ****                     hsiomSel[SPIM_RX_WAKE_SCL_MOSI_PIN_INDEX] = SPIM_RX_WAKE_SCL_MOSI_HSIOM_SEL_UAR
 627:Generated_Source\PSoC4/SPIM.c ****                     pinsDm  [SPIM_RX_WAKE_SCL_MOSI_PIN_INDEX] = SPIM_PIN_DM_DIG_HIZ;
 628:Generated_Source\PSoC4/SPIM.c ****                 #else
 629:Generated_Source\PSoC4/SPIM.c ****                 #endif /* (SPIM_RX_SCL_MOSI_PIN) */
 630:Generated_Source\PSoC4/SPIM.c ****                 }
 631:Generated_Source\PSoC4/SPIM.c **** 
 632:Generated_Source\PSoC4/SPIM.c ****                 if (0u != (SPIM_UART_TX_PIN_ENABLE & uartEnableMask))
 633:Generated_Source\PSoC4/SPIM.c ****                 {
 634:Generated_Source\PSoC4/SPIM.c ****                 #if (SPIM_TX_SDA_MISO_PIN)
 635:Generated_Source\PSoC4/SPIM.c ****                     hsiomSel[SPIM_TX_SDA_MISO_PIN_INDEX] = SPIM_TX_SDA_MISO_HSIOM_SEL_UART;
 636:Generated_Source\PSoC4/SPIM.c ****                     pinsDm  [SPIM_TX_SDA_MISO_PIN_INDEX] = SPIM_PIN_DM_STRONG;
 637:Generated_Source\PSoC4/SPIM.c ****                     
 638:Generated_Source\PSoC4/SPIM.c ****                     /* Disable input buffer */
 639:Generated_Source\PSoC4/SPIM.c ****                     pinsInBuf |= SPIM_TX_SDA_MISO_PIN_MASK;
 640:Generated_Source\PSoC4/SPIM.c ****                 #endif /* (SPIM_TX_SDA_MISO_PIN) */
 641:Generated_Source\PSoC4/SPIM.c ****                 }
 642:Generated_Source\PSoC4/SPIM.c **** 
 643:Generated_Source\PSoC4/SPIM.c ****             #if !(SPIM_CY_SCBIP_V0 || SPIM_CY_SCBIP_V1)
 644:Generated_Source\PSoC4/SPIM.c ****                 if (SPIM_UART_MODE_STD == subMode)
 645:Generated_Source\PSoC4/SPIM.c ****                 {
 646:Generated_Source\PSoC4/SPIM.c ****                     if (0u != (SPIM_UART_CTS_PIN_ENABLE & uartEnableMask))
 647:Generated_Source\PSoC4/SPIM.c ****                     {
 648:Generated_Source\PSoC4/SPIM.c ****                         /* CTS input is multiplexed with SCLK */
 649:Generated_Source\PSoC4/SPIM.c ****                     #if (SPIM_SCLK_PIN)
 650:Generated_Source\PSoC4/SPIM.c ****                         hsiomSel[SPIM_SCLK_PIN_INDEX] = SPIM_SCLK_HSIOM_SEL_UART;
 651:Generated_Source\PSoC4/SPIM.c ****                         pinsDm  [SPIM_SCLK_PIN_INDEX] = SPIM_PIN_DM_DIG_HIZ;
 652:Generated_Source\PSoC4/SPIM.c ****                     #endif /* (SPIM_SCLK_PIN) */
 653:Generated_Source\PSoC4/SPIM.c ****                     }
 654:Generated_Source\PSoC4/SPIM.c **** 
 655:Generated_Source\PSoC4/SPIM.c ****                     if (0u != (SPIM_UART_RTS_PIN_ENABLE & uartEnableMask))
 656:Generated_Source\PSoC4/SPIM.c ****                     {
 657:Generated_Source\PSoC4/SPIM.c ****                         /* RTS output is multiplexed with SS0 */
 658:Generated_Source\PSoC4/SPIM.c ****                     #if (SPIM_SS0_PIN)
 659:Generated_Source\PSoC4/SPIM.c ****                         hsiomSel[SPIM_SS0_PIN_INDEX] = SPIM_SS0_HSIOM_SEL_UART;
 660:Generated_Source\PSoC4/SPIM.c ****                         pinsDm  [SPIM_SS0_PIN_INDEX] = SPIM_PIN_DM_STRONG;
 661:Generated_Source\PSoC4/SPIM.c ****                         
 662:Generated_Source\PSoC4/SPIM.c ****                         /* Disable input buffer */
 663:Generated_Source\PSoC4/SPIM.c ****                         pinsInBuf |= SPIM_SS0_PIN_MASK;
ARM GAS  C:\Users\Ala\AppData\Local\Temp\cctOFRHR.s 			page 19


 664:Generated_Source\PSoC4/SPIM.c ****                     #endif /* (SPIM_SS0_PIN) */
 665:Generated_Source\PSoC4/SPIM.c ****                     }
 666:Generated_Source\PSoC4/SPIM.c ****                 }
 667:Generated_Source\PSoC4/SPIM.c ****             #endif /* !(SPIM_CY_SCBIP_V0 || SPIM_CY_SCBIP_V1) */
 668:Generated_Source\PSoC4/SPIM.c ****             }
 669:Generated_Source\PSoC4/SPIM.c ****         }
 670:Generated_Source\PSoC4/SPIM.c ****     #endif /* (!SPIM_CY_SCBIP_V1) */
 671:Generated_Source\PSoC4/SPIM.c **** 
 672:Generated_Source\PSoC4/SPIM.c ****     /* Configure pins: set HSIOM, DM and InputBufEnable */
 673:Generated_Source\PSoC4/SPIM.c ****     /* Note: the DR register settings do not effect the pin output if HSIOM is other than GPIO */
 674:Generated_Source\PSoC4/SPIM.c **** 
 675:Generated_Source\PSoC4/SPIM.c ****     #if (SPIM_RX_SCL_MOSI_PIN)
 676:Generated_Source\PSoC4/SPIM.c ****         SPIM_SET_HSIOM_SEL(SPIM_RX_SCL_MOSI_HSIOM_REG,
 677:Generated_Source\PSoC4/SPIM.c ****                                        SPIM_RX_SCL_MOSI_HSIOM_MASK,
 678:Generated_Source\PSoC4/SPIM.c ****                                        SPIM_RX_SCL_MOSI_HSIOM_POS,
 679:Generated_Source\PSoC4/SPIM.c ****                                         hsiomSel[SPIM_RX_SCL_MOSI_PIN_INDEX]);
 680:Generated_Source\PSoC4/SPIM.c **** 
 681:Generated_Source\PSoC4/SPIM.c ****         SPIM_uart_rx_i2c_scl_spi_mosi_SetDriveMode((uint8) pinsDm[SPIM_RX_SCL_MOSI_PIN_INDEX]);
 682:Generated_Source\PSoC4/SPIM.c **** 
 683:Generated_Source\PSoC4/SPIM.c ****         #if (!SPIM_CY_SCBIP_V1)
 684:Generated_Source\PSoC4/SPIM.c ****             SPIM_SET_INP_DIS(SPIM_uart_rx_i2c_scl_spi_mosi_INP_DIS,
 685:Generated_Source\PSoC4/SPIM.c ****                                          SPIM_uart_rx_i2c_scl_spi_mosi_MASK,
 686:Generated_Source\PSoC4/SPIM.c ****                                          (0u != (pinsInBuf & SPIM_RX_SCL_MOSI_PIN_MASK)));
 687:Generated_Source\PSoC4/SPIM.c ****         #endif /* (!SPIM_CY_SCBIP_V1) */
 688:Generated_Source\PSoC4/SPIM.c ****     
 689:Generated_Source\PSoC4/SPIM.c ****     #elif (SPIM_RX_WAKE_SCL_MOSI_PIN)
 690:Generated_Source\PSoC4/SPIM.c ****         SPIM_SET_HSIOM_SEL(SPIM_RX_WAKE_SCL_MOSI_HSIOM_REG,
 691:Generated_Source\PSoC4/SPIM.c ****                                        SPIM_RX_WAKE_SCL_MOSI_HSIOM_MASK,
 692:Generated_Source\PSoC4/SPIM.c ****                                        SPIM_RX_WAKE_SCL_MOSI_HSIOM_POS,
 693:Generated_Source\PSoC4/SPIM.c ****                                        hsiomSel[SPIM_RX_WAKE_SCL_MOSI_PIN_INDEX]);
 694:Generated_Source\PSoC4/SPIM.c **** 
 695:Generated_Source\PSoC4/SPIM.c ****         SPIM_uart_rx_wake_i2c_scl_spi_mosi_SetDriveMode((uint8)
 696:Generated_Source\PSoC4/SPIM.c ****                                                                pinsDm[SPIM_RX_WAKE_SCL_MOSI_PIN_IND
 697:Generated_Source\PSoC4/SPIM.c **** 
 698:Generated_Source\PSoC4/SPIM.c ****         SPIM_SET_INP_DIS(SPIM_uart_rx_wake_i2c_scl_spi_mosi_INP_DIS,
 699:Generated_Source\PSoC4/SPIM.c ****                                      SPIM_uart_rx_wake_i2c_scl_spi_mosi_MASK,
 700:Generated_Source\PSoC4/SPIM.c ****                                      (0u != (pinsInBuf & SPIM_RX_WAKE_SCL_MOSI_PIN_MASK)));
 701:Generated_Source\PSoC4/SPIM.c **** 
 702:Generated_Source\PSoC4/SPIM.c ****          /* Set interrupt on falling edge */
 703:Generated_Source\PSoC4/SPIM.c ****         SPIM_SET_INCFG_TYPE(SPIM_RX_WAKE_SCL_MOSI_INTCFG_REG,
 704:Generated_Source\PSoC4/SPIM.c ****                                         SPIM_RX_WAKE_SCL_MOSI_INTCFG_TYPE_MASK,
 705:Generated_Source\PSoC4/SPIM.c ****                                         SPIM_RX_WAKE_SCL_MOSI_INTCFG_TYPE_POS,
 706:Generated_Source\PSoC4/SPIM.c ****                                         SPIM_INTCFG_TYPE_FALLING_EDGE);
 707:Generated_Source\PSoC4/SPIM.c ****     #else
 708:Generated_Source\PSoC4/SPIM.c ****     #endif /* (SPIM_RX_WAKE_SCL_MOSI_PIN) */
 709:Generated_Source\PSoC4/SPIM.c **** 
 710:Generated_Source\PSoC4/SPIM.c ****     #if (SPIM_TX_SDA_MISO_PIN)
 711:Generated_Source\PSoC4/SPIM.c ****         SPIM_SET_HSIOM_SEL(SPIM_TX_SDA_MISO_HSIOM_REG,
 712:Generated_Source\PSoC4/SPIM.c ****                                        SPIM_TX_SDA_MISO_HSIOM_MASK,
 713:Generated_Source\PSoC4/SPIM.c ****                                        SPIM_TX_SDA_MISO_HSIOM_POS,
 714:Generated_Source\PSoC4/SPIM.c ****                                         hsiomSel[SPIM_TX_SDA_MISO_PIN_INDEX]);
 715:Generated_Source\PSoC4/SPIM.c **** 
 716:Generated_Source\PSoC4/SPIM.c ****         SPIM_uart_tx_i2c_sda_spi_miso_SetDriveMode((uint8) pinsDm[SPIM_TX_SDA_MISO_PIN_INDEX]);
 717:Generated_Source\PSoC4/SPIM.c **** 
 718:Generated_Source\PSoC4/SPIM.c ****     #if (!SPIM_CY_SCBIP_V1)
 719:Generated_Source\PSoC4/SPIM.c ****         SPIM_SET_INP_DIS(SPIM_uart_tx_i2c_sda_spi_miso_INP_DIS,
 720:Generated_Source\PSoC4/SPIM.c ****                                      SPIM_uart_tx_i2c_sda_spi_miso_MASK,
ARM GAS  C:\Users\Ala\AppData\Local\Temp\cctOFRHR.s 			page 20


 721:Generated_Source\PSoC4/SPIM.c ****                                     (0u != (pinsInBuf & SPIM_TX_SDA_MISO_PIN_MASK)));
 722:Generated_Source\PSoC4/SPIM.c ****     #endif /* (!SPIM_CY_SCBIP_V1) */
 723:Generated_Source\PSoC4/SPIM.c ****     #endif /* (SPIM_RX_SCL_MOSI_PIN) */
 724:Generated_Source\PSoC4/SPIM.c **** 
 725:Generated_Source\PSoC4/SPIM.c ****     #if (SPIM_SCLK_PIN)
 726:Generated_Source\PSoC4/SPIM.c ****         SPIM_SET_HSIOM_SEL(SPIM_SCLK_HSIOM_REG,
 727:Generated_Source\PSoC4/SPIM.c ****                                        SPIM_SCLK_HSIOM_MASK,
 728:Generated_Source\PSoC4/SPIM.c ****                                        SPIM_SCLK_HSIOM_POS,
 729:Generated_Source\PSoC4/SPIM.c ****                                        hsiomSel[SPIM_SCLK_PIN_INDEX]);
 730:Generated_Source\PSoC4/SPIM.c **** 
 731:Generated_Source\PSoC4/SPIM.c ****         SPIM_spi_sclk_SetDriveMode((uint8) pinsDm[SPIM_SCLK_PIN_INDEX]);
 732:Generated_Source\PSoC4/SPIM.c **** 
 733:Generated_Source\PSoC4/SPIM.c ****         SPIM_SET_INP_DIS(SPIM_spi_sclk_INP_DIS,
 734:Generated_Source\PSoC4/SPIM.c ****                                      SPIM_spi_sclk_MASK,
 735:Generated_Source\PSoC4/SPIM.c ****                                      (0u != (pinsInBuf & SPIM_SCLK_PIN_MASK)));
 736:Generated_Source\PSoC4/SPIM.c ****     #endif /* (SPIM_SCLK_PIN) */
 737:Generated_Source\PSoC4/SPIM.c **** 
 738:Generated_Source\PSoC4/SPIM.c ****     #if (SPIM_SS0_PIN)
 739:Generated_Source\PSoC4/SPIM.c ****         SPIM_SET_HSIOM_SEL(SPIM_SS0_HSIOM_REG,
 740:Generated_Source\PSoC4/SPIM.c ****                                        SPIM_SS0_HSIOM_MASK,
 741:Generated_Source\PSoC4/SPIM.c ****                                        SPIM_SS0_HSIOM_POS,
 742:Generated_Source\PSoC4/SPIM.c ****                                        hsiomSel[SPIM_SS0_PIN_INDEX]);
 743:Generated_Source\PSoC4/SPIM.c **** 
 744:Generated_Source\PSoC4/SPIM.c ****         SPIM_spi_ss0_SetDriveMode((uint8) pinsDm[SPIM_SS0_PIN_INDEX]);
 745:Generated_Source\PSoC4/SPIM.c **** 
 746:Generated_Source\PSoC4/SPIM.c ****         SPIM_SET_INP_DIS(SPIM_spi_ss0_INP_DIS,
 747:Generated_Source\PSoC4/SPIM.c ****                                      SPIM_spi_ss0_MASK,
 748:Generated_Source\PSoC4/SPIM.c ****                                      (0u != (pinsInBuf & SPIM_SS0_PIN_MASK)));
 749:Generated_Source\PSoC4/SPIM.c ****     #endif /* (SPIM_SS0_PIN) */
 750:Generated_Source\PSoC4/SPIM.c **** 
 751:Generated_Source\PSoC4/SPIM.c ****     #if (SPIM_SS1_PIN)
 752:Generated_Source\PSoC4/SPIM.c ****         SPIM_SET_HSIOM_SEL(SPIM_SS1_HSIOM_REG,
 753:Generated_Source\PSoC4/SPIM.c ****                                        SPIM_SS1_HSIOM_MASK,
 754:Generated_Source\PSoC4/SPIM.c ****                                        SPIM_SS1_HSIOM_POS,
 755:Generated_Source\PSoC4/SPIM.c ****                                        hsiomSel[SPIM_SS1_PIN_INDEX]);
 756:Generated_Source\PSoC4/SPIM.c **** 
 757:Generated_Source\PSoC4/SPIM.c ****         SPIM_spi_ss1_SetDriveMode((uint8) pinsDm[SPIM_SS1_PIN_INDEX]);
 758:Generated_Source\PSoC4/SPIM.c **** 
 759:Generated_Source\PSoC4/SPIM.c ****         SPIM_SET_INP_DIS(SPIM_spi_ss1_INP_DIS,
 760:Generated_Source\PSoC4/SPIM.c ****                                      SPIM_spi_ss1_MASK,
 761:Generated_Source\PSoC4/SPIM.c ****                                      (0u != (pinsInBuf & SPIM_SS1_PIN_MASK)));
 762:Generated_Source\PSoC4/SPIM.c ****     #endif /* (SPIM_SS1_PIN) */
 763:Generated_Source\PSoC4/SPIM.c **** 
 764:Generated_Source\PSoC4/SPIM.c ****     #if (SPIM_SS2_PIN)
 765:Generated_Source\PSoC4/SPIM.c ****         SPIM_SET_HSIOM_SEL(SPIM_SS2_HSIOM_REG,
 766:Generated_Source\PSoC4/SPIM.c ****                                        SPIM_SS2_HSIOM_MASK,
 767:Generated_Source\PSoC4/SPIM.c ****                                        SPIM_SS2_HSIOM_POS,
 768:Generated_Source\PSoC4/SPIM.c ****                                        hsiomSel[SPIM_SS2_PIN_INDEX]);
 769:Generated_Source\PSoC4/SPIM.c **** 
 770:Generated_Source\PSoC4/SPIM.c ****         SPIM_spi_ss2_SetDriveMode((uint8) pinsDm[SPIM_SS2_PIN_INDEX]);
 771:Generated_Source\PSoC4/SPIM.c **** 
 772:Generated_Source\PSoC4/SPIM.c ****         SPIM_SET_INP_DIS(SPIM_spi_ss2_INP_DIS,
 773:Generated_Source\PSoC4/SPIM.c ****                                      SPIM_spi_ss2_MASK,
 774:Generated_Source\PSoC4/SPIM.c ****                                      (0u != (pinsInBuf & SPIM_SS2_PIN_MASK)));
 775:Generated_Source\PSoC4/SPIM.c ****     #endif /* (SPIM_SS2_PIN) */
 776:Generated_Source\PSoC4/SPIM.c **** 
 777:Generated_Source\PSoC4/SPIM.c ****     #if (SPIM_SS3_PIN)
ARM GAS  C:\Users\Ala\AppData\Local\Temp\cctOFRHR.s 			page 21


 778:Generated_Source\PSoC4/SPIM.c ****         SPIM_SET_HSIOM_SEL(SPIM_SS3_HSIOM_REG,
 779:Generated_Source\PSoC4/SPIM.c ****                                        SPIM_SS3_HSIOM_MASK,
 780:Generated_Source\PSoC4/SPIM.c ****                                        SPIM_SS3_HSIOM_POS,
 781:Generated_Source\PSoC4/SPIM.c ****                                        hsiomSel[SPIM_SS3_PIN_INDEX]);
 782:Generated_Source\PSoC4/SPIM.c **** 
 783:Generated_Source\PSoC4/SPIM.c ****         SPIM_spi_ss3_SetDriveMode((uint8) pinsDm[SPIM_SS3_PIN_INDEX]);
 784:Generated_Source\PSoC4/SPIM.c **** 
 785:Generated_Source\PSoC4/SPIM.c ****         SPIM_SET_INP_DIS(SPIM_spi_ss3_INP_DIS,
 786:Generated_Source\PSoC4/SPIM.c ****                                      SPIM_spi_ss3_MASK,
 787:Generated_Source\PSoC4/SPIM.c ****                                      (0u != (pinsInBuf & SPIM_SS3_PIN_MASK)));
 788:Generated_Source\PSoC4/SPIM.c ****     #endif /* (SPIM_SS3_PIN) */
 789:Generated_Source\PSoC4/SPIM.c ****     }
 790:Generated_Source\PSoC4/SPIM.c **** 
 791:Generated_Source\PSoC4/SPIM.c **** #endif /* (SPIM_SCB_MODE_UNCONFIG_CONST_CFG) */
 792:Generated_Source\PSoC4/SPIM.c **** 
 793:Generated_Source\PSoC4/SPIM.c **** 
 794:Generated_Source\PSoC4/SPIM.c **** #if (SPIM_CY_SCBIP_V0 || SPIM_CY_SCBIP_V1)
 795:Generated_Source\PSoC4/SPIM.c ****     /*******************************************************************************
 796:Generated_Source\PSoC4/SPIM.c ****     * Function Name: SPIM_I2CSlaveNackGeneration
 797:Generated_Source\PSoC4/SPIM.c ****     ****************************************************************************//**
 798:Generated_Source\PSoC4/SPIM.c ****     *
 799:Generated_Source\PSoC4/SPIM.c ****     *  Sets command to generate NACK to the address or data.
 800:Generated_Source\PSoC4/SPIM.c ****     *
 801:Generated_Source\PSoC4/SPIM.c ****     *******************************************************************************/
 802:Generated_Source\PSoC4/SPIM.c ****     void SPIM_I2CSlaveNackGeneration(void)
 803:Generated_Source\PSoC4/SPIM.c ****     {
 320              		.loc 1 803 0
 321              		.cfi_startproc
 322              		@ args = 0, pretend = 0, frame = 0
 323              		@ frame_needed = 0, uses_anonymous_args = 0
 324              		@ link register save eliminated.
 804:Generated_Source\PSoC4/SPIM.c ****         /* Check for EC_AM toggle condition: EC_AM and clock stretching for address are enabled */
 805:Generated_Source\PSoC4/SPIM.c ****         if ((0u != (SPIM_CTRL_REG & SPIM_CTRL_EC_AM_MODE)) &&
 325              		.loc 1 805 0
 326 0000 8020     		movs	r0, #128
 327 0002 0A4B     		ldr	r3, .L27
 328 0004 4000     		lsls	r0, r0, #1
 329 0006 1A68     		ldr	r2, [r3]
 330 0008 0242     		tst	r2, r0
 331 000a 0AD0     		beq	.L23
 806:Generated_Source\PSoC4/SPIM.c ****             (0u == (SPIM_I2C_CTRL_REG & SPIM_I2C_CTRL_S_NOT_READY_ADDR_NACK)))
 332              		.loc 1 806 0 discriminator 1
 333 000c 084A     		ldr	r2, .L27+4
 334 000e 1268     		ldr	r2, [r2]
 805:Generated_Source\PSoC4/SPIM.c ****             (0u == (SPIM_I2C_CTRL_REG & SPIM_I2C_CTRL_S_NOT_READY_ADDR_NACK)))
 335              		.loc 1 805 0 discriminator 1
 336 0010 5204     		lsls	r2, r2, #17
 337 0012 06D4     		bmi	.L23
 807:Generated_Source\PSoC4/SPIM.c ****         {
 808:Generated_Source\PSoC4/SPIM.c ****             /* Toggle EC_AM before NACK generation */
 809:Generated_Source\PSoC4/SPIM.c ****             SPIM_CTRL_REG &= ~SPIM_CTRL_EC_AM_MODE;
 338              		.loc 1 809 0
 339 0014 1A68     		ldr	r2, [r3]
 340 0016 0749     		ldr	r1, .L27+8
 341 0018 1140     		ands	r1, r2
 342 001a 1960     		str	r1, [r3]
 810:Generated_Source\PSoC4/SPIM.c ****             SPIM_CTRL_REG |=  SPIM_CTRL_EC_AM_MODE;
ARM GAS  C:\Users\Ala\AppData\Local\Temp\cctOFRHR.s 			page 22


 343              		.loc 1 810 0
 344 001c 1A68     		ldr	r2, [r3]
 345 001e 0243     		orrs	r2, r0
 346 0020 1A60     		str	r2, [r3]
 347              	.L23:
 811:Generated_Source\PSoC4/SPIM.c ****         }
 812:Generated_Source\PSoC4/SPIM.c **** 
 813:Generated_Source\PSoC4/SPIM.c ****         SPIM_I2C_SLAVE_CMD_REG = SPIM_I2C_SLAVE_CMD_S_NACK;
 348              		.loc 1 813 0
 349 0022 0222     		movs	r2, #2
 350 0024 044B     		ldr	r3, .L27+12
 814:Generated_Source\PSoC4/SPIM.c ****     }
 351              		.loc 1 814 0
 352              		@ sp needed
 813:Generated_Source\PSoC4/SPIM.c ****     }
 353              		.loc 1 813 0
 354 0026 1A60     		str	r2, [r3]
 355              		.loc 1 814 0
 356 0028 7047     		bx	lr
 357              	.L28:
 358 002a C046     		.align	2
 359              	.L27:
 360 002c 00000740 		.word	1074200576
 361 0030 60000740 		.word	1074200672
 362 0034 FFFEFFFF 		.word	-257
 363 0038 6C000740 		.word	1074200684
 364              		.cfi_endproc
 365              	.LFE10:
 366              		.size	SPIM_I2CSlaveNackGeneration, .-SPIM_I2CSlaveNackGeneration
 367              		.global	SPIM_customIntrHandler
 368              		.global	SPIM_IntrTxMask
 369              		.global	SPIM_initVar
 370              		.bss
 371              		.align	2
 372              		.set	.LANCHOR0,. + 0
 373              		.type	SPIM_initVar, %object
 374              		.size	SPIM_initVar, 1
 375              	SPIM_initVar:
 376 0000 00       		.space	1
 377 0001 000000   		.space	3
 378              		.type	SPIM_customIntrHandler, %object
 379              		.size	SPIM_customIntrHandler, 4
 380              	SPIM_customIntrHandler:
 381 0004 00000000 		.space	4
 382              		.type	SPIM_IntrTxMask, %object
 383              		.size	SPIM_IntrTxMask, 2
 384              	SPIM_IntrTxMask:
 385 0008 0000     		.space	2
 386              		.text
 387              	.Letext0:
 388              		.file 2 "Generated_Source\\PSoC4/cytypes.h"
 389              		.file 3 "Generated_Source\\PSoC4\\SPIM_SPI_UART_PVT.h"
 390              		.file 4 "Generated_Source\\PSoC4/CyLib.h"