ARM GAS  C:\Users\Ala\AppData\Local\Temp\cc133uPb.s 			page 1


   1              		.syntax unified
   2              		.cpu cortex-m0
   3              		.fpu softvfp
   4              		.eabi_attribute 20, 1
   5              		.eabi_attribute 21, 1
   6              		.eabi_attribute 23, 3
   7              		.eabi_attribute 24, 1
   8              		.eabi_attribute 25, 1
   9              		.eabi_attribute 26, 1
  10              		.eabi_attribute 30, 4
  11              		.eabi_attribute 34, 0
  12              		.eabi_attribute 18, 4
  13              		.thumb
  14              		.syntax unified
  15              		.file	"SPIM_SPI_UART.c"
  16              		.text
  17              	.Ltext0:
  18              		.cfi_sections	.debug_frame
  19              		.section	.text.SPIM_SpiUartReadRxData,"ax",%progbits
  20              		.align	1
  21              		.global	SPIM_SpiUartReadRxData
  22              		.code	16
  23              		.thumb_func
  24              		.type	SPIM_SpiUartReadRxData, %function
  25              	SPIM_SpiUartReadRxData:
  26              	.LFB0:
  27              		.file 1 "Generated_Source\\PSoC4\\SPIM_SPI_UART.c"
   1:Generated_Source\PSoC4/SPIM_SPI_UART.c **** /***************************************************************************//**
   2:Generated_Source\PSoC4/SPIM_SPI_UART.c **** * \file SPIM_SPI_UART.c
   3:Generated_Source\PSoC4/SPIM_SPI_UART.c **** * \version 4.0
   4:Generated_Source\PSoC4/SPIM_SPI_UART.c **** *
   5:Generated_Source\PSoC4/SPIM_SPI_UART.c **** * \brief
   6:Generated_Source\PSoC4/SPIM_SPI_UART.c **** *  This file provides the source code to the API for the SCB Component in
   7:Generated_Source\PSoC4/SPIM_SPI_UART.c **** *  SPI and UART modes.
   8:Generated_Source\PSoC4/SPIM_SPI_UART.c **** *
   9:Generated_Source\PSoC4/SPIM_SPI_UART.c **** * Note:
  10:Generated_Source\PSoC4/SPIM_SPI_UART.c **** *
  11:Generated_Source\PSoC4/SPIM_SPI_UART.c **** *******************************************************************************
  12:Generated_Source\PSoC4/SPIM_SPI_UART.c **** * \copyright
  13:Generated_Source\PSoC4/SPIM_SPI_UART.c **** * Copyright 2013-2017, Cypress Semiconductor Corporation.  All rights reserved.
  14:Generated_Source\PSoC4/SPIM_SPI_UART.c **** * You may use this file only in accordance with the license, terms, conditions,
  15:Generated_Source\PSoC4/SPIM_SPI_UART.c **** * disclaimers, and limitations in the end user license agreement accompanying
  16:Generated_Source\PSoC4/SPIM_SPI_UART.c **** * the software package with which this file was provided.
  17:Generated_Source\PSoC4/SPIM_SPI_UART.c **** *******************************************************************************/
  18:Generated_Source\PSoC4/SPIM_SPI_UART.c **** 
  19:Generated_Source\PSoC4/SPIM_SPI_UART.c **** #include "SPIM_PVT.h"
  20:Generated_Source\PSoC4/SPIM_SPI_UART.c **** #include "SPIM_SPI_UART_PVT.h"
  21:Generated_Source\PSoC4/SPIM_SPI_UART.c **** 
  22:Generated_Source\PSoC4/SPIM_SPI_UART.c **** /***************************************
  23:Generated_Source\PSoC4/SPIM_SPI_UART.c **** *        SPI/UART Private Vars
  24:Generated_Source\PSoC4/SPIM_SPI_UART.c **** ***************************************/
  25:Generated_Source\PSoC4/SPIM_SPI_UART.c **** 
  26:Generated_Source\PSoC4/SPIM_SPI_UART.c **** #if(SPIM_INTERNAL_RX_SW_BUFFER_CONST)
  27:Generated_Source\PSoC4/SPIM_SPI_UART.c ****     /* Start index to put data into the software receive buffer.*/
  28:Generated_Source\PSoC4/SPIM_SPI_UART.c ****     volatile uint32 SPIM_rxBufferHead;
  29:Generated_Source\PSoC4/SPIM_SPI_UART.c ****     /* Start index to get data from the software receive buffer.*/
  30:Generated_Source\PSoC4/SPIM_SPI_UART.c ****     volatile uint32 SPIM_rxBufferTail;
ARM GAS  C:\Users\Ala\AppData\Local\Temp\cc133uPb.s 			page 2


  31:Generated_Source\PSoC4/SPIM_SPI_UART.c ****     /**
  32:Generated_Source\PSoC4/SPIM_SPI_UART.c ****     * \addtogroup group_globals
  33:Generated_Source\PSoC4/SPIM_SPI_UART.c ****     * \{
  34:Generated_Source\PSoC4/SPIM_SPI_UART.c ****     */
  35:Generated_Source\PSoC4/SPIM_SPI_UART.c ****     /** Sets when internal software receive buffer overflow
  36:Generated_Source\PSoC4/SPIM_SPI_UART.c ****     *  was occurred.
  37:Generated_Source\PSoC4/SPIM_SPI_UART.c ****     */
  38:Generated_Source\PSoC4/SPIM_SPI_UART.c ****     volatile uint8  SPIM_rxBufferOverflow;
  39:Generated_Source\PSoC4/SPIM_SPI_UART.c ****     /** \} globals */
  40:Generated_Source\PSoC4/SPIM_SPI_UART.c **** #endif /* (SPIM_INTERNAL_RX_SW_BUFFER_CONST) */
  41:Generated_Source\PSoC4/SPIM_SPI_UART.c **** 
  42:Generated_Source\PSoC4/SPIM_SPI_UART.c **** #if(SPIM_INTERNAL_TX_SW_BUFFER_CONST)
  43:Generated_Source\PSoC4/SPIM_SPI_UART.c ****     /* Start index to put data into the software transmit buffer.*/
  44:Generated_Source\PSoC4/SPIM_SPI_UART.c ****     volatile uint32 SPIM_txBufferHead;
  45:Generated_Source\PSoC4/SPIM_SPI_UART.c ****     /* Start index to get data from the software transmit buffer.*/
  46:Generated_Source\PSoC4/SPIM_SPI_UART.c ****     volatile uint32 SPIM_txBufferTail;
  47:Generated_Source\PSoC4/SPIM_SPI_UART.c **** #endif /* (SPIM_INTERNAL_TX_SW_BUFFER_CONST) */
  48:Generated_Source\PSoC4/SPIM_SPI_UART.c **** 
  49:Generated_Source\PSoC4/SPIM_SPI_UART.c **** #if(SPIM_INTERNAL_RX_SW_BUFFER)
  50:Generated_Source\PSoC4/SPIM_SPI_UART.c ****     /* Add one element to the buffer to receive full packet. One byte in receive buffer is always e
  51:Generated_Source\PSoC4/SPIM_SPI_UART.c ****     volatile uint8 SPIM_rxBufferInternal[SPIM_INTERNAL_RX_BUFFER_SIZE];
  52:Generated_Source\PSoC4/SPIM_SPI_UART.c **** #endif /* (SPIM_INTERNAL_RX_SW_BUFFER) */
  53:Generated_Source\PSoC4/SPIM_SPI_UART.c **** 
  54:Generated_Source\PSoC4/SPIM_SPI_UART.c **** #if(SPIM_INTERNAL_TX_SW_BUFFER)
  55:Generated_Source\PSoC4/SPIM_SPI_UART.c ****     volatile uint8 SPIM_txBufferInternal[SPIM_TX_BUFFER_SIZE];
  56:Generated_Source\PSoC4/SPIM_SPI_UART.c **** #endif /* (SPIM_INTERNAL_TX_SW_BUFFER) */
  57:Generated_Source\PSoC4/SPIM_SPI_UART.c **** 
  58:Generated_Source\PSoC4/SPIM_SPI_UART.c **** 
  59:Generated_Source\PSoC4/SPIM_SPI_UART.c **** #if(SPIM_RX_DIRECTION)
  60:Generated_Source\PSoC4/SPIM_SPI_UART.c ****     /*******************************************************************************
  61:Generated_Source\PSoC4/SPIM_SPI_UART.c ****     * Function Name: SPIM_SpiUartReadRxData
  62:Generated_Source\PSoC4/SPIM_SPI_UART.c ****     ****************************************************************************//**
  63:Generated_Source\PSoC4/SPIM_SPI_UART.c ****     *
  64:Generated_Source\PSoC4/SPIM_SPI_UART.c ****     *  Retrieves the next data element from the receive buffer.
  65:Generated_Source\PSoC4/SPIM_SPI_UART.c ****     *   - RX software buffer is disabled: Returns data element retrieved from
  66:Generated_Source\PSoC4/SPIM_SPI_UART.c ****     *     RX FIFO. Undefined data will be returned if the RX FIFO is empty.
  67:Generated_Source\PSoC4/SPIM_SPI_UART.c ****     *   - RX software buffer is enabled: Returns data element from the software
  68:Generated_Source\PSoC4/SPIM_SPI_UART.c ****     *     receive buffer. Zero value is returned if the software receive buffer
  69:Generated_Source\PSoC4/SPIM_SPI_UART.c ****     *     is empty.
  70:Generated_Source\PSoC4/SPIM_SPI_UART.c ****     *
  71:Generated_Source\PSoC4/SPIM_SPI_UART.c ****     * \return
  72:Generated_Source\PSoC4/SPIM_SPI_UART.c ****     *  Next data element from the receive buffer. 
  73:Generated_Source\PSoC4/SPIM_SPI_UART.c ****     *  The amount of data bits to be received depends on RX data bits selection 
  74:Generated_Source\PSoC4/SPIM_SPI_UART.c ****     *  (the data bit counting starts from LSB of return value).
  75:Generated_Source\PSoC4/SPIM_SPI_UART.c ****     *
  76:Generated_Source\PSoC4/SPIM_SPI_UART.c ****     * \globalvars
  77:Generated_Source\PSoC4/SPIM_SPI_UART.c ****     *  SPIM_rxBufferHead - the start index to put data into the 
  78:Generated_Source\PSoC4/SPIM_SPI_UART.c ****     *  software receive buffer.
  79:Generated_Source\PSoC4/SPIM_SPI_UART.c ****     *  SPIM_rxBufferTail - the start index to get data from the 
  80:Generated_Source\PSoC4/SPIM_SPI_UART.c ****     *  software receive buffer.
  81:Generated_Source\PSoC4/SPIM_SPI_UART.c ****     *
  82:Generated_Source\PSoC4/SPIM_SPI_UART.c ****     *******************************************************************************/
  83:Generated_Source\PSoC4/SPIM_SPI_UART.c ****     uint32 SPIM_SpiUartReadRxData(void)
  84:Generated_Source\PSoC4/SPIM_SPI_UART.c ****     {
  28              		.loc 1 84 0
  29              		.cfi_startproc
  30              		@ args = 0, pretend = 0, frame = 0
ARM GAS  C:\Users\Ala\AppData\Local\Temp\cc133uPb.s 			page 3


  31              		@ frame_needed = 0, uses_anonymous_args = 0
  32              		@ link register save eliminated.
  33              	.LVL0:
  85:Generated_Source\PSoC4/SPIM_SPI_UART.c ****         uint32 rxData = 0u;
  86:Generated_Source\PSoC4/SPIM_SPI_UART.c **** 
  87:Generated_Source\PSoC4/SPIM_SPI_UART.c ****     #if (SPIM_INTERNAL_RX_SW_BUFFER_CONST)
  88:Generated_Source\PSoC4/SPIM_SPI_UART.c ****         uint32 locTail;
  89:Generated_Source\PSoC4/SPIM_SPI_UART.c ****     #endif /* (SPIM_INTERNAL_RX_SW_BUFFER_CONST) */
  90:Generated_Source\PSoC4/SPIM_SPI_UART.c **** 
  91:Generated_Source\PSoC4/SPIM_SPI_UART.c ****         #if (SPIM_CHECK_RX_SW_BUFFER)
  92:Generated_Source\PSoC4/SPIM_SPI_UART.c ****         {
  93:Generated_Source\PSoC4/SPIM_SPI_UART.c ****             if (SPIM_rxBufferHead != SPIM_rxBufferTail)
  34              		.loc 1 93 0
  35 0000 084B     		ldr	r3, .L6
  36 0002 094A     		ldr	r2, .L6+4
  37 0004 1968     		ldr	r1, [r3]
  38 0006 1368     		ldr	r3, [r2]
  85:Generated_Source\PSoC4/SPIM_SPI_UART.c ****         uint32 rxData = 0u;
  39              		.loc 1 85 0
  40 0008 0020     		movs	r0, #0
  41              		.loc 1 93 0
  42 000a 9942     		cmp	r1, r3
  43 000c 08D0     		beq	.L2
  94:Generated_Source\PSoC4/SPIM_SPI_UART.c ****             {
  95:Generated_Source\PSoC4/SPIM_SPI_UART.c ****                 /* There is data in RX software buffer */
  96:Generated_Source\PSoC4/SPIM_SPI_UART.c **** 
  97:Generated_Source\PSoC4/SPIM_SPI_UART.c ****                 /* Calculate index to read from */
  98:Generated_Source\PSoC4/SPIM_SPI_UART.c ****                 locTail = (SPIM_rxBufferTail + 1u);
  44              		.loc 1 98 0
  45 000e 1368     		ldr	r3, [r2]
  46 0010 0133     		adds	r3, r3, #1
  47              	.LVL1:
  99:Generated_Source\PSoC4/SPIM_SPI_UART.c **** 
 100:Generated_Source\PSoC4/SPIM_SPI_UART.c ****                 if (SPIM_INTERNAL_RX_BUFFER_SIZE == locTail)
  48              		.loc 1 100 0
  49 0012 1F2B     		cmp	r3, #31
  50 0014 00D1     		bne	.L3
 101:Generated_Source\PSoC4/SPIM_SPI_UART.c ****                 {
 102:Generated_Source\PSoC4/SPIM_SPI_UART.c ****                     locTail = 0u;
  51              		.loc 1 102 0
  52 0016 0300     		movs	r3, r0
  53              	.LVL2:
  54              	.L3:
 103:Generated_Source\PSoC4/SPIM_SPI_UART.c ****                 }
 104:Generated_Source\PSoC4/SPIM_SPI_UART.c **** 
 105:Generated_Source\PSoC4/SPIM_SPI_UART.c ****                 /* Get data from RX software buffer */
 106:Generated_Source\PSoC4/SPIM_SPI_UART.c ****                 rxData = SPIM_GetWordFromRxBuffer(locTail);
  55              		.loc 1 106 0
  56 0018 0449     		ldr	r1, .L6+8
  57 001a C85C     		ldrb	r0, [r1, r3]
 107:Generated_Source\PSoC4/SPIM_SPI_UART.c **** 
 108:Generated_Source\PSoC4/SPIM_SPI_UART.c ****                 /* Change index in the buffer */
 109:Generated_Source\PSoC4/SPIM_SPI_UART.c ****                 SPIM_rxBufferTail = locTail;
  58              		.loc 1 109 0
  59 001c 1360     		str	r3, [r2]
 106:Generated_Source\PSoC4/SPIM_SPI_UART.c **** 
  60              		.loc 1 106 0
ARM GAS  C:\Users\Ala\AppData\Local\Temp\cc133uPb.s 			page 4


  61 001e C0B2     		uxtb	r0, r0
  62              	.LVL3:
  63              	.L2:
 110:Generated_Source\PSoC4/SPIM_SPI_UART.c **** 
 111:Generated_Source\PSoC4/SPIM_SPI_UART.c ****                 #if (SPIM_CHECK_UART_RTS_CONTROL_FLOW)
 112:Generated_Source\PSoC4/SPIM_SPI_UART.c ****                 {
 113:Generated_Source\PSoC4/SPIM_SPI_UART.c ****                     /* Check if RX Not Empty is disabled in the interrupt */
 114:Generated_Source\PSoC4/SPIM_SPI_UART.c ****                     if (0u == (SPIM_INTR_RX_MASK_REG & SPIM_INTR_RX_NOT_EMPTY))
 115:Generated_Source\PSoC4/SPIM_SPI_UART.c ****                     {
 116:Generated_Source\PSoC4/SPIM_SPI_UART.c ****                         /* Enable RX Not Empty interrupt source to continue
 117:Generated_Source\PSoC4/SPIM_SPI_UART.c ****                         * receiving data into software buffer.
 118:Generated_Source\PSoC4/SPIM_SPI_UART.c ****                         */
 119:Generated_Source\PSoC4/SPIM_SPI_UART.c ****                         SPIM_INTR_RX_MASK_REG |= SPIM_INTR_RX_NOT_EMPTY;
 120:Generated_Source\PSoC4/SPIM_SPI_UART.c ****                     }
 121:Generated_Source\PSoC4/SPIM_SPI_UART.c ****                 }
 122:Generated_Source\PSoC4/SPIM_SPI_UART.c ****                 #endif
 123:Generated_Source\PSoC4/SPIM_SPI_UART.c **** 
 124:Generated_Source\PSoC4/SPIM_SPI_UART.c ****             }
 125:Generated_Source\PSoC4/SPIM_SPI_UART.c ****         }
 126:Generated_Source\PSoC4/SPIM_SPI_UART.c ****         #else
 127:Generated_Source\PSoC4/SPIM_SPI_UART.c ****         {
 128:Generated_Source\PSoC4/SPIM_SPI_UART.c ****             /* Read data from RX FIFO */
 129:Generated_Source\PSoC4/SPIM_SPI_UART.c ****             rxData = SPIM_RX_FIFO_RD_REG;
 130:Generated_Source\PSoC4/SPIM_SPI_UART.c ****         }
 131:Generated_Source\PSoC4/SPIM_SPI_UART.c ****         #endif
 132:Generated_Source\PSoC4/SPIM_SPI_UART.c **** 
 133:Generated_Source\PSoC4/SPIM_SPI_UART.c ****         return (rxData);
 134:Generated_Source\PSoC4/SPIM_SPI_UART.c ****     }
  64              		.loc 1 134 0
  65              		@ sp needed
  66 0020 7047     		bx	lr
  67              	.L7:
  68 0022 C046     		.align	2
  69              	.L6:
  70 0024 00000000 		.word	SPIM_rxBufferHead
  71 0028 00000000 		.word	SPIM_rxBufferTail
  72 002c 00000000 		.word	SPIM_rxBufferInternal
  73              		.cfi_endproc
  74              	.LFE0:
  75              		.size	SPIM_SpiUartReadRxData, .-SPIM_SpiUartReadRxData
  76              		.section	.text.SPIM_SpiUartGetRxBufferSize,"ax",%progbits
  77              		.align	1
  78              		.global	SPIM_SpiUartGetRxBufferSize
  79              		.code	16
  80              		.thumb_func
  81              		.type	SPIM_SpiUartGetRxBufferSize, %function
  82              	SPIM_SpiUartGetRxBufferSize:
  83              	.LFB1:
 135:Generated_Source\PSoC4/SPIM_SPI_UART.c **** 
 136:Generated_Source\PSoC4/SPIM_SPI_UART.c **** 
 137:Generated_Source\PSoC4/SPIM_SPI_UART.c ****     /*******************************************************************************
 138:Generated_Source\PSoC4/SPIM_SPI_UART.c ****     * Function Name: SPIM_SpiUartGetRxBufferSize
 139:Generated_Source\PSoC4/SPIM_SPI_UART.c ****     ****************************************************************************//**
 140:Generated_Source\PSoC4/SPIM_SPI_UART.c ****     *
 141:Generated_Source\PSoC4/SPIM_SPI_UART.c ****     *  Returns the number of received data elements in the receive buffer.
 142:Generated_Source\PSoC4/SPIM_SPI_UART.c ****     *   - RX software buffer disabled: returns the number of used entries in
 143:Generated_Source\PSoC4/SPIM_SPI_UART.c ****     *     RX FIFO.
ARM GAS  C:\Users\Ala\AppData\Local\Temp\cc133uPb.s 			page 5


 144:Generated_Source\PSoC4/SPIM_SPI_UART.c ****     *   - RX software buffer enabled: returns the number of elements which were
 145:Generated_Source\PSoC4/SPIM_SPI_UART.c ****     *     placed in the receive buffer. This does not include the hardware RX FIFO.
 146:Generated_Source\PSoC4/SPIM_SPI_UART.c ****     *
 147:Generated_Source\PSoC4/SPIM_SPI_UART.c ****     * \return
 148:Generated_Source\PSoC4/SPIM_SPI_UART.c ****     *  Number of received data elements.
 149:Generated_Source\PSoC4/SPIM_SPI_UART.c ****     *
 150:Generated_Source\PSoC4/SPIM_SPI_UART.c ****     * \globalvars
 151:Generated_Source\PSoC4/SPIM_SPI_UART.c ****     *  SPIM_rxBufferHead - the start index to put data into the 
 152:Generated_Source\PSoC4/SPIM_SPI_UART.c ****     *  software receive buffer.
 153:Generated_Source\PSoC4/SPIM_SPI_UART.c ****     *  SPIM_rxBufferTail - the start index to get data from the 
 154:Generated_Source\PSoC4/SPIM_SPI_UART.c ****     *  software receive buffer.
 155:Generated_Source\PSoC4/SPIM_SPI_UART.c ****     *
 156:Generated_Source\PSoC4/SPIM_SPI_UART.c ****     *******************************************************************************/
 157:Generated_Source\PSoC4/SPIM_SPI_UART.c ****     uint32 SPIM_SpiUartGetRxBufferSize(void)
 158:Generated_Source\PSoC4/SPIM_SPI_UART.c ****     {
  84              		.loc 1 158 0
  85              		.cfi_startproc
  86              		@ args = 0, pretend = 0, frame = 0
  87              		@ frame_needed = 0, uses_anonymous_args = 0
  88              		@ link register save eliminated.
 159:Generated_Source\PSoC4/SPIM_SPI_UART.c ****         uint32 size;
 160:Generated_Source\PSoC4/SPIM_SPI_UART.c ****     #if (SPIM_INTERNAL_RX_SW_BUFFER_CONST)
 161:Generated_Source\PSoC4/SPIM_SPI_UART.c ****         uint32 locHead;
 162:Generated_Source\PSoC4/SPIM_SPI_UART.c ****     #endif /* (SPIM_INTERNAL_RX_SW_BUFFER_CONST) */
 163:Generated_Source\PSoC4/SPIM_SPI_UART.c **** 
 164:Generated_Source\PSoC4/SPIM_SPI_UART.c ****         #if (SPIM_CHECK_RX_SW_BUFFER)
 165:Generated_Source\PSoC4/SPIM_SPI_UART.c ****         {
 166:Generated_Source\PSoC4/SPIM_SPI_UART.c ****             locHead = SPIM_rxBufferHead;
  89              		.loc 1 166 0
  90 0000 044B     		ldr	r3, .L12
  91 0002 1868     		ldr	r0, [r3]
  92              	.LVL4:
 167:Generated_Source\PSoC4/SPIM_SPI_UART.c **** 
 168:Generated_Source\PSoC4/SPIM_SPI_UART.c ****             if(locHead >= SPIM_rxBufferTail)
  93              		.loc 1 168 0
  94 0004 044B     		ldr	r3, .L12+4
  95 0006 1A68     		ldr	r2, [r3]
 169:Generated_Source\PSoC4/SPIM_SPI_UART.c ****             {
 170:Generated_Source\PSoC4/SPIM_SPI_UART.c ****                 size = (locHead - SPIM_rxBufferTail);
  96              		.loc 1 170 0
  97 0008 1B68     		ldr	r3, [r3]
 168:Generated_Source\PSoC4/SPIM_SPI_UART.c ****             {
  98              		.loc 1 168 0
  99 000a 9042     		cmp	r0, r2
 100 000c 00D2     		bcs	.L11
 171:Generated_Source\PSoC4/SPIM_SPI_UART.c ****             }
 172:Generated_Source\PSoC4/SPIM_SPI_UART.c ****             else
 173:Generated_Source\PSoC4/SPIM_SPI_UART.c ****             {
 174:Generated_Source\PSoC4/SPIM_SPI_UART.c ****                 size = (locHead + (SPIM_INTERNAL_RX_BUFFER_SIZE - SPIM_rxBufferTail));
 101              		.loc 1 174 0
 102 000e 1F30     		adds	r0, r0, #31
 103              	.LVL5:
 104              	.L11:
 105 0010 C01A     		subs	r0, r0, r3
 106              	.LVL6:
 175:Generated_Source\PSoC4/SPIM_SPI_UART.c ****             }
 176:Generated_Source\PSoC4/SPIM_SPI_UART.c ****         }
ARM GAS  C:\Users\Ala\AppData\Local\Temp\cc133uPb.s 			page 6


 177:Generated_Source\PSoC4/SPIM_SPI_UART.c ****         #else
 178:Generated_Source\PSoC4/SPIM_SPI_UART.c ****         {
 179:Generated_Source\PSoC4/SPIM_SPI_UART.c ****             size = SPIM_GET_RX_FIFO_ENTRIES;
 180:Generated_Source\PSoC4/SPIM_SPI_UART.c ****         }
 181:Generated_Source\PSoC4/SPIM_SPI_UART.c ****         #endif
 182:Generated_Source\PSoC4/SPIM_SPI_UART.c **** 
 183:Generated_Source\PSoC4/SPIM_SPI_UART.c ****         return (size);
 184:Generated_Source\PSoC4/SPIM_SPI_UART.c ****     }
 107              		.loc 1 184 0
 108              		@ sp needed
 109 0012 7047     		bx	lr
 110              	.L13:
 111              		.align	2
 112              	.L12:
 113 0014 00000000 		.word	SPIM_rxBufferHead
 114 0018 00000000 		.word	SPIM_rxBufferTail
 115              		.cfi_endproc
 116              	.LFE1:
 117              		.size	SPIM_SpiUartGetRxBufferSize, .-SPIM_SpiUartGetRxBufferSize
 118              		.section	.text.SPIM_SpiUartClearRxBuffer,"ax",%progbits
 119              		.align	1
 120              		.global	SPIM_SpiUartClearRxBuffer
 121              		.code	16
 122              		.thumb_func
 123              		.type	SPIM_SpiUartClearRxBuffer, %function
 124              	SPIM_SpiUartClearRxBuffer:
 125              	.LFB2:
 185:Generated_Source\PSoC4/SPIM_SPI_UART.c **** 
 186:Generated_Source\PSoC4/SPIM_SPI_UART.c **** 
 187:Generated_Source\PSoC4/SPIM_SPI_UART.c ****     /*******************************************************************************
 188:Generated_Source\PSoC4/SPIM_SPI_UART.c ****     * Function Name: SPIM_SpiUartClearRxBuffer
 189:Generated_Source\PSoC4/SPIM_SPI_UART.c ****     ****************************************************************************//**
 190:Generated_Source\PSoC4/SPIM_SPI_UART.c ****     *
 191:Generated_Source\PSoC4/SPIM_SPI_UART.c ****     *  Clears the receive buffer and RX FIFO.
 192:Generated_Source\PSoC4/SPIM_SPI_UART.c ****     *
 193:Generated_Source\PSoC4/SPIM_SPI_UART.c ****     * \globalvars
 194:Generated_Source\PSoC4/SPIM_SPI_UART.c ****     *  SPIM_rxBufferHead - the start index to put data into the 
 195:Generated_Source\PSoC4/SPIM_SPI_UART.c ****     *  software receive buffer.
 196:Generated_Source\PSoC4/SPIM_SPI_UART.c ****     *  SPIM_rxBufferTail - the start index to get data from the 
 197:Generated_Source\PSoC4/SPIM_SPI_UART.c ****     *  software receive buffer.
 198:Generated_Source\PSoC4/SPIM_SPI_UART.c ****     *
 199:Generated_Source\PSoC4/SPIM_SPI_UART.c ****     *******************************************************************************/
 200:Generated_Source\PSoC4/SPIM_SPI_UART.c ****     void SPIM_SpiUartClearRxBuffer(void)
 201:Generated_Source\PSoC4/SPIM_SPI_UART.c ****     {
 126              		.loc 1 201 0
 127              		.cfi_startproc
 128              		@ args = 0, pretend = 0, frame = 0
 129              		@ frame_needed = 0, uses_anonymous_args = 0
 130 0000 10B5     		push	{r4, lr}
 131              		.cfi_def_cfa_offset 8
 132              		.cfi_offset 4, -8
 133              		.cfi_offset 14, -4
 202:Generated_Source\PSoC4/SPIM_SPI_UART.c ****         #if (SPIM_CHECK_RX_SW_BUFFER)
 203:Generated_Source\PSoC4/SPIM_SPI_UART.c ****         {
 204:Generated_Source\PSoC4/SPIM_SPI_UART.c ****             /* Lock from component interruption */
 205:Generated_Source\PSoC4/SPIM_SPI_UART.c ****             SPIM_DisableInt();
 134              		.loc 1 205 0
ARM GAS  C:\Users\Ala\AppData\Local\Temp\cc133uPb.s 			page 7


 135 0002 0B20     		movs	r0, #11
 136 0004 FFF7FEFF 		bl	CyIntDisable
 137              	.LVL7:
 206:Generated_Source\PSoC4/SPIM_SPI_UART.c **** 
 207:Generated_Source\PSoC4/SPIM_SPI_UART.c ****             /* Flush RX software buffer */
 208:Generated_Source\PSoC4/SPIM_SPI_UART.c ****             SPIM_rxBufferHead = SPIM_rxBufferTail;
 138              		.loc 1 208 0
 139 0008 0B4B     		ldr	r3, .L15
 209:Generated_Source\PSoC4/SPIM_SPI_UART.c ****             SPIM_rxBufferOverflow = 0u;
 210:Generated_Source\PSoC4/SPIM_SPI_UART.c **** 
 211:Generated_Source\PSoC4/SPIM_SPI_UART.c ****             SPIM_CLEAR_RX_FIFO;
 140              		.loc 1 211 0
 141 000a 8021     		movs	r1, #128
 208:Generated_Source\PSoC4/SPIM_SPI_UART.c ****             SPIM_rxBufferOverflow = 0u;
 142              		.loc 1 208 0
 143 000c 1A68     		ldr	r2, [r3]
 144 000e 0B4B     		ldr	r3, .L15+4
 145              		.loc 1 211 0
 146 0010 4902     		lsls	r1, r1, #9
 208:Generated_Source\PSoC4/SPIM_SPI_UART.c ****             SPIM_rxBufferOverflow = 0u;
 147              		.loc 1 208 0
 148 0012 1A60     		str	r2, [r3]
 209:Generated_Source\PSoC4/SPIM_SPI_UART.c ****             SPIM_rxBufferOverflow = 0u;
 149              		.loc 1 209 0
 150 0014 0022     		movs	r2, #0
 151 0016 0A4B     		ldr	r3, .L15+8
 212:Generated_Source\PSoC4/SPIM_SPI_UART.c ****             SPIM_ClearRxInterruptSource(SPIM_INTR_RX_ALL);
 213:Generated_Source\PSoC4/SPIM_SPI_UART.c **** 
 214:Generated_Source\PSoC4/SPIM_SPI_UART.c ****             #if (SPIM_CHECK_UART_RTS_CONTROL_FLOW)
 215:Generated_Source\PSoC4/SPIM_SPI_UART.c ****             {
 216:Generated_Source\PSoC4/SPIM_SPI_UART.c ****                 /* Enable RX Not Empty interrupt source to continue receiving
 217:Generated_Source\PSoC4/SPIM_SPI_UART.c ****                 * data into software buffer.
 218:Generated_Source\PSoC4/SPIM_SPI_UART.c ****                 */
 219:Generated_Source\PSoC4/SPIM_SPI_UART.c ****                 SPIM_INTR_RX_MASK_REG |= SPIM_INTR_RX_NOT_EMPTY;
 220:Generated_Source\PSoC4/SPIM_SPI_UART.c ****             }
 221:Generated_Source\PSoC4/SPIM_SPI_UART.c ****             #endif
 222:Generated_Source\PSoC4/SPIM_SPI_UART.c ****             
 223:Generated_Source\PSoC4/SPIM_SPI_UART.c ****             /* Release lock */
 224:Generated_Source\PSoC4/SPIM_SPI_UART.c ****             SPIM_EnableInt();
 152              		.loc 1 224 0
 153 0018 0B20     		movs	r0, #11
 209:Generated_Source\PSoC4/SPIM_SPI_UART.c **** 
 154              		.loc 1 209 0
 155 001a 1A70     		strb	r2, [r3]
 211:Generated_Source\PSoC4/SPIM_SPI_UART.c ****             SPIM_ClearRxInterruptSource(SPIM_INTR_RX_ALL);
 156              		.loc 1 211 0
 157 001c 094B     		ldr	r3, .L15+12
 225:Generated_Source\PSoC4/SPIM_SPI_UART.c ****         }
 226:Generated_Source\PSoC4/SPIM_SPI_UART.c ****         #else
 227:Generated_Source\PSoC4/SPIM_SPI_UART.c ****         {
 228:Generated_Source\PSoC4/SPIM_SPI_UART.c ****             SPIM_CLEAR_RX_FIFO;
 229:Generated_Source\PSoC4/SPIM_SPI_UART.c ****         }
 230:Generated_Source\PSoC4/SPIM_SPI_UART.c ****         #endif
 231:Generated_Source\PSoC4/SPIM_SPI_UART.c ****     }
 158              		.loc 1 231 0
 159              		@ sp needed
 211:Generated_Source\PSoC4/SPIM_SPI_UART.c ****             SPIM_ClearRxInterruptSource(SPIM_INTR_RX_ALL);
ARM GAS  C:\Users\Ala\AppData\Local\Temp\cc133uPb.s 			page 8


 160              		.loc 1 211 0
 161 001e 1A68     		ldr	r2, [r3]
 162 0020 0A43     		orrs	r2, r1
 163 0022 1A60     		str	r2, [r3]
 164 0024 1968     		ldr	r1, [r3]
 165 0026 084A     		ldr	r2, .L15+16
 166 0028 0A40     		ands	r2, r1
 167 002a 1A60     		str	r2, [r3]
 212:Generated_Source\PSoC4/SPIM_SPI_UART.c **** 
 168              		.loc 1 212 0
 169 002c 074A     		ldr	r2, .L15+20
 170 002e 084B     		ldr	r3, .L15+24
 171 0030 1A60     		str	r2, [r3]
 224:Generated_Source\PSoC4/SPIM_SPI_UART.c ****         }
 172              		.loc 1 224 0
 173 0032 FFF7FEFF 		bl	CyIntEnable
 174              	.LVL8:
 175              		.loc 1 231 0
 176 0036 10BD     		pop	{r4, pc}
 177              	.L16:
 178              		.align	2
 179              	.L15:
 180 0038 00000000 		.word	SPIM_rxBufferTail
 181 003c 00000000 		.word	SPIM_rxBufferHead
 182 0040 00000000 		.word	SPIM_rxBufferOverflow
 183 0044 04030740 		.word	1074201348
 184 0048 FFFFFEFF 		.word	-65537
 185 004c ED0F0000 		.word	4077
 186 0050 C00F0740 		.word	1074204608
 187              		.cfi_endproc
 188              	.LFE2:
 189              		.size	SPIM_SpiUartClearRxBuffer, .-SPIM_SpiUartClearRxBuffer
 190              		.section	.text.SPIM_SpiUartWriteTxData,"ax",%progbits
 191              		.align	1
 192              		.global	SPIM_SpiUartWriteTxData
 193              		.code	16
 194              		.thumb_func
 195              		.type	SPIM_SpiUartWriteTxData, %function
 196              	SPIM_SpiUartWriteTxData:
 197              	.LFB3:
 232:Generated_Source\PSoC4/SPIM_SPI_UART.c **** 
 233:Generated_Source\PSoC4/SPIM_SPI_UART.c **** #endif /* (SPIM_RX_DIRECTION) */
 234:Generated_Source\PSoC4/SPIM_SPI_UART.c **** 
 235:Generated_Source\PSoC4/SPIM_SPI_UART.c **** 
 236:Generated_Source\PSoC4/SPIM_SPI_UART.c **** #if(SPIM_TX_DIRECTION)
 237:Generated_Source\PSoC4/SPIM_SPI_UART.c ****     /*******************************************************************************
 238:Generated_Source\PSoC4/SPIM_SPI_UART.c ****     * Function Name: SPIM_SpiUartWriteTxData
 239:Generated_Source\PSoC4/SPIM_SPI_UART.c ****     ****************************************************************************//**
 240:Generated_Source\PSoC4/SPIM_SPI_UART.c ****     *
 241:Generated_Source\PSoC4/SPIM_SPI_UART.c ****     *  Places a data entry into the transmit buffer to be sent at the next available
 242:Generated_Source\PSoC4/SPIM_SPI_UART.c ****     *  bus time.
 243:Generated_Source\PSoC4/SPIM_SPI_UART.c ****     *  This function is blocking and waits until there is space available to put the
 244:Generated_Source\PSoC4/SPIM_SPI_UART.c ****     *  requested data in the transmit buffer.
 245:Generated_Source\PSoC4/SPIM_SPI_UART.c ****     *
 246:Generated_Source\PSoC4/SPIM_SPI_UART.c ****     *  \param txDataByte: the data to be transmitted.
 247:Generated_Source\PSoC4/SPIM_SPI_UART.c ****     *   The amount of data bits to be transmitted depends on TX data bits selection 
 248:Generated_Source\PSoC4/SPIM_SPI_UART.c ****     *   (the data bit counting starts from LSB of txDataByte).
ARM GAS  C:\Users\Ala\AppData\Local\Temp\cc133uPb.s 			page 9


 249:Generated_Source\PSoC4/SPIM_SPI_UART.c ****     *
 250:Generated_Source\PSoC4/SPIM_SPI_UART.c ****     * \globalvars
 251:Generated_Source\PSoC4/SPIM_SPI_UART.c ****     *  SPIM_txBufferHead - the start index to put data into the 
 252:Generated_Source\PSoC4/SPIM_SPI_UART.c ****     *  software transmit buffer.
 253:Generated_Source\PSoC4/SPIM_SPI_UART.c ****     *  SPIM_txBufferTail - start index to get data from the software
 254:Generated_Source\PSoC4/SPIM_SPI_UART.c ****     *  transmit buffer.
 255:Generated_Source\PSoC4/SPIM_SPI_UART.c ****     *
 256:Generated_Source\PSoC4/SPIM_SPI_UART.c ****     *******************************************************************************/
 257:Generated_Source\PSoC4/SPIM_SPI_UART.c ****     void SPIM_SpiUartWriteTxData(uint32 txData)
 258:Generated_Source\PSoC4/SPIM_SPI_UART.c ****     {
 198              		.loc 1 258 0
 199              		.cfi_startproc
 200              		@ args = 0, pretend = 0, frame = 0
 201              		@ frame_needed = 0, uses_anonymous_args = 0
 202              		@ link register save eliminated.
 203              	.LVL9:
 259:Generated_Source\PSoC4/SPIM_SPI_UART.c ****     #if (SPIM_INTERNAL_TX_SW_BUFFER_CONST)
 260:Generated_Source\PSoC4/SPIM_SPI_UART.c ****         uint32 locHead;
 261:Generated_Source\PSoC4/SPIM_SPI_UART.c ****     #endif /* (SPIM_INTERNAL_TX_SW_BUFFER_CONST) */
 262:Generated_Source\PSoC4/SPIM_SPI_UART.c **** 
 263:Generated_Source\PSoC4/SPIM_SPI_UART.c ****         #if (SPIM_CHECK_TX_SW_BUFFER)
 264:Generated_Source\PSoC4/SPIM_SPI_UART.c ****         {
 265:Generated_Source\PSoC4/SPIM_SPI_UART.c ****             /* Put data directly into the TX FIFO */
 266:Generated_Source\PSoC4/SPIM_SPI_UART.c ****             if ((SPIM_txBufferHead == SPIM_txBufferTail) &&
 267:Generated_Source\PSoC4/SPIM_SPI_UART.c ****                 (SPIM_SPI_UART_FIFO_SIZE != SPIM_GET_TX_FIFO_ENTRIES))
 268:Generated_Source\PSoC4/SPIM_SPI_UART.c ****             {
 269:Generated_Source\PSoC4/SPIM_SPI_UART.c ****                 /* TX software buffer is empty: put data directly in TX FIFO */
 270:Generated_Source\PSoC4/SPIM_SPI_UART.c ****                 SPIM_TX_FIFO_WR_REG = txData;
 271:Generated_Source\PSoC4/SPIM_SPI_UART.c ****             }
 272:Generated_Source\PSoC4/SPIM_SPI_UART.c ****             /* Put data into TX software buffer */
 273:Generated_Source\PSoC4/SPIM_SPI_UART.c ****             else
 274:Generated_Source\PSoC4/SPIM_SPI_UART.c ****             {
 275:Generated_Source\PSoC4/SPIM_SPI_UART.c ****                 /* Head index to put data */
 276:Generated_Source\PSoC4/SPIM_SPI_UART.c ****                 locHead = (SPIM_txBufferHead + 1u);
 277:Generated_Source\PSoC4/SPIM_SPI_UART.c **** 
 278:Generated_Source\PSoC4/SPIM_SPI_UART.c ****                 /* Adjust TX software buffer index */
 279:Generated_Source\PSoC4/SPIM_SPI_UART.c ****                 if (SPIM_TX_BUFFER_SIZE == locHead)
 280:Generated_Source\PSoC4/SPIM_SPI_UART.c ****                 {
 281:Generated_Source\PSoC4/SPIM_SPI_UART.c ****                     locHead = 0u;
 282:Generated_Source\PSoC4/SPIM_SPI_UART.c ****                 }
 283:Generated_Source\PSoC4/SPIM_SPI_UART.c **** 
 284:Generated_Source\PSoC4/SPIM_SPI_UART.c ****                 /* Wait for space in TX software buffer */
 285:Generated_Source\PSoC4/SPIM_SPI_UART.c ****                 while (locHead == SPIM_txBufferTail)
 286:Generated_Source\PSoC4/SPIM_SPI_UART.c ****                 {
 287:Generated_Source\PSoC4/SPIM_SPI_UART.c ****                 }
 288:Generated_Source\PSoC4/SPIM_SPI_UART.c **** 
 289:Generated_Source\PSoC4/SPIM_SPI_UART.c ****                 /* TX software buffer has at least one room */
 290:Generated_Source\PSoC4/SPIM_SPI_UART.c **** 
 291:Generated_Source\PSoC4/SPIM_SPI_UART.c ****                 /* Clear old status of INTR_TX_NOT_FULL. It sets at the end of transfer when TX FIF
 292:Generated_Source\PSoC4/SPIM_SPI_UART.c ****                 SPIM_ClearTxInterruptSource(SPIM_INTR_TX_NOT_FULL);
 293:Generated_Source\PSoC4/SPIM_SPI_UART.c **** 
 294:Generated_Source\PSoC4/SPIM_SPI_UART.c ****                 SPIM_PutWordInTxBuffer(locHead, txData);
 295:Generated_Source\PSoC4/SPIM_SPI_UART.c **** 
 296:Generated_Source\PSoC4/SPIM_SPI_UART.c ****                 SPIM_txBufferHead = locHead;
 297:Generated_Source\PSoC4/SPIM_SPI_UART.c **** 
 298:Generated_Source\PSoC4/SPIM_SPI_UART.c ****                 /* Check if TX Not Full is disabled in interrupt */
 299:Generated_Source\PSoC4/SPIM_SPI_UART.c ****                 if (0u == (SPIM_INTR_TX_MASK_REG & SPIM_INTR_TX_NOT_FULL))
ARM GAS  C:\Users\Ala\AppData\Local\Temp\cc133uPb.s 			page 10


 300:Generated_Source\PSoC4/SPIM_SPI_UART.c ****                 {
 301:Generated_Source\PSoC4/SPIM_SPI_UART.c ****                     /* Enable TX Not Full interrupt source to transmit from software buffer */
 302:Generated_Source\PSoC4/SPIM_SPI_UART.c ****                     SPIM_INTR_TX_MASK_REG |= (uint32) SPIM_INTR_TX_NOT_FULL;
 303:Generated_Source\PSoC4/SPIM_SPI_UART.c ****                 }
 304:Generated_Source\PSoC4/SPIM_SPI_UART.c ****             }
 305:Generated_Source\PSoC4/SPIM_SPI_UART.c ****         }
 306:Generated_Source\PSoC4/SPIM_SPI_UART.c ****         #else
 307:Generated_Source\PSoC4/SPIM_SPI_UART.c ****         {
 308:Generated_Source\PSoC4/SPIM_SPI_UART.c ****             /* Wait until TX FIFO has space to put data element */
 309:Generated_Source\PSoC4/SPIM_SPI_UART.c ****             while (SPIM_SPI_UART_FIFO_SIZE == SPIM_GET_TX_FIFO_ENTRIES)
 204              		.loc 1 309 0
 205 0000 0F22     		movs	r2, #15
 206 0002 0449     		ldr	r1, .L21
 207              	.L18:
 208              		.loc 1 309 0 is_stmt 0 discriminator 1
 209 0004 0B68     		ldr	r3, [r1]
 210 0006 1340     		ands	r3, r2
 211 0008 082B     		cmp	r3, #8
 212 000a FBD0     		beq	.L18
 310:Generated_Source\PSoC4/SPIM_SPI_UART.c ****             {
 311:Generated_Source\PSoC4/SPIM_SPI_UART.c ****             }
 312:Generated_Source\PSoC4/SPIM_SPI_UART.c **** 
 313:Generated_Source\PSoC4/SPIM_SPI_UART.c ****             SPIM_TX_FIFO_WR_REG = txData;
 213              		.loc 1 313 0 is_stmt 1
 214 000c 024B     		ldr	r3, .L21+4
 314:Generated_Source\PSoC4/SPIM_SPI_UART.c ****         }
 315:Generated_Source\PSoC4/SPIM_SPI_UART.c ****         #endif
 316:Generated_Source\PSoC4/SPIM_SPI_UART.c ****     }
 215              		.loc 1 316 0
 216              		@ sp needed
 313:Generated_Source\PSoC4/SPIM_SPI_UART.c ****         }
 217              		.loc 1 313 0
 218 000e 1860     		str	r0, [r3]
 219              		.loc 1 316 0
 220 0010 7047     		bx	lr
 221              	.L22:
 222 0012 C046     		.align	2
 223              	.L21:
 224 0014 08020740 		.word	1074201096
 225 0018 40020740 		.word	1074201152
 226              		.cfi_endproc
 227              	.LFE3:
 228              		.size	SPIM_SpiUartWriteTxData, .-SPIM_SpiUartWriteTxData
 229              		.section	.text.SPIM_SpiUartPutArray,"ax",%progbits
 230              		.align	1
 231              		.global	SPIM_SpiUartPutArray
 232              		.code	16
 233              		.thumb_func
 234              		.type	SPIM_SpiUartPutArray, %function
 235              	SPIM_SpiUartPutArray:
 236              	.LFB4:
 317:Generated_Source\PSoC4/SPIM_SPI_UART.c **** 
 318:Generated_Source\PSoC4/SPIM_SPI_UART.c **** 
 319:Generated_Source\PSoC4/SPIM_SPI_UART.c ****     /*******************************************************************************
 320:Generated_Source\PSoC4/SPIM_SPI_UART.c ****     * Function Name: SPIM_SpiUartPutArray
 321:Generated_Source\PSoC4/SPIM_SPI_UART.c ****     ****************************************************************************//**
 322:Generated_Source\PSoC4/SPIM_SPI_UART.c ****     *
ARM GAS  C:\Users\Ala\AppData\Local\Temp\cc133uPb.s 			page 11


 323:Generated_Source\PSoC4/SPIM_SPI_UART.c ****     *  Places an array of data into the transmit buffer to be sent.
 324:Generated_Source\PSoC4/SPIM_SPI_UART.c ****     *  This function is blocking and waits until there is a space available to put
 325:Generated_Source\PSoC4/SPIM_SPI_UART.c ****     *  all the requested data in the transmit buffer. The array size can be greater
 326:Generated_Source\PSoC4/SPIM_SPI_UART.c ****     *  than transmit buffer size.
 327:Generated_Source\PSoC4/SPIM_SPI_UART.c ****     *
 328:Generated_Source\PSoC4/SPIM_SPI_UART.c ****     * \param wrBuf: pointer to an array of data to be placed in transmit buffer. 
 329:Generated_Source\PSoC4/SPIM_SPI_UART.c ****     *  The width of the data to be transmitted depends on TX data width selection 
 330:Generated_Source\PSoC4/SPIM_SPI_UART.c ****     *  (the data bit counting starts from LSB for each array element).
 331:Generated_Source\PSoC4/SPIM_SPI_UART.c ****     * \param count: number of data elements to be placed in the transmit buffer.
 332:Generated_Source\PSoC4/SPIM_SPI_UART.c ****     *
 333:Generated_Source\PSoC4/SPIM_SPI_UART.c ****     * \globalvars
 334:Generated_Source\PSoC4/SPIM_SPI_UART.c ****     *  SPIM_txBufferHead - the start index to put data into the 
 335:Generated_Source\PSoC4/SPIM_SPI_UART.c ****     *  software transmit buffer.
 336:Generated_Source\PSoC4/SPIM_SPI_UART.c ****     *  SPIM_txBufferTail - start index to get data from the software
 337:Generated_Source\PSoC4/SPIM_SPI_UART.c ****     *  transmit buffer.
 338:Generated_Source\PSoC4/SPIM_SPI_UART.c ****     *
 339:Generated_Source\PSoC4/SPIM_SPI_UART.c ****     *******************************************************************************/
 340:Generated_Source\PSoC4/SPIM_SPI_UART.c ****     void SPIM_SpiUartPutArray(const uint8 wrBuf[], uint32 count)
 341:Generated_Source\PSoC4/SPIM_SPI_UART.c ****     {
 237              		.loc 1 341 0
 238              		.cfi_startproc
 239              		@ args = 0, pretend = 0, frame = 0
 240              		@ frame_needed = 0, uses_anonymous_args = 0
 241              	.LVL10:
 242 0000 70B5     		push	{r4, r5, r6, lr}
 243              		.cfi_def_cfa_offset 16
 244              		.cfi_offset 4, -16
 245              		.cfi_offset 5, -12
 246              		.cfi_offset 6, -8
 247              		.cfi_offset 14, -4
 248 0002 0400     		movs	r4, r0
 249 0004 4518     		adds	r5, r0, r1
 250              	.LVL11:
 251              	.L24:
 342:Generated_Source\PSoC4/SPIM_SPI_UART.c ****         uint32 i;
 343:Generated_Source\PSoC4/SPIM_SPI_UART.c **** 
 344:Generated_Source\PSoC4/SPIM_SPI_UART.c ****         for (i=0u; i < count; i++)
 252              		.loc 1 344 0 discriminator 1
 253 0006 AC42     		cmp	r4, r5
 254 0008 04D0     		beq	.L26
 345:Generated_Source\PSoC4/SPIM_SPI_UART.c ****         {
 346:Generated_Source\PSoC4/SPIM_SPI_UART.c ****             SPIM_SpiUartWriteTxData((uint32) wrBuf[i]);
 255              		.loc 1 346 0 discriminator 3
 256 000a 2078     		ldrb	r0, [r4]
 257 000c FFF7FEFF 		bl	SPIM_SpiUartWriteTxData
 258              	.LVL12:
 259 0010 0134     		adds	r4, r4, #1
 260              	.LVL13:
 261 0012 F8E7     		b	.L24
 262              	.L26:
 347:Generated_Source\PSoC4/SPIM_SPI_UART.c ****         }
 348:Generated_Source\PSoC4/SPIM_SPI_UART.c ****     }
 263              		.loc 1 348 0
 264              		@ sp needed
 265              	.LVL14:
 266 0014 70BD     		pop	{r4, r5, r6, pc}
 267              		.cfi_endproc
ARM GAS  C:\Users\Ala\AppData\Local\Temp\cc133uPb.s 			page 12


 268              	.LFE4:
 269              		.size	SPIM_SpiUartPutArray, .-SPIM_SpiUartPutArray
 270              		.section	.text.SPIM_SpiUartGetTxBufferSize,"ax",%progbits
 271              		.align	1
 272              		.global	SPIM_SpiUartGetTxBufferSize
 273              		.code	16
 274              		.thumb_func
 275              		.type	SPIM_SpiUartGetTxBufferSize, %function
 276              	SPIM_SpiUartGetTxBufferSize:
 277              	.LFB5:
 349:Generated_Source\PSoC4/SPIM_SPI_UART.c **** 
 350:Generated_Source\PSoC4/SPIM_SPI_UART.c **** 
 351:Generated_Source\PSoC4/SPIM_SPI_UART.c ****     /*******************************************************************************
 352:Generated_Source\PSoC4/SPIM_SPI_UART.c ****     * Function Name: SPIM_SpiUartGetTxBufferSize
 353:Generated_Source\PSoC4/SPIM_SPI_UART.c ****     ****************************************************************************//**
 354:Generated_Source\PSoC4/SPIM_SPI_UART.c ****     *
 355:Generated_Source\PSoC4/SPIM_SPI_UART.c ****     *  Returns the number of elements currently in the transmit buffer.
 356:Generated_Source\PSoC4/SPIM_SPI_UART.c ****     *   - TX software buffer is disabled: returns the number of used entries in
 357:Generated_Source\PSoC4/SPIM_SPI_UART.c ****     *     TX FIFO.
 358:Generated_Source\PSoC4/SPIM_SPI_UART.c ****     *   - TX software buffer is enabled: returns the number of elements currently
 359:Generated_Source\PSoC4/SPIM_SPI_UART.c ****     *     used in the transmit buffer. This number does not include used entries in
 360:Generated_Source\PSoC4/SPIM_SPI_UART.c ****     *     the TX FIFO. The transmit buffer size is zero until the TX FIFO is
 361:Generated_Source\PSoC4/SPIM_SPI_UART.c ****     *     not full.
 362:Generated_Source\PSoC4/SPIM_SPI_UART.c ****     *
 363:Generated_Source\PSoC4/SPIM_SPI_UART.c ****     * \return
 364:Generated_Source\PSoC4/SPIM_SPI_UART.c ****     *  Number of data elements ready to transmit.
 365:Generated_Source\PSoC4/SPIM_SPI_UART.c ****     *
 366:Generated_Source\PSoC4/SPIM_SPI_UART.c ****     * \globalvars
 367:Generated_Source\PSoC4/SPIM_SPI_UART.c ****     *  SPIM_txBufferHead - the start index to put data into the 
 368:Generated_Source\PSoC4/SPIM_SPI_UART.c ****     *  software transmit buffer.
 369:Generated_Source\PSoC4/SPIM_SPI_UART.c ****     *  SPIM_txBufferTail - start index to get data from the software
 370:Generated_Source\PSoC4/SPIM_SPI_UART.c ****     *  transmit buffer.
 371:Generated_Source\PSoC4/SPIM_SPI_UART.c ****     *
 372:Generated_Source\PSoC4/SPIM_SPI_UART.c ****     *******************************************************************************/
 373:Generated_Source\PSoC4/SPIM_SPI_UART.c ****     uint32 SPIM_SpiUartGetTxBufferSize(void)
 374:Generated_Source\PSoC4/SPIM_SPI_UART.c ****     {
 278              		.loc 1 374 0
 279              		.cfi_startproc
 280              		@ args = 0, pretend = 0, frame = 0
 281              		@ frame_needed = 0, uses_anonymous_args = 0
 282              		@ link register save eliminated.
 375:Generated_Source\PSoC4/SPIM_SPI_UART.c ****         uint32 size;
 376:Generated_Source\PSoC4/SPIM_SPI_UART.c ****     #if (SPIM_INTERNAL_TX_SW_BUFFER_CONST)
 377:Generated_Source\PSoC4/SPIM_SPI_UART.c ****         uint32 locTail;
 378:Generated_Source\PSoC4/SPIM_SPI_UART.c ****     #endif /* (SPIM_INTERNAL_TX_SW_BUFFER_CONST) */
 379:Generated_Source\PSoC4/SPIM_SPI_UART.c **** 
 380:Generated_Source\PSoC4/SPIM_SPI_UART.c ****         #if (SPIM_CHECK_TX_SW_BUFFER)
 381:Generated_Source\PSoC4/SPIM_SPI_UART.c ****         {
 382:Generated_Source\PSoC4/SPIM_SPI_UART.c ****             /* Get current Tail index */
 383:Generated_Source\PSoC4/SPIM_SPI_UART.c ****             locTail = SPIM_txBufferTail;
 384:Generated_Source\PSoC4/SPIM_SPI_UART.c **** 
 385:Generated_Source\PSoC4/SPIM_SPI_UART.c ****             if (SPIM_txBufferHead >= locTail)
 386:Generated_Source\PSoC4/SPIM_SPI_UART.c ****             {
 387:Generated_Source\PSoC4/SPIM_SPI_UART.c ****                 size = (SPIM_txBufferHead - locTail);
 388:Generated_Source\PSoC4/SPIM_SPI_UART.c ****             }
 389:Generated_Source\PSoC4/SPIM_SPI_UART.c ****             else
 390:Generated_Source\PSoC4/SPIM_SPI_UART.c ****             {
ARM GAS  C:\Users\Ala\AppData\Local\Temp\cc133uPb.s 			page 13


 391:Generated_Source\PSoC4/SPIM_SPI_UART.c ****                 size = (SPIM_txBufferHead + (SPIM_TX_BUFFER_SIZE - locTail));
 392:Generated_Source\PSoC4/SPIM_SPI_UART.c ****             }
 393:Generated_Source\PSoC4/SPIM_SPI_UART.c ****         }
 394:Generated_Source\PSoC4/SPIM_SPI_UART.c ****         #else
 395:Generated_Source\PSoC4/SPIM_SPI_UART.c ****         {
 396:Generated_Source\PSoC4/SPIM_SPI_UART.c ****             size = SPIM_GET_TX_FIFO_ENTRIES;
 283              		.loc 1 396 0
 284 0000 024B     		ldr	r3, .L28
 397:Generated_Source\PSoC4/SPIM_SPI_UART.c ****         }
 398:Generated_Source\PSoC4/SPIM_SPI_UART.c ****         #endif
 399:Generated_Source\PSoC4/SPIM_SPI_UART.c **** 
 400:Generated_Source\PSoC4/SPIM_SPI_UART.c ****         return (size);
 401:Generated_Source\PSoC4/SPIM_SPI_UART.c ****     }
 285              		.loc 1 401 0
 286              		@ sp needed
 396:Generated_Source\PSoC4/SPIM_SPI_UART.c ****         }
 287              		.loc 1 396 0
 288 0002 1868     		ldr	r0, [r3]
 289              	.LVL15:
 400:Generated_Source\PSoC4/SPIM_SPI_UART.c ****     }
 290              		.loc 1 400 0
 291 0004 0F23     		movs	r3, #15
 292 0006 1840     		ands	r0, r3
 293              	.LVL16:
 294              		.loc 1 401 0
 295 0008 7047     		bx	lr
 296              	.L29:
 297 000a C046     		.align	2
 298              	.L28:
 299 000c 08020740 		.word	1074201096
 300              		.cfi_endproc
 301              	.LFE5:
 302              		.size	SPIM_SpiUartGetTxBufferSize, .-SPIM_SpiUartGetTxBufferSize
 303              		.section	.text.SPIM_SpiUartClearTxBuffer,"ax",%progbits
 304              		.align	1
 305              		.global	SPIM_SpiUartClearTxBuffer
 306              		.code	16
 307              		.thumb_func
 308              		.type	SPIM_SpiUartClearTxBuffer, %function
 309              	SPIM_SpiUartClearTxBuffer:
 310              	.LFB6:
 402:Generated_Source\PSoC4/SPIM_SPI_UART.c **** 
 403:Generated_Source\PSoC4/SPIM_SPI_UART.c **** 
 404:Generated_Source\PSoC4/SPIM_SPI_UART.c ****     /*******************************************************************************
 405:Generated_Source\PSoC4/SPIM_SPI_UART.c ****     * Function Name: SPIM_SpiUartClearTxBuffer
 406:Generated_Source\PSoC4/SPIM_SPI_UART.c ****     ****************************************************************************//**
 407:Generated_Source\PSoC4/SPIM_SPI_UART.c ****     *
 408:Generated_Source\PSoC4/SPIM_SPI_UART.c ****     *  Clears the transmit buffer and TX FIFO.
 409:Generated_Source\PSoC4/SPIM_SPI_UART.c ****     *
 410:Generated_Source\PSoC4/SPIM_SPI_UART.c ****     * \globalvars
 411:Generated_Source\PSoC4/SPIM_SPI_UART.c ****     *  SPIM_txBufferHead - the start index to put data into the 
 412:Generated_Source\PSoC4/SPIM_SPI_UART.c ****     *  software transmit buffer.
 413:Generated_Source\PSoC4/SPIM_SPI_UART.c ****     *  SPIM_txBufferTail - start index to get data from the software
 414:Generated_Source\PSoC4/SPIM_SPI_UART.c ****     *  transmit buffer.
 415:Generated_Source\PSoC4/SPIM_SPI_UART.c ****     *
 416:Generated_Source\PSoC4/SPIM_SPI_UART.c ****     *******************************************************************************/
 417:Generated_Source\PSoC4/SPIM_SPI_UART.c ****     void SPIM_SpiUartClearTxBuffer(void)
ARM GAS  C:\Users\Ala\AppData\Local\Temp\cc133uPb.s 			page 14


 418:Generated_Source\PSoC4/SPIM_SPI_UART.c ****     {
 311              		.loc 1 418 0
 312              		.cfi_startproc
 313              		@ args = 0, pretend = 0, frame = 0
 314              		@ frame_needed = 0, uses_anonymous_args = 0
 315              		@ link register save eliminated.
 419:Generated_Source\PSoC4/SPIM_SPI_UART.c ****         #if (SPIM_CHECK_TX_SW_BUFFER)
 420:Generated_Source\PSoC4/SPIM_SPI_UART.c ****         {
 421:Generated_Source\PSoC4/SPIM_SPI_UART.c ****             /* Lock from component interruption */
 422:Generated_Source\PSoC4/SPIM_SPI_UART.c ****             SPIM_DisableInt();
 423:Generated_Source\PSoC4/SPIM_SPI_UART.c **** 
 424:Generated_Source\PSoC4/SPIM_SPI_UART.c ****             /* Flush TX software buffer */
 425:Generated_Source\PSoC4/SPIM_SPI_UART.c ****             SPIM_txBufferHead = SPIM_txBufferTail;
 426:Generated_Source\PSoC4/SPIM_SPI_UART.c **** 
 427:Generated_Source\PSoC4/SPIM_SPI_UART.c ****             SPIM_INTR_TX_MASK_REG &= (uint32) ~SPIM_INTR_TX_NOT_FULL;
 428:Generated_Source\PSoC4/SPIM_SPI_UART.c ****             SPIM_CLEAR_TX_FIFO;
 429:Generated_Source\PSoC4/SPIM_SPI_UART.c ****             SPIM_ClearTxInterruptSource(SPIM_INTR_TX_ALL);
 430:Generated_Source\PSoC4/SPIM_SPI_UART.c **** 
 431:Generated_Source\PSoC4/SPIM_SPI_UART.c ****             /* Release lock */
 432:Generated_Source\PSoC4/SPIM_SPI_UART.c ****             SPIM_EnableInt();
 433:Generated_Source\PSoC4/SPIM_SPI_UART.c ****         }
 434:Generated_Source\PSoC4/SPIM_SPI_UART.c ****         #else
 435:Generated_Source\PSoC4/SPIM_SPI_UART.c ****         {
 436:Generated_Source\PSoC4/SPIM_SPI_UART.c ****             SPIM_CLEAR_TX_FIFO;
 316              		.loc 1 436 0
 317 0000 8021     		movs	r1, #128
 318 0002 054B     		ldr	r3, .L31
 319 0004 4902     		lsls	r1, r1, #9
 320 0006 1A68     		ldr	r2, [r3]
 437:Generated_Source\PSoC4/SPIM_SPI_UART.c ****         }
 438:Generated_Source\PSoC4/SPIM_SPI_UART.c ****         #endif
 439:Generated_Source\PSoC4/SPIM_SPI_UART.c ****     }
 321              		.loc 1 439 0
 322              		@ sp needed
 436:Generated_Source\PSoC4/SPIM_SPI_UART.c ****         }
 323              		.loc 1 436 0
 324 0008 0A43     		orrs	r2, r1
 325 000a 1A60     		str	r2, [r3]
 326 000c 1968     		ldr	r1, [r3]
 327 000e 034A     		ldr	r2, .L31+4
 328 0010 0A40     		ands	r2, r1
 329 0012 1A60     		str	r2, [r3]
 330              		.loc 1 439 0
 331 0014 7047     		bx	lr
 332              	.L32:
 333 0016 C046     		.align	2
 334              	.L31:
 335 0018 04020740 		.word	1074201092
 336 001c FFFFFEFF 		.word	-65537
 337              		.cfi_endproc
 338              	.LFE6:
 339              		.size	SPIM_SpiUartClearTxBuffer, .-SPIM_SpiUartClearTxBuffer
 340              		.section	.text.SPIM_SpiUartDisableIntRx,"ax",%progbits
 341              		.align	1
 342              		.global	SPIM_SpiUartDisableIntRx
 343              		.code	16
 344              		.thumb_func
ARM GAS  C:\Users\Ala\AppData\Local\Temp\cc133uPb.s 			page 15


 345              		.type	SPIM_SpiUartDisableIntRx, %function
 346              	SPIM_SpiUartDisableIntRx:
 347              	.LFB7:
 440:Generated_Source\PSoC4/SPIM_SPI_UART.c **** 
 441:Generated_Source\PSoC4/SPIM_SPI_UART.c **** #endif /* (SPIM_TX_DIRECTION) */
 442:Generated_Source\PSoC4/SPIM_SPI_UART.c **** 
 443:Generated_Source\PSoC4/SPIM_SPI_UART.c **** 
 444:Generated_Source\PSoC4/SPIM_SPI_UART.c **** /*******************************************************************************
 445:Generated_Source\PSoC4/SPIM_SPI_UART.c **** * Function Name: SPIM_SpiUartDisableIntRx
 446:Generated_Source\PSoC4/SPIM_SPI_UART.c **** ****************************************************************************//**
 447:Generated_Source\PSoC4/SPIM_SPI_UART.c **** *
 448:Generated_Source\PSoC4/SPIM_SPI_UART.c **** *  Disables the RX interrupt sources.
 449:Generated_Source\PSoC4/SPIM_SPI_UART.c **** *
 450:Generated_Source\PSoC4/SPIM_SPI_UART.c **** *  \return
 451:Generated_Source\PSoC4/SPIM_SPI_UART.c **** *   Returns the RX interrupt sources enabled before the function call.
 452:Generated_Source\PSoC4/SPIM_SPI_UART.c **** *
 453:Generated_Source\PSoC4/SPIM_SPI_UART.c **** *******************************************************************************/
 454:Generated_Source\PSoC4/SPIM_SPI_UART.c **** uint32 SPIM_SpiUartDisableIntRx(void)
 455:Generated_Source\PSoC4/SPIM_SPI_UART.c **** {
 348              		.loc 1 455 0
 349              		.cfi_startproc
 350              		@ args = 0, pretend = 0, frame = 0
 351              		@ frame_needed = 0, uses_anonymous_args = 0
 352              		@ link register save eliminated.
 456:Generated_Source\PSoC4/SPIM_SPI_UART.c ****     uint32 intSource;
 457:Generated_Source\PSoC4/SPIM_SPI_UART.c **** 
 458:Generated_Source\PSoC4/SPIM_SPI_UART.c ****     intSource = SPIM_GetRxInterruptMode();
 459:Generated_Source\PSoC4/SPIM_SPI_UART.c **** 
 460:Generated_Source\PSoC4/SPIM_SPI_UART.c ****     SPIM_SetRxInterruptMode(SPIM_NO_INTR_SOURCES);
 353              		.loc 1 460 0
 354 0000 0022     		movs	r2, #0
 458:Generated_Source\PSoC4/SPIM_SPI_UART.c **** 
 355              		.loc 1 458 0
 356 0002 024B     		ldr	r3, .L34
 461:Generated_Source\PSoC4/SPIM_SPI_UART.c **** 
 462:Generated_Source\PSoC4/SPIM_SPI_UART.c ****     return (intSource);
 463:Generated_Source\PSoC4/SPIM_SPI_UART.c **** }
 357              		.loc 1 463 0
 358              		@ sp needed
 458:Generated_Source\PSoC4/SPIM_SPI_UART.c **** 
 359              		.loc 1 458 0
 360 0004 1868     		ldr	r0, [r3]
 361              	.LVL17:
 460:Generated_Source\PSoC4/SPIM_SPI_UART.c **** 
 362              		.loc 1 460 0
 363 0006 1A60     		str	r2, [r3]
 364              		.loc 1 463 0
 365 0008 7047     		bx	lr
 366              	.L35:
 367 000a C046     		.align	2
 368              	.L34:
 369 000c C80F0740 		.word	1074204616
 370              		.cfi_endproc
 371              	.LFE7:
 372              		.size	SPIM_SpiUartDisableIntRx, .-SPIM_SpiUartDisableIntRx
 373              		.section	.text.SPIM_SpiUartDisableIntTx,"ax",%progbits
 374              		.align	1
ARM GAS  C:\Users\Ala\AppData\Local\Temp\cc133uPb.s 			page 16


 375              		.global	SPIM_SpiUartDisableIntTx
 376              		.code	16
 377              		.thumb_func
 378              		.type	SPIM_SpiUartDisableIntTx, %function
 379              	SPIM_SpiUartDisableIntTx:
 380              	.LFB8:
 464:Generated_Source\PSoC4/SPIM_SPI_UART.c **** 
 465:Generated_Source\PSoC4/SPIM_SPI_UART.c **** 
 466:Generated_Source\PSoC4/SPIM_SPI_UART.c **** /*******************************************************************************
 467:Generated_Source\PSoC4/SPIM_SPI_UART.c **** * Function Name: SPIM_SpiUartDisableIntTx
 468:Generated_Source\PSoC4/SPIM_SPI_UART.c **** ****************************************************************************//**
 469:Generated_Source\PSoC4/SPIM_SPI_UART.c **** *
 470:Generated_Source\PSoC4/SPIM_SPI_UART.c **** *  Disables TX interrupt sources.
 471:Generated_Source\PSoC4/SPIM_SPI_UART.c **** *
 472:Generated_Source\PSoC4/SPIM_SPI_UART.c **** *  \return
 473:Generated_Source\PSoC4/SPIM_SPI_UART.c **** *   Returns TX interrupt sources enabled before function call.
 474:Generated_Source\PSoC4/SPIM_SPI_UART.c **** *
 475:Generated_Source\PSoC4/SPIM_SPI_UART.c **** *******************************************************************************/
 476:Generated_Source\PSoC4/SPIM_SPI_UART.c **** uint32 SPIM_SpiUartDisableIntTx(void)
 477:Generated_Source\PSoC4/SPIM_SPI_UART.c **** {
 381              		.loc 1 477 0
 382              		.cfi_startproc
 383              		@ args = 0, pretend = 0, frame = 0
 384              		@ frame_needed = 0, uses_anonymous_args = 0
 385              		@ link register save eliminated.
 478:Generated_Source\PSoC4/SPIM_SPI_UART.c ****     uint32 intSourceMask;
 479:Generated_Source\PSoC4/SPIM_SPI_UART.c **** 
 480:Generated_Source\PSoC4/SPIM_SPI_UART.c ****     intSourceMask = SPIM_GetTxInterruptMode();
 481:Generated_Source\PSoC4/SPIM_SPI_UART.c **** 
 482:Generated_Source\PSoC4/SPIM_SPI_UART.c ****     SPIM_SetTxInterruptMode(SPIM_NO_INTR_SOURCES);
 386              		.loc 1 482 0
 387 0000 0022     		movs	r2, #0
 480:Generated_Source\PSoC4/SPIM_SPI_UART.c **** 
 388              		.loc 1 480 0
 389 0002 024B     		ldr	r3, .L37
 483:Generated_Source\PSoC4/SPIM_SPI_UART.c **** 
 484:Generated_Source\PSoC4/SPIM_SPI_UART.c ****     return (intSourceMask);
 485:Generated_Source\PSoC4/SPIM_SPI_UART.c **** }
 390              		.loc 1 485 0
 391              		@ sp needed
 480:Generated_Source\PSoC4/SPIM_SPI_UART.c **** 
 392              		.loc 1 480 0
 393 0004 1868     		ldr	r0, [r3]
 394              	.LVL18:
 482:Generated_Source\PSoC4/SPIM_SPI_UART.c **** 
 395              		.loc 1 482 0
 396 0006 1A60     		str	r2, [r3]
 397              		.loc 1 485 0
 398 0008 7047     		bx	lr
 399              	.L38:
 400 000a C046     		.align	2
 401              	.L37:
 402 000c 880F0740 		.word	1074204552
 403              		.cfi_endproc
 404              	.LFE8:
 405              		.size	SPIM_SpiUartDisableIntTx, .-SPIM_SpiUartDisableIntTx
 406              		.comm	SPIM_rxBufferInternal,31,1
ARM GAS  C:\Users\Ala\AppData\Local\Temp\cc133uPb.s 			page 17


 407              		.comm	SPIM_rxBufferOverflow,1,1
 408              		.comm	SPIM_rxBufferTail,4,4
 409              		.comm	SPIM_rxBufferHead,4,4
 410              		.text
 411              	.Letext0:
 412              		.file 2 "Generated_Source\\PSoC4/cytypes.h"
 413              		.file 3 "Generated_Source\\PSoC4/CyLib.h"