ARM GAS  C:\Users\Ala\AppData\Local\Temp\ccdH95XG.s 			page 1


   1              		.syntax unified
   2              		.cpu cortex-m0
   3              		.fpu softvfp
   4              		.eabi_attribute 20, 1
   5              		.eabi_attribute 21, 1
   6              		.eabi_attribute 23, 3
   7              		.eabi_attribute 24, 1
   8              		.eabi_attribute 25, 1
   9              		.eabi_attribute 26, 1
  10              		.eabi_attribute 30, 4
  11              		.eabi_attribute 34, 0
  12              		.eabi_attribute 18, 4
  13              		.thumb
  14              		.syntax unified
  15              		.file	"SPIM_SPI_UART_INT.c"
  16              		.text
  17              	.Ltext0:
  18              		.cfi_sections	.debug_frame
  19              		.section	.text.SPIM_SPI_UART_ISR,"ax",%progbits
  20              		.align	1
  21              		.global	SPIM_SPI_UART_ISR
  22              		.code	16
  23              		.thumb_func
  24              		.type	SPIM_SPI_UART_ISR, %function
  25              	SPIM_SPI_UART_ISR:
  26              	.LFB0:
  27              		.file 1 "Generated_Source\\PSoC4\\SPIM_SPI_UART_INT.c"
   1:Generated_Source\PSoC4/SPIM_SPI_UART_INT.c **** /***************************************************************************//**
   2:Generated_Source\PSoC4/SPIM_SPI_UART_INT.c **** * \file SPIM_SPI_UART_INT.c
   3:Generated_Source\PSoC4/SPIM_SPI_UART_INT.c **** * \version 4.0
   4:Generated_Source\PSoC4/SPIM_SPI_UART_INT.c **** *
   5:Generated_Source\PSoC4/SPIM_SPI_UART_INT.c **** * \brief
   6:Generated_Source\PSoC4/SPIM_SPI_UART_INT.c **** *  This file provides the source code to the Interrupt Service Routine for
   7:Generated_Source\PSoC4/SPIM_SPI_UART_INT.c **** *  the SCB Component in SPI and UART modes.
   8:Generated_Source\PSoC4/SPIM_SPI_UART_INT.c **** *
   9:Generated_Source\PSoC4/SPIM_SPI_UART_INT.c **** * Note:
  10:Generated_Source\PSoC4/SPIM_SPI_UART_INT.c **** *
  11:Generated_Source\PSoC4/SPIM_SPI_UART_INT.c **** ********************************************************************************
  12:Generated_Source\PSoC4/SPIM_SPI_UART_INT.c **** * \copyright
  13:Generated_Source\PSoC4/SPIM_SPI_UART_INT.c **** * Copyright 2013-2017, Cypress Semiconductor Corporation.  All rights reserved.
  14:Generated_Source\PSoC4/SPIM_SPI_UART_INT.c **** * You may use this file only in accordance with the license, terms, conditions,
  15:Generated_Source\PSoC4/SPIM_SPI_UART_INT.c **** * disclaimers, and limitations in the end user license agreement accompanying
  16:Generated_Source\PSoC4/SPIM_SPI_UART_INT.c **** * the software package with which this file was provided.
  17:Generated_Source\PSoC4/SPIM_SPI_UART_INT.c **** *******************************************************************************/
  18:Generated_Source\PSoC4/SPIM_SPI_UART_INT.c **** 
  19:Generated_Source\PSoC4/SPIM_SPI_UART_INT.c **** #include "SPIM_PVT.h"
  20:Generated_Source\PSoC4/SPIM_SPI_UART_INT.c **** #include "SPIM_SPI_UART_PVT.h"
  21:Generated_Source\PSoC4/SPIM_SPI_UART_INT.c **** 
  22:Generated_Source\PSoC4/SPIM_SPI_UART_INT.c **** 
  23:Generated_Source\PSoC4/SPIM_SPI_UART_INT.c **** #if (SPIM_SCB_IRQ_INTERNAL)
  24:Generated_Source\PSoC4/SPIM_SPI_UART_INT.c **** /*******************************************************************************
  25:Generated_Source\PSoC4/SPIM_SPI_UART_INT.c **** * Function Name: SPIM_SPI_UART_ISR
  26:Generated_Source\PSoC4/SPIM_SPI_UART_INT.c **** ****************************************************************************//**
  27:Generated_Source\PSoC4/SPIM_SPI_UART_INT.c **** *
  28:Generated_Source\PSoC4/SPIM_SPI_UART_INT.c **** *  Handles the Interrupt Service Routine for the SCB SPI or UART modes.
  29:Generated_Source\PSoC4/SPIM_SPI_UART_INT.c **** *
  30:Generated_Source\PSoC4/SPIM_SPI_UART_INT.c **** *******************************************************************************/
ARM GAS  C:\Users\Ala\AppData\Local\Temp\ccdH95XG.s 			page 2


  31:Generated_Source\PSoC4/SPIM_SPI_UART_INT.c **** CY_ISR(SPIM_SPI_UART_ISR)
  32:Generated_Source\PSoC4/SPIM_SPI_UART_INT.c **** {
  28              		.loc 1 32 0
  29              		.cfi_startproc
  30              		@ args = 0, pretend = 0, frame = 0
  31              		@ frame_needed = 0, uses_anonymous_args = 0
  33:Generated_Source\PSoC4/SPIM_SPI_UART_INT.c **** #if (SPIM_INTERNAL_RX_SW_BUFFER_CONST)
  34:Generated_Source\PSoC4/SPIM_SPI_UART_INT.c ****     uint32 locHead;
  35:Generated_Source\PSoC4/SPIM_SPI_UART_INT.c **** #endif /* (SPIM_INTERNAL_RX_SW_BUFFER_CONST) */
  36:Generated_Source\PSoC4/SPIM_SPI_UART_INT.c **** 
  37:Generated_Source\PSoC4/SPIM_SPI_UART_INT.c **** #if (SPIM_INTERNAL_TX_SW_BUFFER_CONST)
  38:Generated_Source\PSoC4/SPIM_SPI_UART_INT.c ****     uint32 locTail;
  39:Generated_Source\PSoC4/SPIM_SPI_UART_INT.c **** #endif /* (SPIM_INTERNAL_TX_SW_BUFFER_CONST) */
  40:Generated_Source\PSoC4/SPIM_SPI_UART_INT.c **** 
  41:Generated_Source\PSoC4/SPIM_SPI_UART_INT.c **** #ifdef SPIM_SPI_UART_ISR_ENTRY_CALLBACK
  42:Generated_Source\PSoC4/SPIM_SPI_UART_INT.c ****     SPIM_SPI_UART_ISR_EntryCallback();
  43:Generated_Source\PSoC4/SPIM_SPI_UART_INT.c **** #endif /* SPIM_SPI_UART_ISR_ENTRY_CALLBACK */
  44:Generated_Source\PSoC4/SPIM_SPI_UART_INT.c **** 
  45:Generated_Source\PSoC4/SPIM_SPI_UART_INT.c ****     if (NULL != SPIM_customIntrHandler)
  32              		.loc 1 45 0
  33 0000 134B     		ldr	r3, .L17
  32:Generated_Source\PSoC4/SPIM_SPI_UART_INT.c **** #if (SPIM_INTERNAL_RX_SW_BUFFER_CONST)
  34              		.loc 1 32 0
  35 0002 70B5     		push	{r4, r5, r6, lr}
  36              		.cfi_def_cfa_offset 16
  37              		.cfi_offset 4, -16
  38              		.cfi_offset 5, -12
  39              		.cfi_offset 6, -8
  40              		.cfi_offset 14, -4
  41              		.loc 1 45 0
  42 0004 1B68     		ldr	r3, [r3]
  43 0006 002B     		cmp	r3, #0
  44 0008 00D0     		beq	.L2
  46:Generated_Source\PSoC4/SPIM_SPI_UART_INT.c ****     {
  47:Generated_Source\PSoC4/SPIM_SPI_UART_INT.c ****         SPIM_customIntrHandler();
  45              		.loc 1 47 0
  46 000a 9847     		blx	r3
  47              	.LVL0:
  48              	.L2:
  48:Generated_Source\PSoC4/SPIM_SPI_UART_INT.c ****     }
  49:Generated_Source\PSoC4/SPIM_SPI_UART_INT.c **** 
  50:Generated_Source\PSoC4/SPIM_SPI_UART_INT.c ****     #if(SPIM_CHECK_SPI_WAKE_ENABLE)
  51:Generated_Source\PSoC4/SPIM_SPI_UART_INT.c ****     {
  52:Generated_Source\PSoC4/SPIM_SPI_UART_INT.c ****         /* Clear SPI wakeup source */
  53:Generated_Source\PSoC4/SPIM_SPI_UART_INT.c ****         SPIM_ClearSpiExtClkInterruptSource(SPIM_INTR_SPI_EC_WAKE_UP);
  54:Generated_Source\PSoC4/SPIM_SPI_UART_INT.c ****     }
  55:Generated_Source\PSoC4/SPIM_SPI_UART_INT.c ****     #endif
  56:Generated_Source\PSoC4/SPIM_SPI_UART_INT.c **** 
  57:Generated_Source\PSoC4/SPIM_SPI_UART_INT.c ****     #if (SPIM_CHECK_RX_SW_BUFFER)
  58:Generated_Source\PSoC4/SPIM_SPI_UART_INT.c ****     {
  59:Generated_Source\PSoC4/SPIM_SPI_UART_INT.c ****         if (SPIM_CHECK_INTR_RX_MASKED(SPIM_INTR_RX_NOT_EMPTY))
  49              		.loc 1 59 0
  50 000c 114B     		ldr	r3, .L17+4
  51 000e 1B68     		ldr	r3, [r3]
  52 0010 5B07     		lsls	r3, r3, #29
  53 0012 1CD5     		bpl	.L1
  60:Generated_Source\PSoC4/SPIM_SPI_UART_INT.c ****         {
ARM GAS  C:\Users\Ala\AppData\Local\Temp\ccdH95XG.s 			page 3


  61:Generated_Source\PSoC4/SPIM_SPI_UART_INT.c ****             do
  62:Generated_Source\PSoC4/SPIM_SPI_UART_INT.c ****             {
  63:Generated_Source\PSoC4/SPIM_SPI_UART_INT.c ****                 /* Move local head index */
  64:Generated_Source\PSoC4/SPIM_SPI_UART_INT.c ****                 locHead = (SPIM_rxBufferHead + 1u);
  65:Generated_Source\PSoC4/SPIM_SPI_UART_INT.c **** 
  66:Generated_Source\PSoC4/SPIM_SPI_UART_INT.c ****                 /* Adjust local head index */
  67:Generated_Source\PSoC4/SPIM_SPI_UART_INT.c ****                 if (SPIM_INTERNAL_RX_BUFFER_SIZE == locHead)
  68:Generated_Source\PSoC4/SPIM_SPI_UART_INT.c ****                 {
  69:Generated_Source\PSoC4/SPIM_SPI_UART_INT.c ****                     locHead = 0u;
  70:Generated_Source\PSoC4/SPIM_SPI_UART_INT.c ****                 }
  71:Generated_Source\PSoC4/SPIM_SPI_UART_INT.c **** 
  72:Generated_Source\PSoC4/SPIM_SPI_UART_INT.c ****                 if (locHead == SPIM_rxBufferTail)
  73:Generated_Source\PSoC4/SPIM_SPI_UART_INT.c ****                 {
  74:Generated_Source\PSoC4/SPIM_SPI_UART_INT.c ****                     #if (SPIM_CHECK_UART_RTS_CONTROL_FLOW)
  75:Generated_Source\PSoC4/SPIM_SPI_UART_INT.c ****                     {
  76:Generated_Source\PSoC4/SPIM_SPI_UART_INT.c ****                         /* There is no space in the software buffer - disable the
  77:Generated_Source\PSoC4/SPIM_SPI_UART_INT.c ****                         * RX Not Empty interrupt source. The data elements are
  78:Generated_Source\PSoC4/SPIM_SPI_UART_INT.c ****                         * still being received into the RX FIFO until the RTS signal
  79:Generated_Source\PSoC4/SPIM_SPI_UART_INT.c ****                         * stops the transmitter. After the data element is read from the
  80:Generated_Source\PSoC4/SPIM_SPI_UART_INT.c ****                         * buffer, the RX Not Empty interrupt source is enabled to
  81:Generated_Source\PSoC4/SPIM_SPI_UART_INT.c ****                         * move the next data element in the software buffer.
  82:Generated_Source\PSoC4/SPIM_SPI_UART_INT.c ****                         */
  83:Generated_Source\PSoC4/SPIM_SPI_UART_INT.c ****                         SPIM_INTR_RX_MASK_REG &= ~SPIM_INTR_RX_NOT_EMPTY;
  84:Generated_Source\PSoC4/SPIM_SPI_UART_INT.c ****                         break;
  85:Generated_Source\PSoC4/SPIM_SPI_UART_INT.c ****                     }
  86:Generated_Source\PSoC4/SPIM_SPI_UART_INT.c ****                     #else
  87:Generated_Source\PSoC4/SPIM_SPI_UART_INT.c ****                     {
  88:Generated_Source\PSoC4/SPIM_SPI_UART_INT.c ****                         /* Overflow: through away received data element */
  89:Generated_Source\PSoC4/SPIM_SPI_UART_INT.c ****                         (void) SPIM_RX_FIFO_RD_REG;
  90:Generated_Source\PSoC4/SPIM_SPI_UART_INT.c ****                         SPIM_rxBufferOverflow = (uint8) SPIM_INTR_RX_OVERFLOW;
  54              		.loc 1 90 0
  55 0014 2024     		movs	r4, #32
  91:Generated_Source\PSoC4/SPIM_SPI_UART_INT.c ****                     }
  92:Generated_Source\PSoC4/SPIM_SPI_UART_INT.c ****                     #endif
  93:Generated_Source\PSoC4/SPIM_SPI_UART_INT.c ****                 }
  94:Generated_Source\PSoC4/SPIM_SPI_UART_INT.c ****                 else
  95:Generated_Source\PSoC4/SPIM_SPI_UART_INT.c ****                 {
  96:Generated_Source\PSoC4/SPIM_SPI_UART_INT.c ****                     /* Store received data */
  97:Generated_Source\PSoC4/SPIM_SPI_UART_INT.c ****                     SPIM_PutWordInRxBuffer(locHead, SPIM_RX_FIFO_RD_REG);
  98:Generated_Source\PSoC4/SPIM_SPI_UART_INT.c **** 
  99:Generated_Source\PSoC4/SPIM_SPI_UART_INT.c ****                     /* Move head index */
 100:Generated_Source\PSoC4/SPIM_SPI_UART_INT.c ****                     SPIM_rxBufferHead = locHead;
 101:Generated_Source\PSoC4/SPIM_SPI_UART_INT.c ****                 }
 102:Generated_Source\PSoC4/SPIM_SPI_UART_INT.c ****             }
 103:Generated_Source\PSoC4/SPIM_SPI_UART_INT.c ****             while(0u != SPIM_GET_RX_FIFO_ENTRIES);
  56              		.loc 1 103 0
  57 0016 0F20     		movs	r0, #15
  64:Generated_Source\PSoC4/SPIM_SPI_UART_INT.c **** 
  58              		.loc 1 64 0
  59 0018 0F49     		ldr	r1, .L17+8
  60              	.L12:
  61 001a 0B68     		ldr	r3, [r1]
  62 001c 0133     		adds	r3, r3, #1
  63              	.LVL1:
  67:Generated_Source\PSoC4/SPIM_SPI_UART_INT.c ****                 {
  64              		.loc 1 67 0
  65 001e 1F2B     		cmp	r3, #31
ARM GAS  C:\Users\Ala\AppData\Local\Temp\ccdH95XG.s 			page 4


  66 0020 00D1     		bne	.L4
  69:Generated_Source\PSoC4/SPIM_SPI_UART_INT.c ****                 }
  67              		.loc 1 69 0
  68 0022 0023     		movs	r3, #0
  69              	.LVL2:
  70              	.L4:
  72:Generated_Source\PSoC4/SPIM_SPI_UART_INT.c ****                 {
  71              		.loc 1 72 0
  72 0024 0D4A     		ldr	r2, .L17+12
  73 0026 1568     		ldr	r5, [r2]
  74 0028 0D4A     		ldr	r2, .L17+16
  75 002a AB42     		cmp	r3, r5
  76 002c 03D1     		bne	.L5
  89:Generated_Source\PSoC4/SPIM_SPI_UART_INT.c ****                         SPIM_rxBufferOverflow = (uint8) SPIM_INTR_RX_OVERFLOW;
  77              		.loc 1 89 0
  78 002e 1368     		ldr	r3, [r2]
  79              	.LVL3:
  90:Generated_Source\PSoC4/SPIM_SPI_UART_INT.c ****                     }
  80              		.loc 1 90 0
  81 0030 0C4B     		ldr	r3, .L17+20
  82 0032 1C70     		strb	r4, [r3]
  83 0034 04E0     		b	.L6
  84              	.LVL4:
  85              	.L5:
  97:Generated_Source\PSoC4/SPIM_SPI_UART_INT.c **** 
  86              		.loc 1 97 0
  87 0036 1268     		ldr	r2, [r2]
  88 0038 0B4D     		ldr	r5, .L17+24
  89 003a D2B2     		uxtb	r2, r2
  90 003c EA54     		strb	r2, [r5, r3]
 100:Generated_Source\PSoC4/SPIM_SPI_UART_INT.c ****                 }
  91              		.loc 1 100 0
  92 003e 0B60     		str	r3, [r1]
  93              	.LVL5:
  94              	.L6:
  95              		.loc 1 103 0
  96 0040 0A4B     		ldr	r3, .L17+28
  97 0042 1B68     		ldr	r3, [r3]
  98 0044 0342     		tst	r3, r0
  99 0046 E8D1     		bne	.L12
 104:Generated_Source\PSoC4/SPIM_SPI_UART_INT.c **** 
 105:Generated_Source\PSoC4/SPIM_SPI_UART_INT.c ****             SPIM_ClearRxInterruptSource(SPIM_INTR_RX_NOT_EMPTY);
 100              		.loc 1 105 0
 101 0048 0422     		movs	r2, #4
 102 004a 094B     		ldr	r3, .L17+32
 103 004c 1A60     		str	r2, [r3]
 104              	.L1:
 106:Generated_Source\PSoC4/SPIM_SPI_UART_INT.c ****         }
 107:Generated_Source\PSoC4/SPIM_SPI_UART_INT.c ****     }
 108:Generated_Source\PSoC4/SPIM_SPI_UART_INT.c ****     #endif
 109:Generated_Source\PSoC4/SPIM_SPI_UART_INT.c **** 
 110:Generated_Source\PSoC4/SPIM_SPI_UART_INT.c **** 
 111:Generated_Source\PSoC4/SPIM_SPI_UART_INT.c ****     #if (SPIM_CHECK_TX_SW_BUFFER)
 112:Generated_Source\PSoC4/SPIM_SPI_UART_INT.c ****     {
 113:Generated_Source\PSoC4/SPIM_SPI_UART_INT.c ****         if (SPIM_CHECK_INTR_TX_MASKED(SPIM_INTR_TX_NOT_FULL))
 114:Generated_Source\PSoC4/SPIM_SPI_UART_INT.c ****         {
 115:Generated_Source\PSoC4/SPIM_SPI_UART_INT.c ****             do
ARM GAS  C:\Users\Ala\AppData\Local\Temp\ccdH95XG.s 			page 5


 116:Generated_Source\PSoC4/SPIM_SPI_UART_INT.c ****             {
 117:Generated_Source\PSoC4/SPIM_SPI_UART_INT.c ****                 /* Check for room in TX software buffer */
 118:Generated_Source\PSoC4/SPIM_SPI_UART_INT.c ****                 if (SPIM_txBufferHead != SPIM_txBufferTail)
 119:Generated_Source\PSoC4/SPIM_SPI_UART_INT.c ****                 {
 120:Generated_Source\PSoC4/SPIM_SPI_UART_INT.c ****                     /* Move local tail index */
 121:Generated_Source\PSoC4/SPIM_SPI_UART_INT.c ****                     locTail = (SPIM_txBufferTail + 1u);
 122:Generated_Source\PSoC4/SPIM_SPI_UART_INT.c **** 
 123:Generated_Source\PSoC4/SPIM_SPI_UART_INT.c ****                     /* Adjust local tail index */
 124:Generated_Source\PSoC4/SPIM_SPI_UART_INT.c ****                     if (SPIM_TX_BUFFER_SIZE == locTail)
 125:Generated_Source\PSoC4/SPIM_SPI_UART_INT.c ****                     {
 126:Generated_Source\PSoC4/SPIM_SPI_UART_INT.c ****                         locTail = 0u;
 127:Generated_Source\PSoC4/SPIM_SPI_UART_INT.c ****                     }
 128:Generated_Source\PSoC4/SPIM_SPI_UART_INT.c **** 
 129:Generated_Source\PSoC4/SPIM_SPI_UART_INT.c ****                     /* Put data into TX FIFO */
 130:Generated_Source\PSoC4/SPIM_SPI_UART_INT.c ****                     SPIM_TX_FIFO_WR_REG = SPIM_GetWordFromTxBuffer(locTail);
 131:Generated_Source\PSoC4/SPIM_SPI_UART_INT.c **** 
 132:Generated_Source\PSoC4/SPIM_SPI_UART_INT.c ****                     /* Move tail index */
 133:Generated_Source\PSoC4/SPIM_SPI_UART_INT.c ****                     SPIM_txBufferTail = locTail;
 134:Generated_Source\PSoC4/SPIM_SPI_UART_INT.c ****                 }
 135:Generated_Source\PSoC4/SPIM_SPI_UART_INT.c ****                 else
 136:Generated_Source\PSoC4/SPIM_SPI_UART_INT.c ****                 {
 137:Generated_Source\PSoC4/SPIM_SPI_UART_INT.c ****                     /* TX software buffer is empty: complete transfer */
 138:Generated_Source\PSoC4/SPIM_SPI_UART_INT.c ****                     SPIM_DISABLE_INTR_TX(SPIM_INTR_TX_NOT_FULL);
 139:Generated_Source\PSoC4/SPIM_SPI_UART_INT.c ****                     break;
 140:Generated_Source\PSoC4/SPIM_SPI_UART_INT.c ****                 }
 141:Generated_Source\PSoC4/SPIM_SPI_UART_INT.c ****             }
 142:Generated_Source\PSoC4/SPIM_SPI_UART_INT.c ****             while (SPIM_SPI_UART_FIFO_SIZE != SPIM_GET_TX_FIFO_ENTRIES);
 143:Generated_Source\PSoC4/SPIM_SPI_UART_INT.c **** 
 144:Generated_Source\PSoC4/SPIM_SPI_UART_INT.c ****             SPIM_ClearTxInterruptSource(SPIM_INTR_TX_NOT_FULL);
 145:Generated_Source\PSoC4/SPIM_SPI_UART_INT.c ****         }
 146:Generated_Source\PSoC4/SPIM_SPI_UART_INT.c ****     }
 147:Generated_Source\PSoC4/SPIM_SPI_UART_INT.c ****     #endif
 148:Generated_Source\PSoC4/SPIM_SPI_UART_INT.c **** 
 149:Generated_Source\PSoC4/SPIM_SPI_UART_INT.c **** #ifdef SPIM_SPI_UART_ISR_EXIT_CALLBACK
 150:Generated_Source\PSoC4/SPIM_SPI_UART_INT.c ****     SPIM_SPI_UART_ISR_ExitCallback();
 151:Generated_Source\PSoC4/SPIM_SPI_UART_INT.c **** #endif /* SPIM_SPI_UART_ISR_EXIT_CALLBACK */
 152:Generated_Source\PSoC4/SPIM_SPI_UART_INT.c **** 
 153:Generated_Source\PSoC4/SPIM_SPI_UART_INT.c **** }
 105              		.loc 1 153 0
 106              		@ sp needed
 107 004e 70BD     		pop	{r4, r5, r6, pc}
 108              	.L18:
 109              		.align	2
 110              	.L17:
 111 0050 00000000 		.word	SPIM_customIntrHandler
 112 0054 CC0F0740 		.word	1074204620
 113 0058 00000000 		.word	SPIM_rxBufferHead
 114 005c 00000000 		.word	SPIM_rxBufferTail
 115 0060 40030740 		.word	1074201408
 116 0064 00000000 		.word	SPIM_rxBufferOverflow
 117 0068 00000000 		.word	SPIM_rxBufferInternal
 118 006c 08030740 		.word	1074201352
 119 0070 C00F0740 		.word	1074204608
 120              		.cfi_endproc
 121              	.LFE0:
 122              		.size	SPIM_SPI_UART_ISR, .-SPIM_SPI_UART_ISR
 123              		.text
ARM GAS  C:\Users\Ala\AppData\Local\Temp\ccdH95XG.s 			page 6


 124              	.Letext0:
 125              		.file 2 "Generated_Source\\PSoC4/cytypes.h"
 126              		.file 3 "Generated_Source\\PSoC4\\SPIM_PVT.h"
 127              		.file 4 "Generated_Source\\PSoC4\\SPIM_SPI_UART_PVT.h"