ARM GAS  C:\Users\Ala\AppData\Local\Temp\ccs9JxuM.s 			page 1


   1              		.syntax unified
   2              		.cpu cortex-m0
   3              		.fpu softvfp
   4              		.eabi_attribute 20, 1
   5              		.eabi_attribute 21, 1
   6              		.eabi_attribute 23, 3
   7              		.eabi_attribute 24, 1
   8              		.eabi_attribute 25, 1
   9              		.eabi_attribute 26, 1
  10              		.eabi_attribute 30, 4
  11              		.eabi_attribute 34, 0
  12              		.eabi_attribute 18, 4
  13              		.thumb
  14              		.syntax unified
  15              		.file	"SPIM_SPI.c"
  16              		.text
  17              	.Ltext0:
  18              		.cfi_sections	.debug_frame
  19              		.section	.text.SPIM_SpiPostEnable,"ax",%progbits
  20              		.align	1
  21              		.global	SPIM_SpiPostEnable
  22              		.code	16
  23              		.thumb_func
  24              		.type	SPIM_SpiPostEnable, %function
  25              	SPIM_SpiPostEnable:
  26              	.LFB1:
  27              		.file 1 "Generated_Source\\PSoC4\\SPIM_SPI.c"
   1:Generated_Source\PSoC4/SPIM_SPI.c **** /***************************************************************************//**
   2:Generated_Source\PSoC4/SPIM_SPI.c **** * \file SPIM_SPI.c
   3:Generated_Source\PSoC4/SPIM_SPI.c **** * \version 4.0
   4:Generated_Source\PSoC4/SPIM_SPI.c **** *
   5:Generated_Source\PSoC4/SPIM_SPI.c **** * \brief
   6:Generated_Source\PSoC4/SPIM_SPI.c **** *  This file provides the source code to the API for the SCB Component in
   7:Generated_Source\PSoC4/SPIM_SPI.c **** *  SPI mode.
   8:Generated_Source\PSoC4/SPIM_SPI.c **** *
   9:Generated_Source\PSoC4/SPIM_SPI.c **** * Note:
  10:Generated_Source\PSoC4/SPIM_SPI.c **** *
  11:Generated_Source\PSoC4/SPIM_SPI.c **** *******************************************************************************
  12:Generated_Source\PSoC4/SPIM_SPI.c **** * \copyright
  13:Generated_Source\PSoC4/SPIM_SPI.c **** * Copyright 2013-2017, Cypress Semiconductor Corporation.  All rights reserved.
  14:Generated_Source\PSoC4/SPIM_SPI.c **** * You may use this file only in accordance with the license, terms, conditions,
  15:Generated_Source\PSoC4/SPIM_SPI.c **** * disclaimers, and limitations in the end user license agreement accompanying
  16:Generated_Source\PSoC4/SPIM_SPI.c **** * the software package with which this file was provided.
  17:Generated_Source\PSoC4/SPIM_SPI.c **** *******************************************************************************/
  18:Generated_Source\PSoC4/SPIM_SPI.c **** 
  19:Generated_Source\PSoC4/SPIM_SPI.c **** #include "SPIM_PVT.h"
  20:Generated_Source\PSoC4/SPIM_SPI.c **** #include "SPIM_SPI_UART_PVT.h"
  21:Generated_Source\PSoC4/SPIM_SPI.c **** 
  22:Generated_Source\PSoC4/SPIM_SPI.c **** #if(SPIM_SCB_MODE_UNCONFIG_CONST_CFG)
  23:Generated_Source\PSoC4/SPIM_SPI.c **** 
  24:Generated_Source\PSoC4/SPIM_SPI.c ****     /***************************************
  25:Generated_Source\PSoC4/SPIM_SPI.c ****     *  Configuration Structure Initialization
  26:Generated_Source\PSoC4/SPIM_SPI.c ****     ***************************************/
  27:Generated_Source\PSoC4/SPIM_SPI.c **** 
  28:Generated_Source\PSoC4/SPIM_SPI.c ****     const SPIM_SPI_INIT_STRUCT SPIM_configSpi =
  29:Generated_Source\PSoC4/SPIM_SPI.c ****     {
  30:Generated_Source\PSoC4/SPIM_SPI.c ****         SPIM_SPI_MODE,
ARM GAS  C:\Users\Ala\AppData\Local\Temp\ccs9JxuM.s 			page 2


  31:Generated_Source\PSoC4/SPIM_SPI.c ****         SPIM_SPI_SUB_MODE,
  32:Generated_Source\PSoC4/SPIM_SPI.c ****         SPIM_SPI_CLOCK_MODE,
  33:Generated_Source\PSoC4/SPIM_SPI.c ****         SPIM_SPI_OVS_FACTOR,
  34:Generated_Source\PSoC4/SPIM_SPI.c ****         SPIM_SPI_MEDIAN_FILTER_ENABLE,
  35:Generated_Source\PSoC4/SPIM_SPI.c ****         SPIM_SPI_LATE_MISO_SAMPLE_ENABLE,
  36:Generated_Source\PSoC4/SPIM_SPI.c ****         SPIM_SPI_WAKE_ENABLE,
  37:Generated_Source\PSoC4/SPIM_SPI.c ****         SPIM_SPI_RX_DATA_BITS_NUM,
  38:Generated_Source\PSoC4/SPIM_SPI.c ****         SPIM_SPI_TX_DATA_BITS_NUM,
  39:Generated_Source\PSoC4/SPIM_SPI.c ****         SPIM_SPI_BITS_ORDER,
  40:Generated_Source\PSoC4/SPIM_SPI.c ****         SPIM_SPI_TRANSFER_SEPARATION,
  41:Generated_Source\PSoC4/SPIM_SPI.c ****         0u,
  42:Generated_Source\PSoC4/SPIM_SPI.c ****         NULL,
  43:Generated_Source\PSoC4/SPIM_SPI.c ****         0u,
  44:Generated_Source\PSoC4/SPIM_SPI.c ****         NULL,
  45:Generated_Source\PSoC4/SPIM_SPI.c ****         (uint32) SPIM_SCB_IRQ_INTERNAL,
  46:Generated_Source\PSoC4/SPIM_SPI.c ****         SPIM_SPI_INTR_RX_MASK,
  47:Generated_Source\PSoC4/SPIM_SPI.c ****         SPIM_SPI_RX_TRIGGER_LEVEL,
  48:Generated_Source\PSoC4/SPIM_SPI.c ****         SPIM_SPI_INTR_TX_MASK,
  49:Generated_Source\PSoC4/SPIM_SPI.c ****         SPIM_SPI_TX_TRIGGER_LEVEL,
  50:Generated_Source\PSoC4/SPIM_SPI.c ****         (uint8) SPIM_SPI_BYTE_MODE_ENABLE,
  51:Generated_Source\PSoC4/SPIM_SPI.c ****         (uint8) SPIM_SPI_FREE_RUN_SCLK_ENABLE,
  52:Generated_Source\PSoC4/SPIM_SPI.c ****         (uint8) SPIM_SPI_SS_POLARITY
  53:Generated_Source\PSoC4/SPIM_SPI.c ****     };
  54:Generated_Source\PSoC4/SPIM_SPI.c **** 
  55:Generated_Source\PSoC4/SPIM_SPI.c **** 
  56:Generated_Source\PSoC4/SPIM_SPI.c ****     /*******************************************************************************
  57:Generated_Source\PSoC4/SPIM_SPI.c ****     * Function Name: SPIM_SpiInit
  58:Generated_Source\PSoC4/SPIM_SPI.c ****     ****************************************************************************//**
  59:Generated_Source\PSoC4/SPIM_SPI.c ****     *
  60:Generated_Source\PSoC4/SPIM_SPI.c ****     *  Configures the SPIM for SPI operation.
  61:Generated_Source\PSoC4/SPIM_SPI.c ****     *
  62:Generated_Source\PSoC4/SPIM_SPI.c ****     *  This function is intended specifically to be used when the SPIM 
  63:Generated_Source\PSoC4/SPIM_SPI.c ****     *  configuration is set to “Unconfigured SPIM” in the customizer. 
  64:Generated_Source\PSoC4/SPIM_SPI.c ****     *  After initializing the SPIM in SPI mode using this function, 
  65:Generated_Source\PSoC4/SPIM_SPI.c ****     *  the component can be enabled using the SPIM_Start() or 
  66:Generated_Source\PSoC4/SPIM_SPI.c ****     * SPIM_Enable() function.
  67:Generated_Source\PSoC4/SPIM_SPI.c ****     *  This function uses a pointer to a structure that provides the configuration 
  68:Generated_Source\PSoC4/SPIM_SPI.c ****     *  settings. This structure contains the same information that would otherwise 
  69:Generated_Source\PSoC4/SPIM_SPI.c ****     *  be provided by the customizer settings.
  70:Generated_Source\PSoC4/SPIM_SPI.c ****     *
  71:Generated_Source\PSoC4/SPIM_SPI.c ****     *  \param config: pointer to a structure that contains the following list of 
  72:Generated_Source\PSoC4/SPIM_SPI.c ****     *   fields. These fields match the selections available in the customizer. 
  73:Generated_Source\PSoC4/SPIM_SPI.c ****     *   Refer to the customizer for further description of the settings.
  74:Generated_Source\PSoC4/SPIM_SPI.c ****     *
  75:Generated_Source\PSoC4/SPIM_SPI.c ****     *******************************************************************************/
  76:Generated_Source\PSoC4/SPIM_SPI.c ****     void SPIM_SpiInit(const SPIM_SPI_INIT_STRUCT *config)
  77:Generated_Source\PSoC4/SPIM_SPI.c ****     {
  78:Generated_Source\PSoC4/SPIM_SPI.c ****         if(NULL == config)
  79:Generated_Source\PSoC4/SPIM_SPI.c ****         {
  80:Generated_Source\PSoC4/SPIM_SPI.c ****             CYASSERT(0u != 0u); /* Halt execution due to bad function parameter */
  81:Generated_Source\PSoC4/SPIM_SPI.c ****         }
  82:Generated_Source\PSoC4/SPIM_SPI.c ****         else
  83:Generated_Source\PSoC4/SPIM_SPI.c ****         {
  84:Generated_Source\PSoC4/SPIM_SPI.c ****             /* Configure pins */
  85:Generated_Source\PSoC4/SPIM_SPI.c ****             SPIM_SetPins(SPIM_SCB_MODE_SPI, config->mode, SPIM_DUMMY_PARAM);
  86:Generated_Source\PSoC4/SPIM_SPI.c **** 
  87:Generated_Source\PSoC4/SPIM_SPI.c ****             /* Store internal configuration */
ARM GAS  C:\Users\Ala\AppData\Local\Temp\ccs9JxuM.s 			page 3


  88:Generated_Source\PSoC4/SPIM_SPI.c ****             SPIM_scbMode       = (uint8) SPIM_SCB_MODE_SPI;
  89:Generated_Source\PSoC4/SPIM_SPI.c ****             SPIM_scbEnableWake = (uint8) config->enableWake;
  90:Generated_Source\PSoC4/SPIM_SPI.c ****             SPIM_scbEnableIntr = (uint8) config->enableInterrupt;
  91:Generated_Source\PSoC4/SPIM_SPI.c **** 
  92:Generated_Source\PSoC4/SPIM_SPI.c ****             /* Set RX direction internal variables */
  93:Generated_Source\PSoC4/SPIM_SPI.c ****             SPIM_rxBuffer      =         config->rxBuffer;
  94:Generated_Source\PSoC4/SPIM_SPI.c ****             SPIM_rxDataBits    = (uint8) config->rxDataBits;
  95:Generated_Source\PSoC4/SPIM_SPI.c ****             SPIM_rxBufferSize  =         config->rxBufferSize;
  96:Generated_Source\PSoC4/SPIM_SPI.c **** 
  97:Generated_Source\PSoC4/SPIM_SPI.c ****             /* Set TX direction internal variables */
  98:Generated_Source\PSoC4/SPIM_SPI.c ****             SPIM_txBuffer      =         config->txBuffer;
  99:Generated_Source\PSoC4/SPIM_SPI.c ****             SPIM_txDataBits    = (uint8) config->txDataBits;
 100:Generated_Source\PSoC4/SPIM_SPI.c ****             SPIM_txBufferSize  =         config->txBufferSize;
 101:Generated_Source\PSoC4/SPIM_SPI.c **** 
 102:Generated_Source\PSoC4/SPIM_SPI.c ****             /* Configure SPI interface */
 103:Generated_Source\PSoC4/SPIM_SPI.c ****             SPIM_CTRL_REG     = SPIM_GET_CTRL_OVS(config->oversample)           |
 104:Generated_Source\PSoC4/SPIM_SPI.c ****                                             SPIM_GET_CTRL_BYTE_MODE(config->enableByteMode) |
 105:Generated_Source\PSoC4/SPIM_SPI.c ****                                             SPIM_GET_CTRL_EC_AM_MODE(config->enableWake)    |
 106:Generated_Source\PSoC4/SPIM_SPI.c ****                                             SPIM_CTRL_SPI;
 107:Generated_Source\PSoC4/SPIM_SPI.c **** 
 108:Generated_Source\PSoC4/SPIM_SPI.c ****             SPIM_SPI_CTRL_REG = SPIM_GET_SPI_CTRL_CONTINUOUS    (config->transferSeperation)  |
 109:Generated_Source\PSoC4/SPIM_SPI.c ****                                             SPIM_GET_SPI_CTRL_SELECT_PRECEDE(config->submode &
 110:Generated_Source\PSoC4/SPIM_SPI.c ****                                                                           SPIM_SPI_MODE_TI_PRECEDES
 111:Generated_Source\PSoC4/SPIM_SPI.c ****                                             SPIM_GET_SPI_CTRL_SCLK_MODE     (config->sclkMode)     
 112:Generated_Source\PSoC4/SPIM_SPI.c ****                                             SPIM_GET_SPI_CTRL_LATE_MISO_SAMPLE(config->enableLateSa
 113:Generated_Source\PSoC4/SPIM_SPI.c ****                                             SPIM_GET_SPI_CTRL_SCLK_CONTINUOUS(config->enableFreeRun
 114:Generated_Source\PSoC4/SPIM_SPI.c ****                                             SPIM_GET_SPI_CTRL_SSEL_POLARITY (config->polaritySs)   
 115:Generated_Source\PSoC4/SPIM_SPI.c ****                                             SPIM_GET_SPI_CTRL_SUB_MODE      (config->submode)      
 116:Generated_Source\PSoC4/SPIM_SPI.c ****                                             SPIM_GET_SPI_CTRL_MASTER_MODE   (config->mode);
 117:Generated_Source\PSoC4/SPIM_SPI.c **** 
 118:Generated_Source\PSoC4/SPIM_SPI.c ****             /* Configure RX direction */
 119:Generated_Source\PSoC4/SPIM_SPI.c ****             SPIM_RX_CTRL_REG     =  SPIM_GET_RX_CTRL_DATA_WIDTH(config->rxDataBits)         |
 120:Generated_Source\PSoC4/SPIM_SPI.c ****                                                 SPIM_GET_RX_CTRL_BIT_ORDER (config->bitOrder)      
 121:Generated_Source\PSoC4/SPIM_SPI.c ****                                                 SPIM_GET_RX_CTRL_MEDIAN    (config->enableMedianFil
 122:Generated_Source\PSoC4/SPIM_SPI.c ****                                                 SPIM_SPI_RX_CTRL;
 123:Generated_Source\PSoC4/SPIM_SPI.c **** 
 124:Generated_Source\PSoC4/SPIM_SPI.c ****             SPIM_RX_FIFO_CTRL_REG = SPIM_GET_RX_FIFO_CTRL_TRIGGER_LEVEL(config->rxTriggerLevel);
 125:Generated_Source\PSoC4/SPIM_SPI.c **** 
 126:Generated_Source\PSoC4/SPIM_SPI.c ****             /* Configure TX direction */
 127:Generated_Source\PSoC4/SPIM_SPI.c ****             SPIM_TX_CTRL_REG      = SPIM_GET_TX_CTRL_DATA_WIDTH(config->txDataBits) |
 128:Generated_Source\PSoC4/SPIM_SPI.c ****                                                 SPIM_GET_TX_CTRL_BIT_ORDER (config->bitOrder)   |
 129:Generated_Source\PSoC4/SPIM_SPI.c ****                                                 SPIM_SPI_TX_CTRL;
 130:Generated_Source\PSoC4/SPIM_SPI.c **** 
 131:Generated_Source\PSoC4/SPIM_SPI.c ****             SPIM_TX_FIFO_CTRL_REG = SPIM_GET_TX_FIFO_CTRL_TRIGGER_LEVEL(config->txTriggerLevel);
 132:Generated_Source\PSoC4/SPIM_SPI.c **** 
 133:Generated_Source\PSoC4/SPIM_SPI.c ****             /* Configure interrupt with SPI handler but do not enable it */
 134:Generated_Source\PSoC4/SPIM_SPI.c ****             CyIntDisable    (SPIM_ISR_NUMBER);
 135:Generated_Source\PSoC4/SPIM_SPI.c ****             CyIntSetPriority(SPIM_ISR_NUMBER, SPIM_ISR_PRIORITY);
 136:Generated_Source\PSoC4/SPIM_SPI.c ****             (void) CyIntSetVector(SPIM_ISR_NUMBER, &SPIM_SPI_UART_ISR);
 137:Generated_Source\PSoC4/SPIM_SPI.c **** 
 138:Generated_Source\PSoC4/SPIM_SPI.c ****             /* Configure interrupt sources */
 139:Generated_Source\PSoC4/SPIM_SPI.c ****             SPIM_INTR_I2C_EC_MASK_REG = SPIM_NO_INTR_SOURCES;
 140:Generated_Source\PSoC4/SPIM_SPI.c ****             SPIM_INTR_SPI_EC_MASK_REG = SPIM_NO_INTR_SOURCES;
 141:Generated_Source\PSoC4/SPIM_SPI.c ****             SPIM_INTR_SLAVE_MASK_REG  = SPIM_GET_SPI_INTR_SLAVE_MASK(config->rxInterruptMask);
 142:Generated_Source\PSoC4/SPIM_SPI.c ****             SPIM_INTR_MASTER_MASK_REG = SPIM_GET_SPI_INTR_MASTER_MASK(config->txInterruptMask);
 143:Generated_Source\PSoC4/SPIM_SPI.c ****             SPIM_INTR_RX_MASK_REG     = SPIM_GET_SPI_INTR_RX_MASK(config->rxInterruptMask);
 144:Generated_Source\PSoC4/SPIM_SPI.c ****             SPIM_INTR_TX_MASK_REG     = SPIM_GET_SPI_INTR_TX_MASK(config->txInterruptMask);
ARM GAS  C:\Users\Ala\AppData\Local\Temp\ccs9JxuM.s 			page 4


 145:Generated_Source\PSoC4/SPIM_SPI.c ****             
 146:Generated_Source\PSoC4/SPIM_SPI.c ****             /* Configure TX interrupt sources to restore. */
 147:Generated_Source\PSoC4/SPIM_SPI.c ****             SPIM_IntrTxMask = LO16(SPIM_INTR_TX_MASK_REG);
 148:Generated_Source\PSoC4/SPIM_SPI.c **** 
 149:Generated_Source\PSoC4/SPIM_SPI.c ****             /* Set active SS0 */
 150:Generated_Source\PSoC4/SPIM_SPI.c ****             SPIM_SpiSetActiveSlaveSelect(SPIM_SPI_SLAVE_SELECT0);
 151:Generated_Source\PSoC4/SPIM_SPI.c **** 
 152:Generated_Source\PSoC4/SPIM_SPI.c ****             /* Clear RX buffer indexes */
 153:Generated_Source\PSoC4/SPIM_SPI.c ****             SPIM_rxBufferHead     = 0u;
 154:Generated_Source\PSoC4/SPIM_SPI.c ****             SPIM_rxBufferTail     = 0u;
 155:Generated_Source\PSoC4/SPIM_SPI.c ****             SPIM_rxBufferOverflow = 0u;
 156:Generated_Source\PSoC4/SPIM_SPI.c **** 
 157:Generated_Source\PSoC4/SPIM_SPI.c ****             /* Clear TX buffer indexes */
 158:Generated_Source\PSoC4/SPIM_SPI.c ****             SPIM_txBufferHead = 0u;
 159:Generated_Source\PSoC4/SPIM_SPI.c ****             SPIM_txBufferTail = 0u;
 160:Generated_Source\PSoC4/SPIM_SPI.c ****         }
 161:Generated_Source\PSoC4/SPIM_SPI.c ****     }
 162:Generated_Source\PSoC4/SPIM_SPI.c **** 
 163:Generated_Source\PSoC4/SPIM_SPI.c **** #else
 164:Generated_Source\PSoC4/SPIM_SPI.c **** 
 165:Generated_Source\PSoC4/SPIM_SPI.c ****     /*******************************************************************************
 166:Generated_Source\PSoC4/SPIM_SPI.c ****     * Function Name: SPIM_SpiInit
 167:Generated_Source\PSoC4/SPIM_SPI.c ****     ****************************************************************************//**
 168:Generated_Source\PSoC4/SPIM_SPI.c ****     *
 169:Generated_Source\PSoC4/SPIM_SPI.c ****     *  Configures the SCB for the SPI operation.
 170:Generated_Source\PSoC4/SPIM_SPI.c ****     *
 171:Generated_Source\PSoC4/SPIM_SPI.c ****     *******************************************************************************/
 172:Generated_Source\PSoC4/SPIM_SPI.c ****     void SPIM_SpiInit(void)
 173:Generated_Source\PSoC4/SPIM_SPI.c ****     {
 174:Generated_Source\PSoC4/SPIM_SPI.c ****         /* Configure SPI interface */
 175:Generated_Source\PSoC4/SPIM_SPI.c ****         SPIM_CTRL_REG     = SPIM_SPI_DEFAULT_CTRL;
 176:Generated_Source\PSoC4/SPIM_SPI.c ****         SPIM_SPI_CTRL_REG = SPIM_SPI_DEFAULT_SPI_CTRL;
 177:Generated_Source\PSoC4/SPIM_SPI.c **** 
 178:Generated_Source\PSoC4/SPIM_SPI.c ****         /* Configure TX and RX direction */
 179:Generated_Source\PSoC4/SPIM_SPI.c ****         SPIM_RX_CTRL_REG      = SPIM_SPI_DEFAULT_RX_CTRL;
 180:Generated_Source\PSoC4/SPIM_SPI.c ****         SPIM_RX_FIFO_CTRL_REG = SPIM_SPI_DEFAULT_RX_FIFO_CTRL;
 181:Generated_Source\PSoC4/SPIM_SPI.c **** 
 182:Generated_Source\PSoC4/SPIM_SPI.c ****         /* Configure TX and RX direction */
 183:Generated_Source\PSoC4/SPIM_SPI.c ****         SPIM_TX_CTRL_REG      = SPIM_SPI_DEFAULT_TX_CTRL;
 184:Generated_Source\PSoC4/SPIM_SPI.c ****         SPIM_TX_FIFO_CTRL_REG = SPIM_SPI_DEFAULT_TX_FIFO_CTRL;
 185:Generated_Source\PSoC4/SPIM_SPI.c **** 
 186:Generated_Source\PSoC4/SPIM_SPI.c ****         /* Configure interrupt with SPI handler but do not enable it */
 187:Generated_Source\PSoC4/SPIM_SPI.c ****     #if(SPIM_SCB_IRQ_INTERNAL)
 188:Generated_Source\PSoC4/SPIM_SPI.c ****             CyIntDisable    (SPIM_ISR_NUMBER);
 189:Generated_Source\PSoC4/SPIM_SPI.c ****             CyIntSetPriority(SPIM_ISR_NUMBER, SPIM_ISR_PRIORITY);
 190:Generated_Source\PSoC4/SPIM_SPI.c ****             (void) CyIntSetVector(SPIM_ISR_NUMBER, &SPIM_SPI_UART_ISR);
 191:Generated_Source\PSoC4/SPIM_SPI.c ****     #endif /* (SPIM_SCB_IRQ_INTERNAL) */
 192:Generated_Source\PSoC4/SPIM_SPI.c **** 
 193:Generated_Source\PSoC4/SPIM_SPI.c ****         /* Configure interrupt sources */
 194:Generated_Source\PSoC4/SPIM_SPI.c ****         SPIM_INTR_I2C_EC_MASK_REG = SPIM_SPI_DEFAULT_INTR_I2C_EC_MASK;
 195:Generated_Source\PSoC4/SPIM_SPI.c ****         SPIM_INTR_SPI_EC_MASK_REG = SPIM_SPI_DEFAULT_INTR_SPI_EC_MASK;
 196:Generated_Source\PSoC4/SPIM_SPI.c ****         SPIM_INTR_SLAVE_MASK_REG  = SPIM_SPI_DEFAULT_INTR_SLAVE_MASK;
 197:Generated_Source\PSoC4/SPIM_SPI.c ****         SPIM_INTR_MASTER_MASK_REG = SPIM_SPI_DEFAULT_INTR_MASTER_MASK;
 198:Generated_Source\PSoC4/SPIM_SPI.c ****         SPIM_INTR_RX_MASK_REG     = SPIM_SPI_DEFAULT_INTR_RX_MASK;
 199:Generated_Source\PSoC4/SPIM_SPI.c ****         SPIM_INTR_TX_MASK_REG     = SPIM_SPI_DEFAULT_INTR_TX_MASK;
 200:Generated_Source\PSoC4/SPIM_SPI.c **** 
 201:Generated_Source\PSoC4/SPIM_SPI.c ****         /* Configure TX interrupt sources to restore. */
ARM GAS  C:\Users\Ala\AppData\Local\Temp\ccs9JxuM.s 			page 5


 202:Generated_Source\PSoC4/SPIM_SPI.c ****         SPIM_IntrTxMask = LO16(SPIM_INTR_TX_MASK_REG);
 203:Generated_Source\PSoC4/SPIM_SPI.c ****             
 204:Generated_Source\PSoC4/SPIM_SPI.c ****         /* Set active SS0 for master */
 205:Generated_Source\PSoC4/SPIM_SPI.c ****     #if (SPIM_SPI_MASTER_CONST)
 206:Generated_Source\PSoC4/SPIM_SPI.c ****         SPIM_SpiSetActiveSlaveSelect(SPIM_SPI_SLAVE_SELECT0);
 207:Generated_Source\PSoC4/SPIM_SPI.c ****     #endif /* (SPIM_SPI_MASTER_CONST) */
 208:Generated_Source\PSoC4/SPIM_SPI.c **** 
 209:Generated_Source\PSoC4/SPIM_SPI.c ****     #if(SPIM_INTERNAL_RX_SW_BUFFER_CONST)
 210:Generated_Source\PSoC4/SPIM_SPI.c ****         SPIM_rxBufferHead     = 0u;
 211:Generated_Source\PSoC4/SPIM_SPI.c ****         SPIM_rxBufferTail     = 0u;
 212:Generated_Source\PSoC4/SPIM_SPI.c ****         SPIM_rxBufferOverflow = 0u;
 213:Generated_Source\PSoC4/SPIM_SPI.c ****     #endif /* (SPIM_INTERNAL_RX_SW_BUFFER_CONST) */
 214:Generated_Source\PSoC4/SPIM_SPI.c **** 
 215:Generated_Source\PSoC4/SPIM_SPI.c ****     #if(SPIM_INTERNAL_TX_SW_BUFFER_CONST)
 216:Generated_Source\PSoC4/SPIM_SPI.c ****         SPIM_txBufferHead = 0u;
 217:Generated_Source\PSoC4/SPIM_SPI.c ****         SPIM_txBufferTail = 0u;
 218:Generated_Source\PSoC4/SPIM_SPI.c ****     #endif /* (SPIM_INTERNAL_TX_SW_BUFFER_CONST) */
 219:Generated_Source\PSoC4/SPIM_SPI.c ****     }
 220:Generated_Source\PSoC4/SPIM_SPI.c **** #endif /* (SPIM_SCB_MODE_UNCONFIG_CONST_CFG) */
 221:Generated_Source\PSoC4/SPIM_SPI.c **** 
 222:Generated_Source\PSoC4/SPIM_SPI.c **** 
 223:Generated_Source\PSoC4/SPIM_SPI.c **** /*******************************************************************************
 224:Generated_Source\PSoC4/SPIM_SPI.c **** * Function Name: SPIM_SpiPostEnable
 225:Generated_Source\PSoC4/SPIM_SPI.c **** ****************************************************************************//**
 226:Generated_Source\PSoC4/SPIM_SPI.c **** *
 227:Generated_Source\PSoC4/SPIM_SPI.c **** *  Restores HSIOM settings for the SPI master output pins (SCLK and/or SS0-SS3) 
 228:Generated_Source\PSoC4/SPIM_SPI.c **** *  to be controlled by the SCB SPI.
 229:Generated_Source\PSoC4/SPIM_SPI.c **** *
 230:Generated_Source\PSoC4/SPIM_SPI.c **** *******************************************************************************/
 231:Generated_Source\PSoC4/SPIM_SPI.c **** void SPIM_SpiPostEnable(void)
 232:Generated_Source\PSoC4/SPIM_SPI.c **** {
  28              		.loc 1 232 0
  29              		.cfi_startproc
  30              		@ args = 0, pretend = 0, frame = 0
  31              		@ frame_needed = 0, uses_anonymous_args = 0
  32              		@ link register save eliminated.
 233:Generated_Source\PSoC4/SPIM_SPI.c **** #if(SPIM_SCB_MODE_UNCONFIG_CONST_CFG)
 234:Generated_Source\PSoC4/SPIM_SPI.c **** 
 235:Generated_Source\PSoC4/SPIM_SPI.c ****     if (SPIM_CHECK_SPI_MASTER)
 236:Generated_Source\PSoC4/SPIM_SPI.c ****     {
 237:Generated_Source\PSoC4/SPIM_SPI.c ****     #if (SPIM_SCLK_PIN)
 238:Generated_Source\PSoC4/SPIM_SPI.c ****         /* Set SCB SPI to drive output pin */
 239:Generated_Source\PSoC4/SPIM_SPI.c ****         SPIM_SET_HSIOM_SEL(SPIM_SCLK_HSIOM_REG, SPIM_SCLK_HSIOM_MASK,
 240:Generated_Source\PSoC4/SPIM_SPI.c ****                                        SPIM_SCLK_HSIOM_POS, SPIM_SCLK_HSIOM_SEL_SPI);
 241:Generated_Source\PSoC4/SPIM_SPI.c ****     #endif /* (SPIM_SCLK_PIN) */
 242:Generated_Source\PSoC4/SPIM_SPI.c **** 
 243:Generated_Source\PSoC4/SPIM_SPI.c ****     #if (SPIM_SS0_PIN)
 244:Generated_Source\PSoC4/SPIM_SPI.c ****         /* Set SCB SPI to drive output pin */
 245:Generated_Source\PSoC4/SPIM_SPI.c ****         SPIM_SET_HSIOM_SEL(SPIM_SS0_HSIOM_REG, SPIM_SS0_HSIOM_MASK,
 246:Generated_Source\PSoC4/SPIM_SPI.c ****                                        SPIM_SS0_HSIOM_POS, SPIM_SS0_HSIOM_SEL_SPI);
 247:Generated_Source\PSoC4/SPIM_SPI.c ****     #endif /* (SPIM_SS0_PIN) */
 248:Generated_Source\PSoC4/SPIM_SPI.c **** 
 249:Generated_Source\PSoC4/SPIM_SPI.c ****     #if (SPIM_SS1_PIN)
 250:Generated_Source\PSoC4/SPIM_SPI.c ****         /* Set SCB SPI to drive output pin */
 251:Generated_Source\PSoC4/SPIM_SPI.c ****         SPIM_SET_HSIOM_SEL(SPIM_SS1_HSIOM_REG, SPIM_SS1_HSIOM_MASK,
 252:Generated_Source\PSoC4/SPIM_SPI.c ****                                        SPIM_SS1_HSIOM_POS, SPIM_SS1_HSIOM_SEL_SPI);
 253:Generated_Source\PSoC4/SPIM_SPI.c ****     #endif /* (SPIM_SS1_PIN) */
ARM GAS  C:\Users\Ala\AppData\Local\Temp\ccs9JxuM.s 			page 6


 254:Generated_Source\PSoC4/SPIM_SPI.c **** 
 255:Generated_Source\PSoC4/SPIM_SPI.c ****     #if (SPIM_SS2_PIN)
 256:Generated_Source\PSoC4/SPIM_SPI.c ****         /* Set SCB SPI to drive output pin */
 257:Generated_Source\PSoC4/SPIM_SPI.c ****         SPIM_SET_HSIOM_SEL(SPIM_SS2_HSIOM_REG, SPIM_SS2_HSIOM_MASK,
 258:Generated_Source\PSoC4/SPIM_SPI.c ****                                        SPIM_SS2_HSIOM_POS, SPIM_SS2_HSIOM_SEL_SPI);
 259:Generated_Source\PSoC4/SPIM_SPI.c ****     #endif /* (SPIM_SS2_PIN) */
 260:Generated_Source\PSoC4/SPIM_SPI.c **** 
 261:Generated_Source\PSoC4/SPIM_SPI.c ****     #if (SPIM_SS3_PIN)
 262:Generated_Source\PSoC4/SPIM_SPI.c ****         /* Set SCB SPI to drive output pin */
 263:Generated_Source\PSoC4/SPIM_SPI.c ****         SPIM_SET_HSIOM_SEL(SPIM_SS3_HSIOM_REG, SPIM_SS3_HSIOM_MASK,
 264:Generated_Source\PSoC4/SPIM_SPI.c ****                                        SPIM_SS3_HSIOM_POS, SPIM_SS3_HSIOM_SEL_SPI);
 265:Generated_Source\PSoC4/SPIM_SPI.c ****     #endif /* (SPIM_SS3_PIN) */
 266:Generated_Source\PSoC4/SPIM_SPI.c ****     }
 267:Generated_Source\PSoC4/SPIM_SPI.c **** 
 268:Generated_Source\PSoC4/SPIM_SPI.c **** #else
 269:Generated_Source\PSoC4/SPIM_SPI.c **** 
 270:Generated_Source\PSoC4/SPIM_SPI.c ****     #if (SPIM_SPI_MASTER_SCLK_PIN)
 271:Generated_Source\PSoC4/SPIM_SPI.c ****         /* Set SCB SPI to drive output pin */
 272:Generated_Source\PSoC4/SPIM_SPI.c ****         SPIM_SET_HSIOM_SEL(SPIM_SCLK_M_HSIOM_REG, SPIM_SCLK_M_HSIOM_MASK,
 273:Generated_Source\PSoC4/SPIM_SPI.c ****                                        SPIM_SCLK_M_HSIOM_POS, SPIM_SCLK_M_HSIOM_SEL_SPI);
 274:Generated_Source\PSoC4/SPIM_SPI.c ****     #endif /* (SPIM_MISO_SDA_TX_PIN_PIN) */
 275:Generated_Source\PSoC4/SPIM_SPI.c **** 
 276:Generated_Source\PSoC4/SPIM_SPI.c ****     #if (SPIM_SPI_MASTER_SS0_PIN)
 277:Generated_Source\PSoC4/SPIM_SPI.c ****         /* Set SCB SPI to drive output pin */
 278:Generated_Source\PSoC4/SPIM_SPI.c ****         SPIM_SET_HSIOM_SEL(SPIM_SS0_M_HSIOM_REG, SPIM_SS0_M_HSIOM_MASK,
 279:Generated_Source\PSoC4/SPIM_SPI.c ****                                        SPIM_SS0_M_HSIOM_POS, SPIM_SS0_M_HSIOM_SEL_SPI);
 280:Generated_Source\PSoC4/SPIM_SPI.c ****     #endif /* (SPIM_SPI_MASTER_SS0_PIN) */
 281:Generated_Source\PSoC4/SPIM_SPI.c **** 
 282:Generated_Source\PSoC4/SPIM_SPI.c ****     #if (SPIM_SPI_MASTER_SS1_PIN)
 283:Generated_Source\PSoC4/SPIM_SPI.c ****         /* Set SCB SPI to drive output pin */
 284:Generated_Source\PSoC4/SPIM_SPI.c ****         SPIM_SET_HSIOM_SEL(SPIM_SS1_M_HSIOM_REG, SPIM_SS1_M_HSIOM_MASK,
 285:Generated_Source\PSoC4/SPIM_SPI.c ****                                        SPIM_SS1_M_HSIOM_POS, SPIM_SS1_M_HSIOM_SEL_SPI);
 286:Generated_Source\PSoC4/SPIM_SPI.c ****     #endif /* (SPIM_SPI_MASTER_SS1_PIN) */
 287:Generated_Source\PSoC4/SPIM_SPI.c **** 
 288:Generated_Source\PSoC4/SPIM_SPI.c ****     #if (SPIM_SPI_MASTER_SS2_PIN)
 289:Generated_Source\PSoC4/SPIM_SPI.c ****         /* Set SCB SPI to drive output pin */
 290:Generated_Source\PSoC4/SPIM_SPI.c ****         SPIM_SET_HSIOM_SEL(SPIM_SS2_M_HSIOM_REG, SPIM_SS2_M_HSIOM_MASK,
 291:Generated_Source\PSoC4/SPIM_SPI.c ****                                        SPIM_SS2_M_HSIOM_POS, SPIM_SS2_M_HSIOM_SEL_SPI);
 292:Generated_Source\PSoC4/SPIM_SPI.c ****     #endif /* (SPIM_SPI_MASTER_SS2_PIN) */
 293:Generated_Source\PSoC4/SPIM_SPI.c **** 
 294:Generated_Source\PSoC4/SPIM_SPI.c ****     #if (SPIM_SPI_MASTER_SS3_PIN)
 295:Generated_Source\PSoC4/SPIM_SPI.c ****         /* Set SCB SPI to drive output pin */
 296:Generated_Source\PSoC4/SPIM_SPI.c ****         SPIM_SET_HSIOM_SEL(SPIM_SS3_M_HSIOM_REG, SPIM_SS3_M_HSIOM_MASK,
 297:Generated_Source\PSoC4/SPIM_SPI.c ****                                        SPIM_SS3_M_HSIOM_POS, SPIM_SS3_M_HSIOM_SEL_SPI);
 298:Generated_Source\PSoC4/SPIM_SPI.c ****     #endif /* (SPIM_SPI_MASTER_SS3_PIN) */
 299:Generated_Source\PSoC4/SPIM_SPI.c **** 
 300:Generated_Source\PSoC4/SPIM_SPI.c **** #endif /* (SPIM_SCB_MODE_UNCONFIG_CONST_CFG) */
 301:Generated_Source\PSoC4/SPIM_SPI.c **** 
 302:Generated_Source\PSoC4/SPIM_SPI.c ****     /* Restore TX interrupt sources. */
 303:Generated_Source\PSoC4/SPIM_SPI.c ****     SPIM_SetTxInterruptMode(SPIM_IntrTxMask);
  33              		.loc 1 303 0
  34 0000 024B     		ldr	r3, .L2
 304:Generated_Source\PSoC4/SPIM_SPI.c **** }
  35              		.loc 1 304 0
  36              		@ sp needed
 303:Generated_Source\PSoC4/SPIM_SPI.c **** }
  37              		.loc 1 303 0
ARM GAS  C:\Users\Ala\AppData\Local\Temp\ccs9JxuM.s 			page 7


  38 0002 1A88     		ldrh	r2, [r3]
  39 0004 024B     		ldr	r3, .L2+4
  40 0006 1A60     		str	r2, [r3]
  41              		.loc 1 304 0
  42 0008 7047     		bx	lr
  43              	.L3:
  44 000a C046     		.align	2
  45              	.L2:
  46 000c 00000000 		.word	SPIM_IntrTxMask
  47 0010 880F0740 		.word	1074204552
  48              		.cfi_endproc
  49              	.LFE1:
  50              		.size	SPIM_SpiPostEnable, .-SPIM_SpiPostEnable
  51              		.section	.text.SPIM_SpiStop,"ax",%progbits
  52              		.align	1
  53              		.global	SPIM_SpiStop
  54              		.code	16
  55              		.thumb_func
  56              		.type	SPIM_SpiStop, %function
  57              	SPIM_SpiStop:
  58              	.LFB2:
 305:Generated_Source\PSoC4/SPIM_SPI.c **** 
 306:Generated_Source\PSoC4/SPIM_SPI.c **** 
 307:Generated_Source\PSoC4/SPIM_SPI.c **** /*******************************************************************************
 308:Generated_Source\PSoC4/SPIM_SPI.c **** * Function Name: SPIM_SpiStop
 309:Generated_Source\PSoC4/SPIM_SPI.c **** ****************************************************************************//**
 310:Generated_Source\PSoC4/SPIM_SPI.c **** *
 311:Generated_Source\PSoC4/SPIM_SPI.c **** *  Changes the HSIOM settings for the SPI master output pins 
 312:Generated_Source\PSoC4/SPIM_SPI.c **** *  (SCLK and/or SS0-SS3) to keep them inactive after the block is disabled. 
 313:Generated_Source\PSoC4/SPIM_SPI.c **** *  The output pins are controlled by the GPIO data register.
 314:Generated_Source\PSoC4/SPIM_SPI.c **** *
 315:Generated_Source\PSoC4/SPIM_SPI.c **** *******************************************************************************/
 316:Generated_Source\PSoC4/SPIM_SPI.c **** void SPIM_SpiStop(void)
 317:Generated_Source\PSoC4/SPIM_SPI.c **** {
  59              		.loc 1 317 0
  60              		.cfi_startproc
  61              		@ args = 0, pretend = 0, frame = 0
  62              		@ frame_needed = 0, uses_anonymous_args = 0
  63              		@ link register save eliminated.
 318:Generated_Source\PSoC4/SPIM_SPI.c **** #if(SPIM_SCB_MODE_UNCONFIG_CONST_CFG)
 319:Generated_Source\PSoC4/SPIM_SPI.c **** 
 320:Generated_Source\PSoC4/SPIM_SPI.c ****     if (SPIM_CHECK_SPI_MASTER)
 321:Generated_Source\PSoC4/SPIM_SPI.c ****     {
 322:Generated_Source\PSoC4/SPIM_SPI.c ****     #if (SPIM_SCLK_PIN)
 323:Generated_Source\PSoC4/SPIM_SPI.c ****         /* Set output pin state after block is disabled */
 324:Generated_Source\PSoC4/SPIM_SPI.c ****         SPIM_spi_sclk_Write(SPIM_GET_SPI_SCLK_INACTIVE);
 325:Generated_Source\PSoC4/SPIM_SPI.c **** 
 326:Generated_Source\PSoC4/SPIM_SPI.c ****         /* Set GPIO to drive output pin */
 327:Generated_Source\PSoC4/SPIM_SPI.c ****         SPIM_SET_HSIOM_SEL(SPIM_SCLK_HSIOM_REG, SPIM_SCLK_HSIOM_MASK,
 328:Generated_Source\PSoC4/SPIM_SPI.c ****                                        SPIM_SCLK_HSIOM_POS, SPIM_SCLK_HSIOM_SEL_GPIO);
 329:Generated_Source\PSoC4/SPIM_SPI.c ****     #endif /* (SPIM_spi_sclk_PIN) */
 330:Generated_Source\PSoC4/SPIM_SPI.c **** 
 331:Generated_Source\PSoC4/SPIM_SPI.c ****     #if (SPIM_SS0_PIN)
 332:Generated_Source\PSoC4/SPIM_SPI.c ****         /* Set output pin state after block is disabled */
 333:Generated_Source\PSoC4/SPIM_SPI.c ****         SPIM_spi_ss0_Write(SPIM_GET_SPI_SS0_INACTIVE);
 334:Generated_Source\PSoC4/SPIM_SPI.c **** 
 335:Generated_Source\PSoC4/SPIM_SPI.c ****         /* Set GPIO to drive output pin */
ARM GAS  C:\Users\Ala\AppData\Local\Temp\ccs9JxuM.s 			page 8


 336:Generated_Source\PSoC4/SPIM_SPI.c ****         SPIM_SET_HSIOM_SEL(SPIM_SS0_HSIOM_REG, SPIM_SS0_HSIOM_MASK,
 337:Generated_Source\PSoC4/SPIM_SPI.c ****                                        SPIM_SS0_HSIOM_POS, SPIM_SS0_HSIOM_SEL_GPIO);
 338:Generated_Source\PSoC4/SPIM_SPI.c ****     #endif /* (SPIM_spi_ss0_PIN) */
 339:Generated_Source\PSoC4/SPIM_SPI.c **** 
 340:Generated_Source\PSoC4/SPIM_SPI.c ****     #if (SPIM_SS1_PIN)
 341:Generated_Source\PSoC4/SPIM_SPI.c ****         /* Set output pin state after block is disabled */
 342:Generated_Source\PSoC4/SPIM_SPI.c ****         SPIM_spi_ss1_Write(SPIM_GET_SPI_SS1_INACTIVE);
 343:Generated_Source\PSoC4/SPIM_SPI.c **** 
 344:Generated_Source\PSoC4/SPIM_SPI.c ****         /* Set GPIO to drive output pin */
 345:Generated_Source\PSoC4/SPIM_SPI.c ****         SPIM_SET_HSIOM_SEL(SPIM_SS1_HSIOM_REG, SPIM_SS1_HSIOM_MASK,
 346:Generated_Source\PSoC4/SPIM_SPI.c ****                                        SPIM_SS1_HSIOM_POS, SPIM_SS1_HSIOM_SEL_GPIO);
 347:Generated_Source\PSoC4/SPIM_SPI.c ****     #endif /* (SPIM_SS1_PIN) */
 348:Generated_Source\PSoC4/SPIM_SPI.c **** 
 349:Generated_Source\PSoC4/SPIM_SPI.c ****     #if (SPIM_SS2_PIN)
 350:Generated_Source\PSoC4/SPIM_SPI.c ****         /* Set output pin state after block is disabled */
 351:Generated_Source\PSoC4/SPIM_SPI.c ****         SPIM_spi_ss2_Write(SPIM_GET_SPI_SS2_INACTIVE);
 352:Generated_Source\PSoC4/SPIM_SPI.c **** 
 353:Generated_Source\PSoC4/SPIM_SPI.c ****         /* Set GPIO to drive output pin */
 354:Generated_Source\PSoC4/SPIM_SPI.c ****         SPIM_SET_HSIOM_SEL(SPIM_SS2_HSIOM_REG, SPIM_SS2_HSIOM_MASK,
 355:Generated_Source\PSoC4/SPIM_SPI.c ****                                        SPIM_SS2_HSIOM_POS, SPIM_SS2_HSIOM_SEL_GPIO);
 356:Generated_Source\PSoC4/SPIM_SPI.c ****     #endif /* (SPIM_SS2_PIN) */
 357:Generated_Source\PSoC4/SPIM_SPI.c **** 
 358:Generated_Source\PSoC4/SPIM_SPI.c ****     #if (SPIM_SS3_PIN)
 359:Generated_Source\PSoC4/SPIM_SPI.c ****         /* Set output pin state after block is disabled */
 360:Generated_Source\PSoC4/SPIM_SPI.c ****         SPIM_spi_ss3_Write(SPIM_GET_SPI_SS3_INACTIVE);
 361:Generated_Source\PSoC4/SPIM_SPI.c **** 
 362:Generated_Source\PSoC4/SPIM_SPI.c ****         /* Set GPIO to drive output pin */
 363:Generated_Source\PSoC4/SPIM_SPI.c ****         SPIM_SET_HSIOM_SEL(SPIM_SS3_HSIOM_REG, SPIM_SS3_HSIOM_MASK,
 364:Generated_Source\PSoC4/SPIM_SPI.c ****                                        SPIM_SS3_HSIOM_POS, SPIM_SS3_HSIOM_SEL_GPIO);
 365:Generated_Source\PSoC4/SPIM_SPI.c ****     #endif /* (SPIM_SS3_PIN) */
 366:Generated_Source\PSoC4/SPIM_SPI.c ****     
 367:Generated_Source\PSoC4/SPIM_SPI.c ****         /* Store TX interrupt sources (exclude level triggered) for master. */
 368:Generated_Source\PSoC4/SPIM_SPI.c ****         SPIM_IntrTxMask = LO16(SPIM_GetTxInterruptMode() & SPIM_INTR_SPIM_TX_RESTORE);
 369:Generated_Source\PSoC4/SPIM_SPI.c ****     }
 370:Generated_Source\PSoC4/SPIM_SPI.c ****     else
 371:Generated_Source\PSoC4/SPIM_SPI.c ****     {
 372:Generated_Source\PSoC4/SPIM_SPI.c ****         /* Store TX interrupt sources (exclude level triggered) for slave. */
 373:Generated_Source\PSoC4/SPIM_SPI.c ****         SPIM_IntrTxMask = LO16(SPIM_GetTxInterruptMode() & SPIM_INTR_SPIS_TX_RESTORE);
 374:Generated_Source\PSoC4/SPIM_SPI.c ****     }
 375:Generated_Source\PSoC4/SPIM_SPI.c **** 
 376:Generated_Source\PSoC4/SPIM_SPI.c **** #else
 377:Generated_Source\PSoC4/SPIM_SPI.c **** 
 378:Generated_Source\PSoC4/SPIM_SPI.c **** #if (SPIM_SPI_MASTER_SCLK_PIN)
 379:Generated_Source\PSoC4/SPIM_SPI.c ****     /* Set output pin state after block is disabled */
 380:Generated_Source\PSoC4/SPIM_SPI.c ****     SPIM_sclk_m_Write(SPIM_GET_SPI_SCLK_INACTIVE);
 381:Generated_Source\PSoC4/SPIM_SPI.c **** 
 382:Generated_Source\PSoC4/SPIM_SPI.c ****     /* Set GPIO to drive output pin */
 383:Generated_Source\PSoC4/SPIM_SPI.c ****     SPIM_SET_HSIOM_SEL(SPIM_SCLK_M_HSIOM_REG, SPIM_SCLK_M_HSIOM_MASK,
 384:Generated_Source\PSoC4/SPIM_SPI.c ****                                    SPIM_SCLK_M_HSIOM_POS, SPIM_SCLK_M_HSIOM_SEL_GPIO);
 385:Generated_Source\PSoC4/SPIM_SPI.c **** #endif /* (SPIM_MISO_SDA_TX_PIN_PIN) */
 386:Generated_Source\PSoC4/SPIM_SPI.c **** 
 387:Generated_Source\PSoC4/SPIM_SPI.c **** #if (SPIM_SPI_MASTER_SS0_PIN)
 388:Generated_Source\PSoC4/SPIM_SPI.c ****     /* Set output pin state after block is disabled */
 389:Generated_Source\PSoC4/SPIM_SPI.c ****     SPIM_ss0_m_Write(SPIM_GET_SPI_SS0_INACTIVE);
 390:Generated_Source\PSoC4/SPIM_SPI.c **** 
 391:Generated_Source\PSoC4/SPIM_SPI.c ****     /* Set GPIO to drive output pin */
 392:Generated_Source\PSoC4/SPIM_SPI.c ****     SPIM_SET_HSIOM_SEL(SPIM_SS0_M_HSIOM_REG, SPIM_SS0_M_HSIOM_MASK,
ARM GAS  C:\Users\Ala\AppData\Local\Temp\ccs9JxuM.s 			page 9


 393:Generated_Source\PSoC4/SPIM_SPI.c ****                                    SPIM_SS0_M_HSIOM_POS, SPIM_SS0_M_HSIOM_SEL_GPIO);
 394:Generated_Source\PSoC4/SPIM_SPI.c **** #endif /* (SPIM_SPI_MASTER_SS0_PIN) */
 395:Generated_Source\PSoC4/SPIM_SPI.c **** 
 396:Generated_Source\PSoC4/SPIM_SPI.c **** #if (SPIM_SPI_MASTER_SS1_PIN)
 397:Generated_Source\PSoC4/SPIM_SPI.c ****     /* Set output pin state after block is disabled */
 398:Generated_Source\PSoC4/SPIM_SPI.c ****     SPIM_ss1_m_Write(SPIM_GET_SPI_SS1_INACTIVE);
 399:Generated_Source\PSoC4/SPIM_SPI.c **** 
 400:Generated_Source\PSoC4/SPIM_SPI.c ****     /* Set GPIO to drive output pin */
 401:Generated_Source\PSoC4/SPIM_SPI.c ****     SPIM_SET_HSIOM_SEL(SPIM_SS1_M_HSIOM_REG, SPIM_SS1_M_HSIOM_MASK,
 402:Generated_Source\PSoC4/SPIM_SPI.c ****                                    SPIM_SS1_M_HSIOM_POS, SPIM_SS1_M_HSIOM_SEL_GPIO);
 403:Generated_Source\PSoC4/SPIM_SPI.c **** #endif /* (SPIM_SPI_MASTER_SS1_PIN) */
 404:Generated_Source\PSoC4/SPIM_SPI.c **** 
 405:Generated_Source\PSoC4/SPIM_SPI.c **** #if (SPIM_SPI_MASTER_SS2_PIN)
 406:Generated_Source\PSoC4/SPIM_SPI.c ****     /* Set output pin state after block is disabled */
 407:Generated_Source\PSoC4/SPIM_SPI.c ****     SPIM_ss2_m_Write(SPIM_GET_SPI_SS2_INACTIVE);
 408:Generated_Source\PSoC4/SPIM_SPI.c **** 
 409:Generated_Source\PSoC4/SPIM_SPI.c ****     /* Set GPIO to drive output pin */
 410:Generated_Source\PSoC4/SPIM_SPI.c ****     SPIM_SET_HSIOM_SEL(SPIM_SS2_M_HSIOM_REG, SPIM_SS2_M_HSIOM_MASK,
 411:Generated_Source\PSoC4/SPIM_SPI.c ****                                    SPIM_SS2_M_HSIOM_POS, SPIM_SS2_M_HSIOM_SEL_GPIO);
 412:Generated_Source\PSoC4/SPIM_SPI.c **** #endif /* (SPIM_SPI_MASTER_SS2_PIN) */
 413:Generated_Source\PSoC4/SPIM_SPI.c **** 
 414:Generated_Source\PSoC4/SPIM_SPI.c **** #if (SPIM_SPI_MASTER_SS3_PIN)
 415:Generated_Source\PSoC4/SPIM_SPI.c ****     /* Set output pin state after block is disabled */
 416:Generated_Source\PSoC4/SPIM_SPI.c ****     SPIM_ss3_m_Write(SPIM_GET_SPI_SS3_INACTIVE);
 417:Generated_Source\PSoC4/SPIM_SPI.c **** 
 418:Generated_Source\PSoC4/SPIM_SPI.c ****     /* Set GPIO to drive output pin */
 419:Generated_Source\PSoC4/SPIM_SPI.c ****     SPIM_SET_HSIOM_SEL(SPIM_SS3_M_HSIOM_REG, SPIM_SS3_M_HSIOM_MASK,
 420:Generated_Source\PSoC4/SPIM_SPI.c ****                                    SPIM_SS3_M_HSIOM_POS, SPIM_SS3_M_HSIOM_SEL_GPIO);
 421:Generated_Source\PSoC4/SPIM_SPI.c **** #endif /* (SPIM_SPI_MASTER_SS3_PIN) */
 422:Generated_Source\PSoC4/SPIM_SPI.c **** 
 423:Generated_Source\PSoC4/SPIM_SPI.c ****     #if (SPIM_SPI_MASTER_CONST)
 424:Generated_Source\PSoC4/SPIM_SPI.c ****         /* Store TX interrupt sources (exclude level triggered). */
 425:Generated_Source\PSoC4/SPIM_SPI.c ****         SPIM_IntrTxMask = LO16(SPIM_GetTxInterruptMode() & SPIM_INTR_SPIM_TX_RESTORE);
  64              		.loc 1 425 0
  65 0000 034B     		ldr	r3, .L5
 426:Generated_Source\PSoC4/SPIM_SPI.c ****     #else
 427:Generated_Source\PSoC4/SPIM_SPI.c ****         /* Store TX interrupt sources (exclude level triggered). */
 428:Generated_Source\PSoC4/SPIM_SPI.c ****         SPIM_IntrTxMask = LO16(SPIM_GetTxInterruptMode() & SPIM_INTR_SPIS_TX_RESTORE);
 429:Generated_Source\PSoC4/SPIM_SPI.c ****     #endif /* (SPIM_SPI_MASTER_CONST) */
 430:Generated_Source\PSoC4/SPIM_SPI.c **** 
 431:Generated_Source\PSoC4/SPIM_SPI.c **** #endif /* (SPIM_SCB_MODE_UNCONFIG_CONST_CFG) */
 432:Generated_Source\PSoC4/SPIM_SPI.c **** }
  66              		.loc 1 432 0
  67              		@ sp needed
 425:Generated_Source\PSoC4/SPIM_SPI.c ****     #else
  68              		.loc 1 425 0
  69 0002 1A68     		ldr	r2, [r3]
  70 0004 2023     		movs	r3, #32
  71 0006 1340     		ands	r3, r2
  72 0008 024A     		ldr	r2, .L5+4
  73 000a 1380     		strh	r3, [r2]
  74              		.loc 1 432 0
  75 000c 7047     		bx	lr
  76              	.L6:
  77 000e C046     		.align	2
  78              	.L5:
  79 0010 880F0740 		.word	1074204552
ARM GAS  C:\Users\Ala\AppData\Local\Temp\ccs9JxuM.s 			page 10


  80 0014 00000000 		.word	SPIM_IntrTxMask
  81              		.cfi_endproc
  82              	.LFE2:
  83              		.size	SPIM_SpiStop, .-SPIM_SpiStop
  84              		.section	.text.SPIM_SpiSetActiveSlaveSelect,"ax",%progbits
  85              		.align	1
  86              		.global	SPIM_SpiSetActiveSlaveSelect
  87              		.code	16
  88              		.thumb_func
  89              		.type	SPIM_SpiSetActiveSlaveSelect, %function
  90              	SPIM_SpiSetActiveSlaveSelect:
  91              	.LFB3:
 433:Generated_Source\PSoC4/SPIM_SPI.c **** 
 434:Generated_Source\PSoC4/SPIM_SPI.c **** 
 435:Generated_Source\PSoC4/SPIM_SPI.c **** #if (SPIM_SPI_MASTER_CONST)
 436:Generated_Source\PSoC4/SPIM_SPI.c ****     /*******************************************************************************
 437:Generated_Source\PSoC4/SPIM_SPI.c ****     * Function Name: SPIM_SetActiveSlaveSelect
 438:Generated_Source\PSoC4/SPIM_SPI.c ****     ****************************************************************************//**
 439:Generated_Source\PSoC4/SPIM_SPI.c ****     *
 440:Generated_Source\PSoC4/SPIM_SPI.c ****     *  Selects one of the four slave select lines to be active during the transfer.
 441:Generated_Source\PSoC4/SPIM_SPI.c ****     *  After initialization the active slave select line is 0.
 442:Generated_Source\PSoC4/SPIM_SPI.c ****     *  The component should be in one of the following states to change the active
 443:Generated_Source\PSoC4/SPIM_SPI.c ****     *  slave select signal source correctly:
 444:Generated_Source\PSoC4/SPIM_SPI.c ****     *   - The component is disabled.
 445:Generated_Source\PSoC4/SPIM_SPI.c ****     *   - The component has completed transfer (TX FIFO is empty and the
 446:Generated_Source\PSoC4/SPIM_SPI.c ****     *     SCB_INTR_MASTER_SPI_DONE status is set).
 447:Generated_Source\PSoC4/SPIM_SPI.c ****     *
 448:Generated_Source\PSoC4/SPIM_SPI.c ****     *  This function does not check that these conditions are met.
 449:Generated_Source\PSoC4/SPIM_SPI.c ****     *  This function is only applicable to SPI Master mode of operation.
 450:Generated_Source\PSoC4/SPIM_SPI.c ****     *
 451:Generated_Source\PSoC4/SPIM_SPI.c ****     *  \param slaveSelect: slave select line which will be active while the following
 452:Generated_Source\PSoC4/SPIM_SPI.c ****     *   transfer.
 453:Generated_Source\PSoC4/SPIM_SPI.c ****     *   - SPIM_SPI_SLAVE_SELECT0 - Slave select 0.
 454:Generated_Source\PSoC4/SPIM_SPI.c ****     *   - SPIM_SPI_SLAVE_SELECT1 - Slave select 1.
 455:Generated_Source\PSoC4/SPIM_SPI.c ****     *   - SPIM_SPI_SLAVE_SELECT2 - Slave select 2.
 456:Generated_Source\PSoC4/SPIM_SPI.c ****     *   - SPIM_SPI_SLAVE_SELECT3 - Slave select 3.
 457:Generated_Source\PSoC4/SPIM_SPI.c ****     *
 458:Generated_Source\PSoC4/SPIM_SPI.c ****     *******************************************************************************/
 459:Generated_Source\PSoC4/SPIM_SPI.c ****     void SPIM_SpiSetActiveSlaveSelect(uint32 slaveSelect)
 460:Generated_Source\PSoC4/SPIM_SPI.c ****     {
  92              		.loc 1 460 0
  93              		.cfi_startproc
  94              		@ args = 0, pretend = 0, frame = 0
  95              		@ frame_needed = 0, uses_anonymous_args = 0
  96              		@ link register save eliminated.
  97              	.LVL0:
 461:Generated_Source\PSoC4/SPIM_SPI.c ****         uint32 spiCtrl;
 462:Generated_Source\PSoC4/SPIM_SPI.c **** 
 463:Generated_Source\PSoC4/SPIM_SPI.c ****         spiCtrl = SPIM_SPI_CTRL_REG;
  98              		.loc 1 463 0
  99 0000 0549     		ldr	r1, .L8
 464:Generated_Source\PSoC4/SPIM_SPI.c **** 
 465:Generated_Source\PSoC4/SPIM_SPI.c ****         spiCtrl &= (uint32) ~SPIM_SPI_CTRL_SLAVE_SELECT_MASK;
 100              		.loc 1 465 0
 101 0002 064B     		ldr	r3, .L8+4
 463:Generated_Source\PSoC4/SPIM_SPI.c **** 
 102              		.loc 1 463 0
ARM GAS  C:\Users\Ala\AppData\Local\Temp\ccs9JxuM.s 			page 11


 103 0004 0A68     		ldr	r2, [r1]
 104              	.LVL1:
 466:Generated_Source\PSoC4/SPIM_SPI.c ****         spiCtrl |= (uint32)  SPIM_GET_SPI_CTRL_SS(slaveSelect);
 105              		.loc 1 466 0
 106 0006 8006     		lsls	r0, r0, #26
 107              	.LVL2:
 465:Generated_Source\PSoC4/SPIM_SPI.c ****         spiCtrl |= (uint32)  SPIM_GET_SPI_CTRL_SS(slaveSelect);
 108              		.loc 1 465 0
 109 0008 1340     		ands	r3, r2
 110              	.LVL3:
 111              		.loc 1 466 0
 112 000a C022     		movs	r2, #192
 113 000c 1205     		lsls	r2, r2, #20
 114 000e 1040     		ands	r0, r2
 115 0010 1843     		orrs	r0, r3
 116              	.LVL4:
 467:Generated_Source\PSoC4/SPIM_SPI.c **** 
 468:Generated_Source\PSoC4/SPIM_SPI.c ****         SPIM_SPI_CTRL_REG = spiCtrl;
 117              		.loc 1 468 0
 118 0012 0860     		str	r0, [r1]
 469:Generated_Source\PSoC4/SPIM_SPI.c ****     }
 119              		.loc 1 469 0
 120              		@ sp needed
 121 0014 7047     		bx	lr
 122              	.L9:
 123 0016 C046     		.align	2
 124              	.L8:
 125 0018 20000740 		.word	1074200608
 126 001c FFFFFFF3 		.word	-201326593
 127              		.cfi_endproc
 128              	.LFE3:
 129              		.size	SPIM_SpiSetActiveSlaveSelect, .-SPIM_SpiSetActiveSlaveSelect
 130              		.section	.text.SPIM_SpiInit,"ax",%progbits
 131              		.align	1
 132              		.global	SPIM_SpiInit
 133              		.code	16
 134              		.thumb_func
 135              		.type	SPIM_SpiInit, %function
 136              	SPIM_SpiInit:
 137              	.LFB0:
 173:Generated_Source\PSoC4/SPIM_SPI.c ****         /* Configure SPI interface */
 138              		.loc 1 173 0
 139              		.cfi_startproc
 140              		@ args = 0, pretend = 0, frame = 0
 141              		@ frame_needed = 0, uses_anonymous_args = 0
 175:Generated_Source\PSoC4/SPIM_SPI.c ****         SPIM_SPI_CTRL_REG = SPIM_SPI_DEFAULT_SPI_CTRL;
 142              		.loc 1 175 0
 143 0000 1B4A     		ldr	r2, .L11
 144 0002 1C4B     		ldr	r3, .L11+4
 173:Generated_Source\PSoC4/SPIM_SPI.c ****         /* Configure SPI interface */
 145              		.loc 1 173 0
 146 0004 10B5     		push	{r4, lr}
 147              		.cfi_def_cfa_offset 8
 148              		.cfi_offset 4, -8
 149              		.cfi_offset 14, -4
 175:Generated_Source\PSoC4/SPIM_SPI.c ****         SPIM_SPI_CTRL_REG = SPIM_SPI_DEFAULT_SPI_CTRL;
 150              		.loc 1 175 0
ARM GAS  C:\Users\Ala\AppData\Local\Temp\ccs9JxuM.s 			page 12


 151 0006 1A60     		str	r2, [r3]
 176:Generated_Source\PSoC4/SPIM_SPI.c **** 
 152              		.loc 1 176 0
 153 0008 1B4A     		ldr	r2, .L11+8
 154 000a 1C4B     		ldr	r3, .L11+12
 184:Generated_Source\PSoC4/SPIM_SPI.c **** 
 155              		.loc 1 184 0
 156 000c 0024     		movs	r4, #0
 176:Generated_Source\PSoC4/SPIM_SPI.c **** 
 157              		.loc 1 176 0
 158 000e 1A60     		str	r2, [r3]
 179:Generated_Source\PSoC4/SPIM_SPI.c ****         SPIM_RX_FIFO_CTRL_REG = SPIM_SPI_DEFAULT_RX_FIFO_CTRL;
 159              		.loc 1 179 0
 160 0010 1B4A     		ldr	r2, .L11+16
 161 0012 1C4B     		ldr	r3, .L11+20
 188:Generated_Source\PSoC4/SPIM_SPI.c ****             CyIntSetPriority(SPIM_ISR_NUMBER, SPIM_ISR_PRIORITY);
 162              		.loc 1 188 0
 163 0014 0B20     		movs	r0, #11
 179:Generated_Source\PSoC4/SPIM_SPI.c ****         SPIM_RX_FIFO_CTRL_REG = SPIM_SPI_DEFAULT_RX_FIFO_CTRL;
 164              		.loc 1 179 0
 165 0016 1A60     		str	r2, [r3]
 180:Generated_Source\PSoC4/SPIM_SPI.c **** 
 166              		.loc 1 180 0
 167 0018 0722     		movs	r2, #7
 168 001a 1B4B     		ldr	r3, .L11+24
 219:Generated_Source\PSoC4/SPIM_SPI.c **** #endif /* (SPIM_SCB_MODE_UNCONFIG_CONST_CFG) */
 169              		.loc 1 219 0
 170              		@ sp needed
 180:Generated_Source\PSoC4/SPIM_SPI.c **** 
 171              		.loc 1 180 0
 172 001c 1A60     		str	r2, [r3]
 183:Generated_Source\PSoC4/SPIM_SPI.c ****         SPIM_TX_FIFO_CTRL_REG = SPIM_SPI_DEFAULT_TX_FIFO_CTRL;
 173              		.loc 1 183 0
 174 001e 1B4A     		ldr	r2, .L11+28
 175 0020 1B4B     		ldr	r3, .L11+32
 176 0022 1A60     		str	r2, [r3]
 184:Generated_Source\PSoC4/SPIM_SPI.c **** 
 177              		.loc 1 184 0
 178 0024 1B4B     		ldr	r3, .L11+36
 179 0026 1C60     		str	r4, [r3]
 188:Generated_Source\PSoC4/SPIM_SPI.c ****             CyIntSetPriority(SPIM_ISR_NUMBER, SPIM_ISR_PRIORITY);
 180              		.loc 1 188 0
 181 0028 FFF7FEFF 		bl	CyIntDisable
 182              	.LVL5:
 189:Generated_Source\PSoC4/SPIM_SPI.c ****             (void) CyIntSetVector(SPIM_ISR_NUMBER, &SPIM_SPI_UART_ISR);
 183              		.loc 1 189 0
 184 002c 0321     		movs	r1, #3
 185 002e 0B20     		movs	r0, #11
 186 0030 FFF7FEFF 		bl	CyIntSetPriority
 187              	.LVL6:
 190:Generated_Source\PSoC4/SPIM_SPI.c ****     #endif /* (SPIM_SCB_IRQ_INTERNAL) */
 188              		.loc 1 190 0
 189 0034 1849     		ldr	r1, .L11+40
 190 0036 0B20     		movs	r0, #11
 191 0038 FFF7FEFF 		bl	CyIntSetVector
 192              	.LVL7:
 198:Generated_Source\PSoC4/SPIM_SPI.c ****         SPIM_INTR_TX_MASK_REG     = SPIM_SPI_DEFAULT_INTR_TX_MASK;
ARM GAS  C:\Users\Ala\AppData\Local\Temp\ccs9JxuM.s 			page 13


 193              		.loc 1 198 0
 194 003c 0422     		movs	r2, #4
 194:Generated_Source\PSoC4/SPIM_SPI.c ****         SPIM_INTR_SPI_EC_MASK_REG = SPIM_SPI_DEFAULT_INTR_SPI_EC_MASK;
 195              		.loc 1 194 0
 196 003e 174B     		ldr	r3, .L11+44
 206:Generated_Source\PSoC4/SPIM_SPI.c ****     #endif /* (SPIM_SPI_MASTER_CONST) */
 197              		.loc 1 206 0
 198 0040 2000     		movs	r0, r4
 194:Generated_Source\PSoC4/SPIM_SPI.c ****         SPIM_INTR_SPI_EC_MASK_REG = SPIM_SPI_DEFAULT_INTR_SPI_EC_MASK;
 199              		.loc 1 194 0
 200 0042 1C60     		str	r4, [r3]
 195:Generated_Source\PSoC4/SPIM_SPI.c ****         SPIM_INTR_SLAVE_MASK_REG  = SPIM_SPI_DEFAULT_INTR_SLAVE_MASK;
 201              		.loc 1 195 0
 202 0044 164B     		ldr	r3, .L11+48
 203 0046 1C60     		str	r4, [r3]
 196:Generated_Source\PSoC4/SPIM_SPI.c ****         SPIM_INTR_MASTER_MASK_REG = SPIM_SPI_DEFAULT_INTR_MASTER_MASK;
 204              		.loc 1 196 0
 205 0048 164B     		ldr	r3, .L11+52
 206 004a 1C60     		str	r4, [r3]
 197:Generated_Source\PSoC4/SPIM_SPI.c ****         SPIM_INTR_RX_MASK_REG     = SPIM_SPI_DEFAULT_INTR_RX_MASK;
 207              		.loc 1 197 0
 208 004c 164B     		ldr	r3, .L11+56
 209 004e 1C60     		str	r4, [r3]
 198:Generated_Source\PSoC4/SPIM_SPI.c ****         SPIM_INTR_TX_MASK_REG     = SPIM_SPI_DEFAULT_INTR_TX_MASK;
 210              		.loc 1 198 0
 211 0050 164B     		ldr	r3, .L11+60
 212 0052 1A60     		str	r2, [r3]
 199:Generated_Source\PSoC4/SPIM_SPI.c **** 
 213              		.loc 1 199 0
 214 0054 164B     		ldr	r3, .L11+64
 215 0056 1C60     		str	r4, [r3]
 202:Generated_Source\PSoC4/SPIM_SPI.c ****             
 216              		.loc 1 202 0
 217 0058 1A68     		ldr	r2, [r3]
 218 005a 164B     		ldr	r3, .L11+68
 219 005c 1A80     		strh	r2, [r3]
 206:Generated_Source\PSoC4/SPIM_SPI.c ****     #endif /* (SPIM_SPI_MASTER_CONST) */
 220              		.loc 1 206 0
 221 005e FFF7FEFF 		bl	SPIM_SpiSetActiveSlaveSelect
 222              	.LVL8:
 210:Generated_Source\PSoC4/SPIM_SPI.c ****         SPIM_rxBufferTail     = 0u;
 223              		.loc 1 210 0
 224 0062 154B     		ldr	r3, .L11+72
 225 0064 1C60     		str	r4, [r3]
 211:Generated_Source\PSoC4/SPIM_SPI.c ****         SPIM_rxBufferOverflow = 0u;
 226              		.loc 1 211 0
 227 0066 154B     		ldr	r3, .L11+76
 228 0068 1C60     		str	r4, [r3]
 212:Generated_Source\PSoC4/SPIM_SPI.c ****     #endif /* (SPIM_INTERNAL_RX_SW_BUFFER_CONST) */
 229              		.loc 1 212 0
 230 006a 154B     		ldr	r3, .L11+80
 231 006c 1C70     		strb	r4, [r3]
 219:Generated_Source\PSoC4/SPIM_SPI.c **** #endif /* (SPIM_SCB_MODE_UNCONFIG_CONST_CFG) */
 232              		.loc 1 219 0
 233 006e 10BD     		pop	{r4, pc}
 234              	.L12:
 235              		.align	2
ARM GAS  C:\Users\Ala\AppData\Local\Temp\ccs9JxuM.s 			page 14


 236              	.L11:
 237 0070 0F000001 		.word	16777231
 238 0074 00000740 		.word	1074200576
 239 0078 0D000080 		.word	-2147483635
 240 007c 20000740 		.word	1074200608
 241 0080 07030080 		.word	-2147482873
 242 0084 00030740 		.word	1074201344
 243 0088 04030740 		.word	1074201348
 244 008c 07010080 		.word	-2147483385
 245 0090 00020740 		.word	1074201088
 246 0094 04020740 		.word	1074201092
 247 0098 00000000 		.word	SPIM_SPI_UART_ISR
 248 009c 880E0740 		.word	1074204296
 249 00a0 C80E0740 		.word	1074204360
 250 00a4 480F0740 		.word	1074204488
 251 00a8 080F0740 		.word	1074204424
 252 00ac C80F0740 		.word	1074204616
 253 00b0 880F0740 		.word	1074204552
 254 00b4 00000000 		.word	SPIM_IntrTxMask
 255 00b8 00000000 		.word	SPIM_rxBufferHead
 256 00bc 00000000 		.word	SPIM_rxBufferTail
 257 00c0 00000000 		.word	SPIM_rxBufferOverflow
 258              		.cfi_endproc
 259              	.LFE0:
 260              		.size	SPIM_SpiInit, .-SPIM_SpiInit
 261              		.text
 262              	.Letext0:
 263              		.file 2 "Generated_Source\\PSoC4/cytypes.h"
 264              		.file 3 "Generated_Source\\PSoC4\\SPIM_PVT.h"
 265              		.file 4 "Generated_Source\\PSoC4\\SPIM_SPI_UART_PVT.h"
 266              		.file 5 "Generated_Source\\PSoC4/CyLib.h"