ARM GAS  C:\Users\Ala\AppData\Local\Temp\cc5WTHKW.s 			page 1


   1              		.syntax unified
   2              		.cpu cortex-m0
   3              		.fpu softvfp
   4              		.eabi_attribute 20, 1
   5              		.eabi_attribute 21, 1
   6              		.eabi_attribute 23, 3
   7              		.eabi_attribute 24, 1
   8              		.eabi_attribute 25, 1
   9              		.eabi_attribute 26, 1
  10              		.eabi_attribute 30, 4
  11              		.eabi_attribute 34, 0
  12              		.eabi_attribute 18, 4
  13              		.thumb
  14              		.syntax unified
  15              		.file	"Timer_2.c"
  16              		.text
  17              	.Ltext0:
  18              		.cfi_sections	.debug_frame
  19              		.section	.text.Timer_2_Init,"ax",%progbits
  20              		.align	1
  21              		.global	Timer_2_Init
  22              		.code	16
  23              		.thumb_func
  24              		.type	Timer_2_Init, %function
  25              	Timer_2_Init:
  26              	.LFB0:
  27              		.file 1 "Generated_Source\\PSoC4\\Timer_2.c"
   1:Generated_Source\PSoC4/Timer_2.c **** /*******************************************************************************
   2:Generated_Source\PSoC4/Timer_2.c **** * File Name: Timer_2.c
   3:Generated_Source\PSoC4/Timer_2.c **** * Version 2.10
   4:Generated_Source\PSoC4/Timer_2.c **** *
   5:Generated_Source\PSoC4/Timer_2.c **** * Description:
   6:Generated_Source\PSoC4/Timer_2.c **** *  This file provides the source code to the API for the Timer_2
   7:Generated_Source\PSoC4/Timer_2.c **** *  component
   8:Generated_Source\PSoC4/Timer_2.c **** *
   9:Generated_Source\PSoC4/Timer_2.c **** * Note:
  10:Generated_Source\PSoC4/Timer_2.c **** *  None
  11:Generated_Source\PSoC4/Timer_2.c **** *
  12:Generated_Source\PSoC4/Timer_2.c **** ********************************************************************************
  13:Generated_Source\PSoC4/Timer_2.c **** * Copyright 2013-2015, Cypress Semiconductor Corporation.  All rights reserved.
  14:Generated_Source\PSoC4/Timer_2.c **** * You may use this file only in accordance with the license, terms, conditions,
  15:Generated_Source\PSoC4/Timer_2.c **** * disclaimers, and limitations in the end user license agreement accompanying
  16:Generated_Source\PSoC4/Timer_2.c **** * the software package with which this file was provided.
  17:Generated_Source\PSoC4/Timer_2.c **** *******************************************************************************/
  18:Generated_Source\PSoC4/Timer_2.c **** 
  19:Generated_Source\PSoC4/Timer_2.c **** #include "Timer_2.h"
  20:Generated_Source\PSoC4/Timer_2.c **** 
  21:Generated_Source\PSoC4/Timer_2.c **** uint8 Timer_2_initVar = 0u;
  22:Generated_Source\PSoC4/Timer_2.c **** 
  23:Generated_Source\PSoC4/Timer_2.c **** 
  24:Generated_Source\PSoC4/Timer_2.c **** /*******************************************************************************
  25:Generated_Source\PSoC4/Timer_2.c **** * Function Name: Timer_2_Init
  26:Generated_Source\PSoC4/Timer_2.c **** ********************************************************************************
  27:Generated_Source\PSoC4/Timer_2.c **** *
  28:Generated_Source\PSoC4/Timer_2.c **** * Summary:
  29:Generated_Source\PSoC4/Timer_2.c **** *  Initialize/Restore default Timer_2 configuration.
  30:Generated_Source\PSoC4/Timer_2.c **** *
ARM GAS  C:\Users\Ala\AppData\Local\Temp\cc5WTHKW.s 			page 2


  31:Generated_Source\PSoC4/Timer_2.c **** * Parameters:
  32:Generated_Source\PSoC4/Timer_2.c **** *  None
  33:Generated_Source\PSoC4/Timer_2.c **** *
  34:Generated_Source\PSoC4/Timer_2.c **** * Return:
  35:Generated_Source\PSoC4/Timer_2.c **** *  None
  36:Generated_Source\PSoC4/Timer_2.c **** *
  37:Generated_Source\PSoC4/Timer_2.c **** *******************************************************************************/
  38:Generated_Source\PSoC4/Timer_2.c **** void Timer_2_Init(void)
  39:Generated_Source\PSoC4/Timer_2.c **** {
  28              		.loc 1 39 0
  29              		.cfi_startproc
  30              		@ args = 0, pretend = 0, frame = 0
  31              		@ frame_needed = 0, uses_anonymous_args = 0
  32              		@ link register save eliminated.
  40:Generated_Source\PSoC4/Timer_2.c **** 
  41:Generated_Source\PSoC4/Timer_2.c ****     /* Set values from customizer to CTRL */
  42:Generated_Source\PSoC4/Timer_2.c ****     #if (Timer_2__QUAD == Timer_2_CONFIG)
  43:Generated_Source\PSoC4/Timer_2.c ****         Timer_2_CONTROL_REG = Timer_2_CTRL_QUAD_BASE_CONFIG;
  44:Generated_Source\PSoC4/Timer_2.c ****         
  45:Generated_Source\PSoC4/Timer_2.c ****         /* Set values from customizer to CTRL1 */
  46:Generated_Source\PSoC4/Timer_2.c ****         Timer_2_TRIG_CONTROL1_REG  = Timer_2_QUAD_SIGNALS_MODES;
  47:Generated_Source\PSoC4/Timer_2.c **** 
  48:Generated_Source\PSoC4/Timer_2.c ****         /* Set values from customizer to INTR */
  49:Generated_Source\PSoC4/Timer_2.c ****         Timer_2_SetInterruptMode(Timer_2_QUAD_INTERRUPT_MASK);
  50:Generated_Source\PSoC4/Timer_2.c ****         
  51:Generated_Source\PSoC4/Timer_2.c ****          /* Set other values */
  52:Generated_Source\PSoC4/Timer_2.c ****         Timer_2_SetCounterMode(Timer_2_COUNT_DOWN);
  53:Generated_Source\PSoC4/Timer_2.c ****         Timer_2_WritePeriod(Timer_2_QUAD_PERIOD_INIT_VALUE);
  54:Generated_Source\PSoC4/Timer_2.c ****         Timer_2_WriteCounter(Timer_2_QUAD_PERIOD_INIT_VALUE);
  55:Generated_Source\PSoC4/Timer_2.c ****     #endif  /* (Timer_2__QUAD == Timer_2_CONFIG) */
  56:Generated_Source\PSoC4/Timer_2.c **** 
  57:Generated_Source\PSoC4/Timer_2.c ****     #if (Timer_2__TIMER == Timer_2_CONFIG)
  58:Generated_Source\PSoC4/Timer_2.c ****         Timer_2_CONTROL_REG = Timer_2_CTRL_TIMER_BASE_CONFIG;
  33              		.loc 1 58 0
  34 0000 8122     		movs	r2, #129
  35 0002 094B     		ldr	r3, .L2
  36 0004 9204     		lsls	r2, r2, #18
  37 0006 1A60     		str	r2, [r3]
  59:Generated_Source\PSoC4/Timer_2.c ****         
  60:Generated_Source\PSoC4/Timer_2.c ****         /* Set values from customizer to CTRL1 */
  61:Generated_Source\PSoC4/Timer_2.c ****         Timer_2_TRIG_CONTROL1_REG  = Timer_2_TIMER_SIGNALS_MODES;
  38              		.loc 1 61 0
  39 0008 8E22     		movs	r2, #142
  40 000a 084B     		ldr	r3, .L2+4
  41 000c 5200     		lsls	r2, r2, #1
  42 000e 1A60     		str	r2, [r3]
  43              	.LVL0:
  44              	.LBB8:
  45              	.LBB9:
  62:Generated_Source\PSoC4/Timer_2.c ****     
  63:Generated_Source\PSoC4/Timer_2.c ****         /* Set values from customizer to INTR */
  64:Generated_Source\PSoC4/Timer_2.c ****         Timer_2_SetInterruptMode(Timer_2_TC_INTERRUPT_MASK);
  65:Generated_Source\PSoC4/Timer_2.c ****         
  66:Generated_Source\PSoC4/Timer_2.c ****         /* Set other values from customizer */
  67:Generated_Source\PSoC4/Timer_2.c ****         Timer_2_WritePeriod(Timer_2_TC_PERIOD_VALUE );
  68:Generated_Source\PSoC4/Timer_2.c **** 
  69:Generated_Source\PSoC4/Timer_2.c ****         #if (Timer_2__COMPARE == Timer_2_TC_COMP_CAP_MODE)
ARM GAS  C:\Users\Ala\AppData\Local\Temp\cc5WTHKW.s 			page 3


  70:Generated_Source\PSoC4/Timer_2.c ****             Timer_2_WriteCompare(Timer_2_TC_COMPARE_VALUE);
  71:Generated_Source\PSoC4/Timer_2.c **** 
  72:Generated_Source\PSoC4/Timer_2.c ****             #if (1u == Timer_2_TC_COMPARE_SWAP)
  73:Generated_Source\PSoC4/Timer_2.c ****                 Timer_2_SetCompareSwap(1u);
  74:Generated_Source\PSoC4/Timer_2.c ****                 Timer_2_WriteCompareBuf(Timer_2_TC_COMPARE_BUF_VALUE);
  75:Generated_Source\PSoC4/Timer_2.c ****             #endif  /* (1u == Timer_2_TC_COMPARE_SWAP) */
  76:Generated_Source\PSoC4/Timer_2.c ****         #endif  /* (Timer_2__COMPARE == Timer_2_TC_COMP_CAP_MODE) */
  77:Generated_Source\PSoC4/Timer_2.c **** 
  78:Generated_Source\PSoC4/Timer_2.c ****         /* Initialize counter value */
  79:Generated_Source\PSoC4/Timer_2.c ****         #if (Timer_2_CY_TCPWM_V2 && Timer_2_TIMER_UPDOWN_CNT_USED && !Timer_2_CY_TCPWM_4000)
  80:Generated_Source\PSoC4/Timer_2.c ****             Timer_2_WriteCounter(1u);
  81:Generated_Source\PSoC4/Timer_2.c ****         #elif(Timer_2__COUNT_DOWN == Timer_2_TC_COUNTER_MODE)
  82:Generated_Source\PSoC4/Timer_2.c ****             Timer_2_WriteCounter(Timer_2_TC_PERIOD_VALUE);
  83:Generated_Source\PSoC4/Timer_2.c ****         #else
  84:Generated_Source\PSoC4/Timer_2.c ****             Timer_2_WriteCounter(0u);
  85:Generated_Source\PSoC4/Timer_2.c ****         #endif /* (Timer_2_CY_TCPWM_V2 && Timer_2_TIMER_UPDOWN_CNT_USED && !Timer_2_CY_TCPWM_4000) 
  86:Generated_Source\PSoC4/Timer_2.c ****     #endif  /* (Timer_2__TIMER == Timer_2_CONFIG) */
  87:Generated_Source\PSoC4/Timer_2.c **** 
  88:Generated_Source\PSoC4/Timer_2.c ****     #if (Timer_2__PWM_SEL == Timer_2_CONFIG)
  89:Generated_Source\PSoC4/Timer_2.c ****         Timer_2_CONTROL_REG = Timer_2_CTRL_PWM_BASE_CONFIG;
  90:Generated_Source\PSoC4/Timer_2.c **** 
  91:Generated_Source\PSoC4/Timer_2.c ****         #if (Timer_2__PWM_PR == Timer_2_PWM_MODE)
  92:Generated_Source\PSoC4/Timer_2.c ****             Timer_2_CONTROL_REG |= Timer_2_CTRL_PWM_RUN_MODE;
  93:Generated_Source\PSoC4/Timer_2.c ****             Timer_2_WriteCounter(Timer_2_PWM_PR_INIT_VALUE);
  94:Generated_Source\PSoC4/Timer_2.c ****         #else
  95:Generated_Source\PSoC4/Timer_2.c ****             Timer_2_CONTROL_REG |= Timer_2_CTRL_PWM_ALIGN | Timer_2_CTRL_PWM_KILL_EVENT;
  96:Generated_Source\PSoC4/Timer_2.c ****             
  97:Generated_Source\PSoC4/Timer_2.c ****             /* Initialize counter value */
  98:Generated_Source\PSoC4/Timer_2.c ****             #if (Timer_2_CY_TCPWM_V2 && Timer_2_PWM_UPDOWN_CNT_USED && !Timer_2_CY_TCPWM_4000)
  99:Generated_Source\PSoC4/Timer_2.c ****                 Timer_2_WriteCounter(1u);
 100:Generated_Source\PSoC4/Timer_2.c ****             #elif (Timer_2__RIGHT == Timer_2_PWM_ALIGN)
 101:Generated_Source\PSoC4/Timer_2.c ****                 Timer_2_WriteCounter(Timer_2_PWM_PERIOD_VALUE);
 102:Generated_Source\PSoC4/Timer_2.c ****             #else 
 103:Generated_Source\PSoC4/Timer_2.c ****                 Timer_2_WriteCounter(0u);
 104:Generated_Source\PSoC4/Timer_2.c ****             #endif  /* (Timer_2_CY_TCPWM_V2 && Timer_2_PWM_UPDOWN_CNT_USED && !Timer_2_CY_TCPWM_400
 105:Generated_Source\PSoC4/Timer_2.c ****         #endif  /* (Timer_2__PWM_PR == Timer_2_PWM_MODE) */
 106:Generated_Source\PSoC4/Timer_2.c **** 
 107:Generated_Source\PSoC4/Timer_2.c ****         #if (Timer_2__PWM_DT == Timer_2_PWM_MODE)
 108:Generated_Source\PSoC4/Timer_2.c ****             Timer_2_CONTROL_REG |= Timer_2_CTRL_PWM_DEAD_TIME_CYCLE;
 109:Generated_Source\PSoC4/Timer_2.c ****         #endif  /* (Timer_2__PWM_DT == Timer_2_PWM_MODE) */
 110:Generated_Source\PSoC4/Timer_2.c **** 
 111:Generated_Source\PSoC4/Timer_2.c ****         #if (Timer_2__PWM == Timer_2_PWM_MODE)
 112:Generated_Source\PSoC4/Timer_2.c ****             Timer_2_CONTROL_REG |= Timer_2_CTRL_PWM_PRESCALER;
 113:Generated_Source\PSoC4/Timer_2.c ****         #endif  /* (Timer_2__PWM == Timer_2_PWM_MODE) */
 114:Generated_Source\PSoC4/Timer_2.c **** 
 115:Generated_Source\PSoC4/Timer_2.c ****         /* Set values from customizer to CTRL1 */
 116:Generated_Source\PSoC4/Timer_2.c ****         Timer_2_TRIG_CONTROL1_REG  = Timer_2_PWM_SIGNALS_MODES;
 117:Generated_Source\PSoC4/Timer_2.c ****     
 118:Generated_Source\PSoC4/Timer_2.c ****         /* Set values from customizer to INTR */
 119:Generated_Source\PSoC4/Timer_2.c ****         Timer_2_SetInterruptMode(Timer_2_PWM_INTERRUPT_MASK);
 120:Generated_Source\PSoC4/Timer_2.c **** 
 121:Generated_Source\PSoC4/Timer_2.c ****         /* Set values from customizer to CTRL2 */
 122:Generated_Source\PSoC4/Timer_2.c ****         #if (Timer_2__PWM_PR == Timer_2_PWM_MODE)
 123:Generated_Source\PSoC4/Timer_2.c ****             Timer_2_TRIG_CONTROL2_REG =
 124:Generated_Source\PSoC4/Timer_2.c ****                     (Timer_2_CC_MATCH_NO_CHANGE    |
 125:Generated_Source\PSoC4/Timer_2.c ****                     Timer_2_OVERLOW_NO_CHANGE      |
 126:Generated_Source\PSoC4/Timer_2.c ****                     Timer_2_UNDERFLOW_NO_CHANGE);
ARM GAS  C:\Users\Ala\AppData\Local\Temp\cc5WTHKW.s 			page 4


 127:Generated_Source\PSoC4/Timer_2.c ****         #else
 128:Generated_Source\PSoC4/Timer_2.c ****             #if (Timer_2__LEFT == Timer_2_PWM_ALIGN)
 129:Generated_Source\PSoC4/Timer_2.c ****                 Timer_2_TRIG_CONTROL2_REG = Timer_2_PWM_MODE_LEFT;
 130:Generated_Source\PSoC4/Timer_2.c ****             #endif  /* ( Timer_2_PWM_LEFT == Timer_2_PWM_ALIGN) */
 131:Generated_Source\PSoC4/Timer_2.c **** 
 132:Generated_Source\PSoC4/Timer_2.c ****             #if (Timer_2__RIGHT == Timer_2_PWM_ALIGN)
 133:Generated_Source\PSoC4/Timer_2.c ****                 Timer_2_TRIG_CONTROL2_REG = Timer_2_PWM_MODE_RIGHT;
 134:Generated_Source\PSoC4/Timer_2.c ****             #endif  /* ( Timer_2_PWM_RIGHT == Timer_2_PWM_ALIGN) */
 135:Generated_Source\PSoC4/Timer_2.c **** 
 136:Generated_Source\PSoC4/Timer_2.c ****             #if (Timer_2__CENTER == Timer_2_PWM_ALIGN)
 137:Generated_Source\PSoC4/Timer_2.c ****                 Timer_2_TRIG_CONTROL2_REG = Timer_2_PWM_MODE_CENTER;
 138:Generated_Source\PSoC4/Timer_2.c ****             #endif  /* ( Timer_2_PWM_CENTER == Timer_2_PWM_ALIGN) */
 139:Generated_Source\PSoC4/Timer_2.c **** 
 140:Generated_Source\PSoC4/Timer_2.c ****             #if (Timer_2__ASYMMETRIC == Timer_2_PWM_ALIGN)
 141:Generated_Source\PSoC4/Timer_2.c ****                 Timer_2_TRIG_CONTROL2_REG = Timer_2_PWM_MODE_ASYM;
 142:Generated_Source\PSoC4/Timer_2.c ****             #endif  /* (Timer_2__ASYMMETRIC == Timer_2_PWM_ALIGN) */
 143:Generated_Source\PSoC4/Timer_2.c ****         #endif  /* (Timer_2__PWM_PR == Timer_2_PWM_MODE) */
 144:Generated_Source\PSoC4/Timer_2.c **** 
 145:Generated_Source\PSoC4/Timer_2.c ****         /* Set other values from customizer */
 146:Generated_Source\PSoC4/Timer_2.c ****         Timer_2_WritePeriod(Timer_2_PWM_PERIOD_VALUE );
 147:Generated_Source\PSoC4/Timer_2.c ****         Timer_2_WriteCompare(Timer_2_PWM_COMPARE_VALUE);
 148:Generated_Source\PSoC4/Timer_2.c **** 
 149:Generated_Source\PSoC4/Timer_2.c ****         #if (1u == Timer_2_PWM_COMPARE_SWAP)
 150:Generated_Source\PSoC4/Timer_2.c ****             Timer_2_SetCompareSwap(1u);
 151:Generated_Source\PSoC4/Timer_2.c ****             Timer_2_WriteCompareBuf(Timer_2_PWM_COMPARE_BUF_VALUE);
 152:Generated_Source\PSoC4/Timer_2.c ****         #endif  /* (1u == Timer_2_PWM_COMPARE_SWAP) */
 153:Generated_Source\PSoC4/Timer_2.c **** 
 154:Generated_Source\PSoC4/Timer_2.c ****         #if (1u == Timer_2_PWM_PERIOD_SWAP)
 155:Generated_Source\PSoC4/Timer_2.c ****             Timer_2_SetPeriodSwap(1u);
 156:Generated_Source\PSoC4/Timer_2.c ****             Timer_2_WritePeriodBuf(Timer_2_PWM_PERIOD_BUF_VALUE);
 157:Generated_Source\PSoC4/Timer_2.c ****         #endif  /* (1u == Timer_2_PWM_PERIOD_SWAP) */
 158:Generated_Source\PSoC4/Timer_2.c ****     #endif  /* (Timer_2__PWM_SEL == Timer_2_CONFIG) */
 159:Generated_Source\PSoC4/Timer_2.c ****     
 160:Generated_Source\PSoC4/Timer_2.c **** }
 161:Generated_Source\PSoC4/Timer_2.c **** 
 162:Generated_Source\PSoC4/Timer_2.c **** 
 163:Generated_Source\PSoC4/Timer_2.c **** /*******************************************************************************
 164:Generated_Source\PSoC4/Timer_2.c **** * Function Name: Timer_2_Enable
 165:Generated_Source\PSoC4/Timer_2.c **** ********************************************************************************
 166:Generated_Source\PSoC4/Timer_2.c **** *
 167:Generated_Source\PSoC4/Timer_2.c **** * Summary:
 168:Generated_Source\PSoC4/Timer_2.c **** *  Enables the Timer_2.
 169:Generated_Source\PSoC4/Timer_2.c **** *
 170:Generated_Source\PSoC4/Timer_2.c **** * Parameters:
 171:Generated_Source\PSoC4/Timer_2.c **** *  None
 172:Generated_Source\PSoC4/Timer_2.c **** *
 173:Generated_Source\PSoC4/Timer_2.c **** * Return:
 174:Generated_Source\PSoC4/Timer_2.c **** *  None
 175:Generated_Source\PSoC4/Timer_2.c **** *
 176:Generated_Source\PSoC4/Timer_2.c **** *******************************************************************************/
 177:Generated_Source\PSoC4/Timer_2.c **** void Timer_2_Enable(void)
 178:Generated_Source\PSoC4/Timer_2.c **** {
 179:Generated_Source\PSoC4/Timer_2.c ****     uint8 enableInterrupts;
 180:Generated_Source\PSoC4/Timer_2.c **** 
 181:Generated_Source\PSoC4/Timer_2.c ****     enableInterrupts = CyEnterCriticalSection();
 182:Generated_Source\PSoC4/Timer_2.c ****     Timer_2_BLOCK_CONTROL_REG |= Timer_2_MASK;
 183:Generated_Source\PSoC4/Timer_2.c ****     CyExitCriticalSection(enableInterrupts);
ARM GAS  C:\Users\Ala\AppData\Local\Temp\cc5WTHKW.s 			page 5


 184:Generated_Source\PSoC4/Timer_2.c **** 
 185:Generated_Source\PSoC4/Timer_2.c ****     /* Start Timer or PWM if start input is absent */
 186:Generated_Source\PSoC4/Timer_2.c ****     #if (Timer_2__PWM_SEL == Timer_2_CONFIG)
 187:Generated_Source\PSoC4/Timer_2.c ****         #if (0u == Timer_2_PWM_START_SIGNAL_PRESENT)
 188:Generated_Source\PSoC4/Timer_2.c ****             Timer_2_TriggerCommand(Timer_2_MASK, Timer_2_CMD_START);
 189:Generated_Source\PSoC4/Timer_2.c ****         #endif /* (0u == Timer_2_PWM_START_SIGNAL_PRESENT) */
 190:Generated_Source\PSoC4/Timer_2.c ****     #endif /* (Timer_2__PWM_SEL == Timer_2_CONFIG) */
 191:Generated_Source\PSoC4/Timer_2.c **** 
 192:Generated_Source\PSoC4/Timer_2.c ****     #if (Timer_2__TIMER == Timer_2_CONFIG)
 193:Generated_Source\PSoC4/Timer_2.c ****         #if (0u == Timer_2_TC_START_SIGNAL_PRESENT)
 194:Generated_Source\PSoC4/Timer_2.c ****             Timer_2_TriggerCommand(Timer_2_MASK, Timer_2_CMD_START);
 195:Generated_Source\PSoC4/Timer_2.c ****         #endif /* (0u == Timer_2_TC_START_SIGNAL_PRESENT) */
 196:Generated_Source\PSoC4/Timer_2.c ****     #endif /* (Timer_2__TIMER == Timer_2_CONFIG) */
 197:Generated_Source\PSoC4/Timer_2.c ****     
 198:Generated_Source\PSoC4/Timer_2.c ****     #if (Timer_2__QUAD == Timer_2_CONFIG)
 199:Generated_Source\PSoC4/Timer_2.c ****         #if (0u != Timer_2_QUAD_AUTO_START)
 200:Generated_Source\PSoC4/Timer_2.c ****             Timer_2_TriggerCommand(Timer_2_MASK, Timer_2_CMD_RELOAD);
 201:Generated_Source\PSoC4/Timer_2.c ****         #endif /* (0u != Timer_2_QUAD_AUTO_START) */
 202:Generated_Source\PSoC4/Timer_2.c ****     #endif  /* (Timer_2__QUAD == Timer_2_CONFIG) */
 203:Generated_Source\PSoC4/Timer_2.c **** }
 204:Generated_Source\PSoC4/Timer_2.c **** 
 205:Generated_Source\PSoC4/Timer_2.c **** 
 206:Generated_Source\PSoC4/Timer_2.c **** /*******************************************************************************
 207:Generated_Source\PSoC4/Timer_2.c **** * Function Name: Timer_2_Start
 208:Generated_Source\PSoC4/Timer_2.c **** ********************************************************************************
 209:Generated_Source\PSoC4/Timer_2.c **** *
 210:Generated_Source\PSoC4/Timer_2.c **** * Summary:
 211:Generated_Source\PSoC4/Timer_2.c **** *  Initializes the Timer_2 with default customizer
 212:Generated_Source\PSoC4/Timer_2.c **** *  values when called the first time and enables the Timer_2.
 213:Generated_Source\PSoC4/Timer_2.c **** *  For subsequent calls the configuration is left unchanged and the component is
 214:Generated_Source\PSoC4/Timer_2.c **** *  just enabled.
 215:Generated_Source\PSoC4/Timer_2.c **** *
 216:Generated_Source\PSoC4/Timer_2.c **** * Parameters:
 217:Generated_Source\PSoC4/Timer_2.c **** *  None
 218:Generated_Source\PSoC4/Timer_2.c **** *
 219:Generated_Source\PSoC4/Timer_2.c **** * Return:
 220:Generated_Source\PSoC4/Timer_2.c **** *  None
 221:Generated_Source\PSoC4/Timer_2.c **** *
 222:Generated_Source\PSoC4/Timer_2.c **** * Global variables:
 223:Generated_Source\PSoC4/Timer_2.c **** *  Timer_2_initVar: global variable is used to indicate initial
 224:Generated_Source\PSoC4/Timer_2.c **** *  configuration of this component.  The variable is initialized to zero and set
 225:Generated_Source\PSoC4/Timer_2.c **** *  to 1 the first time Timer_2_Start() is called. This allows
 226:Generated_Source\PSoC4/Timer_2.c **** *  enabling/disabling a component without re-initialization in all subsequent
 227:Generated_Source\PSoC4/Timer_2.c **** *  calls to the Timer_2_Start() routine.
 228:Generated_Source\PSoC4/Timer_2.c **** *
 229:Generated_Source\PSoC4/Timer_2.c **** *******************************************************************************/
 230:Generated_Source\PSoC4/Timer_2.c **** void Timer_2_Start(void)
 231:Generated_Source\PSoC4/Timer_2.c **** {
 232:Generated_Source\PSoC4/Timer_2.c ****     if (0u == Timer_2_initVar)
 233:Generated_Source\PSoC4/Timer_2.c ****     {
 234:Generated_Source\PSoC4/Timer_2.c ****         Timer_2_Init();
 235:Generated_Source\PSoC4/Timer_2.c ****         Timer_2_initVar = 1u;
 236:Generated_Source\PSoC4/Timer_2.c ****     }
 237:Generated_Source\PSoC4/Timer_2.c **** 
 238:Generated_Source\PSoC4/Timer_2.c ****     Timer_2_Enable();
 239:Generated_Source\PSoC4/Timer_2.c **** }
 240:Generated_Source\PSoC4/Timer_2.c **** 
ARM GAS  C:\Users\Ala\AppData\Local\Temp\cc5WTHKW.s 			page 6


 241:Generated_Source\PSoC4/Timer_2.c **** 
 242:Generated_Source\PSoC4/Timer_2.c **** /*******************************************************************************
 243:Generated_Source\PSoC4/Timer_2.c **** * Function Name: Timer_2_Stop
 244:Generated_Source\PSoC4/Timer_2.c **** ********************************************************************************
 245:Generated_Source\PSoC4/Timer_2.c **** *
 246:Generated_Source\PSoC4/Timer_2.c **** * Summary:
 247:Generated_Source\PSoC4/Timer_2.c **** *  Disables the Timer_2.
 248:Generated_Source\PSoC4/Timer_2.c **** *
 249:Generated_Source\PSoC4/Timer_2.c **** * Parameters:
 250:Generated_Source\PSoC4/Timer_2.c **** *  None
 251:Generated_Source\PSoC4/Timer_2.c **** *
 252:Generated_Source\PSoC4/Timer_2.c **** * Return:
 253:Generated_Source\PSoC4/Timer_2.c **** *  None
 254:Generated_Source\PSoC4/Timer_2.c **** *
 255:Generated_Source\PSoC4/Timer_2.c **** *******************************************************************************/
 256:Generated_Source\PSoC4/Timer_2.c **** void Timer_2_Stop(void)
 257:Generated_Source\PSoC4/Timer_2.c **** {
 258:Generated_Source\PSoC4/Timer_2.c ****     uint8 enableInterrupts;
 259:Generated_Source\PSoC4/Timer_2.c **** 
 260:Generated_Source\PSoC4/Timer_2.c ****     enableInterrupts = CyEnterCriticalSection();
 261:Generated_Source\PSoC4/Timer_2.c **** 
 262:Generated_Source\PSoC4/Timer_2.c ****     Timer_2_BLOCK_CONTROL_REG &= (uint32)~Timer_2_MASK;
 263:Generated_Source\PSoC4/Timer_2.c **** 
 264:Generated_Source\PSoC4/Timer_2.c ****     CyExitCriticalSection(enableInterrupts);
 265:Generated_Source\PSoC4/Timer_2.c **** }
 266:Generated_Source\PSoC4/Timer_2.c **** 
 267:Generated_Source\PSoC4/Timer_2.c **** 
 268:Generated_Source\PSoC4/Timer_2.c **** /*******************************************************************************
 269:Generated_Source\PSoC4/Timer_2.c **** * Function Name: Timer_2_SetMode
 270:Generated_Source\PSoC4/Timer_2.c **** ********************************************************************************
 271:Generated_Source\PSoC4/Timer_2.c **** *
 272:Generated_Source\PSoC4/Timer_2.c **** * Summary:
 273:Generated_Source\PSoC4/Timer_2.c **** *  Sets the operation mode of the Timer_2. This function is used when
 274:Generated_Source\PSoC4/Timer_2.c **** *  configured as a generic Timer_2 and the actual mode of operation is
 275:Generated_Source\PSoC4/Timer_2.c **** *  set at runtime. The mode must be set while the component is disabled.
 276:Generated_Source\PSoC4/Timer_2.c **** *
 277:Generated_Source\PSoC4/Timer_2.c **** * Parameters:
 278:Generated_Source\PSoC4/Timer_2.c **** *  mode: Mode for the Timer_2 to operate in
 279:Generated_Source\PSoC4/Timer_2.c **** *   Values:
 280:Generated_Source\PSoC4/Timer_2.c **** *   - Timer_2_MODE_TIMER_COMPARE - Timer / Counter with
 281:Generated_Source\PSoC4/Timer_2.c **** *                                                 compare capability
 282:Generated_Source\PSoC4/Timer_2.c **** *         - Timer_2_MODE_TIMER_CAPTURE - Timer / Counter with
 283:Generated_Source\PSoC4/Timer_2.c **** *                                                 capture capability
 284:Generated_Source\PSoC4/Timer_2.c **** *         - Timer_2_MODE_QUAD - Quadrature decoder
 285:Generated_Source\PSoC4/Timer_2.c **** *         - Timer_2_MODE_PWM - PWM
 286:Generated_Source\PSoC4/Timer_2.c **** *         - Timer_2_MODE_PWM_DT - PWM with dead time
 287:Generated_Source\PSoC4/Timer_2.c **** *         - Timer_2_MODE_PWM_PR - PWM with pseudo random capability
 288:Generated_Source\PSoC4/Timer_2.c **** *
 289:Generated_Source\PSoC4/Timer_2.c **** * Return:
 290:Generated_Source\PSoC4/Timer_2.c **** *  None
 291:Generated_Source\PSoC4/Timer_2.c **** *
 292:Generated_Source\PSoC4/Timer_2.c **** *******************************************************************************/
 293:Generated_Source\PSoC4/Timer_2.c **** void Timer_2_SetMode(uint32 mode)
 294:Generated_Source\PSoC4/Timer_2.c **** {
 295:Generated_Source\PSoC4/Timer_2.c ****     uint8 enableInterrupts;
 296:Generated_Source\PSoC4/Timer_2.c **** 
 297:Generated_Source\PSoC4/Timer_2.c ****     enableInterrupts = CyEnterCriticalSection();
ARM GAS  C:\Users\Ala\AppData\Local\Temp\cc5WTHKW.s 			page 7


 298:Generated_Source\PSoC4/Timer_2.c **** 
 299:Generated_Source\PSoC4/Timer_2.c ****     Timer_2_CONTROL_REG &= (uint32)~Timer_2_MODE_MASK;
 300:Generated_Source\PSoC4/Timer_2.c ****     Timer_2_CONTROL_REG |= mode;
 301:Generated_Source\PSoC4/Timer_2.c **** 
 302:Generated_Source\PSoC4/Timer_2.c ****     CyExitCriticalSection(enableInterrupts);
 303:Generated_Source\PSoC4/Timer_2.c **** }
 304:Generated_Source\PSoC4/Timer_2.c **** 
 305:Generated_Source\PSoC4/Timer_2.c **** 
 306:Generated_Source\PSoC4/Timer_2.c **** /*******************************************************************************
 307:Generated_Source\PSoC4/Timer_2.c **** * Function Name: Timer_2_SetQDMode
 308:Generated_Source\PSoC4/Timer_2.c **** ********************************************************************************
 309:Generated_Source\PSoC4/Timer_2.c **** *
 310:Generated_Source\PSoC4/Timer_2.c **** * Summary:
 311:Generated_Source\PSoC4/Timer_2.c **** *  Sets the the Quadrature Decoder to one of the 3 supported modes.
 312:Generated_Source\PSoC4/Timer_2.c **** *  Its functionality is only applicable to Quadrature Decoder operation.
 313:Generated_Source\PSoC4/Timer_2.c **** *
 314:Generated_Source\PSoC4/Timer_2.c **** * Parameters:
 315:Generated_Source\PSoC4/Timer_2.c **** *  qdMode: Quadrature Decoder mode
 316:Generated_Source\PSoC4/Timer_2.c **** *   Values:
 317:Generated_Source\PSoC4/Timer_2.c **** *         - Timer_2_MODE_X1 - Counts on phi 1 rising
 318:Generated_Source\PSoC4/Timer_2.c **** *         - Timer_2_MODE_X2 - Counts on both edges of phi1 (2x faster)
 319:Generated_Source\PSoC4/Timer_2.c **** *         - Timer_2_MODE_X4 - Counts on both edges of phi1 and phi2
 320:Generated_Source\PSoC4/Timer_2.c **** *                                        (4x faster)
 321:Generated_Source\PSoC4/Timer_2.c **** *
 322:Generated_Source\PSoC4/Timer_2.c **** * Return:
 323:Generated_Source\PSoC4/Timer_2.c **** *  None
 324:Generated_Source\PSoC4/Timer_2.c **** *
 325:Generated_Source\PSoC4/Timer_2.c **** *******************************************************************************/
 326:Generated_Source\PSoC4/Timer_2.c **** void Timer_2_SetQDMode(uint32 qdMode)
 327:Generated_Source\PSoC4/Timer_2.c **** {
 328:Generated_Source\PSoC4/Timer_2.c ****     uint8 enableInterrupts;
 329:Generated_Source\PSoC4/Timer_2.c **** 
 330:Generated_Source\PSoC4/Timer_2.c ****     enableInterrupts = CyEnterCriticalSection();
 331:Generated_Source\PSoC4/Timer_2.c **** 
 332:Generated_Source\PSoC4/Timer_2.c ****     Timer_2_CONTROL_REG &= (uint32)~Timer_2_QUAD_MODE_MASK;
 333:Generated_Source\PSoC4/Timer_2.c ****     Timer_2_CONTROL_REG |= qdMode;
 334:Generated_Source\PSoC4/Timer_2.c **** 
 335:Generated_Source\PSoC4/Timer_2.c ****     CyExitCriticalSection(enableInterrupts);
 336:Generated_Source\PSoC4/Timer_2.c **** }
 337:Generated_Source\PSoC4/Timer_2.c **** 
 338:Generated_Source\PSoC4/Timer_2.c **** 
 339:Generated_Source\PSoC4/Timer_2.c **** /*******************************************************************************
 340:Generated_Source\PSoC4/Timer_2.c **** * Function Name: Timer_2_SetPrescaler
 341:Generated_Source\PSoC4/Timer_2.c **** ********************************************************************************
 342:Generated_Source\PSoC4/Timer_2.c **** *
 343:Generated_Source\PSoC4/Timer_2.c **** * Summary:
 344:Generated_Source\PSoC4/Timer_2.c **** *  Sets the prescaler value that is applied to the clock input.  Not applicable
 345:Generated_Source\PSoC4/Timer_2.c **** *  to a PWM with the dead time mode or Quadrature Decoder mode.
 346:Generated_Source\PSoC4/Timer_2.c **** *
 347:Generated_Source\PSoC4/Timer_2.c **** * Parameters:
 348:Generated_Source\PSoC4/Timer_2.c **** *  prescaler: Prescaler divider value
 349:Generated_Source\PSoC4/Timer_2.c **** *   Values:
 350:Generated_Source\PSoC4/Timer_2.c **** *         - Timer_2_PRESCALE_DIVBY1    - Divide by 1 (no prescaling)
 351:Generated_Source\PSoC4/Timer_2.c **** *         - Timer_2_PRESCALE_DIVBY2    - Divide by 2
 352:Generated_Source\PSoC4/Timer_2.c **** *         - Timer_2_PRESCALE_DIVBY4    - Divide by 4
 353:Generated_Source\PSoC4/Timer_2.c **** *         - Timer_2_PRESCALE_DIVBY8    - Divide by 8
 354:Generated_Source\PSoC4/Timer_2.c **** *         - Timer_2_PRESCALE_DIVBY16   - Divide by 16
ARM GAS  C:\Users\Ala\AppData\Local\Temp\cc5WTHKW.s 			page 8


 355:Generated_Source\PSoC4/Timer_2.c **** *         - Timer_2_PRESCALE_DIVBY32   - Divide by 32
 356:Generated_Source\PSoC4/Timer_2.c **** *         - Timer_2_PRESCALE_DIVBY64   - Divide by 64
 357:Generated_Source\PSoC4/Timer_2.c **** *         - Timer_2_PRESCALE_DIVBY128  - Divide by 128
 358:Generated_Source\PSoC4/Timer_2.c **** *
 359:Generated_Source\PSoC4/Timer_2.c **** * Return:
 360:Generated_Source\PSoC4/Timer_2.c **** *  None
 361:Generated_Source\PSoC4/Timer_2.c **** *
 362:Generated_Source\PSoC4/Timer_2.c **** *******************************************************************************/
 363:Generated_Source\PSoC4/Timer_2.c **** void Timer_2_SetPrescaler(uint32 prescaler)
 364:Generated_Source\PSoC4/Timer_2.c **** {
 365:Generated_Source\PSoC4/Timer_2.c ****     uint8 enableInterrupts;
 366:Generated_Source\PSoC4/Timer_2.c **** 
 367:Generated_Source\PSoC4/Timer_2.c ****     enableInterrupts = CyEnterCriticalSection();
 368:Generated_Source\PSoC4/Timer_2.c **** 
 369:Generated_Source\PSoC4/Timer_2.c ****     Timer_2_CONTROL_REG &= (uint32)~Timer_2_PRESCALER_MASK;
 370:Generated_Source\PSoC4/Timer_2.c ****     Timer_2_CONTROL_REG |= prescaler;
 371:Generated_Source\PSoC4/Timer_2.c **** 
 372:Generated_Source\PSoC4/Timer_2.c ****     CyExitCriticalSection(enableInterrupts);
 373:Generated_Source\PSoC4/Timer_2.c **** }
 374:Generated_Source\PSoC4/Timer_2.c **** 
 375:Generated_Source\PSoC4/Timer_2.c **** 
 376:Generated_Source\PSoC4/Timer_2.c **** /*******************************************************************************
 377:Generated_Source\PSoC4/Timer_2.c **** * Function Name: Timer_2_SetOneShot
 378:Generated_Source\PSoC4/Timer_2.c **** ********************************************************************************
 379:Generated_Source\PSoC4/Timer_2.c **** *
 380:Generated_Source\PSoC4/Timer_2.c **** * Summary:
 381:Generated_Source\PSoC4/Timer_2.c **** *  Writes the register that controls whether the Timer_2 runs
 382:Generated_Source\PSoC4/Timer_2.c **** *  continuously or stops when terminal count is reached.  By default the
 383:Generated_Source\PSoC4/Timer_2.c **** *  Timer_2 operates in the continuous mode.
 384:Generated_Source\PSoC4/Timer_2.c **** *
 385:Generated_Source\PSoC4/Timer_2.c **** * Parameters:
 386:Generated_Source\PSoC4/Timer_2.c **** *  oneShotEnable
 387:Generated_Source\PSoC4/Timer_2.c **** *   Values:
 388:Generated_Source\PSoC4/Timer_2.c **** *     - 0 - Continuous
 389:Generated_Source\PSoC4/Timer_2.c **** *     - 1 - Enable One Shot
 390:Generated_Source\PSoC4/Timer_2.c **** *
 391:Generated_Source\PSoC4/Timer_2.c **** * Return:
 392:Generated_Source\PSoC4/Timer_2.c **** *  None
 393:Generated_Source\PSoC4/Timer_2.c **** *
 394:Generated_Source\PSoC4/Timer_2.c **** *******************************************************************************/
 395:Generated_Source\PSoC4/Timer_2.c **** void Timer_2_SetOneShot(uint32 oneShotEnable)
 396:Generated_Source\PSoC4/Timer_2.c **** {
 397:Generated_Source\PSoC4/Timer_2.c ****     uint8 enableInterrupts;
 398:Generated_Source\PSoC4/Timer_2.c **** 
 399:Generated_Source\PSoC4/Timer_2.c ****     enableInterrupts = CyEnterCriticalSection();
 400:Generated_Source\PSoC4/Timer_2.c **** 
 401:Generated_Source\PSoC4/Timer_2.c ****     Timer_2_CONTROL_REG &= (uint32)~Timer_2_ONESHOT_MASK;
 402:Generated_Source\PSoC4/Timer_2.c ****     Timer_2_CONTROL_REG |= ((uint32)((oneShotEnable & Timer_2_1BIT_MASK) <<
 403:Generated_Source\PSoC4/Timer_2.c ****                                                                Timer_2_ONESHOT_SHIFT));
 404:Generated_Source\PSoC4/Timer_2.c **** 
 405:Generated_Source\PSoC4/Timer_2.c ****     CyExitCriticalSection(enableInterrupts);
 406:Generated_Source\PSoC4/Timer_2.c **** }
 407:Generated_Source\PSoC4/Timer_2.c **** 
 408:Generated_Source\PSoC4/Timer_2.c **** 
 409:Generated_Source\PSoC4/Timer_2.c **** /*******************************************************************************
 410:Generated_Source\PSoC4/Timer_2.c **** * Function Name: Timer_2_SetPWMMode
 411:Generated_Source\PSoC4/Timer_2.c **** ********************************************************************************
ARM GAS  C:\Users\Ala\AppData\Local\Temp\cc5WTHKW.s 			page 9


 412:Generated_Source\PSoC4/Timer_2.c **** *
 413:Generated_Source\PSoC4/Timer_2.c **** * Summary:
 414:Generated_Source\PSoC4/Timer_2.c **** *  Writes the control register that determines what mode of operation the PWM
 415:Generated_Source\PSoC4/Timer_2.c **** *  output lines are driven in.  There is a setting for what to do on a
 416:Generated_Source\PSoC4/Timer_2.c **** *  comparison match (CC_MATCH), on an overflow (OVERFLOW) and on an underflow
 417:Generated_Source\PSoC4/Timer_2.c **** *  (UNDERFLOW).  The value for each of the three must be ORed together to form
 418:Generated_Source\PSoC4/Timer_2.c **** *  the mode.
 419:Generated_Source\PSoC4/Timer_2.c **** *
 420:Generated_Source\PSoC4/Timer_2.c **** * Parameters:
 421:Generated_Source\PSoC4/Timer_2.c **** *  modeMask: A combination of three mode settings.  Mask must include a value
 422:Generated_Source\PSoC4/Timer_2.c **** *  for each of the three or use one of the preconfigured PWM settings.
 423:Generated_Source\PSoC4/Timer_2.c **** *   Values:
 424:Generated_Source\PSoC4/Timer_2.c **** *     - CC_MATCH_SET        - Set on comparison match
 425:Generated_Source\PSoC4/Timer_2.c **** *     - CC_MATCH_CLEAR      - Clear on comparison match
 426:Generated_Source\PSoC4/Timer_2.c **** *     - CC_MATCH_INVERT     - Invert on comparison match
 427:Generated_Source\PSoC4/Timer_2.c **** *     - CC_MATCH_NO_CHANGE  - No change on comparison match
 428:Generated_Source\PSoC4/Timer_2.c **** *     - OVERLOW_SET         - Set on overflow
 429:Generated_Source\PSoC4/Timer_2.c **** *     - OVERLOW_CLEAR       - Clear on  overflow
 430:Generated_Source\PSoC4/Timer_2.c **** *     - OVERLOW_INVERT      - Invert on overflow
 431:Generated_Source\PSoC4/Timer_2.c **** *     - OVERLOW_NO_CHANGE   - No change on overflow
 432:Generated_Source\PSoC4/Timer_2.c **** *     - UNDERFLOW_SET       - Set on underflow
 433:Generated_Source\PSoC4/Timer_2.c **** *     - UNDERFLOW_CLEAR     - Clear on underflow
 434:Generated_Source\PSoC4/Timer_2.c **** *     - UNDERFLOW_INVERT    - Invert on underflow
 435:Generated_Source\PSoC4/Timer_2.c **** *     - UNDERFLOW_NO_CHANGE - No change on underflow
 436:Generated_Source\PSoC4/Timer_2.c **** *     - PWM_MODE_LEFT       - Setting for left aligned PWM.  Should be combined
 437:Generated_Source\PSoC4/Timer_2.c **** *                             with up counting mode
 438:Generated_Source\PSoC4/Timer_2.c **** *     - PWM_MODE_RIGHT      - Setting for right aligned PWM.  Should be combined
 439:Generated_Source\PSoC4/Timer_2.c **** *                             with down counting mode
 440:Generated_Source\PSoC4/Timer_2.c **** *     - PWM_MODE_CENTER     - Setting for center aligned PWM.  Should be
 441:Generated_Source\PSoC4/Timer_2.c **** *                             combined with up/down 0 mode
 442:Generated_Source\PSoC4/Timer_2.c **** *     - PWM_MODE_ASYM       - Setting for asymmetric PWM.  Should be combined
 443:Generated_Source\PSoC4/Timer_2.c **** *                             with up/down 1 mode
 444:Generated_Source\PSoC4/Timer_2.c **** *
 445:Generated_Source\PSoC4/Timer_2.c **** * Return:
 446:Generated_Source\PSoC4/Timer_2.c **** *  None
 447:Generated_Source\PSoC4/Timer_2.c **** *
 448:Generated_Source\PSoC4/Timer_2.c **** *******************************************************************************/
 449:Generated_Source\PSoC4/Timer_2.c **** void Timer_2_SetPWMMode(uint32 modeMask)
 450:Generated_Source\PSoC4/Timer_2.c **** {
 451:Generated_Source\PSoC4/Timer_2.c ****     Timer_2_TRIG_CONTROL2_REG = (modeMask & Timer_2_6BIT_MASK);
 452:Generated_Source\PSoC4/Timer_2.c **** }
 453:Generated_Source\PSoC4/Timer_2.c **** 
 454:Generated_Source\PSoC4/Timer_2.c **** 
 455:Generated_Source\PSoC4/Timer_2.c **** 
 456:Generated_Source\PSoC4/Timer_2.c **** /*******************************************************************************
 457:Generated_Source\PSoC4/Timer_2.c **** * Function Name: Timer_2_SetPWMSyncKill
 458:Generated_Source\PSoC4/Timer_2.c **** ********************************************************************************
 459:Generated_Source\PSoC4/Timer_2.c **** *
 460:Generated_Source\PSoC4/Timer_2.c **** * Summary:
 461:Generated_Source\PSoC4/Timer_2.c **** *  Writes the register that controls whether the PWM kill signal (stop input)
 462:Generated_Source\PSoC4/Timer_2.c **** *  causes asynchronous or synchronous kill operation.  By default the kill
 463:Generated_Source\PSoC4/Timer_2.c **** *  operation is asynchronous.  This functionality is only applicable to the PWM
 464:Generated_Source\PSoC4/Timer_2.c **** *  and PWM with dead time modes.
 465:Generated_Source\PSoC4/Timer_2.c **** *
 466:Generated_Source\PSoC4/Timer_2.c **** *  For Synchronous mode the kill signal disables both the line and line_n
 467:Generated_Source\PSoC4/Timer_2.c **** *  signals until the next terminal count.
 468:Generated_Source\PSoC4/Timer_2.c **** *
ARM GAS  C:\Users\Ala\AppData\Local\Temp\cc5WTHKW.s 			page 10


 469:Generated_Source\PSoC4/Timer_2.c **** *  For Asynchronous mode the kill signal disables both the line and line_n
 470:Generated_Source\PSoC4/Timer_2.c **** *  signals when the kill signal is present.  This mode should only be used
 471:Generated_Source\PSoC4/Timer_2.c **** *  when the kill signal (stop input) is configured in the pass through mode
 472:Generated_Source\PSoC4/Timer_2.c **** *  (Level sensitive signal).
 473:Generated_Source\PSoC4/Timer_2.c **** 
 474:Generated_Source\PSoC4/Timer_2.c **** *
 475:Generated_Source\PSoC4/Timer_2.c **** * Parameters:
 476:Generated_Source\PSoC4/Timer_2.c **** *  syncKillEnable
 477:Generated_Source\PSoC4/Timer_2.c **** *   Values:
 478:Generated_Source\PSoC4/Timer_2.c **** *     - 0 - Asynchronous
 479:Generated_Source\PSoC4/Timer_2.c **** *     - 1 - Synchronous
 480:Generated_Source\PSoC4/Timer_2.c **** *
 481:Generated_Source\PSoC4/Timer_2.c **** * Return:
 482:Generated_Source\PSoC4/Timer_2.c **** *  None
 483:Generated_Source\PSoC4/Timer_2.c **** *
 484:Generated_Source\PSoC4/Timer_2.c **** *******************************************************************************/
 485:Generated_Source\PSoC4/Timer_2.c **** void Timer_2_SetPWMSyncKill(uint32 syncKillEnable)
 486:Generated_Source\PSoC4/Timer_2.c **** {
 487:Generated_Source\PSoC4/Timer_2.c ****     uint8 enableInterrupts;
 488:Generated_Source\PSoC4/Timer_2.c **** 
 489:Generated_Source\PSoC4/Timer_2.c ****     enableInterrupts = CyEnterCriticalSection();
 490:Generated_Source\PSoC4/Timer_2.c **** 
 491:Generated_Source\PSoC4/Timer_2.c ****     Timer_2_CONTROL_REG &= (uint32)~Timer_2_PWM_SYNC_KILL_MASK;
 492:Generated_Source\PSoC4/Timer_2.c ****     Timer_2_CONTROL_REG |= ((uint32)((syncKillEnable & Timer_2_1BIT_MASK)  <<
 493:Generated_Source\PSoC4/Timer_2.c ****                                                Timer_2_PWM_SYNC_KILL_SHIFT));
 494:Generated_Source\PSoC4/Timer_2.c **** 
 495:Generated_Source\PSoC4/Timer_2.c ****     CyExitCriticalSection(enableInterrupts);
 496:Generated_Source\PSoC4/Timer_2.c **** }
 497:Generated_Source\PSoC4/Timer_2.c **** 
 498:Generated_Source\PSoC4/Timer_2.c **** 
 499:Generated_Source\PSoC4/Timer_2.c **** /*******************************************************************************
 500:Generated_Source\PSoC4/Timer_2.c **** * Function Name: Timer_2_SetPWMStopOnKill
 501:Generated_Source\PSoC4/Timer_2.c **** ********************************************************************************
 502:Generated_Source\PSoC4/Timer_2.c **** *
 503:Generated_Source\PSoC4/Timer_2.c **** * Summary:
 504:Generated_Source\PSoC4/Timer_2.c **** *  Writes the register that controls whether the PWM kill signal (stop input)
 505:Generated_Source\PSoC4/Timer_2.c **** *  causes the PWM counter to stop.  By default the kill operation does not stop
 506:Generated_Source\PSoC4/Timer_2.c **** *  the counter.  This functionality is only applicable to the three PWM modes.
 507:Generated_Source\PSoC4/Timer_2.c **** *
 508:Generated_Source\PSoC4/Timer_2.c **** *
 509:Generated_Source\PSoC4/Timer_2.c **** * Parameters:
 510:Generated_Source\PSoC4/Timer_2.c **** *  stopOnKillEnable
 511:Generated_Source\PSoC4/Timer_2.c **** *   Values:
 512:Generated_Source\PSoC4/Timer_2.c **** *     - 0 - Don't stop
 513:Generated_Source\PSoC4/Timer_2.c **** *     - 1 - Stop
 514:Generated_Source\PSoC4/Timer_2.c **** *
 515:Generated_Source\PSoC4/Timer_2.c **** * Return:
 516:Generated_Source\PSoC4/Timer_2.c **** *  None
 517:Generated_Source\PSoC4/Timer_2.c **** *
 518:Generated_Source\PSoC4/Timer_2.c **** *******************************************************************************/
 519:Generated_Source\PSoC4/Timer_2.c **** void Timer_2_SetPWMStopOnKill(uint32 stopOnKillEnable)
 520:Generated_Source\PSoC4/Timer_2.c **** {
 521:Generated_Source\PSoC4/Timer_2.c ****     uint8 enableInterrupts;
 522:Generated_Source\PSoC4/Timer_2.c **** 
 523:Generated_Source\PSoC4/Timer_2.c ****     enableInterrupts = CyEnterCriticalSection();
 524:Generated_Source\PSoC4/Timer_2.c **** 
 525:Generated_Source\PSoC4/Timer_2.c ****     Timer_2_CONTROL_REG &= (uint32)~Timer_2_PWM_STOP_KILL_MASK;
ARM GAS  C:\Users\Ala\AppData\Local\Temp\cc5WTHKW.s 			page 11


 526:Generated_Source\PSoC4/Timer_2.c ****     Timer_2_CONTROL_REG |= ((uint32)((stopOnKillEnable & Timer_2_1BIT_MASK)  <<
 527:Generated_Source\PSoC4/Timer_2.c ****                                                          Timer_2_PWM_STOP_KILL_SHIFT));
 528:Generated_Source\PSoC4/Timer_2.c **** 
 529:Generated_Source\PSoC4/Timer_2.c ****     CyExitCriticalSection(enableInterrupts);
 530:Generated_Source\PSoC4/Timer_2.c **** }
 531:Generated_Source\PSoC4/Timer_2.c **** 
 532:Generated_Source\PSoC4/Timer_2.c **** 
 533:Generated_Source\PSoC4/Timer_2.c **** /*******************************************************************************
 534:Generated_Source\PSoC4/Timer_2.c **** * Function Name: Timer_2_SetPWMDeadTime
 535:Generated_Source\PSoC4/Timer_2.c **** ********************************************************************************
 536:Generated_Source\PSoC4/Timer_2.c **** *
 537:Generated_Source\PSoC4/Timer_2.c **** * Summary:
 538:Generated_Source\PSoC4/Timer_2.c **** *  Writes the dead time control value.  This value delays the rising edge of
 539:Generated_Source\PSoC4/Timer_2.c **** *  both the line and line_n signals the designated number of cycles resulting
 540:Generated_Source\PSoC4/Timer_2.c **** *  in both signals being inactive for that many cycles.  This functionality is
 541:Generated_Source\PSoC4/Timer_2.c **** *  only applicable to the PWM in the dead time mode.
 542:Generated_Source\PSoC4/Timer_2.c **** 
 543:Generated_Source\PSoC4/Timer_2.c **** *
 544:Generated_Source\PSoC4/Timer_2.c **** * Parameters:
 545:Generated_Source\PSoC4/Timer_2.c **** *  Dead time to insert
 546:Generated_Source\PSoC4/Timer_2.c **** *   Values: 0 to 255
 547:Generated_Source\PSoC4/Timer_2.c **** *
 548:Generated_Source\PSoC4/Timer_2.c **** * Return:
 549:Generated_Source\PSoC4/Timer_2.c **** *  None
 550:Generated_Source\PSoC4/Timer_2.c **** *
 551:Generated_Source\PSoC4/Timer_2.c **** *******************************************************************************/
 552:Generated_Source\PSoC4/Timer_2.c **** void Timer_2_SetPWMDeadTime(uint32 deadTime)
 553:Generated_Source\PSoC4/Timer_2.c **** {
 554:Generated_Source\PSoC4/Timer_2.c ****     uint8 enableInterrupts;
 555:Generated_Source\PSoC4/Timer_2.c **** 
 556:Generated_Source\PSoC4/Timer_2.c ****     enableInterrupts = CyEnterCriticalSection();
 557:Generated_Source\PSoC4/Timer_2.c **** 
 558:Generated_Source\PSoC4/Timer_2.c ****     Timer_2_CONTROL_REG &= (uint32)~Timer_2_PRESCALER_MASK;
 559:Generated_Source\PSoC4/Timer_2.c ****     Timer_2_CONTROL_REG |= ((uint32)((deadTime & Timer_2_8BIT_MASK) <<
 560:Generated_Source\PSoC4/Timer_2.c ****                                                           Timer_2_PRESCALER_SHIFT));
 561:Generated_Source\PSoC4/Timer_2.c **** 
 562:Generated_Source\PSoC4/Timer_2.c ****     CyExitCriticalSection(enableInterrupts);
 563:Generated_Source\PSoC4/Timer_2.c **** }
 564:Generated_Source\PSoC4/Timer_2.c **** 
 565:Generated_Source\PSoC4/Timer_2.c **** 
 566:Generated_Source\PSoC4/Timer_2.c **** /*******************************************************************************
 567:Generated_Source\PSoC4/Timer_2.c **** * Function Name: Timer_2_SetPWMInvert
 568:Generated_Source\PSoC4/Timer_2.c **** ********************************************************************************
 569:Generated_Source\PSoC4/Timer_2.c **** *
 570:Generated_Source\PSoC4/Timer_2.c **** * Summary:
 571:Generated_Source\PSoC4/Timer_2.c **** *  Writes the bits that control whether the line and line_n outputs are
 572:Generated_Source\PSoC4/Timer_2.c **** *  inverted from their normal output values.  This functionality is only
 573:Generated_Source\PSoC4/Timer_2.c **** *  applicable to the three PWM modes.
 574:Generated_Source\PSoC4/Timer_2.c **** *
 575:Generated_Source\PSoC4/Timer_2.c **** * Parameters:
 576:Generated_Source\PSoC4/Timer_2.c **** *  mask: Mask of outputs to invert.
 577:Generated_Source\PSoC4/Timer_2.c **** *   Values:
 578:Generated_Source\PSoC4/Timer_2.c **** *         - Timer_2_INVERT_LINE   - Inverts the line output
 579:Generated_Source\PSoC4/Timer_2.c **** *         - Timer_2_INVERT_LINE_N - Inverts the line_n output
 580:Generated_Source\PSoC4/Timer_2.c **** *
 581:Generated_Source\PSoC4/Timer_2.c **** * Return:
 582:Generated_Source\PSoC4/Timer_2.c **** *  None
ARM GAS  C:\Users\Ala\AppData\Local\Temp\cc5WTHKW.s 			page 12


 583:Generated_Source\PSoC4/Timer_2.c **** *
 584:Generated_Source\PSoC4/Timer_2.c **** *******************************************************************************/
 585:Generated_Source\PSoC4/Timer_2.c **** void Timer_2_SetPWMInvert(uint32 mask)
 586:Generated_Source\PSoC4/Timer_2.c **** {
 587:Generated_Source\PSoC4/Timer_2.c ****     uint8 enableInterrupts;
 588:Generated_Source\PSoC4/Timer_2.c **** 
 589:Generated_Source\PSoC4/Timer_2.c ****     enableInterrupts = CyEnterCriticalSection();
 590:Generated_Source\PSoC4/Timer_2.c **** 
 591:Generated_Source\PSoC4/Timer_2.c ****     Timer_2_CONTROL_REG &= (uint32)~Timer_2_INV_OUT_MASK;
 592:Generated_Source\PSoC4/Timer_2.c ****     Timer_2_CONTROL_REG |= mask;
 593:Generated_Source\PSoC4/Timer_2.c **** 
 594:Generated_Source\PSoC4/Timer_2.c ****     CyExitCriticalSection(enableInterrupts);
 595:Generated_Source\PSoC4/Timer_2.c **** }
 596:Generated_Source\PSoC4/Timer_2.c **** 
 597:Generated_Source\PSoC4/Timer_2.c **** 
 598:Generated_Source\PSoC4/Timer_2.c **** 
 599:Generated_Source\PSoC4/Timer_2.c **** /*******************************************************************************
 600:Generated_Source\PSoC4/Timer_2.c **** * Function Name: Timer_2_WriteCounter
 601:Generated_Source\PSoC4/Timer_2.c **** ********************************************************************************
 602:Generated_Source\PSoC4/Timer_2.c **** *
 603:Generated_Source\PSoC4/Timer_2.c **** * Summary:
 604:Generated_Source\PSoC4/Timer_2.c **** *  Writes a new 16bit counter value directly into the counter register, thus
 605:Generated_Source\PSoC4/Timer_2.c **** *  setting the counter (not the period) to the value written. It is not
 606:Generated_Source\PSoC4/Timer_2.c **** *  advised to write to this field when the counter is running.
 607:Generated_Source\PSoC4/Timer_2.c **** *
 608:Generated_Source\PSoC4/Timer_2.c **** * Parameters:
 609:Generated_Source\PSoC4/Timer_2.c **** *  count: value to write
 610:Generated_Source\PSoC4/Timer_2.c **** *
 611:Generated_Source\PSoC4/Timer_2.c **** * Return:
 612:Generated_Source\PSoC4/Timer_2.c **** *  None
 613:Generated_Source\PSoC4/Timer_2.c **** *
 614:Generated_Source\PSoC4/Timer_2.c **** *******************************************************************************/
 615:Generated_Source\PSoC4/Timer_2.c **** void Timer_2_WriteCounter(uint32 count)
 616:Generated_Source\PSoC4/Timer_2.c **** {
 617:Generated_Source\PSoC4/Timer_2.c ****     Timer_2_COUNTER_REG = (count & Timer_2_16BIT_MASK);
 618:Generated_Source\PSoC4/Timer_2.c **** }
 619:Generated_Source\PSoC4/Timer_2.c **** 
 620:Generated_Source\PSoC4/Timer_2.c **** 
 621:Generated_Source\PSoC4/Timer_2.c **** /*******************************************************************************
 622:Generated_Source\PSoC4/Timer_2.c **** * Function Name: Timer_2_ReadCounter
 623:Generated_Source\PSoC4/Timer_2.c **** ********************************************************************************
 624:Generated_Source\PSoC4/Timer_2.c **** *
 625:Generated_Source\PSoC4/Timer_2.c **** * Summary:
 626:Generated_Source\PSoC4/Timer_2.c **** *  Reads the current counter value.
 627:Generated_Source\PSoC4/Timer_2.c **** *
 628:Generated_Source\PSoC4/Timer_2.c **** * Parameters:
 629:Generated_Source\PSoC4/Timer_2.c **** *  None
 630:Generated_Source\PSoC4/Timer_2.c **** *
 631:Generated_Source\PSoC4/Timer_2.c **** * Return:
 632:Generated_Source\PSoC4/Timer_2.c **** *  Current counter value
 633:Generated_Source\PSoC4/Timer_2.c **** *
 634:Generated_Source\PSoC4/Timer_2.c **** *******************************************************************************/
 635:Generated_Source\PSoC4/Timer_2.c **** uint32 Timer_2_ReadCounter(void)
 636:Generated_Source\PSoC4/Timer_2.c **** {
 637:Generated_Source\PSoC4/Timer_2.c ****     return (Timer_2_COUNTER_REG & Timer_2_16BIT_MASK);
 638:Generated_Source\PSoC4/Timer_2.c **** }
 639:Generated_Source\PSoC4/Timer_2.c **** 
ARM GAS  C:\Users\Ala\AppData\Local\Temp\cc5WTHKW.s 			page 13


 640:Generated_Source\PSoC4/Timer_2.c **** 
 641:Generated_Source\PSoC4/Timer_2.c **** /*******************************************************************************
 642:Generated_Source\PSoC4/Timer_2.c **** * Function Name: Timer_2_SetCounterMode
 643:Generated_Source\PSoC4/Timer_2.c **** ********************************************************************************
 644:Generated_Source\PSoC4/Timer_2.c **** *
 645:Generated_Source\PSoC4/Timer_2.c **** * Summary:
 646:Generated_Source\PSoC4/Timer_2.c **** *  Sets the counter mode.  Applicable to all modes except Quadrature Decoder
 647:Generated_Source\PSoC4/Timer_2.c **** *  and the PWM with a pseudo random output.
 648:Generated_Source\PSoC4/Timer_2.c **** *
 649:Generated_Source\PSoC4/Timer_2.c **** * Parameters:
 650:Generated_Source\PSoC4/Timer_2.c **** *  counterMode: Enumerated counter type values
 651:Generated_Source\PSoC4/Timer_2.c **** *   Values:
 652:Generated_Source\PSoC4/Timer_2.c **** *     - Timer_2_COUNT_UP       - Counts up
 653:Generated_Source\PSoC4/Timer_2.c **** *     - Timer_2_COUNT_DOWN     - Counts down
 654:Generated_Source\PSoC4/Timer_2.c **** *     - Timer_2_COUNT_UPDOWN0  - Counts up and down. Terminal count
 655:Generated_Source\PSoC4/Timer_2.c **** *                                         generated when counter reaches 0
 656:Generated_Source\PSoC4/Timer_2.c **** *     - Timer_2_COUNT_UPDOWN1  - Counts up and down. Terminal count
 657:Generated_Source\PSoC4/Timer_2.c **** *                                         generated both when counter reaches 0
 658:Generated_Source\PSoC4/Timer_2.c **** *                                         and period
 659:Generated_Source\PSoC4/Timer_2.c **** *
 660:Generated_Source\PSoC4/Timer_2.c **** * Return:
 661:Generated_Source\PSoC4/Timer_2.c **** *  None
 662:Generated_Source\PSoC4/Timer_2.c **** *
 663:Generated_Source\PSoC4/Timer_2.c **** *******************************************************************************/
 664:Generated_Source\PSoC4/Timer_2.c **** void Timer_2_SetCounterMode(uint32 counterMode)
 665:Generated_Source\PSoC4/Timer_2.c **** {
 666:Generated_Source\PSoC4/Timer_2.c ****     uint8 enableInterrupts;
 667:Generated_Source\PSoC4/Timer_2.c **** 
 668:Generated_Source\PSoC4/Timer_2.c ****     enableInterrupts = CyEnterCriticalSection();
 669:Generated_Source\PSoC4/Timer_2.c **** 
 670:Generated_Source\PSoC4/Timer_2.c ****     Timer_2_CONTROL_REG &= (uint32)~Timer_2_UPDOWN_MASK;
 671:Generated_Source\PSoC4/Timer_2.c ****     Timer_2_CONTROL_REG |= counterMode;
 672:Generated_Source\PSoC4/Timer_2.c **** 
 673:Generated_Source\PSoC4/Timer_2.c ****     CyExitCriticalSection(enableInterrupts);
 674:Generated_Source\PSoC4/Timer_2.c **** }
 675:Generated_Source\PSoC4/Timer_2.c **** 
 676:Generated_Source\PSoC4/Timer_2.c **** 
 677:Generated_Source\PSoC4/Timer_2.c **** /*******************************************************************************
 678:Generated_Source\PSoC4/Timer_2.c **** * Function Name: Timer_2_WritePeriod
 679:Generated_Source\PSoC4/Timer_2.c **** ********************************************************************************
 680:Generated_Source\PSoC4/Timer_2.c **** *
 681:Generated_Source\PSoC4/Timer_2.c **** * Summary:
 682:Generated_Source\PSoC4/Timer_2.c **** *  Writes the 16 bit period register with the new period value.
 683:Generated_Source\PSoC4/Timer_2.c **** *  To cause the counter to count for N cycles this register should be written
 684:Generated_Source\PSoC4/Timer_2.c **** *  with N-1 (counts from 0 to period inclusive).
 685:Generated_Source\PSoC4/Timer_2.c **** *
 686:Generated_Source\PSoC4/Timer_2.c **** * Parameters:
 687:Generated_Source\PSoC4/Timer_2.c **** *  period: Period value
 688:Generated_Source\PSoC4/Timer_2.c **** *
 689:Generated_Source\PSoC4/Timer_2.c **** * Return:
 690:Generated_Source\PSoC4/Timer_2.c **** *  None
 691:Generated_Source\PSoC4/Timer_2.c **** *
 692:Generated_Source\PSoC4/Timer_2.c **** *******************************************************************************/
 693:Generated_Source\PSoC4/Timer_2.c **** void Timer_2_WritePeriod(uint32 period)
 694:Generated_Source\PSoC4/Timer_2.c **** {
 695:Generated_Source\PSoC4/Timer_2.c ****     Timer_2_PERIOD_REG = (period & Timer_2_16BIT_MASK);
 696:Generated_Source\PSoC4/Timer_2.c **** }
ARM GAS  C:\Users\Ala\AppData\Local\Temp\cc5WTHKW.s 			page 14


 697:Generated_Source\PSoC4/Timer_2.c **** 
 698:Generated_Source\PSoC4/Timer_2.c **** 
 699:Generated_Source\PSoC4/Timer_2.c **** /*******************************************************************************
 700:Generated_Source\PSoC4/Timer_2.c **** * Function Name: Timer_2_ReadPeriod
 701:Generated_Source\PSoC4/Timer_2.c **** ********************************************************************************
 702:Generated_Source\PSoC4/Timer_2.c **** *
 703:Generated_Source\PSoC4/Timer_2.c **** * Summary:
 704:Generated_Source\PSoC4/Timer_2.c **** *  Reads the 16 bit period register.
 705:Generated_Source\PSoC4/Timer_2.c **** *
 706:Generated_Source\PSoC4/Timer_2.c **** * Parameters:
 707:Generated_Source\PSoC4/Timer_2.c **** *  None
 708:Generated_Source\PSoC4/Timer_2.c **** *
 709:Generated_Source\PSoC4/Timer_2.c **** * Return:
 710:Generated_Source\PSoC4/Timer_2.c **** *  Period value
 711:Generated_Source\PSoC4/Timer_2.c **** *
 712:Generated_Source\PSoC4/Timer_2.c **** *******************************************************************************/
 713:Generated_Source\PSoC4/Timer_2.c **** uint32 Timer_2_ReadPeriod(void)
 714:Generated_Source\PSoC4/Timer_2.c **** {
 715:Generated_Source\PSoC4/Timer_2.c ****     return (Timer_2_PERIOD_REG & Timer_2_16BIT_MASK);
 716:Generated_Source\PSoC4/Timer_2.c **** }
 717:Generated_Source\PSoC4/Timer_2.c **** 
 718:Generated_Source\PSoC4/Timer_2.c **** 
 719:Generated_Source\PSoC4/Timer_2.c **** /*******************************************************************************
 720:Generated_Source\PSoC4/Timer_2.c **** * Function Name: Timer_2_SetCompareSwap
 721:Generated_Source\PSoC4/Timer_2.c **** ********************************************************************************
 722:Generated_Source\PSoC4/Timer_2.c **** *
 723:Generated_Source\PSoC4/Timer_2.c **** * Summary:
 724:Generated_Source\PSoC4/Timer_2.c **** *  Writes the register that controls whether the compare registers are
 725:Generated_Source\PSoC4/Timer_2.c **** *  swapped. When enabled in the Timer/Counter mode(without capture) the swap
 726:Generated_Source\PSoC4/Timer_2.c **** *  occurs at a TC event. In the PWM mode the swap occurs at the next TC event
 727:Generated_Source\PSoC4/Timer_2.c **** *  following a hardware switch event.
 728:Generated_Source\PSoC4/Timer_2.c **** *
 729:Generated_Source\PSoC4/Timer_2.c **** * Parameters:
 730:Generated_Source\PSoC4/Timer_2.c **** *  swapEnable
 731:Generated_Source\PSoC4/Timer_2.c **** *   Values:
 732:Generated_Source\PSoC4/Timer_2.c **** *     - 0 - Disable swap
 733:Generated_Source\PSoC4/Timer_2.c **** *     - 1 - Enable swap
 734:Generated_Source\PSoC4/Timer_2.c **** *
 735:Generated_Source\PSoC4/Timer_2.c **** * Return:
 736:Generated_Source\PSoC4/Timer_2.c **** *  None
 737:Generated_Source\PSoC4/Timer_2.c **** *
 738:Generated_Source\PSoC4/Timer_2.c **** *******************************************************************************/
 739:Generated_Source\PSoC4/Timer_2.c **** void Timer_2_SetCompareSwap(uint32 swapEnable)
 740:Generated_Source\PSoC4/Timer_2.c **** {
 741:Generated_Source\PSoC4/Timer_2.c ****     uint8 enableInterrupts;
 742:Generated_Source\PSoC4/Timer_2.c **** 
 743:Generated_Source\PSoC4/Timer_2.c ****     enableInterrupts = CyEnterCriticalSection();
 744:Generated_Source\PSoC4/Timer_2.c **** 
 745:Generated_Source\PSoC4/Timer_2.c ****     Timer_2_CONTROL_REG &= (uint32)~Timer_2_RELOAD_CC_MASK;
 746:Generated_Source\PSoC4/Timer_2.c ****     Timer_2_CONTROL_REG |= (swapEnable & Timer_2_1BIT_MASK);
 747:Generated_Source\PSoC4/Timer_2.c **** 
 748:Generated_Source\PSoC4/Timer_2.c ****     CyExitCriticalSection(enableInterrupts);
 749:Generated_Source\PSoC4/Timer_2.c **** }
 750:Generated_Source\PSoC4/Timer_2.c **** 
 751:Generated_Source\PSoC4/Timer_2.c **** 
 752:Generated_Source\PSoC4/Timer_2.c **** /*******************************************************************************
 753:Generated_Source\PSoC4/Timer_2.c **** * Function Name: Timer_2_WritePeriodBuf
ARM GAS  C:\Users\Ala\AppData\Local\Temp\cc5WTHKW.s 			page 15


 754:Generated_Source\PSoC4/Timer_2.c **** ********************************************************************************
 755:Generated_Source\PSoC4/Timer_2.c **** *
 756:Generated_Source\PSoC4/Timer_2.c **** * Summary:
 757:Generated_Source\PSoC4/Timer_2.c **** *  Writes the 16 bit period buf register with the new period value.
 758:Generated_Source\PSoC4/Timer_2.c **** *
 759:Generated_Source\PSoC4/Timer_2.c **** * Parameters:
 760:Generated_Source\PSoC4/Timer_2.c **** *  periodBuf: Period value
 761:Generated_Source\PSoC4/Timer_2.c **** *
 762:Generated_Source\PSoC4/Timer_2.c **** * Return:
 763:Generated_Source\PSoC4/Timer_2.c **** *  None
 764:Generated_Source\PSoC4/Timer_2.c **** *
 765:Generated_Source\PSoC4/Timer_2.c **** *******************************************************************************/
 766:Generated_Source\PSoC4/Timer_2.c **** void Timer_2_WritePeriodBuf(uint32 periodBuf)
 767:Generated_Source\PSoC4/Timer_2.c **** {
 768:Generated_Source\PSoC4/Timer_2.c ****     Timer_2_PERIOD_BUF_REG = (periodBuf & Timer_2_16BIT_MASK);
 769:Generated_Source\PSoC4/Timer_2.c **** }
 770:Generated_Source\PSoC4/Timer_2.c **** 
 771:Generated_Source\PSoC4/Timer_2.c **** 
 772:Generated_Source\PSoC4/Timer_2.c **** /*******************************************************************************
 773:Generated_Source\PSoC4/Timer_2.c **** * Function Name: Timer_2_ReadPeriodBuf
 774:Generated_Source\PSoC4/Timer_2.c **** ********************************************************************************
 775:Generated_Source\PSoC4/Timer_2.c **** *
 776:Generated_Source\PSoC4/Timer_2.c **** * Summary:
 777:Generated_Source\PSoC4/Timer_2.c **** *  Reads the 16 bit period buf register.
 778:Generated_Source\PSoC4/Timer_2.c **** *
 779:Generated_Source\PSoC4/Timer_2.c **** * Parameters:
 780:Generated_Source\PSoC4/Timer_2.c **** *  None
 781:Generated_Source\PSoC4/Timer_2.c **** *
 782:Generated_Source\PSoC4/Timer_2.c **** * Return:
 783:Generated_Source\PSoC4/Timer_2.c **** *  Period value
 784:Generated_Source\PSoC4/Timer_2.c **** *
 785:Generated_Source\PSoC4/Timer_2.c **** *******************************************************************************/
 786:Generated_Source\PSoC4/Timer_2.c **** uint32 Timer_2_ReadPeriodBuf(void)
 787:Generated_Source\PSoC4/Timer_2.c **** {
 788:Generated_Source\PSoC4/Timer_2.c ****     return (Timer_2_PERIOD_BUF_REG & Timer_2_16BIT_MASK);
 789:Generated_Source\PSoC4/Timer_2.c **** }
 790:Generated_Source\PSoC4/Timer_2.c **** 
 791:Generated_Source\PSoC4/Timer_2.c **** 
 792:Generated_Source\PSoC4/Timer_2.c **** /*******************************************************************************
 793:Generated_Source\PSoC4/Timer_2.c **** * Function Name: Timer_2_SetPeriodSwap
 794:Generated_Source\PSoC4/Timer_2.c **** ********************************************************************************
 795:Generated_Source\PSoC4/Timer_2.c **** *
 796:Generated_Source\PSoC4/Timer_2.c **** * Summary:
 797:Generated_Source\PSoC4/Timer_2.c **** *  Writes the register that controls whether the period registers are
 798:Generated_Source\PSoC4/Timer_2.c **** *  swapped. When enabled in Timer/Counter mode the swap occurs at a TC event.
 799:Generated_Source\PSoC4/Timer_2.c **** *  In the PWM mode the swap occurs at the next TC event following a hardware
 800:Generated_Source\PSoC4/Timer_2.c **** *  switch event.
 801:Generated_Source\PSoC4/Timer_2.c **** *
 802:Generated_Source\PSoC4/Timer_2.c **** * Parameters:
 803:Generated_Source\PSoC4/Timer_2.c **** *  swapEnable
 804:Generated_Source\PSoC4/Timer_2.c **** *   Values:
 805:Generated_Source\PSoC4/Timer_2.c **** *     - 0 - Disable swap
 806:Generated_Source\PSoC4/Timer_2.c **** *     - 1 - Enable swap
 807:Generated_Source\PSoC4/Timer_2.c **** *
 808:Generated_Source\PSoC4/Timer_2.c **** * Return:
 809:Generated_Source\PSoC4/Timer_2.c **** *  None
 810:Generated_Source\PSoC4/Timer_2.c **** *
ARM GAS  C:\Users\Ala\AppData\Local\Temp\cc5WTHKW.s 			page 16


 811:Generated_Source\PSoC4/Timer_2.c **** *******************************************************************************/
 812:Generated_Source\PSoC4/Timer_2.c **** void Timer_2_SetPeriodSwap(uint32 swapEnable)
 813:Generated_Source\PSoC4/Timer_2.c **** {
 814:Generated_Source\PSoC4/Timer_2.c ****     uint8 enableInterrupts;
 815:Generated_Source\PSoC4/Timer_2.c **** 
 816:Generated_Source\PSoC4/Timer_2.c ****     enableInterrupts = CyEnterCriticalSection();
 817:Generated_Source\PSoC4/Timer_2.c **** 
 818:Generated_Source\PSoC4/Timer_2.c ****     Timer_2_CONTROL_REG &= (uint32)~Timer_2_RELOAD_PERIOD_MASK;
 819:Generated_Source\PSoC4/Timer_2.c ****     Timer_2_CONTROL_REG |= ((uint32)((swapEnable & Timer_2_1BIT_MASK) <<
 820:Generated_Source\PSoC4/Timer_2.c ****                                                             Timer_2_RELOAD_PERIOD_SHIFT));
 821:Generated_Source\PSoC4/Timer_2.c **** 
 822:Generated_Source\PSoC4/Timer_2.c ****     CyExitCriticalSection(enableInterrupts);
 823:Generated_Source\PSoC4/Timer_2.c **** }
 824:Generated_Source\PSoC4/Timer_2.c **** 
 825:Generated_Source\PSoC4/Timer_2.c **** 
 826:Generated_Source\PSoC4/Timer_2.c **** /*******************************************************************************
 827:Generated_Source\PSoC4/Timer_2.c **** * Function Name: Timer_2_WriteCompare
 828:Generated_Source\PSoC4/Timer_2.c **** ********************************************************************************
 829:Generated_Source\PSoC4/Timer_2.c **** *
 830:Generated_Source\PSoC4/Timer_2.c **** * Summary:
 831:Generated_Source\PSoC4/Timer_2.c **** *  Writes the 16 bit compare register with the new compare value. Not
 832:Generated_Source\PSoC4/Timer_2.c **** *  applicable for Timer/Counter with Capture or in Quadrature Decoder modes.
 833:Generated_Source\PSoC4/Timer_2.c **** *
 834:Generated_Source\PSoC4/Timer_2.c **** * Parameters:
 835:Generated_Source\PSoC4/Timer_2.c **** *  compare: Compare value
 836:Generated_Source\PSoC4/Timer_2.c **** *
 837:Generated_Source\PSoC4/Timer_2.c **** * Return:
 838:Generated_Source\PSoC4/Timer_2.c **** *  None
 839:Generated_Source\PSoC4/Timer_2.c **** *
 840:Generated_Source\PSoC4/Timer_2.c **** * Note:
 841:Generated_Source\PSoC4/Timer_2.c **** *  It is not recommended to use the value equal to "0" or equal to 
 842:Generated_Source\PSoC4/Timer_2.c **** *  "period value" in Center or Asymmetric align PWM modes on the 
 843:Generated_Source\PSoC4/Timer_2.c **** *  PSoC 4100/PSoC 4200 devices.
 844:Generated_Source\PSoC4/Timer_2.c **** *  PSoC 4000 devices write the 16 bit compare register with the decremented 
 845:Generated_Source\PSoC4/Timer_2.c **** *  compare value in the Up counting mode (except 0x0u), and the incremented 
 846:Generated_Source\PSoC4/Timer_2.c **** *  compare value in the Down counting mode (except 0xFFFFu).
 847:Generated_Source\PSoC4/Timer_2.c **** *
 848:Generated_Source\PSoC4/Timer_2.c **** *******************************************************************************/
 849:Generated_Source\PSoC4/Timer_2.c **** void Timer_2_WriteCompare(uint32 compare)
 850:Generated_Source\PSoC4/Timer_2.c **** {
 851:Generated_Source\PSoC4/Timer_2.c ****     #if (Timer_2_CY_TCPWM_4000)
 852:Generated_Source\PSoC4/Timer_2.c ****         uint32 currentMode;
 853:Generated_Source\PSoC4/Timer_2.c ****     #endif /* (Timer_2_CY_TCPWM_4000) */
 854:Generated_Source\PSoC4/Timer_2.c **** 
 855:Generated_Source\PSoC4/Timer_2.c ****     #if (Timer_2_CY_TCPWM_4000)
 856:Generated_Source\PSoC4/Timer_2.c ****         currentMode = ((Timer_2_CONTROL_REG & Timer_2_UPDOWN_MASK) >> Timer_2_UPDOWN_SHIFT);
 857:Generated_Source\PSoC4/Timer_2.c **** 
 858:Generated_Source\PSoC4/Timer_2.c ****         if (((uint32)Timer_2__COUNT_DOWN == currentMode) && (0xFFFFu != compare))
 859:Generated_Source\PSoC4/Timer_2.c ****         {
 860:Generated_Source\PSoC4/Timer_2.c ****             compare++;
 861:Generated_Source\PSoC4/Timer_2.c ****         }
 862:Generated_Source\PSoC4/Timer_2.c ****         else if (((uint32)Timer_2__COUNT_UP == currentMode) && (0u != compare))
 863:Generated_Source\PSoC4/Timer_2.c ****         {
 864:Generated_Source\PSoC4/Timer_2.c ****             compare--;
 865:Generated_Source\PSoC4/Timer_2.c ****         }
 866:Generated_Source\PSoC4/Timer_2.c ****         else
 867:Generated_Source\PSoC4/Timer_2.c ****         {
ARM GAS  C:\Users\Ala\AppData\Local\Temp\cc5WTHKW.s 			page 17


 868:Generated_Source\PSoC4/Timer_2.c ****         }
 869:Generated_Source\PSoC4/Timer_2.c ****         
 870:Generated_Source\PSoC4/Timer_2.c ****     
 871:Generated_Source\PSoC4/Timer_2.c ****     #endif /* (Timer_2_CY_TCPWM_4000) */
 872:Generated_Source\PSoC4/Timer_2.c ****     
 873:Generated_Source\PSoC4/Timer_2.c ****     Timer_2_COMP_CAP_REG = (compare & Timer_2_16BIT_MASK);
 874:Generated_Source\PSoC4/Timer_2.c **** }
 875:Generated_Source\PSoC4/Timer_2.c **** 
 876:Generated_Source\PSoC4/Timer_2.c **** 
 877:Generated_Source\PSoC4/Timer_2.c **** /*******************************************************************************
 878:Generated_Source\PSoC4/Timer_2.c **** * Function Name: Timer_2_ReadCompare
 879:Generated_Source\PSoC4/Timer_2.c **** ********************************************************************************
 880:Generated_Source\PSoC4/Timer_2.c **** *
 881:Generated_Source\PSoC4/Timer_2.c **** * Summary:
 882:Generated_Source\PSoC4/Timer_2.c **** *  Reads the compare register. Not applicable for Timer/Counter with Capture
 883:Generated_Source\PSoC4/Timer_2.c **** *  or in Quadrature Decoder modes.
 884:Generated_Source\PSoC4/Timer_2.c **** *  PSoC 4000 devices read the incremented compare register value in the 
 885:Generated_Source\PSoC4/Timer_2.c **** *  Up counting mode (except 0xFFFFu), and the decremented value in the 
 886:Generated_Source\PSoC4/Timer_2.c **** *  Down counting mode (except 0x0u).
 887:Generated_Source\PSoC4/Timer_2.c **** *
 888:Generated_Source\PSoC4/Timer_2.c **** * Parameters:
 889:Generated_Source\PSoC4/Timer_2.c **** *  None
 890:Generated_Source\PSoC4/Timer_2.c **** *
 891:Generated_Source\PSoC4/Timer_2.c **** * Return:
 892:Generated_Source\PSoC4/Timer_2.c **** *  Compare value
 893:Generated_Source\PSoC4/Timer_2.c **** *
 894:Generated_Source\PSoC4/Timer_2.c **** * Note:
 895:Generated_Source\PSoC4/Timer_2.c **** *  PSoC 4000 devices read the incremented compare register value in the 
 896:Generated_Source\PSoC4/Timer_2.c **** *  Up counting mode (except 0xFFFFu), and the decremented value in the 
 897:Generated_Source\PSoC4/Timer_2.c **** *  Down counting mode (except 0x0u).
 898:Generated_Source\PSoC4/Timer_2.c **** *
 899:Generated_Source\PSoC4/Timer_2.c **** *******************************************************************************/
 900:Generated_Source\PSoC4/Timer_2.c **** uint32 Timer_2_ReadCompare(void)
 901:Generated_Source\PSoC4/Timer_2.c **** {
 902:Generated_Source\PSoC4/Timer_2.c ****     #if (Timer_2_CY_TCPWM_4000)
 903:Generated_Source\PSoC4/Timer_2.c ****         uint32 currentMode;
 904:Generated_Source\PSoC4/Timer_2.c ****         uint32 regVal;
 905:Generated_Source\PSoC4/Timer_2.c ****     #endif /* (Timer_2_CY_TCPWM_4000) */
 906:Generated_Source\PSoC4/Timer_2.c **** 
 907:Generated_Source\PSoC4/Timer_2.c ****     #if (Timer_2_CY_TCPWM_4000)
 908:Generated_Source\PSoC4/Timer_2.c ****         currentMode = ((Timer_2_CONTROL_REG & Timer_2_UPDOWN_MASK) >> Timer_2_UPDOWN_SHIFT);
 909:Generated_Source\PSoC4/Timer_2.c ****         
 910:Generated_Source\PSoC4/Timer_2.c ****         regVal = Timer_2_COMP_CAP_REG;
 911:Generated_Source\PSoC4/Timer_2.c ****         
 912:Generated_Source\PSoC4/Timer_2.c ****         if (((uint32)Timer_2__COUNT_DOWN == currentMode) && (0u != regVal))
 913:Generated_Source\PSoC4/Timer_2.c ****         {
 914:Generated_Source\PSoC4/Timer_2.c ****             regVal--;
 915:Generated_Source\PSoC4/Timer_2.c ****         }
 916:Generated_Source\PSoC4/Timer_2.c ****         else if (((uint32)Timer_2__COUNT_UP == currentMode) && (0xFFFFu != regVal))
 917:Generated_Source\PSoC4/Timer_2.c ****         {
 918:Generated_Source\PSoC4/Timer_2.c ****             regVal++;
 919:Generated_Source\PSoC4/Timer_2.c ****         }
 920:Generated_Source\PSoC4/Timer_2.c ****         else
 921:Generated_Source\PSoC4/Timer_2.c ****         {
 922:Generated_Source\PSoC4/Timer_2.c ****         }
 923:Generated_Source\PSoC4/Timer_2.c **** 
 924:Generated_Source\PSoC4/Timer_2.c ****         return (regVal & Timer_2_16BIT_MASK);
ARM GAS  C:\Users\Ala\AppData\Local\Temp\cc5WTHKW.s 			page 18


 925:Generated_Source\PSoC4/Timer_2.c ****     #else
 926:Generated_Source\PSoC4/Timer_2.c ****         return (Timer_2_COMP_CAP_REG & Timer_2_16BIT_MASK);
 927:Generated_Source\PSoC4/Timer_2.c ****     #endif /* (Timer_2_CY_TCPWM_4000) */
 928:Generated_Source\PSoC4/Timer_2.c **** }
 929:Generated_Source\PSoC4/Timer_2.c **** 
 930:Generated_Source\PSoC4/Timer_2.c **** 
 931:Generated_Source\PSoC4/Timer_2.c **** /*******************************************************************************
 932:Generated_Source\PSoC4/Timer_2.c **** * Function Name: Timer_2_WriteCompareBuf
 933:Generated_Source\PSoC4/Timer_2.c **** ********************************************************************************
 934:Generated_Source\PSoC4/Timer_2.c **** *
 935:Generated_Source\PSoC4/Timer_2.c **** * Summary:
 936:Generated_Source\PSoC4/Timer_2.c **** *  Writes the 16 bit compare buffer register with the new compare value. Not
 937:Generated_Source\PSoC4/Timer_2.c **** *  applicable for Timer/Counter with Capture or in Quadrature Decoder modes.
 938:Generated_Source\PSoC4/Timer_2.c **** *
 939:Generated_Source\PSoC4/Timer_2.c **** * Parameters:
 940:Generated_Source\PSoC4/Timer_2.c **** *  compareBuf: Compare value
 941:Generated_Source\PSoC4/Timer_2.c **** *
 942:Generated_Source\PSoC4/Timer_2.c **** * Return:
 943:Generated_Source\PSoC4/Timer_2.c **** *  None
 944:Generated_Source\PSoC4/Timer_2.c **** *
 945:Generated_Source\PSoC4/Timer_2.c **** * Note:
 946:Generated_Source\PSoC4/Timer_2.c **** *  It is not recommended to use the value equal to "0" or equal to 
 947:Generated_Source\PSoC4/Timer_2.c **** *  "period value" in Center or Asymmetric align PWM modes on the 
 948:Generated_Source\PSoC4/Timer_2.c **** *  PSoC 4100/PSoC 4200 devices.
 949:Generated_Source\PSoC4/Timer_2.c **** *  PSoC 4000 devices write the 16 bit compare register with the decremented 
 950:Generated_Source\PSoC4/Timer_2.c **** *  compare value in the Up counting mode (except 0x0u), and the incremented 
 951:Generated_Source\PSoC4/Timer_2.c **** *  compare value in the Down counting mode (except 0xFFFFu).
 952:Generated_Source\PSoC4/Timer_2.c **** *
 953:Generated_Source\PSoC4/Timer_2.c **** *******************************************************************************/
 954:Generated_Source\PSoC4/Timer_2.c **** void Timer_2_WriteCompareBuf(uint32 compareBuf)
 955:Generated_Source\PSoC4/Timer_2.c **** {
 956:Generated_Source\PSoC4/Timer_2.c ****     #if (Timer_2_CY_TCPWM_4000)
 957:Generated_Source\PSoC4/Timer_2.c ****         uint32 currentMode;
 958:Generated_Source\PSoC4/Timer_2.c ****     #endif /* (Timer_2_CY_TCPWM_4000) */
 959:Generated_Source\PSoC4/Timer_2.c **** 
 960:Generated_Source\PSoC4/Timer_2.c ****     #if (Timer_2_CY_TCPWM_4000)
 961:Generated_Source\PSoC4/Timer_2.c ****         currentMode = ((Timer_2_CONTROL_REG & Timer_2_UPDOWN_MASK) >> Timer_2_UPDOWN_SHIFT);
 962:Generated_Source\PSoC4/Timer_2.c **** 
 963:Generated_Source\PSoC4/Timer_2.c ****         if (((uint32)Timer_2__COUNT_DOWN == currentMode) && (0xFFFFu != compareBuf))
 964:Generated_Source\PSoC4/Timer_2.c ****         {
 965:Generated_Source\PSoC4/Timer_2.c ****             compareBuf++;
 966:Generated_Source\PSoC4/Timer_2.c ****         }
 967:Generated_Source\PSoC4/Timer_2.c ****         else if (((uint32)Timer_2__COUNT_UP == currentMode) && (0u != compareBuf))
 968:Generated_Source\PSoC4/Timer_2.c ****         {
 969:Generated_Source\PSoC4/Timer_2.c ****             compareBuf --;
 970:Generated_Source\PSoC4/Timer_2.c ****         }
 971:Generated_Source\PSoC4/Timer_2.c ****         else
 972:Generated_Source\PSoC4/Timer_2.c ****         {
 973:Generated_Source\PSoC4/Timer_2.c ****         }
 974:Generated_Source\PSoC4/Timer_2.c ****     #endif /* (Timer_2_CY_TCPWM_4000) */
 975:Generated_Source\PSoC4/Timer_2.c ****     
 976:Generated_Source\PSoC4/Timer_2.c ****     Timer_2_COMP_CAP_BUF_REG = (compareBuf & Timer_2_16BIT_MASK);
 977:Generated_Source\PSoC4/Timer_2.c **** }
 978:Generated_Source\PSoC4/Timer_2.c **** 
 979:Generated_Source\PSoC4/Timer_2.c **** 
 980:Generated_Source\PSoC4/Timer_2.c **** /*******************************************************************************
 981:Generated_Source\PSoC4/Timer_2.c **** * Function Name: Timer_2_ReadCompareBuf
ARM GAS  C:\Users\Ala\AppData\Local\Temp\cc5WTHKW.s 			page 19


 982:Generated_Source\PSoC4/Timer_2.c **** ********************************************************************************
 983:Generated_Source\PSoC4/Timer_2.c **** *
 984:Generated_Source\PSoC4/Timer_2.c **** * Summary:
 985:Generated_Source\PSoC4/Timer_2.c **** *  Reads the compare buffer register. Not applicable for Timer/Counter with
 986:Generated_Source\PSoC4/Timer_2.c **** *  Capture or in Quadrature Decoder modes.
 987:Generated_Source\PSoC4/Timer_2.c **** *
 988:Generated_Source\PSoC4/Timer_2.c **** * Parameters:
 989:Generated_Source\PSoC4/Timer_2.c **** *  None
 990:Generated_Source\PSoC4/Timer_2.c **** *
 991:Generated_Source\PSoC4/Timer_2.c **** * Return:
 992:Generated_Source\PSoC4/Timer_2.c **** *  Compare buffer value
 993:Generated_Source\PSoC4/Timer_2.c **** *
 994:Generated_Source\PSoC4/Timer_2.c **** * Note:
 995:Generated_Source\PSoC4/Timer_2.c **** *  PSoC 4000 devices read the incremented compare register value in the 
 996:Generated_Source\PSoC4/Timer_2.c **** *  Up counting mode (except 0xFFFFu), and the decremented value in the 
 997:Generated_Source\PSoC4/Timer_2.c **** *  Down counting mode (except 0x0u).
 998:Generated_Source\PSoC4/Timer_2.c **** *
 999:Generated_Source\PSoC4/Timer_2.c **** *******************************************************************************/
1000:Generated_Source\PSoC4/Timer_2.c **** uint32 Timer_2_ReadCompareBuf(void)
1001:Generated_Source\PSoC4/Timer_2.c **** {
1002:Generated_Source\PSoC4/Timer_2.c ****     #if (Timer_2_CY_TCPWM_4000)
1003:Generated_Source\PSoC4/Timer_2.c ****         uint32 currentMode;
1004:Generated_Source\PSoC4/Timer_2.c ****         uint32 regVal;
1005:Generated_Source\PSoC4/Timer_2.c ****     #endif /* (Timer_2_CY_TCPWM_4000) */
1006:Generated_Source\PSoC4/Timer_2.c **** 
1007:Generated_Source\PSoC4/Timer_2.c ****     #if (Timer_2_CY_TCPWM_4000)
1008:Generated_Source\PSoC4/Timer_2.c ****         currentMode = ((Timer_2_CONTROL_REG & Timer_2_UPDOWN_MASK) >> Timer_2_UPDOWN_SHIFT);
1009:Generated_Source\PSoC4/Timer_2.c **** 
1010:Generated_Source\PSoC4/Timer_2.c ****         regVal = Timer_2_COMP_CAP_BUF_REG;
1011:Generated_Source\PSoC4/Timer_2.c ****         
1012:Generated_Source\PSoC4/Timer_2.c ****         if (((uint32)Timer_2__COUNT_DOWN == currentMode) && (0u != regVal))
1013:Generated_Source\PSoC4/Timer_2.c ****         {
1014:Generated_Source\PSoC4/Timer_2.c ****             regVal--;
1015:Generated_Source\PSoC4/Timer_2.c ****         }
1016:Generated_Source\PSoC4/Timer_2.c ****         else if (((uint32)Timer_2__COUNT_UP == currentMode) && (0xFFFFu != regVal))
1017:Generated_Source\PSoC4/Timer_2.c ****         {
1018:Generated_Source\PSoC4/Timer_2.c ****             regVal++;
1019:Generated_Source\PSoC4/Timer_2.c ****         }
1020:Generated_Source\PSoC4/Timer_2.c ****         else
1021:Generated_Source\PSoC4/Timer_2.c ****         {
1022:Generated_Source\PSoC4/Timer_2.c ****         }
1023:Generated_Source\PSoC4/Timer_2.c **** 
1024:Generated_Source\PSoC4/Timer_2.c ****         return (regVal & Timer_2_16BIT_MASK);
1025:Generated_Source\PSoC4/Timer_2.c ****     #else
1026:Generated_Source\PSoC4/Timer_2.c ****         return (Timer_2_COMP_CAP_BUF_REG & Timer_2_16BIT_MASK);
1027:Generated_Source\PSoC4/Timer_2.c ****     #endif /* (Timer_2_CY_TCPWM_4000) */
1028:Generated_Source\PSoC4/Timer_2.c **** }
1029:Generated_Source\PSoC4/Timer_2.c **** 
1030:Generated_Source\PSoC4/Timer_2.c **** 
1031:Generated_Source\PSoC4/Timer_2.c **** /*******************************************************************************
1032:Generated_Source\PSoC4/Timer_2.c **** * Function Name: Timer_2_ReadCapture
1033:Generated_Source\PSoC4/Timer_2.c **** ********************************************************************************
1034:Generated_Source\PSoC4/Timer_2.c **** *
1035:Generated_Source\PSoC4/Timer_2.c **** * Summary:
1036:Generated_Source\PSoC4/Timer_2.c **** *  Reads the captured counter value. This API is applicable only for
1037:Generated_Source\PSoC4/Timer_2.c **** *  Timer/Counter with the capture mode and Quadrature Decoder modes.
1038:Generated_Source\PSoC4/Timer_2.c **** *
ARM GAS  C:\Users\Ala\AppData\Local\Temp\cc5WTHKW.s 			page 20


1039:Generated_Source\PSoC4/Timer_2.c **** * Parameters:
1040:Generated_Source\PSoC4/Timer_2.c **** *  None
1041:Generated_Source\PSoC4/Timer_2.c **** *
1042:Generated_Source\PSoC4/Timer_2.c **** * Return:
1043:Generated_Source\PSoC4/Timer_2.c **** *  Capture value
1044:Generated_Source\PSoC4/Timer_2.c **** *
1045:Generated_Source\PSoC4/Timer_2.c **** *******************************************************************************/
1046:Generated_Source\PSoC4/Timer_2.c **** uint32 Timer_2_ReadCapture(void)
1047:Generated_Source\PSoC4/Timer_2.c **** {
1048:Generated_Source\PSoC4/Timer_2.c ****     return (Timer_2_COMP_CAP_REG & Timer_2_16BIT_MASK);
1049:Generated_Source\PSoC4/Timer_2.c **** }
1050:Generated_Source\PSoC4/Timer_2.c **** 
1051:Generated_Source\PSoC4/Timer_2.c **** 
1052:Generated_Source\PSoC4/Timer_2.c **** /*******************************************************************************
1053:Generated_Source\PSoC4/Timer_2.c **** * Function Name: Timer_2_ReadCaptureBuf
1054:Generated_Source\PSoC4/Timer_2.c **** ********************************************************************************
1055:Generated_Source\PSoC4/Timer_2.c **** *
1056:Generated_Source\PSoC4/Timer_2.c **** * Summary:
1057:Generated_Source\PSoC4/Timer_2.c **** *  Reads the capture buffer register. This API is applicable only for
1058:Generated_Source\PSoC4/Timer_2.c **** *  Timer/Counter with the capture mode and Quadrature Decoder modes.
1059:Generated_Source\PSoC4/Timer_2.c **** *
1060:Generated_Source\PSoC4/Timer_2.c **** * Parameters:
1061:Generated_Source\PSoC4/Timer_2.c **** *  None
1062:Generated_Source\PSoC4/Timer_2.c **** *
1063:Generated_Source\PSoC4/Timer_2.c **** * Return:
1064:Generated_Source\PSoC4/Timer_2.c **** *  Capture buffer value
1065:Generated_Source\PSoC4/Timer_2.c **** *
1066:Generated_Source\PSoC4/Timer_2.c **** *******************************************************************************/
1067:Generated_Source\PSoC4/Timer_2.c **** uint32 Timer_2_ReadCaptureBuf(void)
1068:Generated_Source\PSoC4/Timer_2.c **** {
1069:Generated_Source\PSoC4/Timer_2.c ****     return (Timer_2_COMP_CAP_BUF_REG & Timer_2_16BIT_MASK);
1070:Generated_Source\PSoC4/Timer_2.c **** }
1071:Generated_Source\PSoC4/Timer_2.c **** 
1072:Generated_Source\PSoC4/Timer_2.c **** 
1073:Generated_Source\PSoC4/Timer_2.c **** /*******************************************************************************
1074:Generated_Source\PSoC4/Timer_2.c **** * Function Name: Timer_2_SetCaptureMode
1075:Generated_Source\PSoC4/Timer_2.c **** ********************************************************************************
1076:Generated_Source\PSoC4/Timer_2.c **** *
1077:Generated_Source\PSoC4/Timer_2.c **** * Summary:
1078:Generated_Source\PSoC4/Timer_2.c **** *  Sets the capture trigger mode. For PWM mode this is the switch input.
1079:Generated_Source\PSoC4/Timer_2.c **** *  This input is not applicable to the Timer/Counter without Capture and
1080:Generated_Source\PSoC4/Timer_2.c **** *  Quadrature Decoder modes.
1081:Generated_Source\PSoC4/Timer_2.c **** *
1082:Generated_Source\PSoC4/Timer_2.c **** * Parameters:
1083:Generated_Source\PSoC4/Timer_2.c **** *  triggerMode: Enumerated trigger mode value
1084:Generated_Source\PSoC4/Timer_2.c **** *   Values:
1085:Generated_Source\PSoC4/Timer_2.c **** *     - Timer_2_TRIG_LEVEL     - Level
1086:Generated_Source\PSoC4/Timer_2.c **** *     - Timer_2_TRIG_RISING    - Rising edge
1087:Generated_Source\PSoC4/Timer_2.c **** *     - Timer_2_TRIG_FALLING   - Falling edge
1088:Generated_Source\PSoC4/Timer_2.c **** *     - Timer_2_TRIG_BOTH      - Both rising and falling edge
1089:Generated_Source\PSoC4/Timer_2.c **** *
1090:Generated_Source\PSoC4/Timer_2.c **** * Return:
1091:Generated_Source\PSoC4/Timer_2.c **** *  None
1092:Generated_Source\PSoC4/Timer_2.c **** *
1093:Generated_Source\PSoC4/Timer_2.c **** *******************************************************************************/
1094:Generated_Source\PSoC4/Timer_2.c **** void Timer_2_SetCaptureMode(uint32 triggerMode)
1095:Generated_Source\PSoC4/Timer_2.c **** {
ARM GAS  C:\Users\Ala\AppData\Local\Temp\cc5WTHKW.s 			page 21


1096:Generated_Source\PSoC4/Timer_2.c ****     uint8 enableInterrupts;
1097:Generated_Source\PSoC4/Timer_2.c **** 
1098:Generated_Source\PSoC4/Timer_2.c ****     enableInterrupts = CyEnterCriticalSection();
1099:Generated_Source\PSoC4/Timer_2.c **** 
1100:Generated_Source\PSoC4/Timer_2.c ****     Timer_2_TRIG_CONTROL1_REG &= (uint32)~Timer_2_CAPTURE_MASK;
1101:Generated_Source\PSoC4/Timer_2.c ****     Timer_2_TRIG_CONTROL1_REG |= triggerMode;
1102:Generated_Source\PSoC4/Timer_2.c **** 
1103:Generated_Source\PSoC4/Timer_2.c ****     CyExitCriticalSection(enableInterrupts);
1104:Generated_Source\PSoC4/Timer_2.c **** }
1105:Generated_Source\PSoC4/Timer_2.c **** 
1106:Generated_Source\PSoC4/Timer_2.c **** 
1107:Generated_Source\PSoC4/Timer_2.c **** /*******************************************************************************
1108:Generated_Source\PSoC4/Timer_2.c **** * Function Name: Timer_2_SetReloadMode
1109:Generated_Source\PSoC4/Timer_2.c **** ********************************************************************************
1110:Generated_Source\PSoC4/Timer_2.c **** *
1111:Generated_Source\PSoC4/Timer_2.c **** * Summary:
1112:Generated_Source\PSoC4/Timer_2.c **** *  Sets the reload trigger mode. For Quadrature Decoder mode this is the index
1113:Generated_Source\PSoC4/Timer_2.c **** *  input.
1114:Generated_Source\PSoC4/Timer_2.c **** *
1115:Generated_Source\PSoC4/Timer_2.c **** * Parameters:
1116:Generated_Source\PSoC4/Timer_2.c **** *  triggerMode: Enumerated trigger mode value
1117:Generated_Source\PSoC4/Timer_2.c **** *   Values:
1118:Generated_Source\PSoC4/Timer_2.c **** *     - Timer_2_TRIG_LEVEL     - Level
1119:Generated_Source\PSoC4/Timer_2.c **** *     - Timer_2_TRIG_RISING    - Rising edge
1120:Generated_Source\PSoC4/Timer_2.c **** *     - Timer_2_TRIG_FALLING   - Falling edge
1121:Generated_Source\PSoC4/Timer_2.c **** *     - Timer_2_TRIG_BOTH      - Both rising and falling edge
1122:Generated_Source\PSoC4/Timer_2.c **** *
1123:Generated_Source\PSoC4/Timer_2.c **** * Return:
1124:Generated_Source\PSoC4/Timer_2.c **** *  None
1125:Generated_Source\PSoC4/Timer_2.c **** *
1126:Generated_Source\PSoC4/Timer_2.c **** *******************************************************************************/
1127:Generated_Source\PSoC4/Timer_2.c **** void Timer_2_SetReloadMode(uint32 triggerMode)
1128:Generated_Source\PSoC4/Timer_2.c **** {
1129:Generated_Source\PSoC4/Timer_2.c ****     uint8 enableInterrupts;
1130:Generated_Source\PSoC4/Timer_2.c **** 
1131:Generated_Source\PSoC4/Timer_2.c ****     enableInterrupts = CyEnterCriticalSection();
1132:Generated_Source\PSoC4/Timer_2.c **** 
1133:Generated_Source\PSoC4/Timer_2.c ****     Timer_2_TRIG_CONTROL1_REG &= (uint32)~Timer_2_RELOAD_MASK;
1134:Generated_Source\PSoC4/Timer_2.c ****     Timer_2_TRIG_CONTROL1_REG |= ((uint32)(triggerMode << Timer_2_RELOAD_SHIFT));
1135:Generated_Source\PSoC4/Timer_2.c **** 
1136:Generated_Source\PSoC4/Timer_2.c ****     CyExitCriticalSection(enableInterrupts);
1137:Generated_Source\PSoC4/Timer_2.c **** }
1138:Generated_Source\PSoC4/Timer_2.c **** 
1139:Generated_Source\PSoC4/Timer_2.c **** 
1140:Generated_Source\PSoC4/Timer_2.c **** /*******************************************************************************
1141:Generated_Source\PSoC4/Timer_2.c **** * Function Name: Timer_2_SetStartMode
1142:Generated_Source\PSoC4/Timer_2.c **** ********************************************************************************
1143:Generated_Source\PSoC4/Timer_2.c **** *
1144:Generated_Source\PSoC4/Timer_2.c **** * Summary:
1145:Generated_Source\PSoC4/Timer_2.c **** *  Sets the start trigger mode. For Quadrature Decoder mode this is the
1146:Generated_Source\PSoC4/Timer_2.c **** *  phiB input.
1147:Generated_Source\PSoC4/Timer_2.c **** *
1148:Generated_Source\PSoC4/Timer_2.c **** * Parameters:
1149:Generated_Source\PSoC4/Timer_2.c **** *  triggerMode: Enumerated trigger mode value
1150:Generated_Source\PSoC4/Timer_2.c **** *   Values:
1151:Generated_Source\PSoC4/Timer_2.c **** *     - Timer_2_TRIG_LEVEL     - Level
1152:Generated_Source\PSoC4/Timer_2.c **** *     - Timer_2_TRIG_RISING    - Rising edge
ARM GAS  C:\Users\Ala\AppData\Local\Temp\cc5WTHKW.s 			page 22


1153:Generated_Source\PSoC4/Timer_2.c **** *     - Timer_2_TRIG_FALLING   - Falling edge
1154:Generated_Source\PSoC4/Timer_2.c **** *     - Timer_2_TRIG_BOTH      - Both rising and falling edge
1155:Generated_Source\PSoC4/Timer_2.c **** *
1156:Generated_Source\PSoC4/Timer_2.c **** * Return:
1157:Generated_Source\PSoC4/Timer_2.c **** *  None
1158:Generated_Source\PSoC4/Timer_2.c **** *
1159:Generated_Source\PSoC4/Timer_2.c **** *******************************************************************************/
1160:Generated_Source\PSoC4/Timer_2.c **** void Timer_2_SetStartMode(uint32 triggerMode)
1161:Generated_Source\PSoC4/Timer_2.c **** {
1162:Generated_Source\PSoC4/Timer_2.c ****     uint8 enableInterrupts;
1163:Generated_Source\PSoC4/Timer_2.c **** 
1164:Generated_Source\PSoC4/Timer_2.c ****     enableInterrupts = CyEnterCriticalSection();
1165:Generated_Source\PSoC4/Timer_2.c **** 
1166:Generated_Source\PSoC4/Timer_2.c ****     Timer_2_TRIG_CONTROL1_REG &= (uint32)~Timer_2_START_MASK;
1167:Generated_Source\PSoC4/Timer_2.c ****     Timer_2_TRIG_CONTROL1_REG |= ((uint32)(triggerMode << Timer_2_START_SHIFT));
1168:Generated_Source\PSoC4/Timer_2.c **** 
1169:Generated_Source\PSoC4/Timer_2.c ****     CyExitCriticalSection(enableInterrupts);
1170:Generated_Source\PSoC4/Timer_2.c **** }
1171:Generated_Source\PSoC4/Timer_2.c **** 
1172:Generated_Source\PSoC4/Timer_2.c **** 
1173:Generated_Source\PSoC4/Timer_2.c **** /*******************************************************************************
1174:Generated_Source\PSoC4/Timer_2.c **** * Function Name: Timer_2_SetStopMode
1175:Generated_Source\PSoC4/Timer_2.c **** ********************************************************************************
1176:Generated_Source\PSoC4/Timer_2.c **** *
1177:Generated_Source\PSoC4/Timer_2.c **** * Summary:
1178:Generated_Source\PSoC4/Timer_2.c **** *  Sets the stop trigger mode. For PWM mode this is the kill input.
1179:Generated_Source\PSoC4/Timer_2.c **** *
1180:Generated_Source\PSoC4/Timer_2.c **** * Parameters:
1181:Generated_Source\PSoC4/Timer_2.c **** *  triggerMode: Enumerated trigger mode value
1182:Generated_Source\PSoC4/Timer_2.c **** *   Values:
1183:Generated_Source\PSoC4/Timer_2.c **** *     - Timer_2_TRIG_LEVEL     - Level
1184:Generated_Source\PSoC4/Timer_2.c **** *     - Timer_2_TRIG_RISING    - Rising edge
1185:Generated_Source\PSoC4/Timer_2.c **** *     - Timer_2_TRIG_FALLING   - Falling edge
1186:Generated_Source\PSoC4/Timer_2.c **** *     - Timer_2_TRIG_BOTH      - Both rising and falling edge
1187:Generated_Source\PSoC4/Timer_2.c **** *
1188:Generated_Source\PSoC4/Timer_2.c **** * Return:
1189:Generated_Source\PSoC4/Timer_2.c **** *  None
1190:Generated_Source\PSoC4/Timer_2.c **** *
1191:Generated_Source\PSoC4/Timer_2.c **** *******************************************************************************/
1192:Generated_Source\PSoC4/Timer_2.c **** void Timer_2_SetStopMode(uint32 triggerMode)
1193:Generated_Source\PSoC4/Timer_2.c **** {
1194:Generated_Source\PSoC4/Timer_2.c ****     uint8 enableInterrupts;
1195:Generated_Source\PSoC4/Timer_2.c **** 
1196:Generated_Source\PSoC4/Timer_2.c ****     enableInterrupts = CyEnterCriticalSection();
1197:Generated_Source\PSoC4/Timer_2.c **** 
1198:Generated_Source\PSoC4/Timer_2.c ****     Timer_2_TRIG_CONTROL1_REG &= (uint32)~Timer_2_STOP_MASK;
1199:Generated_Source\PSoC4/Timer_2.c ****     Timer_2_TRIG_CONTROL1_REG |= ((uint32)(triggerMode << Timer_2_STOP_SHIFT));
1200:Generated_Source\PSoC4/Timer_2.c **** 
1201:Generated_Source\PSoC4/Timer_2.c ****     CyExitCriticalSection(enableInterrupts);
1202:Generated_Source\PSoC4/Timer_2.c **** }
1203:Generated_Source\PSoC4/Timer_2.c **** 
1204:Generated_Source\PSoC4/Timer_2.c **** 
1205:Generated_Source\PSoC4/Timer_2.c **** /*******************************************************************************
1206:Generated_Source\PSoC4/Timer_2.c **** * Function Name: Timer_2_SetCountMode
1207:Generated_Source\PSoC4/Timer_2.c **** ********************************************************************************
1208:Generated_Source\PSoC4/Timer_2.c **** *
1209:Generated_Source\PSoC4/Timer_2.c **** * Summary:
ARM GAS  C:\Users\Ala\AppData\Local\Temp\cc5WTHKW.s 			page 23


1210:Generated_Source\PSoC4/Timer_2.c **** *  Sets the count trigger mode. For Quadrature Decoder mode this is the phiA
1211:Generated_Source\PSoC4/Timer_2.c **** *  input.
1212:Generated_Source\PSoC4/Timer_2.c **** *
1213:Generated_Source\PSoC4/Timer_2.c **** * Parameters:
1214:Generated_Source\PSoC4/Timer_2.c **** *  triggerMode: Enumerated trigger mode value
1215:Generated_Source\PSoC4/Timer_2.c **** *   Values:
1216:Generated_Source\PSoC4/Timer_2.c **** *     - Timer_2_TRIG_LEVEL     - Level
1217:Generated_Source\PSoC4/Timer_2.c **** *     - Timer_2_TRIG_RISING    - Rising edge
1218:Generated_Source\PSoC4/Timer_2.c **** *     - Timer_2_TRIG_FALLING   - Falling edge
1219:Generated_Source\PSoC4/Timer_2.c **** *     - Timer_2_TRIG_BOTH      - Both rising and falling edge
1220:Generated_Source\PSoC4/Timer_2.c **** *
1221:Generated_Source\PSoC4/Timer_2.c **** * Return:
1222:Generated_Source\PSoC4/Timer_2.c **** *  None
1223:Generated_Source\PSoC4/Timer_2.c **** *
1224:Generated_Source\PSoC4/Timer_2.c **** *******************************************************************************/
1225:Generated_Source\PSoC4/Timer_2.c **** void Timer_2_SetCountMode(uint32 triggerMode)
1226:Generated_Source\PSoC4/Timer_2.c **** {
1227:Generated_Source\PSoC4/Timer_2.c ****     uint8 enableInterrupts;
1228:Generated_Source\PSoC4/Timer_2.c **** 
1229:Generated_Source\PSoC4/Timer_2.c ****     enableInterrupts = CyEnterCriticalSection();
1230:Generated_Source\PSoC4/Timer_2.c **** 
1231:Generated_Source\PSoC4/Timer_2.c ****     Timer_2_TRIG_CONTROL1_REG &= (uint32)~Timer_2_COUNT_MASK;
1232:Generated_Source\PSoC4/Timer_2.c ****     Timer_2_TRIG_CONTROL1_REG |= ((uint32)(triggerMode << Timer_2_COUNT_SHIFT));
1233:Generated_Source\PSoC4/Timer_2.c **** 
1234:Generated_Source\PSoC4/Timer_2.c ****     CyExitCriticalSection(enableInterrupts);
1235:Generated_Source\PSoC4/Timer_2.c **** }
1236:Generated_Source\PSoC4/Timer_2.c **** 
1237:Generated_Source\PSoC4/Timer_2.c **** 
1238:Generated_Source\PSoC4/Timer_2.c **** /*******************************************************************************
1239:Generated_Source\PSoC4/Timer_2.c **** * Function Name: Timer_2_TriggerCommand
1240:Generated_Source\PSoC4/Timer_2.c **** ********************************************************************************
1241:Generated_Source\PSoC4/Timer_2.c **** *
1242:Generated_Source\PSoC4/Timer_2.c **** * Summary:
1243:Generated_Source\PSoC4/Timer_2.c **** *  Triggers the designated command to occur on the designated TCPWM instances.
1244:Generated_Source\PSoC4/Timer_2.c **** *  The mask can be used to apply this command simultaneously to more than one
1245:Generated_Source\PSoC4/Timer_2.c **** *  instance.  This allows multiple TCPWM instances to be synchronized.
1246:Generated_Source\PSoC4/Timer_2.c **** *
1247:Generated_Source\PSoC4/Timer_2.c **** * Parameters:
1248:Generated_Source\PSoC4/Timer_2.c **** *  mask: A combination of mask bits for each instance of the TCPWM that the
1249:Generated_Source\PSoC4/Timer_2.c **** *        command should apply to.  This function from one instance can be used
1250:Generated_Source\PSoC4/Timer_2.c **** *        to apply the command to any of the instances in the design.
1251:Generated_Source\PSoC4/Timer_2.c **** *        The mask value for a specific instance is available with the MASK
1252:Generated_Source\PSoC4/Timer_2.c **** *        define.
1253:Generated_Source\PSoC4/Timer_2.c **** *  command: Enumerated command values. Capture command only applicable for
1254:Generated_Source\PSoC4/Timer_2.c **** *           Timer/Counter with Capture and PWM modes.
1255:Generated_Source\PSoC4/Timer_2.c **** *   Values:
1256:Generated_Source\PSoC4/Timer_2.c **** *     - Timer_2_CMD_CAPTURE    - Trigger Capture/Switch command
1257:Generated_Source\PSoC4/Timer_2.c **** *     - Timer_2_CMD_RELOAD     - Trigger Reload/Index command
1258:Generated_Source\PSoC4/Timer_2.c **** *     - Timer_2_CMD_STOP       - Trigger Stop/Kill command
1259:Generated_Source\PSoC4/Timer_2.c **** *     - Timer_2_CMD_START      - Trigger Start/phiB command
1260:Generated_Source\PSoC4/Timer_2.c **** *
1261:Generated_Source\PSoC4/Timer_2.c **** * Return:
1262:Generated_Source\PSoC4/Timer_2.c **** *  None
1263:Generated_Source\PSoC4/Timer_2.c **** *
1264:Generated_Source\PSoC4/Timer_2.c **** *******************************************************************************/
1265:Generated_Source\PSoC4/Timer_2.c **** void Timer_2_TriggerCommand(uint32 mask, uint32 command)
1266:Generated_Source\PSoC4/Timer_2.c **** {
ARM GAS  C:\Users\Ala\AppData\Local\Temp\cc5WTHKW.s 			page 24


1267:Generated_Source\PSoC4/Timer_2.c ****     uint8 enableInterrupts;
1268:Generated_Source\PSoC4/Timer_2.c **** 
1269:Generated_Source\PSoC4/Timer_2.c ****     enableInterrupts = CyEnterCriticalSection();
1270:Generated_Source\PSoC4/Timer_2.c **** 
1271:Generated_Source\PSoC4/Timer_2.c ****     Timer_2_COMMAND_REG = ((uint32)(mask << command));
1272:Generated_Source\PSoC4/Timer_2.c **** 
1273:Generated_Source\PSoC4/Timer_2.c ****     CyExitCriticalSection(enableInterrupts);
1274:Generated_Source\PSoC4/Timer_2.c **** }
1275:Generated_Source\PSoC4/Timer_2.c **** 
1276:Generated_Source\PSoC4/Timer_2.c **** 
1277:Generated_Source\PSoC4/Timer_2.c **** /*******************************************************************************
1278:Generated_Source\PSoC4/Timer_2.c **** * Function Name: Timer_2_ReadStatus
1279:Generated_Source\PSoC4/Timer_2.c **** ********************************************************************************
1280:Generated_Source\PSoC4/Timer_2.c **** *
1281:Generated_Source\PSoC4/Timer_2.c **** * Summary:
1282:Generated_Source\PSoC4/Timer_2.c **** *  Reads the status of the Timer_2.
1283:Generated_Source\PSoC4/Timer_2.c **** *
1284:Generated_Source\PSoC4/Timer_2.c **** * Parameters:
1285:Generated_Source\PSoC4/Timer_2.c **** *  None
1286:Generated_Source\PSoC4/Timer_2.c **** *
1287:Generated_Source\PSoC4/Timer_2.c **** * Return:
1288:Generated_Source\PSoC4/Timer_2.c **** *  Status
1289:Generated_Source\PSoC4/Timer_2.c **** *   Values:
1290:Generated_Source\PSoC4/Timer_2.c **** *     - Timer_2_STATUS_DOWN    - Set if counting down
1291:Generated_Source\PSoC4/Timer_2.c **** *     - Timer_2_STATUS_RUNNING - Set if counter is running
1292:Generated_Source\PSoC4/Timer_2.c **** *
1293:Generated_Source\PSoC4/Timer_2.c **** *******************************************************************************/
1294:Generated_Source\PSoC4/Timer_2.c **** uint32 Timer_2_ReadStatus(void)
1295:Generated_Source\PSoC4/Timer_2.c **** {
1296:Generated_Source\PSoC4/Timer_2.c ****     return ((Timer_2_STATUS_REG >> Timer_2_RUNNING_STATUS_SHIFT) |
1297:Generated_Source\PSoC4/Timer_2.c ****             (Timer_2_STATUS_REG & Timer_2_STATUS_DOWN));
1298:Generated_Source\PSoC4/Timer_2.c **** }
1299:Generated_Source\PSoC4/Timer_2.c **** 
1300:Generated_Source\PSoC4/Timer_2.c **** 
1301:Generated_Source\PSoC4/Timer_2.c **** /*******************************************************************************
1302:Generated_Source\PSoC4/Timer_2.c **** * Function Name: Timer_2_SetInterruptMode
1303:Generated_Source\PSoC4/Timer_2.c **** ********************************************************************************
1304:Generated_Source\PSoC4/Timer_2.c **** *
1305:Generated_Source\PSoC4/Timer_2.c **** * Summary:
1306:Generated_Source\PSoC4/Timer_2.c **** *  Sets the interrupt mask to control which interrupt
1307:Generated_Source\PSoC4/Timer_2.c **** *  requests generate the interrupt signal.
1308:Generated_Source\PSoC4/Timer_2.c **** *
1309:Generated_Source\PSoC4/Timer_2.c **** * Parameters:
1310:Generated_Source\PSoC4/Timer_2.c **** *   interruptMask: Mask of bits to be enabled
1311:Generated_Source\PSoC4/Timer_2.c **** *   Values:
1312:Generated_Source\PSoC4/Timer_2.c **** *     - Timer_2_INTR_MASK_TC       - Terminal count mask
1313:Generated_Source\PSoC4/Timer_2.c **** *     - Timer_2_INTR_MASK_CC_MATCH - Compare count / capture mask
1314:Generated_Source\PSoC4/Timer_2.c **** *
1315:Generated_Source\PSoC4/Timer_2.c **** * Return:
1316:Generated_Source\PSoC4/Timer_2.c **** *  None
1317:Generated_Source\PSoC4/Timer_2.c **** *
1318:Generated_Source\PSoC4/Timer_2.c **** *******************************************************************************/
1319:Generated_Source\PSoC4/Timer_2.c **** void Timer_2_SetInterruptMode(uint32 interruptMask)
1320:Generated_Source\PSoC4/Timer_2.c **** {
1321:Generated_Source\PSoC4/Timer_2.c ****     Timer_2_INTERRUPT_MASK_REG =  interruptMask;
  46              		.loc 1 1321 0
  47 0010 074B     		ldr	r3, .L2+8
ARM GAS  C:\Users\Ala\AppData\Local\Temp\cc5WTHKW.s 			page 25


  48 0012 1C3A     		subs	r2, r2, #28
  49 0014 FF3A     		subs	r2, r2, #255
  50 0016 1A60     		str	r2, [r3]
  51              	.LVL1:
  52              	.LBE9:
  53              	.LBE8:
  54              	.LBB10:
  55              	.LBB11:
 695:Generated_Source\PSoC4/Timer_2.c **** }
  56              		.loc 1 695 0
  57 0018 064B     		ldr	r3, .L2+12
  58 001a C732     		adds	r2, r2, #199
  59 001c 1A60     		str	r2, [r3]
  60              	.LVL2:
  61              	.LBE11:
  62              	.LBE10:
  63              	.LBB12:
  64              	.LBB13:
 617:Generated_Source\PSoC4/Timer_2.c **** }
  65              		.loc 1 617 0
  66 001e 0022     		movs	r2, #0
  67 0020 054B     		ldr	r3, .L2+16
  68              	.LBE13:
  69              	.LBE12:
 160:Generated_Source\PSoC4/Timer_2.c **** 
  70              		.loc 1 160 0
  71              		@ sp needed
  72              	.LBB15:
  73              	.LBB14:
 617:Generated_Source\PSoC4/Timer_2.c **** }
  74              		.loc 1 617 0
  75 0022 1A60     		str	r2, [r3]
  76              	.LVL3:
  77              	.LBE14:
  78              	.LBE15:
 160:Generated_Source\PSoC4/Timer_2.c **** 
  79              		.loc 1 160 0
  80 0024 7047     		bx	lr
  81              	.L3:
  82 0026 C046     		.align	2
  83              	.L2:
  84 0028 40010540 		.word	1074069824
  85 002c 64010540 		.word	1074069860
  86 0030 78010540 		.word	1074069880
  87 0034 54010540 		.word	1074069844
  88 0038 48010540 		.word	1074069832
  89              		.cfi_endproc
  90              	.LFE0:
  91              		.size	Timer_2_Init, .-Timer_2_Init
  92              		.section	.text.Timer_2_Enable,"ax",%progbits
  93              		.align	1
  94              		.global	Timer_2_Enable
  95              		.code	16
  96              		.thumb_func
  97              		.type	Timer_2_Enable, %function
  98              	Timer_2_Enable:
  99              	.LFB1:
ARM GAS  C:\Users\Ala\AppData\Local\Temp\cc5WTHKW.s 			page 26


 178:Generated_Source\PSoC4/Timer_2.c ****     uint8 enableInterrupts;
 100              		.loc 1 178 0
 101              		.cfi_startproc
 102              		@ args = 0, pretend = 0, frame = 0
 103              		@ frame_needed = 0, uses_anonymous_args = 0
 104 0000 10B5     		push	{r4, lr}
 105              		.cfi_def_cfa_offset 8
 106              		.cfi_offset 4, -8
 107              		.cfi_offset 14, -4
 181:Generated_Source\PSoC4/Timer_2.c ****     Timer_2_BLOCK_CONTROL_REG |= Timer_2_MASK;
 108              		.loc 1 181 0
 109 0002 FFF7FEFF 		bl	CyEnterCriticalSection
 110              	.LVL4:
 182:Generated_Source\PSoC4/Timer_2.c ****     CyExitCriticalSection(enableInterrupts);
 111              		.loc 1 182 0
 112 0006 0221     		movs	r1, #2
 113 0008 034A     		ldr	r2, .L5
 203:Generated_Source\PSoC4/Timer_2.c **** 
 114              		.loc 1 203 0
 115              		@ sp needed
 182:Generated_Source\PSoC4/Timer_2.c ****     CyExitCriticalSection(enableInterrupts);
 116              		.loc 1 182 0
 117 000a 1368     		ldr	r3, [r2]
 118 000c 0B43     		orrs	r3, r1
 119 000e 1360     		str	r3, [r2]
 183:Generated_Source\PSoC4/Timer_2.c **** 
 120              		.loc 1 183 0
 121 0010 FFF7FEFF 		bl	CyExitCriticalSection
 122              	.LVL5:
 203:Generated_Source\PSoC4/Timer_2.c **** 
 123              		.loc 1 203 0
 124 0014 10BD     		pop	{r4, pc}
 125              	.L6:
 126 0016 C046     		.align	2
 127              	.L5:
 128 0018 00000540 		.word	1074069504
 129              		.cfi_endproc
 130              	.LFE1:
 131              		.size	Timer_2_Enable, .-Timer_2_Enable
 132              		.section	.text.Timer_2_Start,"ax",%progbits
 133              		.align	1
 134              		.global	Timer_2_Start
 135              		.code	16
 136              		.thumb_func
 137              		.type	Timer_2_Start, %function
 138              	Timer_2_Start:
 139              	.LFB2:
 231:Generated_Source\PSoC4/Timer_2.c ****     if (0u == Timer_2_initVar)
 140              		.loc 1 231 0
 141              		.cfi_startproc
 142              		@ args = 0, pretend = 0, frame = 0
 143              		@ frame_needed = 0, uses_anonymous_args = 0
 144 0000 10B5     		push	{r4, lr}
 145              		.cfi_def_cfa_offset 8
 146              		.cfi_offset 4, -8
 147              		.cfi_offset 14, -4
 232:Generated_Source\PSoC4/Timer_2.c ****     {
ARM GAS  C:\Users\Ala\AppData\Local\Temp\cc5WTHKW.s 			page 27


 148              		.loc 1 232 0
 149 0002 054C     		ldr	r4, .L10
 150 0004 2378     		ldrb	r3, [r4]
 151 0006 002B     		cmp	r3, #0
 152 0008 03D1     		bne	.L8
 234:Generated_Source\PSoC4/Timer_2.c ****         Timer_2_initVar = 1u;
 153              		.loc 1 234 0
 154 000a FFF7FEFF 		bl	Timer_2_Init
 155              	.LVL6:
 235:Generated_Source\PSoC4/Timer_2.c ****     }
 156              		.loc 1 235 0
 157 000e 0123     		movs	r3, #1
 158 0010 2370     		strb	r3, [r4]
 159              	.L8:
 238:Generated_Source\PSoC4/Timer_2.c **** }
 160              		.loc 1 238 0
 161 0012 FFF7FEFF 		bl	Timer_2_Enable
 162              	.LVL7:
 239:Generated_Source\PSoC4/Timer_2.c **** 
 163              		.loc 1 239 0
 164              		@ sp needed
 165 0016 10BD     		pop	{r4, pc}
 166              	.L11:
 167              		.align	2
 168              	.L10:
 169 0018 00000000 		.word	.LANCHOR0
 170              		.cfi_endproc
 171              	.LFE2:
 172              		.size	Timer_2_Start, .-Timer_2_Start
 173              		.section	.text.Timer_2_Stop,"ax",%progbits
 174              		.align	1
 175              		.global	Timer_2_Stop
 176              		.code	16
 177              		.thumb_func
 178              		.type	Timer_2_Stop, %function
 179              	Timer_2_Stop:
 180              	.LFB3:
 257:Generated_Source\PSoC4/Timer_2.c ****     uint8 enableInterrupts;
 181              		.loc 1 257 0
 182              		.cfi_startproc
 183              		@ args = 0, pretend = 0, frame = 0
 184              		@ frame_needed = 0, uses_anonymous_args = 0
 185 0000 10B5     		push	{r4, lr}
 186              		.cfi_def_cfa_offset 8
 187              		.cfi_offset 4, -8
 188              		.cfi_offset 14, -4
 260:Generated_Source\PSoC4/Timer_2.c **** 
 189              		.loc 1 260 0
 190 0002 FFF7FEFF 		bl	CyEnterCriticalSection
 191              	.LVL8:
 262:Generated_Source\PSoC4/Timer_2.c **** 
 192              		.loc 1 262 0
 193 0006 0221     		movs	r1, #2
 194 0008 034A     		ldr	r2, .L13
 265:Generated_Source\PSoC4/Timer_2.c **** 
 195              		.loc 1 265 0
 196              		@ sp needed
ARM GAS  C:\Users\Ala\AppData\Local\Temp\cc5WTHKW.s 			page 28


 262:Generated_Source\PSoC4/Timer_2.c **** 
 197              		.loc 1 262 0
 198 000a 1368     		ldr	r3, [r2]
 199 000c 8B43     		bics	r3, r1
 200 000e 1360     		str	r3, [r2]
 264:Generated_Source\PSoC4/Timer_2.c **** }
 201              		.loc 1 264 0
 202 0010 FFF7FEFF 		bl	CyExitCriticalSection
 203              	.LVL9:
 265:Generated_Source\PSoC4/Timer_2.c **** 
 204              		.loc 1 265 0
 205 0014 10BD     		pop	{r4, pc}
 206              	.L14:
 207 0016 C046     		.align	2
 208              	.L13:
 209 0018 00000540 		.word	1074069504
 210              		.cfi_endproc
 211              	.LFE3:
 212              		.size	Timer_2_Stop, .-Timer_2_Stop
 213              		.section	.text.Timer_2_SetMode,"ax",%progbits
 214              		.align	1
 215              		.global	Timer_2_SetMode
 216              		.code	16
 217              		.thumb_func
 218              		.type	Timer_2_SetMode, %function
 219              	Timer_2_SetMode:
 220              	.LFB4:
 294:Generated_Source\PSoC4/Timer_2.c ****     uint8 enableInterrupts;
 221              		.loc 1 294 0
 222              		.cfi_startproc
 223              		@ args = 0, pretend = 0, frame = 0
 224              		@ frame_needed = 0, uses_anonymous_args = 0
 225              	.LVL10:
 226 0000 10B5     		push	{r4, lr}
 227              		.cfi_def_cfa_offset 8
 228              		.cfi_offset 4, -8
 229              		.cfi_offset 14, -4
 294:Generated_Source\PSoC4/Timer_2.c ****     uint8 enableInterrupts;
 230              		.loc 1 294 0
 231 0002 0400     		movs	r4, r0
 297:Generated_Source\PSoC4/Timer_2.c **** 
 232              		.loc 1 297 0
 233 0004 FFF7FEFF 		bl	CyEnterCriticalSection
 234              	.LVL11:
 299:Generated_Source\PSoC4/Timer_2.c ****     Timer_2_CONTROL_REG |= mode;
 235              		.loc 1 299 0
 236 0008 054B     		ldr	r3, .L16
 237 000a 064A     		ldr	r2, .L16+4
 238 000c 1968     		ldr	r1, [r3]
 303:Generated_Source\PSoC4/Timer_2.c **** 
 239              		.loc 1 303 0
 240              		@ sp needed
 299:Generated_Source\PSoC4/Timer_2.c ****     Timer_2_CONTROL_REG |= mode;
 241              		.loc 1 299 0
 242 000e 0A40     		ands	r2, r1
 243 0010 1A60     		str	r2, [r3]
 300:Generated_Source\PSoC4/Timer_2.c **** 
ARM GAS  C:\Users\Ala\AppData\Local\Temp\cc5WTHKW.s 			page 29


 244              		.loc 1 300 0
 245 0012 1A68     		ldr	r2, [r3]
 246 0014 1443     		orrs	r4, r2
 247              	.LVL12:
 248 0016 1C60     		str	r4, [r3]
 302:Generated_Source\PSoC4/Timer_2.c **** }
 249              		.loc 1 302 0
 250 0018 FFF7FEFF 		bl	CyExitCriticalSection
 251              	.LVL13:
 303:Generated_Source\PSoC4/Timer_2.c **** 
 252              		.loc 1 303 0
 253 001c 10BD     		pop	{r4, pc}
 254              	.L17:
 255 001e C046     		.align	2
 256              	.L16:
 257 0020 40010540 		.word	1074069824
 258 0024 FFFFFFF8 		.word	-117440513
 259              		.cfi_endproc
 260              	.LFE4:
 261              		.size	Timer_2_SetMode, .-Timer_2_SetMode
 262              		.section	.text.Timer_2_SetQDMode,"ax",%progbits
 263              		.align	1
 264              		.global	Timer_2_SetQDMode
 265              		.code	16
 266              		.thumb_func
 267              		.type	Timer_2_SetQDMode, %function
 268              	Timer_2_SetQDMode:
 269              	.LFB5:
 327:Generated_Source\PSoC4/Timer_2.c ****     uint8 enableInterrupts;
 270              		.loc 1 327 0
 271              		.cfi_startproc
 272              		@ args = 0, pretend = 0, frame = 0
 273              		@ frame_needed = 0, uses_anonymous_args = 0
 274              	.LVL14:
 275 0000 10B5     		push	{r4, lr}
 276              		.cfi_def_cfa_offset 8
 277              		.cfi_offset 4, -8
 278              		.cfi_offset 14, -4
 327:Generated_Source\PSoC4/Timer_2.c ****     uint8 enableInterrupts;
 279              		.loc 1 327 0
 280 0002 0400     		movs	r4, r0
 330:Generated_Source\PSoC4/Timer_2.c **** 
 281              		.loc 1 330 0
 282 0004 FFF7FEFF 		bl	CyEnterCriticalSection
 283              	.LVL15:
 332:Generated_Source\PSoC4/Timer_2.c ****     Timer_2_CONTROL_REG |= qdMode;
 284              		.loc 1 332 0
 285 0008 054B     		ldr	r3, .L19
 286 000a 064A     		ldr	r2, .L19+4
 287 000c 1968     		ldr	r1, [r3]
 336:Generated_Source\PSoC4/Timer_2.c **** 
 288              		.loc 1 336 0
 289              		@ sp needed
 332:Generated_Source\PSoC4/Timer_2.c ****     Timer_2_CONTROL_REG |= qdMode;
 290              		.loc 1 332 0
 291 000e 0A40     		ands	r2, r1
 292 0010 1A60     		str	r2, [r3]
ARM GAS  C:\Users\Ala\AppData\Local\Temp\cc5WTHKW.s 			page 30


 333:Generated_Source\PSoC4/Timer_2.c **** 
 293              		.loc 1 333 0
 294 0012 1A68     		ldr	r2, [r3]
 295 0014 1443     		orrs	r4, r2
 296              	.LVL16:
 297 0016 1C60     		str	r4, [r3]
 335:Generated_Source\PSoC4/Timer_2.c **** }
 298              		.loc 1 335 0
 299 0018 FFF7FEFF 		bl	CyExitCriticalSection
 300              	.LVL17:
 336:Generated_Source\PSoC4/Timer_2.c **** 
 301              		.loc 1 336 0
 302 001c 10BD     		pop	{r4, pc}
 303              	.L20:
 304 001e C046     		.align	2
 305              	.L19:
 306 0020 40010540 		.word	1074069824
 307 0024 FFFF8FFF 		.word	-7340033
 308              		.cfi_endproc
 309              	.LFE5:
 310              		.size	Timer_2_SetQDMode, .-Timer_2_SetQDMode
 311              		.section	.text.Timer_2_SetPrescaler,"ax",%progbits
 312              		.align	1
 313              		.global	Timer_2_SetPrescaler
 314              		.code	16
 315              		.thumb_func
 316              		.type	Timer_2_SetPrescaler, %function
 317              	Timer_2_SetPrescaler:
 318              	.LFB6:
 364:Generated_Source\PSoC4/Timer_2.c ****     uint8 enableInterrupts;
 319              		.loc 1 364 0
 320              		.cfi_startproc
 321              		@ args = 0, pretend = 0, frame = 0
 322              		@ frame_needed = 0, uses_anonymous_args = 0
 323              	.LVL18:
 324 0000 10B5     		push	{r4, lr}
 325              		.cfi_def_cfa_offset 8
 326              		.cfi_offset 4, -8
 327              		.cfi_offset 14, -4
 364:Generated_Source\PSoC4/Timer_2.c ****     uint8 enableInterrupts;
 328              		.loc 1 364 0
 329 0002 0400     		movs	r4, r0
 367:Generated_Source\PSoC4/Timer_2.c **** 
 330              		.loc 1 367 0
 331 0004 FFF7FEFF 		bl	CyEnterCriticalSection
 332              	.LVL19:
 369:Generated_Source\PSoC4/Timer_2.c ****     Timer_2_CONTROL_REG |= prescaler;
 333              		.loc 1 369 0
 334 0008 054B     		ldr	r3, .L22
 335 000a 064A     		ldr	r2, .L22+4
 336 000c 1968     		ldr	r1, [r3]
 373:Generated_Source\PSoC4/Timer_2.c **** 
 337              		.loc 1 373 0
 338              		@ sp needed
 369:Generated_Source\PSoC4/Timer_2.c ****     Timer_2_CONTROL_REG |= prescaler;
 339              		.loc 1 369 0
 340 000e 0A40     		ands	r2, r1
ARM GAS  C:\Users\Ala\AppData\Local\Temp\cc5WTHKW.s 			page 31


 341 0010 1A60     		str	r2, [r3]
 370:Generated_Source\PSoC4/Timer_2.c **** 
 342              		.loc 1 370 0
 343 0012 1A68     		ldr	r2, [r3]
 344 0014 1443     		orrs	r4, r2
 345              	.LVL20:
 346 0016 1C60     		str	r4, [r3]
 372:Generated_Source\PSoC4/Timer_2.c **** }
 347              		.loc 1 372 0
 348 0018 FFF7FEFF 		bl	CyExitCriticalSection
 349              	.LVL21:
 373:Generated_Source\PSoC4/Timer_2.c **** 
 350              		.loc 1 373 0
 351 001c 10BD     		pop	{r4, pc}
 352              	.L23:
 353 001e C046     		.align	2
 354              	.L22:
 355 0020 40010540 		.word	1074069824
 356 0024 FF00FFFF 		.word	-65281
 357              		.cfi_endproc
 358              	.LFE6:
 359              		.size	Timer_2_SetPrescaler, .-Timer_2_SetPrescaler
 360              		.section	.text.Timer_2_SetOneShot,"ax",%progbits
 361              		.align	1
 362              		.global	Timer_2_SetOneShot
 363              		.code	16
 364              		.thumb_func
 365              		.type	Timer_2_SetOneShot, %function
 366              	Timer_2_SetOneShot:
 367              	.LFB7:
 396:Generated_Source\PSoC4/Timer_2.c ****     uint8 enableInterrupts;
 368              		.loc 1 396 0
 369              		.cfi_startproc
 370              		@ args = 0, pretend = 0, frame = 0
 371              		@ frame_needed = 0, uses_anonymous_args = 0
 372              	.LVL22:
 373 0000 10B5     		push	{r4, lr}
 374              		.cfi_def_cfa_offset 8
 375              		.cfi_offset 4, -8
 376              		.cfi_offset 14, -4
 396:Generated_Source\PSoC4/Timer_2.c ****     uint8 enableInterrupts;
 377              		.loc 1 396 0
 378 0002 0400     		movs	r4, r0
 399:Generated_Source\PSoC4/Timer_2.c **** 
 379              		.loc 1 399 0
 380 0004 FFF7FEFF 		bl	CyEnterCriticalSection
 381              	.LVL23:
 401:Generated_Source\PSoC4/Timer_2.c ****     Timer_2_CONTROL_REG |= ((uint32)((oneShotEnable & Timer_2_1BIT_MASK) <<
 382              		.loc 1 401 0
 383 0008 074B     		ldr	r3, .L25
 384 000a 084A     		ldr	r2, .L25+4
 385 000c 1968     		ldr	r1, [r3]
 406:Generated_Source\PSoC4/Timer_2.c **** 
 386              		.loc 1 406 0
 387              		@ sp needed
 401:Generated_Source\PSoC4/Timer_2.c ****     Timer_2_CONTROL_REG |= ((uint32)((oneShotEnable & Timer_2_1BIT_MASK) <<
 388              		.loc 1 401 0
ARM GAS  C:\Users\Ala\AppData\Local\Temp\cc5WTHKW.s 			page 32


 389 000e 0A40     		ands	r2, r1
 390 0010 1A60     		str	r2, [r3]
 402:Generated_Source\PSoC4/Timer_2.c ****                                                                Timer_2_ONESHOT_SHIFT));
 391              		.loc 1 402 0
 392 0012 A204     		lsls	r2, r4, #18
 393 0014 8024     		movs	r4, #128
 394              	.LVL24:
 395 0016 1968     		ldr	r1, [r3]
 396 0018 E402     		lsls	r4, r4, #11
 397 001a 2240     		ands	r2, r4
 398 001c 0A43     		orrs	r2, r1
 399 001e 1A60     		str	r2, [r3]
 405:Generated_Source\PSoC4/Timer_2.c **** }
 400              		.loc 1 405 0
 401 0020 FFF7FEFF 		bl	CyExitCriticalSection
 402              	.LVL25:
 406:Generated_Source\PSoC4/Timer_2.c **** 
 403              		.loc 1 406 0
 404 0024 10BD     		pop	{r4, pc}
 405              	.L26:
 406 0026 C046     		.align	2
 407              	.L25:
 408 0028 40010540 		.word	1074069824
 409 002c FFFFFBFF 		.word	-262145
 410              		.cfi_endproc
 411              	.LFE7:
 412              		.size	Timer_2_SetOneShot, .-Timer_2_SetOneShot
 413              		.section	.text.Timer_2_SetPWMMode,"ax",%progbits
 414              		.align	1
 415              		.global	Timer_2_SetPWMMode
 416              		.code	16
 417              		.thumb_func
 418              		.type	Timer_2_SetPWMMode, %function
 419              	Timer_2_SetPWMMode:
 420              	.LFB8:
 450:Generated_Source\PSoC4/Timer_2.c ****     Timer_2_TRIG_CONTROL2_REG = (modeMask & Timer_2_6BIT_MASK);
 421              		.loc 1 450 0
 422              		.cfi_startproc
 423              		@ args = 0, pretend = 0, frame = 0
 424              		@ frame_needed = 0, uses_anonymous_args = 0
 425              		@ link register save eliminated.
 426              	.LVL26:
 451:Generated_Source\PSoC4/Timer_2.c **** }
 427              		.loc 1 451 0
 428 0000 3F23     		movs	r3, #63
 429 0002 1840     		ands	r0, r3
 430              	.LVL27:
 431 0004 014B     		ldr	r3, .L28
 452:Generated_Source\PSoC4/Timer_2.c **** 
 432              		.loc 1 452 0
 433              		@ sp needed
 451:Generated_Source\PSoC4/Timer_2.c **** }
 434              		.loc 1 451 0
 435 0006 1860     		str	r0, [r3]
 452:Generated_Source\PSoC4/Timer_2.c **** 
 436              		.loc 1 452 0
 437 0008 7047     		bx	lr
ARM GAS  C:\Users\Ala\AppData\Local\Temp\cc5WTHKW.s 			page 33


 438              	.L29:
 439 000a C046     		.align	2
 440              	.L28:
 441 000c 68010540 		.word	1074069864
 442              		.cfi_endproc
 443              	.LFE8:
 444              		.size	Timer_2_SetPWMMode, .-Timer_2_SetPWMMode
 445              		.section	.text.Timer_2_SetPWMSyncKill,"ax",%progbits
 446              		.align	1
 447              		.global	Timer_2_SetPWMSyncKill
 448              		.code	16
 449              		.thumb_func
 450              		.type	Timer_2_SetPWMSyncKill, %function
 451              	Timer_2_SetPWMSyncKill:
 452              	.LFB9:
 486:Generated_Source\PSoC4/Timer_2.c ****     uint8 enableInterrupts;
 453              		.loc 1 486 0
 454              		.cfi_startproc
 455              		@ args = 0, pretend = 0, frame = 0
 456              		@ frame_needed = 0, uses_anonymous_args = 0
 457              	.LVL28:
 458 0000 10B5     		push	{r4, lr}
 459              		.cfi_def_cfa_offset 8
 460              		.cfi_offset 4, -8
 461              		.cfi_offset 14, -4
 486:Generated_Source\PSoC4/Timer_2.c ****     uint8 enableInterrupts;
 462              		.loc 1 486 0
 463 0002 0400     		movs	r4, r0
 489:Generated_Source\PSoC4/Timer_2.c **** 
 464              		.loc 1 489 0
 465 0004 FFF7FEFF 		bl	CyEnterCriticalSection
 466              	.LVL29:
 491:Generated_Source\PSoC4/Timer_2.c ****     Timer_2_CONTROL_REG |= ((uint32)((syncKillEnable & Timer_2_1BIT_MASK)  <<
 467              		.loc 1 491 0
 468 0008 0422     		movs	r2, #4
 469 000a 064B     		ldr	r3, .L31
 492:Generated_Source\PSoC4/Timer_2.c ****                                                Timer_2_PWM_SYNC_KILL_SHIFT));
 470              		.loc 1 492 0
 471 000c A400     		lsls	r4, r4, #2
 472              	.LVL30:
 491:Generated_Source\PSoC4/Timer_2.c ****     Timer_2_CONTROL_REG |= ((uint32)((syncKillEnable & Timer_2_1BIT_MASK)  <<
 473              		.loc 1 491 0
 474 000e 1968     		ldr	r1, [r3]
 496:Generated_Source\PSoC4/Timer_2.c **** 
 475              		.loc 1 496 0
 476              		@ sp needed
 491:Generated_Source\PSoC4/Timer_2.c ****     Timer_2_CONTROL_REG |= ((uint32)((syncKillEnable & Timer_2_1BIT_MASK)  <<
 477              		.loc 1 491 0
 478 0010 9143     		bics	r1, r2
 479 0012 1960     		str	r1, [r3]
 492:Generated_Source\PSoC4/Timer_2.c ****                                                Timer_2_PWM_SYNC_KILL_SHIFT));
 480              		.loc 1 492 0
 481 0014 1968     		ldr	r1, [r3]
 482 0016 2240     		ands	r2, r4
 483 0018 0A43     		orrs	r2, r1
 484 001a 1A60     		str	r2, [r3]
 495:Generated_Source\PSoC4/Timer_2.c **** }
ARM GAS  C:\Users\Ala\AppData\Local\Temp\cc5WTHKW.s 			page 34


 485              		.loc 1 495 0
 486 001c FFF7FEFF 		bl	CyExitCriticalSection
 487              	.LVL31:
 496:Generated_Source\PSoC4/Timer_2.c **** 
 488              		.loc 1 496 0
 489 0020 10BD     		pop	{r4, pc}
 490              	.L32:
 491 0022 C046     		.align	2
 492              	.L31:
 493 0024 40010540 		.word	1074069824
 494              		.cfi_endproc
 495              	.LFE9:
 496              		.size	Timer_2_SetPWMSyncKill, .-Timer_2_SetPWMSyncKill
 497              		.section	.text.Timer_2_SetPWMStopOnKill,"ax",%progbits
 498              		.align	1
 499              		.global	Timer_2_SetPWMStopOnKill
 500              		.code	16
 501              		.thumb_func
 502              		.type	Timer_2_SetPWMStopOnKill, %function
 503              	Timer_2_SetPWMStopOnKill:
 504              	.LFB10:
 520:Generated_Source\PSoC4/Timer_2.c ****     uint8 enableInterrupts;
 505              		.loc 1 520 0
 506              		.cfi_startproc
 507              		@ args = 0, pretend = 0, frame = 0
 508              		@ frame_needed = 0, uses_anonymous_args = 0
 509              	.LVL32:
 510 0000 10B5     		push	{r4, lr}
 511              		.cfi_def_cfa_offset 8
 512              		.cfi_offset 4, -8
 513              		.cfi_offset 14, -4
 520:Generated_Source\PSoC4/Timer_2.c ****     uint8 enableInterrupts;
 514              		.loc 1 520 0
 515 0002 0400     		movs	r4, r0
 523:Generated_Source\PSoC4/Timer_2.c **** 
 516              		.loc 1 523 0
 517 0004 FFF7FEFF 		bl	CyEnterCriticalSection
 518              	.LVL33:
 525:Generated_Source\PSoC4/Timer_2.c ****     Timer_2_CONTROL_REG |= ((uint32)((stopOnKillEnable & Timer_2_1BIT_MASK)  <<
 519              		.loc 1 525 0
 520 0008 0822     		movs	r2, #8
 521 000a 064B     		ldr	r3, .L34
 526:Generated_Source\PSoC4/Timer_2.c ****                                                          Timer_2_PWM_STOP_KILL_SHIFT));
 522              		.loc 1 526 0
 523 000c E400     		lsls	r4, r4, #3
 524              	.LVL34:
 525:Generated_Source\PSoC4/Timer_2.c ****     Timer_2_CONTROL_REG |= ((uint32)((stopOnKillEnable & Timer_2_1BIT_MASK)  <<
 525              		.loc 1 525 0
 526 000e 1968     		ldr	r1, [r3]
 530:Generated_Source\PSoC4/Timer_2.c **** 
 527              		.loc 1 530 0
 528              		@ sp needed
 525:Generated_Source\PSoC4/Timer_2.c ****     Timer_2_CONTROL_REG |= ((uint32)((stopOnKillEnable & Timer_2_1BIT_MASK)  <<
 529              		.loc 1 525 0
 530 0010 9143     		bics	r1, r2
 531 0012 1960     		str	r1, [r3]
 526:Generated_Source\PSoC4/Timer_2.c ****                                                          Timer_2_PWM_STOP_KILL_SHIFT));
ARM GAS  C:\Users\Ala\AppData\Local\Temp\cc5WTHKW.s 			page 35


 532              		.loc 1 526 0
 533 0014 1968     		ldr	r1, [r3]
 534 0016 2240     		ands	r2, r4
 535 0018 0A43     		orrs	r2, r1
 536 001a 1A60     		str	r2, [r3]
 529:Generated_Source\PSoC4/Timer_2.c **** }
 537              		.loc 1 529 0
 538 001c FFF7FEFF 		bl	CyExitCriticalSection
 539              	.LVL35:
 530:Generated_Source\PSoC4/Timer_2.c **** 
 540              		.loc 1 530 0
 541 0020 10BD     		pop	{r4, pc}
 542              	.L35:
 543 0022 C046     		.align	2
 544              	.L34:
 545 0024 40010540 		.word	1074069824
 546              		.cfi_endproc
 547              	.LFE10:
 548              		.size	Timer_2_SetPWMStopOnKill, .-Timer_2_SetPWMStopOnKill
 549              		.section	.text.Timer_2_SetPWMDeadTime,"ax",%progbits
 550              		.align	1
 551              		.global	Timer_2_SetPWMDeadTime
 552              		.code	16
 553              		.thumb_func
 554              		.type	Timer_2_SetPWMDeadTime, %function
 555              	Timer_2_SetPWMDeadTime:
 556              	.LFB11:
 553:Generated_Source\PSoC4/Timer_2.c ****     uint8 enableInterrupts;
 557              		.loc 1 553 0
 558              		.cfi_startproc
 559              		@ args = 0, pretend = 0, frame = 0
 560              		@ frame_needed = 0, uses_anonymous_args = 0
 561              	.LVL36:
 562 0000 10B5     		push	{r4, lr}
 563              		.cfi_def_cfa_offset 8
 564              		.cfi_offset 4, -8
 565              		.cfi_offset 14, -4
 553:Generated_Source\PSoC4/Timer_2.c ****     uint8 enableInterrupts;
 566              		.loc 1 553 0
 567 0002 0400     		movs	r4, r0
 556:Generated_Source\PSoC4/Timer_2.c **** 
 568              		.loc 1 556 0
 569 0004 FFF7FEFF 		bl	CyEnterCriticalSection
 570              	.LVL37:
 558:Generated_Source\PSoC4/Timer_2.c ****     Timer_2_CONTROL_REG |= ((uint32)((deadTime & Timer_2_8BIT_MASK) <<
 571              		.loc 1 558 0
 572 0008 064B     		ldr	r3, .L37
 573 000a 074A     		ldr	r2, .L37+4
 574 000c 1968     		ldr	r1, [r3]
 559:Generated_Source\PSoC4/Timer_2.c ****                                                           Timer_2_PRESCALER_SHIFT));
 575              		.loc 1 559 0
 576 000e 2406     		lsls	r4, r4, #24
 577              	.LVL38:
 558:Generated_Source\PSoC4/Timer_2.c ****     Timer_2_CONTROL_REG |= ((uint32)((deadTime & Timer_2_8BIT_MASK) <<
 578              		.loc 1 558 0
 579 0010 0A40     		ands	r2, r1
 580 0012 1A60     		str	r2, [r3]
ARM GAS  C:\Users\Ala\AppData\Local\Temp\cc5WTHKW.s 			page 36


 559:Generated_Source\PSoC4/Timer_2.c ****                                                           Timer_2_PRESCALER_SHIFT));
 581              		.loc 1 559 0
 582 0014 1A68     		ldr	r2, [r3]
 583 0016 240C     		lsrs	r4, r4, #16
 584 0018 1443     		orrs	r4, r2
 585 001a 1C60     		str	r4, [r3]
 562:Generated_Source\PSoC4/Timer_2.c **** }
 586              		.loc 1 562 0
 587 001c FFF7FEFF 		bl	CyExitCriticalSection
 588              	.LVL39:
 563:Generated_Source\PSoC4/Timer_2.c **** 
 589              		.loc 1 563 0
 590              		@ sp needed
 591 0020 10BD     		pop	{r4, pc}
 592              	.L38:
 593 0022 C046     		.align	2
 594              	.L37:
 595 0024 40010540 		.word	1074069824
 596 0028 FF00FFFF 		.word	-65281
 597              		.cfi_endproc
 598              	.LFE11:
 599              		.size	Timer_2_SetPWMDeadTime, .-Timer_2_SetPWMDeadTime
 600              		.section	.text.Timer_2_SetPWMInvert,"ax",%progbits
 601              		.align	1
 602              		.global	Timer_2_SetPWMInvert
 603              		.code	16
 604              		.thumb_func
 605              		.type	Timer_2_SetPWMInvert, %function
 606              	Timer_2_SetPWMInvert:
 607              	.LFB12:
 586:Generated_Source\PSoC4/Timer_2.c ****     uint8 enableInterrupts;
 608              		.loc 1 586 0
 609              		.cfi_startproc
 610              		@ args = 0, pretend = 0, frame = 0
 611              		@ frame_needed = 0, uses_anonymous_args = 0
 612              	.LVL40:
 613 0000 10B5     		push	{r4, lr}
 614              		.cfi_def_cfa_offset 8
 615              		.cfi_offset 4, -8
 616              		.cfi_offset 14, -4
 586:Generated_Source\PSoC4/Timer_2.c ****     uint8 enableInterrupts;
 617              		.loc 1 586 0
 618 0002 0400     		movs	r4, r0
 589:Generated_Source\PSoC4/Timer_2.c **** 
 619              		.loc 1 589 0
 620 0004 FFF7FEFF 		bl	CyEnterCriticalSection
 621              	.LVL41:
 591:Generated_Source\PSoC4/Timer_2.c ****     Timer_2_CONTROL_REG |= mask;
 622              		.loc 1 591 0
 623 0008 054B     		ldr	r3, .L40
 624 000a 064A     		ldr	r2, .L40+4
 625 000c 1968     		ldr	r1, [r3]
 595:Generated_Source\PSoC4/Timer_2.c **** 
 626              		.loc 1 595 0
 627              		@ sp needed
 591:Generated_Source\PSoC4/Timer_2.c ****     Timer_2_CONTROL_REG |= mask;
 628              		.loc 1 591 0
ARM GAS  C:\Users\Ala\AppData\Local\Temp\cc5WTHKW.s 			page 37


 629 000e 0A40     		ands	r2, r1
 630 0010 1A60     		str	r2, [r3]
 592:Generated_Source\PSoC4/Timer_2.c **** 
 631              		.loc 1 592 0
 632 0012 1A68     		ldr	r2, [r3]
 633 0014 1443     		orrs	r4, r2
 634              	.LVL42:
 635 0016 1C60     		str	r4, [r3]
 594:Generated_Source\PSoC4/Timer_2.c **** }
 636              		.loc 1 594 0
 637 0018 FFF7FEFF 		bl	CyExitCriticalSection
 638              	.LVL43:
 595:Generated_Source\PSoC4/Timer_2.c **** 
 639              		.loc 1 595 0
 640 001c 10BD     		pop	{r4, pc}
 641              	.L41:
 642 001e C046     		.align	2
 643              	.L40:
 644 0020 40010540 		.word	1074069824
 645 0024 FFFFCFFF 		.word	-3145729
 646              		.cfi_endproc
 647              	.LFE12:
 648              		.size	Timer_2_SetPWMInvert, .-Timer_2_SetPWMInvert
 649              		.section	.text.Timer_2_WriteCounter,"ax",%progbits
 650              		.align	1
 651              		.global	Timer_2_WriteCounter
 652              		.code	16
 653              		.thumb_func
 654              		.type	Timer_2_WriteCounter, %function
 655              	Timer_2_WriteCounter:
 656              	.LFB13:
 616:Generated_Source\PSoC4/Timer_2.c ****     Timer_2_COUNTER_REG = (count & Timer_2_16BIT_MASK);
 657              		.loc 1 616 0
 658              		.cfi_startproc
 659              		@ args = 0, pretend = 0, frame = 0
 660              		@ frame_needed = 0, uses_anonymous_args = 0
 661              		@ link register save eliminated.
 662              	.LVL44:
 617:Generated_Source\PSoC4/Timer_2.c **** }
 663              		.loc 1 617 0
 664 0000 014B     		ldr	r3, .L43
 665 0002 80B2     		uxth	r0, r0
 666              	.LVL45:
 667 0004 1860     		str	r0, [r3]
 618:Generated_Source\PSoC4/Timer_2.c **** 
 668              		.loc 1 618 0
 669              		@ sp needed
 670 0006 7047     		bx	lr
 671              	.L44:
 672              		.align	2
 673              	.L43:
 674 0008 48010540 		.word	1074069832
 675              		.cfi_endproc
 676              	.LFE13:
 677              		.size	Timer_2_WriteCounter, .-Timer_2_WriteCounter
 678              		.section	.text.Timer_2_ReadCounter,"ax",%progbits
 679              		.align	1
ARM GAS  C:\Users\Ala\AppData\Local\Temp\cc5WTHKW.s 			page 38


 680              		.global	Timer_2_ReadCounter
 681              		.code	16
 682              		.thumb_func
 683              		.type	Timer_2_ReadCounter, %function
 684              	Timer_2_ReadCounter:
 685              	.LFB14:
 636:Generated_Source\PSoC4/Timer_2.c ****     return (Timer_2_COUNTER_REG & Timer_2_16BIT_MASK);
 686              		.loc 1 636 0
 687              		.cfi_startproc
 688              		@ args = 0, pretend = 0, frame = 0
 689              		@ frame_needed = 0, uses_anonymous_args = 0
 690              		@ link register save eliminated.
 637:Generated_Source\PSoC4/Timer_2.c **** }
 691              		.loc 1 637 0
 692 0000 014B     		ldr	r3, .L46
 638:Generated_Source\PSoC4/Timer_2.c **** 
 693              		.loc 1 638 0
 694              		@ sp needed
 637:Generated_Source\PSoC4/Timer_2.c **** }
 695              		.loc 1 637 0
 696 0002 1868     		ldr	r0, [r3]
 697 0004 80B2     		uxth	r0, r0
 638:Generated_Source\PSoC4/Timer_2.c **** 
 698              		.loc 1 638 0
 699 0006 7047     		bx	lr
 700              	.L47:
 701              		.align	2
 702              	.L46:
 703 0008 48010540 		.word	1074069832
 704              		.cfi_endproc
 705              	.LFE14:
 706              		.size	Timer_2_ReadCounter, .-Timer_2_ReadCounter
 707              		.section	.text.Timer_2_SetCounterMode,"ax",%progbits
 708              		.align	1
 709              		.global	Timer_2_SetCounterMode
 710              		.code	16
 711              		.thumb_func
 712              		.type	Timer_2_SetCounterMode, %function
 713              	Timer_2_SetCounterMode:
 714              	.LFB15:
 665:Generated_Source\PSoC4/Timer_2.c ****     uint8 enableInterrupts;
 715              		.loc 1 665 0
 716              		.cfi_startproc
 717              		@ args = 0, pretend = 0, frame = 0
 718              		@ frame_needed = 0, uses_anonymous_args = 0
 719              	.LVL46:
 720 0000 10B5     		push	{r4, lr}
 721              		.cfi_def_cfa_offset 8
 722              		.cfi_offset 4, -8
 723              		.cfi_offset 14, -4
 665:Generated_Source\PSoC4/Timer_2.c ****     uint8 enableInterrupts;
 724              		.loc 1 665 0
 725 0002 0400     		movs	r4, r0
 668:Generated_Source\PSoC4/Timer_2.c **** 
 726              		.loc 1 668 0
 727 0004 FFF7FEFF 		bl	CyEnterCriticalSection
 728              	.LVL47:
ARM GAS  C:\Users\Ala\AppData\Local\Temp\cc5WTHKW.s 			page 39


 670:Generated_Source\PSoC4/Timer_2.c ****     Timer_2_CONTROL_REG |= counterMode;
 729              		.loc 1 670 0
 730 0008 054B     		ldr	r3, .L49
 731 000a 064A     		ldr	r2, .L49+4
 732 000c 1968     		ldr	r1, [r3]
 674:Generated_Source\PSoC4/Timer_2.c **** 
 733              		.loc 1 674 0
 734              		@ sp needed
 670:Generated_Source\PSoC4/Timer_2.c ****     Timer_2_CONTROL_REG |= counterMode;
 735              		.loc 1 670 0
 736 000e 0A40     		ands	r2, r1
 737 0010 1A60     		str	r2, [r3]
 671:Generated_Source\PSoC4/Timer_2.c **** 
 738              		.loc 1 671 0
 739 0012 1A68     		ldr	r2, [r3]
 740 0014 1443     		orrs	r4, r2
 741              	.LVL48:
 742 0016 1C60     		str	r4, [r3]
 673:Generated_Source\PSoC4/Timer_2.c **** }
 743              		.loc 1 673 0
 744 0018 FFF7FEFF 		bl	CyExitCriticalSection
 745              	.LVL49:
 674:Generated_Source\PSoC4/Timer_2.c **** 
 746              		.loc 1 674 0
 747 001c 10BD     		pop	{r4, pc}
 748              	.L50:
 749 001e C046     		.align	2
 750              	.L49:
 751 0020 40010540 		.word	1074069824
 752 0024 FFFFFCFF 		.word	-196609
 753              		.cfi_endproc
 754              	.LFE15:
 755              		.size	Timer_2_SetCounterMode, .-Timer_2_SetCounterMode
 756              		.section	.text.Timer_2_WritePeriod,"ax",%progbits
 757              		.align	1
 758              		.global	Timer_2_WritePeriod
 759              		.code	16
 760              		.thumb_func
 761              		.type	Timer_2_WritePeriod, %function
 762              	Timer_2_WritePeriod:
 763              	.LFB16:
 694:Generated_Source\PSoC4/Timer_2.c ****     Timer_2_PERIOD_REG = (period & Timer_2_16BIT_MASK);
 764              		.loc 1 694 0
 765              		.cfi_startproc
 766              		@ args = 0, pretend = 0, frame = 0
 767              		@ frame_needed = 0, uses_anonymous_args = 0
 768              		@ link register save eliminated.
 769              	.LVL50:
 695:Generated_Source\PSoC4/Timer_2.c **** }
 770              		.loc 1 695 0
 771 0000 014B     		ldr	r3, .L52
 772 0002 80B2     		uxth	r0, r0
 773              	.LVL51:
 774 0004 1860     		str	r0, [r3]
 696:Generated_Source\PSoC4/Timer_2.c **** 
 775              		.loc 1 696 0
 776              		@ sp needed
ARM GAS  C:\Users\Ala\AppData\Local\Temp\cc5WTHKW.s 			page 40


 777 0006 7047     		bx	lr
 778              	.L53:
 779              		.align	2
 780              	.L52:
 781 0008 54010540 		.word	1074069844
 782              		.cfi_endproc
 783              	.LFE16:
 784              		.size	Timer_2_WritePeriod, .-Timer_2_WritePeriod
 785              		.section	.text.Timer_2_ReadPeriod,"ax",%progbits
 786              		.align	1
 787              		.global	Timer_2_ReadPeriod
 788              		.code	16
 789              		.thumb_func
 790              		.type	Timer_2_ReadPeriod, %function
 791              	Timer_2_ReadPeriod:
 792              	.LFB17:
 714:Generated_Source\PSoC4/Timer_2.c ****     return (Timer_2_PERIOD_REG & Timer_2_16BIT_MASK);
 793              		.loc 1 714 0
 794              		.cfi_startproc
 795              		@ args = 0, pretend = 0, frame = 0
 796              		@ frame_needed = 0, uses_anonymous_args = 0
 797              		@ link register save eliminated.
 715:Generated_Source\PSoC4/Timer_2.c **** }
 798              		.loc 1 715 0
 799 0000 014B     		ldr	r3, .L55
 716:Generated_Source\PSoC4/Timer_2.c **** 
 800              		.loc 1 716 0
 801              		@ sp needed
 715:Generated_Source\PSoC4/Timer_2.c **** }
 802              		.loc 1 715 0
 803 0002 1868     		ldr	r0, [r3]
 804 0004 80B2     		uxth	r0, r0
 716:Generated_Source\PSoC4/Timer_2.c **** 
 805              		.loc 1 716 0
 806 0006 7047     		bx	lr
 807              	.L56:
 808              		.align	2
 809              	.L55:
 810 0008 54010540 		.word	1074069844
 811              		.cfi_endproc
 812              	.LFE17:
 813              		.size	Timer_2_ReadPeriod, .-Timer_2_ReadPeriod
 814              		.section	.text.Timer_2_SetCompareSwap,"ax",%progbits
 815              		.align	1
 816              		.global	Timer_2_SetCompareSwap
 817              		.code	16
 818              		.thumb_func
 819              		.type	Timer_2_SetCompareSwap, %function
 820              	Timer_2_SetCompareSwap:
 821              	.LFB18:
 740:Generated_Source\PSoC4/Timer_2.c ****     uint8 enableInterrupts;
 822              		.loc 1 740 0
 823              		.cfi_startproc
 824              		@ args = 0, pretend = 0, frame = 0
 825              		@ frame_needed = 0, uses_anonymous_args = 0
 826              	.LVL52:
 827 0000 10B5     		push	{r4, lr}
ARM GAS  C:\Users\Ala\AppData\Local\Temp\cc5WTHKW.s 			page 41


 828              		.cfi_def_cfa_offset 8
 829              		.cfi_offset 4, -8
 830              		.cfi_offset 14, -4
 740:Generated_Source\PSoC4/Timer_2.c ****     uint8 enableInterrupts;
 831              		.loc 1 740 0
 832 0002 0400     		movs	r4, r0
 743:Generated_Source\PSoC4/Timer_2.c **** 
 833              		.loc 1 743 0
 834 0004 FFF7FEFF 		bl	CyEnterCriticalSection
 835              	.LVL53:
 745:Generated_Source\PSoC4/Timer_2.c ****     Timer_2_CONTROL_REG |= (swapEnable & Timer_2_1BIT_MASK);
 836              		.loc 1 745 0
 837 0008 0122     		movs	r2, #1
 838 000a 054B     		ldr	r3, .L58
 749:Generated_Source\PSoC4/Timer_2.c **** 
 839              		.loc 1 749 0
 840              		@ sp needed
 745:Generated_Source\PSoC4/Timer_2.c ****     Timer_2_CONTROL_REG |= (swapEnable & Timer_2_1BIT_MASK);
 841              		.loc 1 745 0
 842 000c 1968     		ldr	r1, [r3]
 843 000e 9143     		bics	r1, r2
 844 0010 1960     		str	r1, [r3]
 746:Generated_Source\PSoC4/Timer_2.c **** 
 845              		.loc 1 746 0
 846 0012 1968     		ldr	r1, [r3]
 847 0014 2240     		ands	r2, r4
 848 0016 0A43     		orrs	r2, r1
 849 0018 1A60     		str	r2, [r3]
 748:Generated_Source\PSoC4/Timer_2.c **** }
 850              		.loc 1 748 0
 851 001a FFF7FEFF 		bl	CyExitCriticalSection
 852              	.LVL54:
 853              	.LVL55:
 749:Generated_Source\PSoC4/Timer_2.c **** 
 854              		.loc 1 749 0
 855 001e 10BD     		pop	{r4, pc}
 856              	.L59:
 857              		.align	2
 858              	.L58:
 859 0020 40010540 		.word	1074069824
 860              		.cfi_endproc
 861              	.LFE18:
 862              		.size	Timer_2_SetCompareSwap, .-Timer_2_SetCompareSwap
 863              		.section	.text.Timer_2_WritePeriodBuf,"ax",%progbits
 864              		.align	1
 865              		.global	Timer_2_WritePeriodBuf
 866              		.code	16
 867              		.thumb_func
 868              		.type	Timer_2_WritePeriodBuf, %function
 869              	Timer_2_WritePeriodBuf:
 870              	.LFB19:
 767:Generated_Source\PSoC4/Timer_2.c ****     Timer_2_PERIOD_BUF_REG = (periodBuf & Timer_2_16BIT_MASK);
 871              		.loc 1 767 0
 872              		.cfi_startproc
 873              		@ args = 0, pretend = 0, frame = 0
 874              		@ frame_needed = 0, uses_anonymous_args = 0
 875              		@ link register save eliminated.
ARM GAS  C:\Users\Ala\AppData\Local\Temp\cc5WTHKW.s 			page 42


 876              	.LVL56:
 768:Generated_Source\PSoC4/Timer_2.c **** }
 877              		.loc 1 768 0
 878 0000 014B     		ldr	r3, .L61
 879 0002 80B2     		uxth	r0, r0
 880              	.LVL57:
 881 0004 1860     		str	r0, [r3]
 769:Generated_Source\PSoC4/Timer_2.c **** 
 882              		.loc 1 769 0
 883              		@ sp needed
 884 0006 7047     		bx	lr
 885              	.L62:
 886              		.align	2
 887              	.L61:
 888 0008 58010540 		.word	1074069848
 889              		.cfi_endproc
 890              	.LFE19:
 891              		.size	Timer_2_WritePeriodBuf, .-Timer_2_WritePeriodBuf
 892              		.section	.text.Timer_2_ReadPeriodBuf,"ax",%progbits
 893              		.align	1
 894              		.global	Timer_2_ReadPeriodBuf
 895              		.code	16
 896              		.thumb_func
 897              		.type	Timer_2_ReadPeriodBuf, %function
 898              	Timer_2_ReadPeriodBuf:
 899              	.LFB20:
 787:Generated_Source\PSoC4/Timer_2.c ****     return (Timer_2_PERIOD_BUF_REG & Timer_2_16BIT_MASK);
 900              		.loc 1 787 0
 901              		.cfi_startproc
 902              		@ args = 0, pretend = 0, frame = 0
 903              		@ frame_needed = 0, uses_anonymous_args = 0
 904              		@ link register save eliminated.
 788:Generated_Source\PSoC4/Timer_2.c **** }
 905              		.loc 1 788 0
 906 0000 014B     		ldr	r3, .L64
 789:Generated_Source\PSoC4/Timer_2.c **** 
 907              		.loc 1 789 0
 908              		@ sp needed
 788:Generated_Source\PSoC4/Timer_2.c **** }
 909              		.loc 1 788 0
 910 0002 1868     		ldr	r0, [r3]
 911 0004 80B2     		uxth	r0, r0
 789:Generated_Source\PSoC4/Timer_2.c **** 
 912              		.loc 1 789 0
 913 0006 7047     		bx	lr
 914              	.L65:
 915              		.align	2
 916              	.L64:
 917 0008 58010540 		.word	1074069848
 918              		.cfi_endproc
 919              	.LFE20:
 920              		.size	Timer_2_ReadPeriodBuf, .-Timer_2_ReadPeriodBuf
 921              		.section	.text.Timer_2_SetPeriodSwap,"ax",%progbits
 922              		.align	1
 923              		.global	Timer_2_SetPeriodSwap
 924              		.code	16
 925              		.thumb_func
ARM GAS  C:\Users\Ala\AppData\Local\Temp\cc5WTHKW.s 			page 43


 926              		.type	Timer_2_SetPeriodSwap, %function
 927              	Timer_2_SetPeriodSwap:
 928              	.LFB21:
 813:Generated_Source\PSoC4/Timer_2.c ****     uint8 enableInterrupts;
 929              		.loc 1 813 0
 930              		.cfi_startproc
 931              		@ args = 0, pretend = 0, frame = 0
 932              		@ frame_needed = 0, uses_anonymous_args = 0
 933              	.LVL58:
 934 0000 10B5     		push	{r4, lr}
 935              		.cfi_def_cfa_offset 8
 936              		.cfi_offset 4, -8
 937              		.cfi_offset 14, -4
 813:Generated_Source\PSoC4/Timer_2.c ****     uint8 enableInterrupts;
 938              		.loc 1 813 0
 939 0002 0400     		movs	r4, r0
 816:Generated_Source\PSoC4/Timer_2.c **** 
 940              		.loc 1 816 0
 941 0004 FFF7FEFF 		bl	CyEnterCriticalSection
 942              	.LVL59:
 818:Generated_Source\PSoC4/Timer_2.c ****     Timer_2_CONTROL_REG |= ((uint32)((swapEnable & Timer_2_1BIT_MASK) <<
 943              		.loc 1 818 0
 944 0008 0222     		movs	r2, #2
 945 000a 064B     		ldr	r3, .L67
 819:Generated_Source\PSoC4/Timer_2.c ****                                                             Timer_2_RELOAD_PERIOD_SHIFT));
 946              		.loc 1 819 0
 947 000c 6400     		lsls	r4, r4, #1
 948              	.LVL60:
 818:Generated_Source\PSoC4/Timer_2.c ****     Timer_2_CONTROL_REG |= ((uint32)((swapEnable & Timer_2_1BIT_MASK) <<
 949              		.loc 1 818 0
 950 000e 1968     		ldr	r1, [r3]
 823:Generated_Source\PSoC4/Timer_2.c **** 
 951              		.loc 1 823 0
 952              		@ sp needed
 818:Generated_Source\PSoC4/Timer_2.c ****     Timer_2_CONTROL_REG |= ((uint32)((swapEnable & Timer_2_1BIT_MASK) <<
 953              		.loc 1 818 0
 954 0010 9143     		bics	r1, r2
 955 0012 1960     		str	r1, [r3]
 819:Generated_Source\PSoC4/Timer_2.c ****                                                             Timer_2_RELOAD_PERIOD_SHIFT));
 956              		.loc 1 819 0
 957 0014 1968     		ldr	r1, [r3]
 958 0016 2240     		ands	r2, r4
 959 0018 0A43     		orrs	r2, r1
 960 001a 1A60     		str	r2, [r3]
 822:Generated_Source\PSoC4/Timer_2.c **** }
 961              		.loc 1 822 0
 962 001c FFF7FEFF 		bl	CyExitCriticalSection
 963              	.LVL61:
 823:Generated_Source\PSoC4/Timer_2.c **** 
 964              		.loc 1 823 0
 965 0020 10BD     		pop	{r4, pc}
 966              	.L68:
 967 0022 C046     		.align	2
 968              	.L67:
 969 0024 40010540 		.word	1074069824
 970              		.cfi_endproc
 971              	.LFE21:
ARM GAS  C:\Users\Ala\AppData\Local\Temp\cc5WTHKW.s 			page 44


 972              		.size	Timer_2_SetPeriodSwap, .-Timer_2_SetPeriodSwap
 973              		.section	.text.Timer_2_WriteCompare,"ax",%progbits
 974              		.align	1
 975              		.global	Timer_2_WriteCompare
 976              		.code	16
 977              		.thumb_func
 978              		.type	Timer_2_WriteCompare, %function
 979              	Timer_2_WriteCompare:
 980              	.LFB22:
 850:Generated_Source\PSoC4/Timer_2.c ****     #if (Timer_2_CY_TCPWM_4000)
 981              		.loc 1 850 0
 982              		.cfi_startproc
 983              		@ args = 0, pretend = 0, frame = 0
 984              		@ frame_needed = 0, uses_anonymous_args = 0
 985              		@ link register save eliminated.
 986              	.LVL62:
 873:Generated_Source\PSoC4/Timer_2.c **** }
 987              		.loc 1 873 0
 988 0000 014B     		ldr	r3, .L70
 989 0002 80B2     		uxth	r0, r0
 990              	.LVL63:
 991 0004 1860     		str	r0, [r3]
 874:Generated_Source\PSoC4/Timer_2.c **** 
 992              		.loc 1 874 0
 993              		@ sp needed
 994 0006 7047     		bx	lr
 995              	.L71:
 996              		.align	2
 997              	.L70:
 998 0008 4C010540 		.word	1074069836
 999              		.cfi_endproc
 1000              	.LFE22:
 1001              		.size	Timer_2_WriteCompare, .-Timer_2_WriteCompare
 1002              		.section	.text.Timer_2_ReadCompare,"ax",%progbits
 1003              		.align	1
 1004              		.global	Timer_2_ReadCompare
 1005              		.code	16
 1006              		.thumb_func
 1007              		.type	Timer_2_ReadCompare, %function
 1008              	Timer_2_ReadCompare:
 1009              	.LFB43:
 1010              		.cfi_startproc
 1011              		@ args = 0, pretend = 0, frame = 0
 1012              		@ frame_needed = 0, uses_anonymous_args = 0
 1013              		@ link register save eliminated.
 1014 0000 014B     		ldr	r3, .L73
 1015              		@ sp needed
 1016 0002 1868     		ldr	r0, [r3]
 1017 0004 80B2     		uxth	r0, r0
 1018 0006 7047     		bx	lr
 1019              	.L74:
 1020              		.align	2
 1021              	.L73:
 1022 0008 4C010540 		.word	1074069836
 1023              		.cfi_endproc
 1024              	.LFE43:
 1025              		.size	Timer_2_ReadCompare, .-Timer_2_ReadCompare
ARM GAS  C:\Users\Ala\AppData\Local\Temp\cc5WTHKW.s 			page 45


 1026              		.section	.text.Timer_2_WriteCompareBuf,"ax",%progbits
 1027              		.align	1
 1028              		.global	Timer_2_WriteCompareBuf
 1029              		.code	16
 1030              		.thumb_func
 1031              		.type	Timer_2_WriteCompareBuf, %function
 1032              	Timer_2_WriteCompareBuf:
 1033              	.LFB24:
 955:Generated_Source\PSoC4/Timer_2.c ****     #if (Timer_2_CY_TCPWM_4000)
 1034              		.loc 1 955 0
 1035              		.cfi_startproc
 1036              		@ args = 0, pretend = 0, frame = 0
 1037              		@ frame_needed = 0, uses_anonymous_args = 0
 1038              		@ link register save eliminated.
 1039              	.LVL64:
 976:Generated_Source\PSoC4/Timer_2.c **** }
 1040              		.loc 1 976 0
 1041 0000 014B     		ldr	r3, .L76
 1042 0002 80B2     		uxth	r0, r0
 1043              	.LVL65:
 1044 0004 1860     		str	r0, [r3]
 977:Generated_Source\PSoC4/Timer_2.c **** 
 1045              		.loc 1 977 0
 1046              		@ sp needed
 1047 0006 7047     		bx	lr
 1048              	.L77:
 1049              		.align	2
 1050              	.L76:
 1051 0008 50010540 		.word	1074069840
 1052              		.cfi_endproc
 1053              	.LFE24:
 1054              		.size	Timer_2_WriteCompareBuf, .-Timer_2_WriteCompareBuf
 1055              		.section	.text.Timer_2_ReadCompareBuf,"ax",%progbits
 1056              		.align	1
 1057              		.global	Timer_2_ReadCompareBuf
 1058              		.code	16
 1059              		.thumb_func
 1060              		.type	Timer_2_ReadCompareBuf, %function
 1061              	Timer_2_ReadCompareBuf:
 1062              	.LFB41:
 1063              		.cfi_startproc
 1064              		@ args = 0, pretend = 0, frame = 0
 1065              		@ frame_needed = 0, uses_anonymous_args = 0
 1066              		@ link register save eliminated.
 1067 0000 014B     		ldr	r3, .L79
 1068              		@ sp needed
 1069 0002 1868     		ldr	r0, [r3]
 1070 0004 80B2     		uxth	r0, r0
 1071 0006 7047     		bx	lr
 1072              	.L80:
 1073              		.align	2
 1074              	.L79:
 1075 0008 50010540 		.word	1074069840
 1076              		.cfi_endproc
 1077              	.LFE41:
 1078              		.size	Timer_2_ReadCompareBuf, .-Timer_2_ReadCompareBuf
 1079              		.section	.text.Timer_2_ReadCapture,"ax",%progbits
ARM GAS  C:\Users\Ala\AppData\Local\Temp\cc5WTHKW.s 			page 46


 1080              		.align	1
 1081              		.global	Timer_2_ReadCapture
 1082              		.code	16
 1083              		.thumb_func
 1084              		.type	Timer_2_ReadCapture, %function
 1085              	Timer_2_ReadCapture:
 1086              	.LFB26:
1047:Generated_Source\PSoC4/Timer_2.c ****     return (Timer_2_COMP_CAP_REG & Timer_2_16BIT_MASK);
 1087              		.loc 1 1047 0
 1088              		.cfi_startproc
 1089              		@ args = 0, pretend = 0, frame = 0
 1090              		@ frame_needed = 0, uses_anonymous_args = 0
 1091              		@ link register save eliminated.
1048:Generated_Source\PSoC4/Timer_2.c **** }
 1092              		.loc 1 1048 0
 1093 0000 014B     		ldr	r3, .L82
1049:Generated_Source\PSoC4/Timer_2.c **** 
 1094              		.loc 1 1049 0
 1095              		@ sp needed
1048:Generated_Source\PSoC4/Timer_2.c **** }
 1096              		.loc 1 1048 0
 1097 0002 1868     		ldr	r0, [r3]
 1098 0004 80B2     		uxth	r0, r0
1049:Generated_Source\PSoC4/Timer_2.c **** 
 1099              		.loc 1 1049 0
 1100 0006 7047     		bx	lr
 1101              	.L83:
 1102              		.align	2
 1103              	.L82:
 1104 0008 4C010540 		.word	1074069836
 1105              		.cfi_endproc
 1106              	.LFE26:
 1107              		.size	Timer_2_ReadCapture, .-Timer_2_ReadCapture
 1108              		.section	.text.Timer_2_ReadCaptureBuf,"ax",%progbits
 1109              		.align	1
 1110              		.global	Timer_2_ReadCaptureBuf
 1111              		.code	16
 1112              		.thumb_func
 1113              		.type	Timer_2_ReadCaptureBuf, %function
 1114              	Timer_2_ReadCaptureBuf:
 1115              	.LFB27:
1068:Generated_Source\PSoC4/Timer_2.c ****     return (Timer_2_COMP_CAP_BUF_REG & Timer_2_16BIT_MASK);
 1116              		.loc 1 1068 0
 1117              		.cfi_startproc
 1118              		@ args = 0, pretend = 0, frame = 0
 1119              		@ frame_needed = 0, uses_anonymous_args = 0
 1120              		@ link register save eliminated.
1069:Generated_Source\PSoC4/Timer_2.c **** }
 1121              		.loc 1 1069 0
 1122 0000 014B     		ldr	r3, .L85
1070:Generated_Source\PSoC4/Timer_2.c **** 
 1123              		.loc 1 1070 0
 1124              		@ sp needed
1069:Generated_Source\PSoC4/Timer_2.c **** }
 1125              		.loc 1 1069 0
 1126 0002 1868     		ldr	r0, [r3]
 1127 0004 80B2     		uxth	r0, r0
ARM GAS  C:\Users\Ala\AppData\Local\Temp\cc5WTHKW.s 			page 47


1070:Generated_Source\PSoC4/Timer_2.c **** 
 1128              		.loc 1 1070 0
 1129 0006 7047     		bx	lr
 1130              	.L86:
 1131              		.align	2
 1132              	.L85:
 1133 0008 50010540 		.word	1074069840
 1134              		.cfi_endproc
 1135              	.LFE27:
 1136              		.size	Timer_2_ReadCaptureBuf, .-Timer_2_ReadCaptureBuf
 1137              		.section	.text.Timer_2_SetCaptureMode,"ax",%progbits
 1138              		.align	1
 1139              		.global	Timer_2_SetCaptureMode
 1140              		.code	16
 1141              		.thumb_func
 1142              		.type	Timer_2_SetCaptureMode, %function
 1143              	Timer_2_SetCaptureMode:
 1144              	.LFB28:
1095:Generated_Source\PSoC4/Timer_2.c ****     uint8 enableInterrupts;
 1145              		.loc 1 1095 0
 1146              		.cfi_startproc
 1147              		@ args = 0, pretend = 0, frame = 0
 1148              		@ frame_needed = 0, uses_anonymous_args = 0
 1149              	.LVL66:
 1150 0000 10B5     		push	{r4, lr}
 1151              		.cfi_def_cfa_offset 8
 1152              		.cfi_offset 4, -8
 1153              		.cfi_offset 14, -4
1095:Generated_Source\PSoC4/Timer_2.c ****     uint8 enableInterrupts;
 1154              		.loc 1 1095 0
 1155 0002 0400     		movs	r4, r0
1098:Generated_Source\PSoC4/Timer_2.c **** 
 1156              		.loc 1 1098 0
 1157 0004 FFF7FEFF 		bl	CyEnterCriticalSection
 1158              	.LVL67:
1100:Generated_Source\PSoC4/Timer_2.c ****     Timer_2_TRIG_CONTROL1_REG |= triggerMode;
 1159              		.loc 1 1100 0
 1160 0008 0321     		movs	r1, #3
 1161 000a 054B     		ldr	r3, .L88
1104:Generated_Source\PSoC4/Timer_2.c **** 
 1162              		.loc 1 1104 0
 1163              		@ sp needed
1100:Generated_Source\PSoC4/Timer_2.c ****     Timer_2_TRIG_CONTROL1_REG |= triggerMode;
 1164              		.loc 1 1100 0
 1165 000c 1A68     		ldr	r2, [r3]
 1166 000e 8A43     		bics	r2, r1
 1167 0010 1A60     		str	r2, [r3]
1101:Generated_Source\PSoC4/Timer_2.c **** 
 1168              		.loc 1 1101 0
 1169 0012 1A68     		ldr	r2, [r3]
 1170 0014 1443     		orrs	r4, r2
 1171              	.LVL68:
 1172 0016 1C60     		str	r4, [r3]
1103:Generated_Source\PSoC4/Timer_2.c **** }
 1173              		.loc 1 1103 0
 1174 0018 FFF7FEFF 		bl	CyExitCriticalSection
 1175              	.LVL69:
ARM GAS  C:\Users\Ala\AppData\Local\Temp\cc5WTHKW.s 			page 48


1104:Generated_Source\PSoC4/Timer_2.c **** 
 1176              		.loc 1 1104 0
 1177 001c 10BD     		pop	{r4, pc}
 1178              	.L89:
 1179 001e C046     		.align	2
 1180              	.L88:
 1181 0020 64010540 		.word	1074069860
 1182              		.cfi_endproc
 1183              	.LFE28:
 1184              		.size	Timer_2_SetCaptureMode, .-Timer_2_SetCaptureMode
 1185              		.section	.text.Timer_2_SetReloadMode,"ax",%progbits
 1186              		.align	1
 1187              		.global	Timer_2_SetReloadMode
 1188              		.code	16
 1189              		.thumb_func
 1190              		.type	Timer_2_SetReloadMode, %function
 1191              	Timer_2_SetReloadMode:
 1192              	.LFB29:
1128:Generated_Source\PSoC4/Timer_2.c ****     uint8 enableInterrupts;
 1193              		.loc 1 1128 0
 1194              		.cfi_startproc
 1195              		@ args = 0, pretend = 0, frame = 0
 1196              		@ frame_needed = 0, uses_anonymous_args = 0
 1197              	.LVL70:
 1198 0000 10B5     		push	{r4, lr}
 1199              		.cfi_def_cfa_offset 8
 1200              		.cfi_offset 4, -8
 1201              		.cfi_offset 14, -4
1128:Generated_Source\PSoC4/Timer_2.c ****     uint8 enableInterrupts;
 1202              		.loc 1 1128 0
 1203 0002 0400     		movs	r4, r0
1131:Generated_Source\PSoC4/Timer_2.c **** 
 1204              		.loc 1 1131 0
 1205 0004 FFF7FEFF 		bl	CyEnterCriticalSection
 1206              	.LVL71:
1133:Generated_Source\PSoC4/Timer_2.c ****     Timer_2_TRIG_CONTROL1_REG |= ((uint32)(triggerMode << Timer_2_RELOAD_SHIFT));
 1207              		.loc 1 1133 0
 1208 0008 3021     		movs	r1, #48
 1209 000a 054B     		ldr	r3, .L91
1137:Generated_Source\PSoC4/Timer_2.c **** 
 1210              		.loc 1 1137 0
 1211              		@ sp needed
1133:Generated_Source\PSoC4/Timer_2.c ****     Timer_2_TRIG_CONTROL1_REG |= ((uint32)(triggerMode << Timer_2_RELOAD_SHIFT));
 1212              		.loc 1 1133 0
 1213 000c 1A68     		ldr	r2, [r3]
 1214 000e 8A43     		bics	r2, r1
 1215 0010 1A60     		str	r2, [r3]
1134:Generated_Source\PSoC4/Timer_2.c **** 
 1216              		.loc 1 1134 0
 1217 0012 1968     		ldr	r1, [r3]
 1218 0014 2201     		lsls	r2, r4, #4
 1219 0016 0A43     		orrs	r2, r1
 1220 0018 1A60     		str	r2, [r3]
1136:Generated_Source\PSoC4/Timer_2.c **** }
 1221              		.loc 1 1136 0
 1222 001a FFF7FEFF 		bl	CyExitCriticalSection
 1223              	.LVL72:
ARM GAS  C:\Users\Ala\AppData\Local\Temp\cc5WTHKW.s 			page 49


 1224              	.LVL73:
1137:Generated_Source\PSoC4/Timer_2.c **** 
 1225              		.loc 1 1137 0
 1226 001e 10BD     		pop	{r4, pc}
 1227              	.L92:
 1228              		.align	2
 1229              	.L91:
 1230 0020 64010540 		.word	1074069860
 1231              		.cfi_endproc
 1232              	.LFE29:
 1233              		.size	Timer_2_SetReloadMode, .-Timer_2_SetReloadMode
 1234              		.section	.text.Timer_2_SetStartMode,"ax",%progbits
 1235              		.align	1
 1236              		.global	Timer_2_SetStartMode
 1237              		.code	16
 1238              		.thumb_func
 1239              		.type	Timer_2_SetStartMode, %function
 1240              	Timer_2_SetStartMode:
 1241              	.LFB30:
1161:Generated_Source\PSoC4/Timer_2.c ****     uint8 enableInterrupts;
 1242              		.loc 1 1161 0
 1243              		.cfi_startproc
 1244              		@ args = 0, pretend = 0, frame = 0
 1245              		@ frame_needed = 0, uses_anonymous_args = 0
 1246              	.LVL74:
 1247 0000 10B5     		push	{r4, lr}
 1248              		.cfi_def_cfa_offset 8
 1249              		.cfi_offset 4, -8
 1250              		.cfi_offset 14, -4
1161:Generated_Source\PSoC4/Timer_2.c ****     uint8 enableInterrupts;
 1251              		.loc 1 1161 0
 1252 0002 0400     		movs	r4, r0
1164:Generated_Source\PSoC4/Timer_2.c **** 
 1253              		.loc 1 1164 0
 1254 0004 FFF7FEFF 		bl	CyEnterCriticalSection
 1255              	.LVL75:
1166:Generated_Source\PSoC4/Timer_2.c ****     Timer_2_TRIG_CONTROL1_REG |= ((uint32)(triggerMode << Timer_2_START_SHIFT));
 1256              		.loc 1 1166 0
 1257 0008 054B     		ldr	r3, .L94
 1258 000a 064A     		ldr	r2, .L94+4
 1259 000c 1968     		ldr	r1, [r3]
1170:Generated_Source\PSoC4/Timer_2.c **** 
 1260              		.loc 1 1170 0
 1261              		@ sp needed
1166:Generated_Source\PSoC4/Timer_2.c ****     Timer_2_TRIG_CONTROL1_REG |= ((uint32)(triggerMode << Timer_2_START_SHIFT));
 1262              		.loc 1 1166 0
 1263 000e 0A40     		ands	r2, r1
 1264 0010 1A60     		str	r2, [r3]
1167:Generated_Source\PSoC4/Timer_2.c **** 
 1265              		.loc 1 1167 0
 1266 0012 1968     		ldr	r1, [r3]
 1267 0014 2202     		lsls	r2, r4, #8
 1268 0016 0A43     		orrs	r2, r1
 1269 0018 1A60     		str	r2, [r3]
1169:Generated_Source\PSoC4/Timer_2.c **** }
 1270              		.loc 1 1169 0
 1271 001a FFF7FEFF 		bl	CyExitCriticalSection
ARM GAS  C:\Users\Ala\AppData\Local\Temp\cc5WTHKW.s 			page 50


 1272              	.LVL76:
 1273              	.LVL77:
1170:Generated_Source\PSoC4/Timer_2.c **** 
 1274              		.loc 1 1170 0
 1275 001e 10BD     		pop	{r4, pc}
 1276              	.L95:
 1277              		.align	2
 1278              	.L94:
 1279 0020 64010540 		.word	1074069860
 1280 0024 FFFCFFFF 		.word	-769
 1281              		.cfi_endproc
 1282              	.LFE30:
 1283              		.size	Timer_2_SetStartMode, .-Timer_2_SetStartMode
 1284              		.section	.text.Timer_2_SetStopMode,"ax",%progbits
 1285              		.align	1
 1286              		.global	Timer_2_SetStopMode
 1287              		.code	16
 1288              		.thumb_func
 1289              		.type	Timer_2_SetStopMode, %function
 1290              	Timer_2_SetStopMode:
 1291              	.LFB31:
1193:Generated_Source\PSoC4/Timer_2.c ****     uint8 enableInterrupts;
 1292              		.loc 1 1193 0
 1293              		.cfi_startproc
 1294              		@ args = 0, pretend = 0, frame = 0
 1295              		@ frame_needed = 0, uses_anonymous_args = 0
 1296              	.LVL78:
 1297 0000 10B5     		push	{r4, lr}
 1298              		.cfi_def_cfa_offset 8
 1299              		.cfi_offset 4, -8
 1300              		.cfi_offset 14, -4
1193:Generated_Source\PSoC4/Timer_2.c ****     uint8 enableInterrupts;
 1301              		.loc 1 1193 0
 1302 0002 0400     		movs	r4, r0
1196:Generated_Source\PSoC4/Timer_2.c **** 
 1303              		.loc 1 1196 0
 1304 0004 FFF7FEFF 		bl	CyEnterCriticalSection
 1305              	.LVL79:
1198:Generated_Source\PSoC4/Timer_2.c ****     Timer_2_TRIG_CONTROL1_REG |= ((uint32)(triggerMode << Timer_2_STOP_SHIFT));
 1306              		.loc 1 1198 0
 1307 0008 C021     		movs	r1, #192
 1308 000a 054B     		ldr	r3, .L97
1202:Generated_Source\PSoC4/Timer_2.c **** 
 1309              		.loc 1 1202 0
 1310              		@ sp needed
1198:Generated_Source\PSoC4/Timer_2.c ****     Timer_2_TRIG_CONTROL1_REG |= ((uint32)(triggerMode << Timer_2_STOP_SHIFT));
 1311              		.loc 1 1198 0
 1312 000c 1A68     		ldr	r2, [r3]
 1313 000e 8A43     		bics	r2, r1
 1314 0010 1A60     		str	r2, [r3]
1199:Generated_Source\PSoC4/Timer_2.c **** 
 1315              		.loc 1 1199 0
 1316 0012 1968     		ldr	r1, [r3]
 1317 0014 A201     		lsls	r2, r4, #6
 1318 0016 0A43     		orrs	r2, r1
 1319 0018 1A60     		str	r2, [r3]
1201:Generated_Source\PSoC4/Timer_2.c **** }
ARM GAS  C:\Users\Ala\AppData\Local\Temp\cc5WTHKW.s 			page 51


 1320              		.loc 1 1201 0
 1321 001a FFF7FEFF 		bl	CyExitCriticalSection
 1322              	.LVL80:
 1323              	.LVL81:
1202:Generated_Source\PSoC4/Timer_2.c **** 
 1324              		.loc 1 1202 0
 1325 001e 10BD     		pop	{r4, pc}
 1326              	.L98:
 1327              		.align	2
 1328              	.L97:
 1329 0020 64010540 		.word	1074069860
 1330              		.cfi_endproc
 1331              	.LFE31:
 1332              		.size	Timer_2_SetStopMode, .-Timer_2_SetStopMode
 1333              		.section	.text.Timer_2_SetCountMode,"ax",%progbits
 1334              		.align	1
 1335              		.global	Timer_2_SetCountMode
 1336              		.code	16
 1337              		.thumb_func
 1338              		.type	Timer_2_SetCountMode, %function
 1339              	Timer_2_SetCountMode:
 1340              	.LFB32:
1226:Generated_Source\PSoC4/Timer_2.c ****     uint8 enableInterrupts;
 1341              		.loc 1 1226 0
 1342              		.cfi_startproc
 1343              		@ args = 0, pretend = 0, frame = 0
 1344              		@ frame_needed = 0, uses_anonymous_args = 0
 1345              	.LVL82:
 1346 0000 10B5     		push	{r4, lr}
 1347              		.cfi_def_cfa_offset 8
 1348              		.cfi_offset 4, -8
 1349              		.cfi_offset 14, -4
1226:Generated_Source\PSoC4/Timer_2.c ****     uint8 enableInterrupts;
 1350              		.loc 1 1226 0
 1351 0002 0400     		movs	r4, r0
1229:Generated_Source\PSoC4/Timer_2.c **** 
 1352              		.loc 1 1229 0
 1353 0004 FFF7FEFF 		bl	CyEnterCriticalSection
 1354              	.LVL83:
1231:Generated_Source\PSoC4/Timer_2.c ****     Timer_2_TRIG_CONTROL1_REG |= ((uint32)(triggerMode << Timer_2_COUNT_SHIFT));
 1355              		.loc 1 1231 0
 1356 0008 0C21     		movs	r1, #12
 1357 000a 054B     		ldr	r3, .L100
1235:Generated_Source\PSoC4/Timer_2.c **** 
 1358              		.loc 1 1235 0
 1359              		@ sp needed
1231:Generated_Source\PSoC4/Timer_2.c ****     Timer_2_TRIG_CONTROL1_REG |= ((uint32)(triggerMode << Timer_2_COUNT_SHIFT));
 1360              		.loc 1 1231 0
 1361 000c 1A68     		ldr	r2, [r3]
 1362 000e 8A43     		bics	r2, r1
 1363 0010 1A60     		str	r2, [r3]
1232:Generated_Source\PSoC4/Timer_2.c **** 
 1364              		.loc 1 1232 0
 1365 0012 1968     		ldr	r1, [r3]
 1366 0014 A200     		lsls	r2, r4, #2
 1367 0016 0A43     		orrs	r2, r1
 1368 0018 1A60     		str	r2, [r3]
ARM GAS  C:\Users\Ala\AppData\Local\Temp\cc5WTHKW.s 			page 52


1234:Generated_Source\PSoC4/Timer_2.c **** }
 1369              		.loc 1 1234 0
 1370 001a FFF7FEFF 		bl	CyExitCriticalSection
 1371              	.LVL84:
 1372              	.LVL85:
1235:Generated_Source\PSoC4/Timer_2.c **** 
 1373              		.loc 1 1235 0
 1374 001e 10BD     		pop	{r4, pc}
 1375              	.L101:
 1376              		.align	2
 1377              	.L100:
 1378 0020 64010540 		.word	1074069860
 1379              		.cfi_endproc
 1380              	.LFE32:
 1381              		.size	Timer_2_SetCountMode, .-Timer_2_SetCountMode
 1382              		.section	.text.Timer_2_TriggerCommand,"ax",%progbits
 1383              		.align	1
 1384              		.global	Timer_2_TriggerCommand
 1385              		.code	16
 1386              		.thumb_func
 1387              		.type	Timer_2_TriggerCommand, %function
 1388              	Timer_2_TriggerCommand:
 1389              	.LFB33:
1266:Generated_Source\PSoC4/Timer_2.c ****     uint8 enableInterrupts;
 1390              		.loc 1 1266 0
 1391              		.cfi_startproc
 1392              		@ args = 0, pretend = 0, frame = 0
 1393              		@ frame_needed = 0, uses_anonymous_args = 0
 1394              	.LVL86:
 1395 0000 70B5     		push	{r4, r5, r6, lr}
 1396              		.cfi_def_cfa_offset 16
 1397              		.cfi_offset 4, -16
 1398              		.cfi_offset 5, -12
 1399              		.cfi_offset 6, -8
 1400              		.cfi_offset 14, -4
1266:Generated_Source\PSoC4/Timer_2.c ****     uint8 enableInterrupts;
 1401              		.loc 1 1266 0
 1402 0002 0D00     		movs	r5, r1
 1403 0004 0400     		movs	r4, r0
1271:Generated_Source\PSoC4/Timer_2.c **** 
 1404              		.loc 1 1271 0
 1405 0006 AC40     		lsls	r4, r4, r5
1269:Generated_Source\PSoC4/Timer_2.c **** 
 1406              		.loc 1 1269 0
 1407 0008 FFF7FEFF 		bl	CyEnterCriticalSection
 1408              	.LVL87:
1271:Generated_Source\PSoC4/Timer_2.c **** 
 1409              		.loc 1 1271 0
 1410 000c 024B     		ldr	r3, .L103
1274:Generated_Source\PSoC4/Timer_2.c **** 
 1411              		.loc 1 1274 0
 1412              		@ sp needed
1271:Generated_Source\PSoC4/Timer_2.c **** 
 1413              		.loc 1 1271 0
 1414 000e 1C60     		str	r4, [r3]
1273:Generated_Source\PSoC4/Timer_2.c **** }
 1415              		.loc 1 1273 0
ARM GAS  C:\Users\Ala\AppData\Local\Temp\cc5WTHKW.s 			page 53


 1416 0010 FFF7FEFF 		bl	CyExitCriticalSection
 1417              	.LVL88:
 1418              	.LVL89:
1274:Generated_Source\PSoC4/Timer_2.c **** 
 1419              		.loc 1 1274 0
 1420 0014 70BD     		pop	{r4, r5, r6, pc}
 1421              	.L104:
 1422 0016 C046     		.align	2
 1423              	.L103:
 1424 0018 08000540 		.word	1074069512
 1425              		.cfi_endproc
 1426              	.LFE33:
 1427              		.size	Timer_2_TriggerCommand, .-Timer_2_TriggerCommand
 1428              		.section	.text.Timer_2_ReadStatus,"ax",%progbits
 1429              		.align	1
 1430              		.global	Timer_2_ReadStatus
 1431              		.code	16
 1432              		.thumb_func
 1433              		.type	Timer_2_ReadStatus, %function
 1434              	Timer_2_ReadStatus:
 1435              	.LFB34:
1295:Generated_Source\PSoC4/Timer_2.c ****     return ((Timer_2_STATUS_REG >> Timer_2_RUNNING_STATUS_SHIFT) |
 1436              		.loc 1 1295 0
 1437              		.cfi_startproc
 1438              		@ args = 0, pretend = 0, frame = 0
 1439              		@ frame_needed = 0, uses_anonymous_args = 0
 1440              		@ link register save eliminated.
1296:Generated_Source\PSoC4/Timer_2.c ****             (Timer_2_STATUS_REG & Timer_2_STATUS_DOWN));
 1441              		.loc 1 1296 0
 1442 0000 034B     		ldr	r3, .L106
1298:Generated_Source\PSoC4/Timer_2.c **** 
 1443              		.loc 1 1298 0
 1444              		@ sp needed
1296:Generated_Source\PSoC4/Timer_2.c ****             (Timer_2_STATUS_REG & Timer_2_STATUS_DOWN));
 1445              		.loc 1 1296 0
 1446 0002 1A68     		ldr	r2, [r3]
1297:Generated_Source\PSoC4/Timer_2.c **** }
 1447              		.loc 1 1297 0
 1448 0004 1868     		ldr	r0, [r3]
1296:Generated_Source\PSoC4/Timer_2.c ****             (Timer_2_STATUS_REG & Timer_2_STATUS_DOWN));
 1449              		.loc 1 1296 0
 1450 0006 0123     		movs	r3, #1
 1451 0008 920F     		lsrs	r2, r2, #30
 1452 000a 1840     		ands	r0, r3
 1453 000c 1043     		orrs	r0, r2
1298:Generated_Source\PSoC4/Timer_2.c **** 
 1454              		.loc 1 1298 0
 1455 000e 7047     		bx	lr
 1456              	.L107:
 1457              		.align	2
 1458              	.L106:
 1459 0010 44010540 		.word	1074069828
 1460              		.cfi_endproc
 1461              	.LFE34:
 1462              		.size	Timer_2_ReadStatus, .-Timer_2_ReadStatus
 1463              		.section	.text.Timer_2_SetInterruptMode,"ax",%progbits
 1464              		.align	1
ARM GAS  C:\Users\Ala\AppData\Local\Temp\cc5WTHKW.s 			page 54


 1465              		.global	Timer_2_SetInterruptMode
 1466              		.code	16
 1467              		.thumb_func
 1468              		.type	Timer_2_SetInterruptMode, %function
 1469              	Timer_2_SetInterruptMode:
 1470              	.LFB35:
1320:Generated_Source\PSoC4/Timer_2.c ****     Timer_2_INTERRUPT_MASK_REG =  interruptMask;
 1471              		.loc 1 1320 0
 1472              		.cfi_startproc
 1473              		@ args = 0, pretend = 0, frame = 0
 1474              		@ frame_needed = 0, uses_anonymous_args = 0
 1475              		@ link register save eliminated.
 1476              	.LVL90:
 1477              		.loc 1 1321 0
 1478 0000 014B     		ldr	r3, .L109
1322:Generated_Source\PSoC4/Timer_2.c **** }
 1479              		.loc 1 1322 0
 1480              		@ sp needed
1321:Generated_Source\PSoC4/Timer_2.c **** }
 1481              		.loc 1 1321 0
 1482 0002 1860     		str	r0, [r3]
 1483              		.loc 1 1322 0
 1484 0004 7047     		bx	lr
 1485              	.L110:
 1486 0006 C046     		.align	2
 1487              	.L109:
 1488 0008 78010540 		.word	1074069880
 1489              		.cfi_endproc
 1490              	.LFE35:
 1491              		.size	Timer_2_SetInterruptMode, .-Timer_2_SetInterruptMode
 1492              		.section	.text.Timer_2_GetInterruptSourceMasked,"ax",%progbits
 1493              		.align	1
 1494              		.global	Timer_2_GetInterruptSourceMasked
 1495              		.code	16
 1496              		.thumb_func
 1497              		.type	Timer_2_GetInterruptSourceMasked, %function
 1498              	Timer_2_GetInterruptSourceMasked:
 1499              	.LFB36:
1323:Generated_Source\PSoC4/Timer_2.c **** 
1324:Generated_Source\PSoC4/Timer_2.c **** 
1325:Generated_Source\PSoC4/Timer_2.c **** /*******************************************************************************
1326:Generated_Source\PSoC4/Timer_2.c **** * Function Name: Timer_2_GetInterruptSourceMasked
1327:Generated_Source\PSoC4/Timer_2.c **** ********************************************************************************
1328:Generated_Source\PSoC4/Timer_2.c **** *
1329:Generated_Source\PSoC4/Timer_2.c **** * Summary:
1330:Generated_Source\PSoC4/Timer_2.c **** *  Gets the interrupt requests masked by the interrupt mask.
1331:Generated_Source\PSoC4/Timer_2.c **** *
1332:Generated_Source\PSoC4/Timer_2.c **** * Parameters:
1333:Generated_Source\PSoC4/Timer_2.c **** *   None
1334:Generated_Source\PSoC4/Timer_2.c **** *
1335:Generated_Source\PSoC4/Timer_2.c **** * Return:
1336:Generated_Source\PSoC4/Timer_2.c **** *  Masked interrupt source
1337:Generated_Source\PSoC4/Timer_2.c **** *   Values:
1338:Generated_Source\PSoC4/Timer_2.c **** *     - Timer_2_INTR_MASK_TC       - Terminal count mask
1339:Generated_Source\PSoC4/Timer_2.c **** *     - Timer_2_INTR_MASK_CC_MATCH - Compare count / capture mask
1340:Generated_Source\PSoC4/Timer_2.c **** *
1341:Generated_Source\PSoC4/Timer_2.c **** *******************************************************************************/
ARM GAS  C:\Users\Ala\AppData\Local\Temp\cc5WTHKW.s 			page 55


1342:Generated_Source\PSoC4/Timer_2.c **** uint32 Timer_2_GetInterruptSourceMasked(void)
1343:Generated_Source\PSoC4/Timer_2.c **** {
 1500              		.loc 1 1343 0
 1501              		.cfi_startproc
 1502              		@ args = 0, pretend = 0, frame = 0
 1503              		@ frame_needed = 0, uses_anonymous_args = 0
 1504              		@ link register save eliminated.
1344:Generated_Source\PSoC4/Timer_2.c ****     return (Timer_2_INTERRUPT_MASKED_REG);
 1505              		.loc 1 1344 0
 1506 0000 014B     		ldr	r3, .L112
1345:Generated_Source\PSoC4/Timer_2.c **** }
 1507              		.loc 1 1345 0
 1508              		@ sp needed
1344:Generated_Source\PSoC4/Timer_2.c ****     return (Timer_2_INTERRUPT_MASKED_REG);
 1509              		.loc 1 1344 0
 1510 0002 1868     		ldr	r0, [r3]
 1511              		.loc 1 1345 0
 1512 0004 7047     		bx	lr
 1513              	.L113:
 1514 0006 C046     		.align	2
 1515              	.L112:
 1516 0008 7C010540 		.word	1074069884
 1517              		.cfi_endproc
 1518              	.LFE36:
 1519              		.size	Timer_2_GetInterruptSourceMasked, .-Timer_2_GetInterruptSourceMasked
 1520              		.section	.text.Timer_2_GetInterruptSource,"ax",%progbits
 1521              		.align	1
 1522              		.global	Timer_2_GetInterruptSource
 1523              		.code	16
 1524              		.thumb_func
 1525              		.type	Timer_2_GetInterruptSource, %function
 1526              	Timer_2_GetInterruptSource:
 1527              	.LFB37:
1346:Generated_Source\PSoC4/Timer_2.c **** 
1347:Generated_Source\PSoC4/Timer_2.c **** 
1348:Generated_Source\PSoC4/Timer_2.c **** /*******************************************************************************
1349:Generated_Source\PSoC4/Timer_2.c **** * Function Name: Timer_2_GetInterruptSource
1350:Generated_Source\PSoC4/Timer_2.c **** ********************************************************************************
1351:Generated_Source\PSoC4/Timer_2.c **** *
1352:Generated_Source\PSoC4/Timer_2.c **** * Summary:
1353:Generated_Source\PSoC4/Timer_2.c **** *  Gets the interrupt requests (without masking).
1354:Generated_Source\PSoC4/Timer_2.c **** *
1355:Generated_Source\PSoC4/Timer_2.c **** * Parameters:
1356:Generated_Source\PSoC4/Timer_2.c **** *  None
1357:Generated_Source\PSoC4/Timer_2.c **** *
1358:Generated_Source\PSoC4/Timer_2.c **** * Return:
1359:Generated_Source\PSoC4/Timer_2.c **** *  Interrupt request value
1360:Generated_Source\PSoC4/Timer_2.c **** *   Values:
1361:Generated_Source\PSoC4/Timer_2.c **** *     - Timer_2_INTR_MASK_TC       - Terminal count mask
1362:Generated_Source\PSoC4/Timer_2.c **** *     - Timer_2_INTR_MASK_CC_MATCH - Compare count / capture mask
1363:Generated_Source\PSoC4/Timer_2.c **** *
1364:Generated_Source\PSoC4/Timer_2.c **** *******************************************************************************/
1365:Generated_Source\PSoC4/Timer_2.c **** uint32 Timer_2_GetInterruptSource(void)
1366:Generated_Source\PSoC4/Timer_2.c **** {
 1528              		.loc 1 1366 0
 1529              		.cfi_startproc
 1530              		@ args = 0, pretend = 0, frame = 0
ARM GAS  C:\Users\Ala\AppData\Local\Temp\cc5WTHKW.s 			page 56


 1531              		@ frame_needed = 0, uses_anonymous_args = 0
 1532              		@ link register save eliminated.
1367:Generated_Source\PSoC4/Timer_2.c ****     return (Timer_2_INTERRUPT_REQ_REG);
 1533              		.loc 1 1367 0
 1534 0000 014B     		ldr	r3, .L115
1368:Generated_Source\PSoC4/Timer_2.c **** }
 1535              		.loc 1 1368 0
 1536              		@ sp needed
1367:Generated_Source\PSoC4/Timer_2.c ****     return (Timer_2_INTERRUPT_REQ_REG);
 1537              		.loc 1 1367 0
 1538 0002 1868     		ldr	r0, [r3]
 1539              		.loc 1 1368 0
 1540 0004 7047     		bx	lr
 1541              	.L116:
 1542 0006 C046     		.align	2
 1543              	.L115:
 1544 0008 70010540 		.word	1074069872
 1545              		.cfi_endproc
 1546              	.LFE37:
 1547              		.size	Timer_2_GetInterruptSource, .-Timer_2_GetInterruptSource
 1548              		.section	.text.Timer_2_ClearInterrupt,"ax",%progbits
 1549              		.align	1
 1550              		.global	Timer_2_ClearInterrupt
 1551              		.code	16
 1552              		.thumb_func
 1553              		.type	Timer_2_ClearInterrupt, %function
 1554              	Timer_2_ClearInterrupt:
 1555              	.LFB38:
1369:Generated_Source\PSoC4/Timer_2.c **** 
1370:Generated_Source\PSoC4/Timer_2.c **** 
1371:Generated_Source\PSoC4/Timer_2.c **** /*******************************************************************************
1372:Generated_Source\PSoC4/Timer_2.c **** * Function Name: Timer_2_ClearInterrupt
1373:Generated_Source\PSoC4/Timer_2.c **** ********************************************************************************
1374:Generated_Source\PSoC4/Timer_2.c **** *
1375:Generated_Source\PSoC4/Timer_2.c **** * Summary:
1376:Generated_Source\PSoC4/Timer_2.c **** *  Clears the interrupt request.
1377:Generated_Source\PSoC4/Timer_2.c **** *
1378:Generated_Source\PSoC4/Timer_2.c **** * Parameters:
1379:Generated_Source\PSoC4/Timer_2.c **** *   interruptMask: Mask of interrupts to clear
1380:Generated_Source\PSoC4/Timer_2.c **** *   Values:
1381:Generated_Source\PSoC4/Timer_2.c **** *     - Timer_2_INTR_MASK_TC       - Terminal count mask
1382:Generated_Source\PSoC4/Timer_2.c **** *     - Timer_2_INTR_MASK_CC_MATCH - Compare count / capture mask
1383:Generated_Source\PSoC4/Timer_2.c **** *
1384:Generated_Source\PSoC4/Timer_2.c **** * Return:
1385:Generated_Source\PSoC4/Timer_2.c **** *  None
1386:Generated_Source\PSoC4/Timer_2.c **** *
1387:Generated_Source\PSoC4/Timer_2.c **** *******************************************************************************/
1388:Generated_Source\PSoC4/Timer_2.c **** void Timer_2_ClearInterrupt(uint32 interruptMask)
1389:Generated_Source\PSoC4/Timer_2.c **** {
 1556              		.loc 1 1389 0
 1557              		.cfi_startproc
 1558              		@ args = 0, pretend = 0, frame = 0
 1559              		@ frame_needed = 0, uses_anonymous_args = 0
 1560              		@ link register save eliminated.
 1561              	.LVL91:
1390:Generated_Source\PSoC4/Timer_2.c ****     Timer_2_INTERRUPT_REQ_REG = interruptMask;
 1562              		.loc 1 1390 0
ARM GAS  C:\Users\Ala\AppData\Local\Temp\cc5WTHKW.s 			page 57


 1563 0000 014B     		ldr	r3, .L118
1391:Generated_Source\PSoC4/Timer_2.c **** }
 1564              		.loc 1 1391 0
 1565              		@ sp needed
1390:Generated_Source\PSoC4/Timer_2.c ****     Timer_2_INTERRUPT_REQ_REG = interruptMask;
 1566              		.loc 1 1390 0
 1567 0002 1860     		str	r0, [r3]
 1568              		.loc 1 1391 0
 1569 0004 7047     		bx	lr
 1570              	.L119:
 1571 0006 C046     		.align	2
 1572              	.L118:
 1573 0008 70010540 		.word	1074069872
 1574              		.cfi_endproc
 1575              	.LFE38:
 1576              		.size	Timer_2_ClearInterrupt, .-Timer_2_ClearInterrupt
 1577              		.section	.text.Timer_2_SetInterrupt,"ax",%progbits
 1578              		.align	1
 1579              		.global	Timer_2_SetInterrupt
 1580              		.code	16
 1581              		.thumb_func
 1582              		.type	Timer_2_SetInterrupt, %function
 1583              	Timer_2_SetInterrupt:
 1584              	.LFB39:
1392:Generated_Source\PSoC4/Timer_2.c **** 
1393:Generated_Source\PSoC4/Timer_2.c **** 
1394:Generated_Source\PSoC4/Timer_2.c **** /*******************************************************************************
1395:Generated_Source\PSoC4/Timer_2.c **** * Function Name: Timer_2_SetInterrupt
1396:Generated_Source\PSoC4/Timer_2.c **** ********************************************************************************
1397:Generated_Source\PSoC4/Timer_2.c **** *
1398:Generated_Source\PSoC4/Timer_2.c **** * Summary:
1399:Generated_Source\PSoC4/Timer_2.c **** *  Sets a software interrupt request.
1400:Generated_Source\PSoC4/Timer_2.c **** *
1401:Generated_Source\PSoC4/Timer_2.c **** * Parameters:
1402:Generated_Source\PSoC4/Timer_2.c **** *   interruptMask: Mask of interrupts to set
1403:Generated_Source\PSoC4/Timer_2.c **** *   Values:
1404:Generated_Source\PSoC4/Timer_2.c **** *     - Timer_2_INTR_MASK_TC       - Terminal count mask
1405:Generated_Source\PSoC4/Timer_2.c **** *     - Timer_2_INTR_MASK_CC_MATCH - Compare count / capture mask
1406:Generated_Source\PSoC4/Timer_2.c **** *
1407:Generated_Source\PSoC4/Timer_2.c **** * Return:
1408:Generated_Source\PSoC4/Timer_2.c **** *  None
1409:Generated_Source\PSoC4/Timer_2.c **** *
1410:Generated_Source\PSoC4/Timer_2.c **** *******************************************************************************/
1411:Generated_Source\PSoC4/Timer_2.c **** void Timer_2_SetInterrupt(uint32 interruptMask)
1412:Generated_Source\PSoC4/Timer_2.c **** {
 1585              		.loc 1 1412 0
 1586              		.cfi_startproc
 1587              		@ args = 0, pretend = 0, frame = 0
 1588              		@ frame_needed = 0, uses_anonymous_args = 0
 1589              		@ link register save eliminated.
 1590              	.LVL92:
1413:Generated_Source\PSoC4/Timer_2.c ****     Timer_2_INTERRUPT_SET_REG = interruptMask;
 1591              		.loc 1 1413 0
 1592 0000 014B     		ldr	r3, .L121
1414:Generated_Source\PSoC4/Timer_2.c **** }
 1593              		.loc 1 1414 0
 1594              		@ sp needed
ARM GAS  C:\Users\Ala\AppData\Local\Temp\cc5WTHKW.s 			page 58


1413:Generated_Source\PSoC4/Timer_2.c ****     Timer_2_INTERRUPT_SET_REG = interruptMask;
 1595              		.loc 1 1413 0
 1596 0002 1860     		str	r0, [r3]
 1597              		.loc 1 1414 0
 1598 0004 7047     		bx	lr
 1599              	.L122:
 1600 0006 C046     		.align	2
 1601              	.L121:
 1602 0008 74010540 		.word	1074069876
 1603              		.cfi_endproc
 1604              	.LFE39:
 1605              		.size	Timer_2_SetInterrupt, .-Timer_2_SetInterrupt
 1606              		.global	Timer_2_initVar
 1607              		.bss
 1608              		.set	.LANCHOR0,. + 0
 1609              		.type	Timer_2_initVar, %object
 1610              		.size	Timer_2_initVar, 1
 1611              	Timer_2_initVar:
 1612 0000 00       		.space	1
 1613              		.text
 1614              	.Letext0:
 1615              		.file 2 "Generated_Source\\PSoC4\\cytypes.h"
 1616              		.file 3 "Generated_Source\\PSoC4\\CyLib.h"
 1617              		.section	.debug_info,"",%progbits
 1618              	.Ldebug_info0:
 1619 0000 0A090000 		.4byte	0x90a
 1620 0004 0400     		.2byte	0x4
 1621 0006 00000000 		.4byte	.Ldebug_abbrev0
 1622 000a 04       		.byte	0x4
 1623 000b 01       		.uleb128 0x1
 1624 000c AB020000 		.4byte	.LASF77
 1625 0010 0C       		.byte	0xc
 1626 0011 9A000000 		.4byte	.LASF78
 1627 0015 10050000 		.4byte	.LASF79
 1628 0019 18000000 		.4byte	.Ldebug_ranges0+0x18
 1629 001d 00000000 		.4byte	0
 1630 0021 00000000 		.4byte	.Ldebug_line0
 1631 0025 02       		.uleb128 0x2
 1632 0026 01       		.byte	0x1
 1633 0027 06       		.byte	0x6
 1634 0028 8E000000 		.4byte	.LASF0
 1635 002c 02       		.uleb128 0x2
 1636 002d 01       		.byte	0x1
 1637 002e 08       		.byte	0x8
 1638 002f D8030000 		.4byte	.LASF1
 1639 0033 02       		.uleb128 0x2
 1640 0034 02       		.byte	0x2
 1641 0035 05       		.byte	0x5
 1642 0036 F7030000 		.4byte	.LASF2
 1643 003a 02       		.uleb128 0x2
 1644 003b 02       		.byte	0x2
 1645 003c 07       		.byte	0x7
 1646 003d F7010000 		.4byte	.LASF3
 1647 0041 02       		.uleb128 0x2
 1648 0042 04       		.byte	0x4
 1649 0043 05       		.byte	0x5
 1650 0044 BB000000 		.4byte	.LASF4
ARM GAS  C:\Users\Ala\AppData\Local\Temp\cc5WTHKW.s 			page 59


 1651 0048 02       		.uleb128 0x2
 1652 0049 04       		.byte	0x4
 1653 004a 07       		.byte	0x7
 1654 004b C5010000 		.4byte	.LASF5
 1655 004f 02       		.uleb128 0x2
 1656 0050 08       		.byte	0x8
 1657 0051 05       		.byte	0x5
 1658 0052 80000000 		.4byte	.LASF6
 1659 0056 02       		.uleb128 0x2
 1660 0057 08       		.byte	0x8
 1661 0058 07       		.byte	0x7
 1662 0059 4B000000 		.4byte	.LASF7
 1663 005d 03       		.uleb128 0x3
 1664 005e 04       		.byte	0x4
 1665 005f 05       		.byte	0x5
 1666 0060 696E7400 		.ascii	"int\000"
 1667 0064 02       		.uleb128 0x2
 1668 0065 04       		.byte	0x4
 1669 0066 07       		.byte	0x7
 1670 0067 83010000 		.4byte	.LASF8
 1671 006b 04       		.uleb128 0x4
 1672 006c DB000000 		.4byte	.LASF9
 1673 0070 02       		.byte	0x2
 1674 0071 F701     		.2byte	0x1f7
 1675 0073 2C000000 		.4byte	0x2c
 1676 0077 04       		.uleb128 0x4
 1677 0078 28010000 		.4byte	.LASF10
 1678 007c 02       		.byte	0x2
 1679 007d F901     		.2byte	0x1f9
 1680 007f 48000000 		.4byte	0x48
 1681 0083 02       		.uleb128 0x2
 1682 0084 04       		.byte	0x4
 1683 0085 04       		.byte	0x4
 1684 0086 90030000 		.4byte	.LASF11
 1685 008a 02       		.uleb128 0x2
 1686 008b 08       		.byte	0x8
 1687 008c 04       		.byte	0x4
 1688 008d F6000000 		.4byte	.LASF12
 1689 0091 02       		.uleb128 0x2
 1690 0092 01       		.byte	0x1
 1691 0093 08       		.byte	0x8
 1692 0094 6F040000 		.4byte	.LASF13
 1693 0098 04       		.uleb128 0x4
 1694 0099 52020000 		.4byte	.LASF14
 1695 009d 02       		.byte	0x2
 1696 009e A302     		.2byte	0x2a3
 1697 00a0 A4000000 		.4byte	0xa4
 1698 00a4 05       		.uleb128 0x5
 1699 00a5 77000000 		.4byte	0x77
 1700 00a9 02       		.uleb128 0x2
 1701 00aa 08       		.byte	0x8
 1702 00ab 04       		.byte	0x4
 1703 00ac 91020000 		.4byte	.LASF15
 1704 00b0 02       		.uleb128 0x2
 1705 00b1 04       		.byte	0x4
 1706 00b2 07       		.byte	0x7
 1707 00b3 71020000 		.4byte	.LASF16
ARM GAS  C:\Users\Ala\AppData\Local\Temp\cc5WTHKW.s 			page 60


 1708 00b7 06       		.uleb128 0x6
 1709 00b8 36000000 		.4byte	.LASF17
 1710 00bc 01       		.byte	0x1
 1711 00bd 6702     		.2byte	0x267
 1712 00bf 01       		.byte	0x1
 1713 00c0 D1000000 		.4byte	0xd1
 1714 00c4 07       		.uleb128 0x7
 1715 00c5 00000000 		.4byte	.LASF19
 1716 00c9 01       		.byte	0x1
 1717 00ca 6702     		.2byte	0x267
 1718 00cc 77000000 		.4byte	0x77
 1719 00d0 00       		.byte	0
 1720 00d1 06       		.uleb128 0x6
 1721 00d2 2E020000 		.4byte	.LASF18
 1722 00d6 01       		.byte	0x1
 1723 00d7 B502     		.2byte	0x2b5
 1724 00d9 01       		.byte	0x1
 1725 00da EB000000 		.4byte	0xeb
 1726 00de 07       		.uleb128 0x7
 1727 00df 2F000000 		.4byte	.LASF20
 1728 00e3 01       		.byte	0x1
 1729 00e4 B502     		.2byte	0x2b5
 1730 00e6 77000000 		.4byte	0x77
 1731 00ea 00       		.byte	0
 1732 00eb 06       		.uleb128 0x6
 1733 00ec 64050000 		.4byte	.LASF21
 1734 00f0 01       		.byte	0x1
 1735 00f1 2705     		.2byte	0x527
 1736 00f3 01       		.byte	0x1
 1737 00f4 05010000 		.4byte	0x105
 1738 00f8 07       		.uleb128 0x7
 1739 00f9 01040000 		.4byte	.LASF22
 1740 00fd 01       		.byte	0x1
 1741 00fe 2705     		.2byte	0x527
 1742 0100 77000000 		.4byte	0x77
 1743 0104 00       		.byte	0
 1744 0105 08       		.uleb128 0x8
 1745 0106 3D050000 		.4byte	.LASF23
 1746 010a 01       		.byte	0x1
 1747 010b 26       		.byte	0x26
 1748 010c 00000000 		.4byte	.LFB0
 1749 0110 3C000000 		.4byte	.LFE0-.LFB0
 1750 0114 01       		.uleb128 0x1
 1751 0115 9C       		.byte	0x9c
 1752 0116 6E010000 		.4byte	0x16e
 1753 011a 09       		.uleb128 0x9
 1754 011b EB000000 		.4byte	0xeb
 1755 011f 10000000 		.4byte	.LBB8
 1756 0123 08000000 		.4byte	.LBE8-.LBB8
 1757 0127 01       		.byte	0x1
 1758 0128 40       		.byte	0x40
 1759 0129 37010000 		.4byte	0x137
 1760 012d 0A       		.uleb128 0xa
 1761 012e F8000000 		.4byte	0xf8
 1762 0132 00000000 		.4byte	.LLST0
 1763 0136 00       		.byte	0
 1764 0137 09       		.uleb128 0x9
ARM GAS  C:\Users\Ala\AppData\Local\Temp\cc5WTHKW.s 			page 61


 1765 0138 D1000000 		.4byte	0xd1
 1766 013c 18000000 		.4byte	.LBB10
 1767 0140 06000000 		.4byte	.LBE10-.LBB10
 1768 0144 01       		.byte	0x1
 1769 0145 43       		.byte	0x43
 1770 0146 54010000 		.4byte	0x154
 1771 014a 0A       		.uleb128 0xa
 1772 014b DE000000 		.4byte	0xde
 1773 014f 14000000 		.4byte	.LLST1
 1774 0153 00       		.byte	0
 1775 0154 0B       		.uleb128 0xb
 1776 0155 B7000000 		.4byte	0xb7
 1777 0159 1E000000 		.4byte	.LBB12
 1778 015d 00000000 		.4byte	.Ldebug_ranges0+0
 1779 0161 01       		.byte	0x1
 1780 0162 54       		.byte	0x54
 1781 0163 0A       		.uleb128 0xa
 1782 0164 C4000000 		.4byte	0xc4
 1783 0168 29000000 		.4byte	.LLST2
 1784 016c 00       		.byte	0
 1785 016d 00       		.byte	0
 1786 016e 08       		.uleb128 0x8
 1787 016f 74010000 		.4byte	.LASF24
 1788 0173 01       		.byte	0x1
 1789 0174 B1       		.byte	0xb1
 1790 0175 00000000 		.4byte	.LFB1
 1791 0179 1C000000 		.4byte	.LFE1-.LFB1
 1792 017d 01       		.uleb128 0x1
 1793 017e 9C       		.byte	0x9c
 1794 017f A5010000 		.4byte	0x1a5
 1795 0183 0C       		.uleb128 0xc
 1796 0184 D5040000 		.4byte	.LASF27
 1797 0188 01       		.byte	0x1
 1798 0189 B3       		.byte	0xb3
 1799 018a 6B000000 		.4byte	0x6b
 1800 018e 3D000000 		.4byte	.LLST3
 1801 0192 0D       		.uleb128 0xd
 1802 0193 06000000 		.4byte	.LVL4
 1803 0197 F7080000 		.4byte	0x8f7
 1804 019b 0D       		.uleb128 0xd
 1805 019c 14000000 		.4byte	.LVL5
 1806 01a0 02090000 		.4byte	0x902
 1807 01a4 00       		.byte	0
 1808 01a5 08       		.uleb128 0x8
 1809 01a6 9D020000 		.4byte	.LASF25
 1810 01aa 01       		.byte	0x1
 1811 01ab E6       		.byte	0xe6
 1812 01ac 00000000 		.4byte	.LFB2
 1813 01b0 1C000000 		.4byte	.LFE2-.LFB2
 1814 01b4 01       		.uleb128 0x1
 1815 01b5 9C       		.byte	0x9c
 1816 01b6 CD010000 		.4byte	0x1cd
 1817 01ba 0D       		.uleb128 0xd
 1818 01bb 0E000000 		.4byte	.LVL6
 1819 01bf 05010000 		.4byte	0x105
 1820 01c3 0D       		.uleb128 0xd
 1821 01c4 16000000 		.4byte	.LVL7
ARM GAS  C:\Users\Ala\AppData\Local\Temp\cc5WTHKW.s 			page 62


 1822 01c8 6E010000 		.4byte	0x16e
 1823 01cc 00       		.byte	0
 1824 01cd 0E       		.uleb128 0xe
 1825 01ce 64020000 		.4byte	.LASF26
 1826 01d2 01       		.byte	0x1
 1827 01d3 0001     		.2byte	0x100
 1828 01d5 00000000 		.4byte	.LFB3
 1829 01d9 1C000000 		.4byte	.LFE3-.LFB3
 1830 01dd 01       		.uleb128 0x1
 1831 01de 9C       		.byte	0x9c
 1832 01df 06020000 		.4byte	0x206
 1833 01e3 0F       		.uleb128 0xf
 1834 01e4 D5040000 		.4byte	.LASF27
 1835 01e8 01       		.byte	0x1
 1836 01e9 0201     		.2byte	0x102
 1837 01eb 6B000000 		.4byte	0x6b
 1838 01ef 50000000 		.4byte	.LLST4
 1839 01f3 0D       		.uleb128 0xd
 1840 01f4 06000000 		.4byte	.LVL8
 1841 01f8 F7080000 		.4byte	0x8f7
 1842 01fc 0D       		.uleb128 0xd
 1843 01fd 14000000 		.4byte	.LVL9
 1844 0201 02090000 		.4byte	0x902
 1845 0205 00       		.byte	0
 1846 0206 0E       		.uleb128 0xe
 1847 0207 6C030000 		.4byte	.LASF28
 1848 020b 01       		.byte	0x1
 1849 020c 2501     		.2byte	0x125
 1850 020e 00000000 		.4byte	.LFB4
 1851 0212 28000000 		.4byte	.LFE4-.LFB4
 1852 0216 01       		.uleb128 0x1
 1853 0217 9C       		.byte	0x9c
 1854 0218 4F020000 		.4byte	0x24f
 1855 021c 10       		.uleb128 0x10
 1856 021d 74040000 		.4byte	.LASF30
 1857 0221 01       		.byte	0x1
 1858 0222 2501     		.2byte	0x125
 1859 0224 77000000 		.4byte	0x77
 1860 0228 63000000 		.4byte	.LLST5
 1861 022c 0F       		.uleb128 0xf
 1862 022d D5040000 		.4byte	.LASF27
 1863 0231 01       		.byte	0x1
 1864 0232 2701     		.2byte	0x127
 1865 0234 6B000000 		.4byte	0x6b
 1866 0238 8F000000 		.4byte	.LLST6
 1867 023c 0D       		.uleb128 0xd
 1868 023d 08000000 		.4byte	.LVL11
 1869 0241 F7080000 		.4byte	0x8f7
 1870 0245 0D       		.uleb128 0xd
 1871 0246 1C000000 		.4byte	.LVL13
 1872 024a 02090000 		.4byte	0x902
 1873 024e 00       		.byte	0
 1874 024f 0E       		.uleb128 0xe
 1875 0250 92050000 		.4byte	.LASF29
 1876 0254 01       		.byte	0x1
 1877 0255 4601     		.2byte	0x146
 1878 0257 00000000 		.4byte	.LFB5
ARM GAS  C:\Users\Ala\AppData\Local\Temp\cc5WTHKW.s 			page 63


 1879 025b 28000000 		.4byte	.LFE5-.LFB5
 1880 025f 01       		.uleb128 0x1
 1881 0260 9C       		.byte	0x9c
 1882 0261 98020000 		.4byte	0x298
 1883 0265 10       		.uleb128 0x10
 1884 0266 62000000 		.4byte	.LASF31
 1885 026a 01       		.byte	0x1
 1886 026b 4601     		.2byte	0x146
 1887 026d 77000000 		.4byte	0x77
 1888 0271 A2000000 		.4byte	.LLST7
 1889 0275 0F       		.uleb128 0xf
 1890 0276 D5040000 		.4byte	.LASF27
 1891 027a 01       		.byte	0x1
 1892 027b 4801     		.2byte	0x148
 1893 027d 6B000000 		.4byte	0x6b
 1894 0281 CE000000 		.4byte	.LLST8
 1895 0285 0D       		.uleb128 0xd
 1896 0286 08000000 		.4byte	.LVL15
 1897 028a F7080000 		.4byte	0x8f7
 1898 028e 0D       		.uleb128 0xd
 1899 028f 1C000000 		.4byte	.LVL17
 1900 0293 02090000 		.4byte	0x902
 1901 0297 00       		.byte	0
 1902 0298 0E       		.uleb128 0xe
 1903 0299 FB040000 		.4byte	.LASF32
 1904 029d 01       		.byte	0x1
 1905 029e 6B01     		.2byte	0x16b
 1906 02a0 00000000 		.4byte	.LFB6
 1907 02a4 28000000 		.4byte	.LFE6-.LFB6
 1908 02a8 01       		.uleb128 0x1
 1909 02a9 9C       		.byte	0x9c
 1910 02aa E1020000 		.4byte	0x2e1
 1911 02ae 10       		.uleb128 0x10
 1912 02af 96030000 		.4byte	.LASF33
 1913 02b3 01       		.byte	0x1
 1914 02b4 6B01     		.2byte	0x16b
 1915 02b6 77000000 		.4byte	0x77
 1916 02ba E1000000 		.4byte	.LLST9
 1917 02be 0F       		.uleb128 0xf
 1918 02bf D5040000 		.4byte	.LASF27
 1919 02c3 01       		.byte	0x1
 1920 02c4 6D01     		.2byte	0x16d
 1921 02c6 6B000000 		.4byte	0x6b
 1922 02ca 0D010000 		.4byte	.LLST10
 1923 02ce 0D       		.uleb128 0xd
 1924 02cf 08000000 		.4byte	.LVL19
 1925 02d3 F7080000 		.4byte	0x8f7
 1926 02d7 0D       		.uleb128 0xd
 1927 02d8 1C000000 		.4byte	.LVL21
 1928 02dc 02090000 		.4byte	0x902
 1929 02e0 00       		.byte	0
 1930 02e1 0E       		.uleb128 0xe
 1931 02e2 79040000 		.4byte	.LASF34
 1932 02e6 01       		.byte	0x1
 1933 02e7 8B01     		.2byte	0x18b
 1934 02e9 00000000 		.4byte	.LFB7
 1935 02ed 30000000 		.4byte	.LFE7-.LFB7
ARM GAS  C:\Users\Ala\AppData\Local\Temp\cc5WTHKW.s 			page 64


 1936 02f1 01       		.uleb128 0x1
 1937 02f2 9C       		.byte	0x9c
 1938 02f3 2A030000 		.4byte	0x32a
 1939 02f7 10       		.uleb128 0x10
 1940 02f8 20020000 		.4byte	.LASF35
 1941 02fc 01       		.byte	0x1
 1942 02fd 8B01     		.2byte	0x18b
 1943 02ff 77000000 		.4byte	0x77
 1944 0303 20010000 		.4byte	.LLST11
 1945 0307 0F       		.uleb128 0xf
 1946 0308 D5040000 		.4byte	.LASF27
 1947 030c 01       		.byte	0x1
 1948 030d 8D01     		.2byte	0x18d
 1949 030f 6B000000 		.4byte	0x6b
 1950 0313 4C010000 		.4byte	.LLST12
 1951 0317 0D       		.uleb128 0xd
 1952 0318 08000000 		.4byte	.LVL23
 1953 031c F7080000 		.4byte	0x8f7
 1954 0320 0D       		.uleb128 0xd
 1955 0321 24000000 		.4byte	.LVL25
 1956 0325 02090000 		.4byte	0x902
 1957 0329 00       		.byte	0
 1958 032a 0E       		.uleb128 0xe
 1959 032b 41030000 		.4byte	.LASF36
 1960 032f 01       		.byte	0x1
 1961 0330 C101     		.2byte	0x1c1
 1962 0332 00000000 		.4byte	.LFB8
 1963 0336 10000000 		.4byte	.LFE8-.LFB8
 1964 033a 01       		.uleb128 0x1
 1965 033b 9C       		.byte	0x9c
 1966 033c 51030000 		.4byte	0x351
 1967 0340 10       		.uleb128 0x10
 1968 0341 D7010000 		.4byte	.LASF37
 1969 0345 01       		.byte	0x1
 1970 0346 C101     		.2byte	0x1c1
 1971 0348 77000000 		.4byte	0x77
 1972 034c 5F010000 		.4byte	.LLST13
 1973 0350 00       		.byte	0
 1974 0351 0E       		.uleb128 0xe
 1975 0352 C4000000 		.4byte	.LASF38
 1976 0356 01       		.byte	0x1
 1977 0357 E501     		.2byte	0x1e5
 1978 0359 00000000 		.4byte	.LFB9
 1979 035d 28000000 		.4byte	.LFE9-.LFB9
 1980 0361 01       		.uleb128 0x1
 1981 0362 9C       		.byte	0x9c
 1982 0363 9A030000 		.4byte	0x39a
 1983 0367 10       		.uleb128 0x10
 1984 0368 4A050000 		.4byte	.LASF39
 1985 036c 01       		.byte	0x1
 1986 036d E501     		.2byte	0x1e5
 1987 036f 77000000 		.4byte	0x77
 1988 0373 80010000 		.4byte	.LLST14
 1989 0377 0F       		.uleb128 0xf
 1990 0378 D5040000 		.4byte	.LASF27
 1991 037c 01       		.byte	0x1
 1992 037d E701     		.2byte	0x1e7
ARM GAS  C:\Users\Ala\AppData\Local\Temp\cc5WTHKW.s 			page 65


 1993 037f 6B000000 		.4byte	0x6b
 1994 0383 AC010000 		.4byte	.LLST15
 1995 0387 0D       		.uleb128 0xd
 1996 0388 08000000 		.4byte	.LVL29
 1997 038c F7080000 		.4byte	0x8f7
 1998 0390 0D       		.uleb128 0xd
 1999 0391 20000000 		.4byte	.LVL31
 2000 0395 02090000 		.4byte	0x902
 2001 0399 00       		.byte	0
 2002 039a 0E       		.uleb128 0xe
 2003 039b 0F040000 		.4byte	.LASF40
 2004 039f 01       		.byte	0x1
 2005 03a0 0702     		.2byte	0x207
 2006 03a2 00000000 		.4byte	.LFB10
 2007 03a6 28000000 		.4byte	.LFE10-.LFB10
 2008 03aa 01       		.uleb128 0x1
 2009 03ab 9C       		.byte	0x9c
 2010 03ac E3030000 		.4byte	0x3e3
 2011 03b0 10       		.uleb128 0x10
 2012 03b1 E6030000 		.4byte	.LASF41
 2013 03b5 01       		.byte	0x1
 2014 03b6 0702     		.2byte	0x207
 2015 03b8 77000000 		.4byte	0x77
 2016 03bc BF010000 		.4byte	.LLST16
 2017 03c0 0F       		.uleb128 0xf
 2018 03c1 D5040000 		.4byte	.LASF27
 2019 03c5 01       		.byte	0x1
 2020 03c6 0902     		.2byte	0x209
 2021 03c8 6B000000 		.4byte	0x6b
 2022 03cc EB010000 		.4byte	.LLST17
 2023 03d0 0D       		.uleb128 0xd
 2024 03d1 08000000 		.4byte	.LVL33
 2025 03d5 F7080000 		.4byte	0x8f7
 2026 03d9 0D       		.uleb128 0xd
 2027 03da 20000000 		.4byte	.LVL35
 2028 03de 02090000 		.4byte	0x902
 2029 03e2 00       		.byte	0
 2030 03e3 0E       		.uleb128 0xe
 2031 03e4 7A020000 		.4byte	.LASF42
 2032 03e8 01       		.byte	0x1
 2033 03e9 2802     		.2byte	0x228
 2034 03eb 00000000 		.4byte	.LFB11
 2035 03ef 2C000000 		.4byte	.LFE11-.LFB11
 2036 03f3 01       		.uleb128 0x1
 2037 03f4 9C       		.byte	0x9c
 2038 03f5 2C040000 		.4byte	0x42c
 2039 03f9 10       		.uleb128 0x10
 2040 03fa 54010000 		.4byte	.LASF43
 2041 03fe 01       		.byte	0x1
 2042 03ff 2802     		.2byte	0x228
 2043 0401 77000000 		.4byte	0x77
 2044 0405 FE010000 		.4byte	.LLST18
 2045 0409 0F       		.uleb128 0xf
 2046 040a D5040000 		.4byte	.LASF27
 2047 040e 01       		.byte	0x1
 2048 040f 2A02     		.2byte	0x22a
 2049 0411 6B000000 		.4byte	0x6b
ARM GAS  C:\Users\Ala\AppData\Local\Temp\cc5WTHKW.s 			page 66


 2050 0415 2A020000 		.4byte	.LLST19
 2051 0419 0D       		.uleb128 0xd
 2052 041a 08000000 		.4byte	.LVL37
 2053 041e F7080000 		.4byte	0x8f7
 2054 0422 0D       		.uleb128 0xd
 2055 0423 20000000 		.4byte	.LVL39
 2056 0427 02090000 		.4byte	0x902
 2057 042b 00       		.byte	0
 2058 042c 0E       		.uleb128 0xe
 2059 042d E1000000 		.4byte	.LASF44
 2060 0431 01       		.byte	0x1
 2061 0432 4902     		.2byte	0x249
 2062 0434 00000000 		.4byte	.LFB12
 2063 0438 28000000 		.4byte	.LFE12-.LFB12
 2064 043c 01       		.uleb128 0x1
 2065 043d 9C       		.byte	0x9c
 2066 043e 75040000 		.4byte	0x475
 2067 0442 10       		.uleb128 0x10
 2068 0443 3B010000 		.4byte	.LASF45
 2069 0447 01       		.byte	0x1
 2070 0448 4902     		.2byte	0x249
 2071 044a 77000000 		.4byte	0x77
 2072 044e 3D020000 		.4byte	.LLST20
 2073 0452 0F       		.uleb128 0xf
 2074 0453 D5040000 		.4byte	.LASF27
 2075 0457 01       		.byte	0x1
 2076 0458 4B02     		.2byte	0x24b
 2077 045a 6B000000 		.4byte	0x6b
 2078 045e 69020000 		.4byte	.LLST21
 2079 0462 0D       		.uleb128 0xd
 2080 0463 08000000 		.4byte	.LVL41
 2081 0467 F7080000 		.4byte	0x8f7
 2082 046b 0D       		.uleb128 0xd
 2083 046c 1C000000 		.4byte	.LVL43
 2084 0470 02090000 		.4byte	0x902
 2085 0474 00       		.byte	0
 2086 0475 11       		.uleb128 0x11
 2087 0476 B7000000 		.4byte	0xb7
 2088 047a 00000000 		.4byte	.LFB13
 2089 047e 0C000000 		.4byte	.LFE13-.LFB13
 2090 0482 01       		.uleb128 0x1
 2091 0483 9C       		.byte	0x9c
 2092 0484 92040000 		.4byte	0x492
 2093 0488 0A       		.uleb128 0xa
 2094 0489 C4000000 		.4byte	0xc4
 2095 048d 7C020000 		.4byte	.LLST22
 2096 0491 00       		.byte	0
 2097 0492 12       		.uleb128 0x12
 2098 0493 8C040000 		.4byte	.LASF48
 2099 0497 01       		.byte	0x1
 2100 0498 7B02     		.2byte	0x27b
 2101 049a 77000000 		.4byte	0x77
 2102 049e 00000000 		.4byte	.LFB14
 2103 04a2 0C000000 		.4byte	.LFE14-.LFB14
 2104 04a6 01       		.uleb128 0x1
 2105 04a7 9C       		.byte	0x9c
 2106 04a8 0E       		.uleb128 0xe
ARM GAS  C:\Users\Ala\AppData\Local\Temp\cc5WTHKW.s 			page 67


 2107 04a9 BE040000 		.4byte	.LASF46
 2108 04ad 01       		.byte	0x1
 2109 04ae 9802     		.2byte	0x298
 2110 04b0 00000000 		.4byte	.LFB15
 2111 04b4 28000000 		.4byte	.LFE15-.LFB15
 2112 04b8 01       		.uleb128 0x1
 2113 04b9 9C       		.byte	0x9c
 2114 04ba F1040000 		.4byte	0x4f1
 2115 04be 10       		.uleb128 0x10
 2116 04bf 58020000 		.4byte	.LASF47
 2117 04c3 01       		.byte	0x1
 2118 04c4 9802     		.2byte	0x298
 2119 04c6 77000000 		.4byte	0x77
 2120 04ca 9D020000 		.4byte	.LLST23
 2121 04ce 0F       		.uleb128 0xf
 2122 04cf D5040000 		.4byte	.LASF27
 2123 04d3 01       		.byte	0x1
 2124 04d4 9A02     		.2byte	0x29a
 2125 04d6 6B000000 		.4byte	0x6b
 2126 04da C9020000 		.4byte	.LLST24
 2127 04de 0D       		.uleb128 0xd
 2128 04df 08000000 		.4byte	.LVL47
 2129 04e3 F7080000 		.4byte	0x8f7
 2130 04e7 0D       		.uleb128 0xd
 2131 04e8 1C000000 		.4byte	.LVL49
 2132 04ec 02090000 		.4byte	0x902
 2133 04f0 00       		.byte	0
 2134 04f1 11       		.uleb128 0x11
 2135 04f2 D1000000 		.4byte	0xd1
 2136 04f6 00000000 		.4byte	.LFB16
 2137 04fa 0C000000 		.4byte	.LFE16-.LFB16
 2138 04fe 01       		.uleb128 0x1
 2139 04ff 9C       		.byte	0x9c
 2140 0500 0E050000 		.4byte	0x50e
 2141 0504 0A       		.uleb128 0xa
 2142 0505 DE000000 		.4byte	0xde
 2143 0509 DC020000 		.4byte	.LLST25
 2144 050d 00       		.byte	0
 2145 050e 12       		.uleb128 0x12
 2146 050f 1C000000 		.4byte	.LASF49
 2147 0513 01       		.byte	0x1
 2148 0514 C902     		.2byte	0x2c9
 2149 0516 77000000 		.4byte	0x77
 2150 051a 00000000 		.4byte	.LFB17
 2151 051e 0C000000 		.4byte	.LFE17-.LFB17
 2152 0522 01       		.uleb128 0x1
 2153 0523 9C       		.byte	0x9c
 2154 0524 0E       		.uleb128 0xe
 2155 0525 69000000 		.4byte	.LASF50
 2156 0529 01       		.byte	0x1
 2157 052a E302     		.2byte	0x2e3
 2158 052c 00000000 		.4byte	.LFB18
 2159 0530 24000000 		.4byte	.LFE18-.LFB18
 2160 0534 01       		.uleb128 0x1
 2161 0535 9C       		.byte	0x9c
 2162 0536 6D050000 		.4byte	0x56d
 2163 053a 10       		.uleb128 0x10
ARM GAS  C:\Users\Ala\AppData\Local\Temp\cc5WTHKW.s 			page 68


 2164 053b 59050000 		.4byte	.LASF51
 2165 053f 01       		.byte	0x1
 2166 0540 E302     		.2byte	0x2e3
 2167 0542 77000000 		.4byte	0x77
 2168 0546 FD020000 		.4byte	.LLST26
 2169 054a 0F       		.uleb128 0xf
 2170 054b D5040000 		.4byte	.LASF27
 2171 054f 01       		.byte	0x1
 2172 0550 E502     		.2byte	0x2e5
 2173 0552 6B000000 		.4byte	0x6b
 2174 0556 29030000 		.4byte	.LLST27
 2175 055a 0D       		.uleb128 0xd
 2176 055b 08000000 		.4byte	.LVL53
 2177 055f F7080000 		.4byte	0x8f7
 2178 0563 0D       		.uleb128 0xd
 2179 0564 1E000000 		.4byte	.LVL54
 2180 0568 02090000 		.4byte	0x902
 2181 056c 00       		.byte	0
 2182 056d 0E       		.uleb128 0xe
 2183 056e A0030000 		.4byte	.LASF52
 2184 0572 01       		.byte	0x1
 2185 0573 FE02     		.2byte	0x2fe
 2186 0575 00000000 		.4byte	.LFB19
 2187 0579 0C000000 		.4byte	.LFE19-.LFB19
 2188 057d 01       		.uleb128 0x1
 2189 057e 9C       		.byte	0x9c
 2190 057f 94050000 		.4byte	0x594
 2191 0583 10       		.uleb128 0x10
 2192 0584 BB050000 		.4byte	.LASF53
 2193 0588 01       		.byte	0x1
 2194 0589 FE02     		.2byte	0x2fe
 2195 058b 77000000 		.4byte	0x77
 2196 058f 3C030000 		.4byte	.LLST28
 2197 0593 00       		.byte	0
 2198 0594 12       		.uleb128 0x12
 2199 0595 12010000 		.4byte	.LASF54
 2200 0599 01       		.byte	0x1
 2201 059a 1203     		.2byte	0x312
 2202 059c 77000000 		.4byte	0x77
 2203 05a0 00000000 		.4byte	.LFB20
 2204 05a4 0C000000 		.4byte	.LFE20-.LFB20
 2205 05a8 01       		.uleb128 0x1
 2206 05a9 9C       		.byte	0x9c
 2207 05aa 0E       		.uleb128 0xe
 2208 05ab 90010000 		.4byte	.LASF55
 2209 05af 01       		.byte	0x1
 2210 05b0 2C03     		.2byte	0x32c
 2211 05b2 00000000 		.4byte	.LFB21
 2212 05b6 28000000 		.4byte	.LFE21-.LFB21
 2213 05ba 01       		.uleb128 0x1
 2214 05bb 9C       		.byte	0x9c
 2215 05bc F3050000 		.4byte	0x5f3
 2216 05c0 10       		.uleb128 0x10
 2217 05c1 59050000 		.4byte	.LASF51
 2218 05c5 01       		.byte	0x1
 2219 05c6 2C03     		.2byte	0x32c
 2220 05c8 77000000 		.4byte	0x77
ARM GAS  C:\Users\Ala\AppData\Local\Temp\cc5WTHKW.s 			page 69


 2221 05cc 5D030000 		.4byte	.LLST29
 2222 05d0 0F       		.uleb128 0xf
 2223 05d1 D5040000 		.4byte	.LASF27
 2224 05d5 01       		.byte	0x1
 2225 05d6 2E03     		.2byte	0x32e
 2226 05d8 6B000000 		.4byte	0x6b
 2227 05dc 89030000 		.4byte	.LLST30
 2228 05e0 0D       		.uleb128 0xd
 2229 05e1 08000000 		.4byte	.LVL59
 2230 05e5 F7080000 		.4byte	0x8f7
 2231 05e9 0D       		.uleb128 0xd
 2232 05ea 20000000 		.4byte	.LVL61
 2233 05ee 02090000 		.4byte	0x902
 2234 05f2 00       		.byte	0
 2235 05f3 0E       		.uleb128 0xe
 2236 05f4 7D050000 		.4byte	.LASF56
 2237 05f8 01       		.byte	0x1
 2238 05f9 5103     		.2byte	0x351
 2239 05fb 00000000 		.4byte	.LFB22
 2240 05ff 0C000000 		.4byte	.LFE22-.LFB22
 2241 0603 01       		.uleb128 0x1
 2242 0604 9C       		.byte	0x9c
 2243 0605 1A060000 		.4byte	0x61a
 2244 0609 10       		.uleb128 0x10
 2245 060a 39030000 		.4byte	.LASF57
 2246 060e 01       		.byte	0x1
 2247 060f 5103     		.2byte	0x351
 2248 0611 77000000 		.4byte	0x77
 2249 0615 9C030000 		.4byte	.LLST31
 2250 0619 00       		.byte	0
 2251 061a 0E       		.uleb128 0xe
 2252 061b 54030000 		.4byte	.LASF58
 2253 061f 01       		.byte	0x1
 2254 0620 BA03     		.2byte	0x3ba
 2255 0622 00000000 		.4byte	.LFB24
 2256 0626 0C000000 		.4byte	.LFE24-.LFB24
 2257 062a 01       		.uleb128 0x1
 2258 062b 9C       		.byte	0x9c
 2259 062c 41060000 		.4byte	0x641
 2260 0630 10       		.uleb128 0x10
 2261 0631 B3040000 		.4byte	.LASF59
 2262 0635 01       		.byte	0x1
 2263 0636 BA03     		.2byte	0x3ba
 2264 0638 77000000 		.4byte	0x77
 2265 063c BD030000 		.4byte	.LLST32
 2266 0640 00       		.byte	0
 2267 0641 13       		.uleb128 0x13
 2268 0642 7C030000 		.4byte	.LASF60
 2269 0646 01       		.byte	0x1
 2270 0647 1604     		.2byte	0x416
 2271 0649 77000000 		.4byte	0x77
 2272 064d 01       		.byte	0x1
 2273 064e 14       		.uleb128 0x14
 2274 064f 41060000 		.4byte	0x641
 2275 0653 00000000 		.4byte	.LFB26
 2276 0657 0C000000 		.4byte	.LFE26-.LFB26
 2277 065b 01       		.uleb128 0x1
ARM GAS  C:\Users\Ala\AppData\Local\Temp\cc5WTHKW.s 			page 70


 2278 065c 9C       		.byte	0x9c
 2279 065d 13       		.uleb128 0x13
 2280 065e 28040000 		.4byte	.LASF61
 2281 0662 01       		.byte	0x1
 2282 0663 2B04     		.2byte	0x42b
 2283 0665 77000000 		.4byte	0x77
 2284 0669 01       		.byte	0x1
 2285 066a 14       		.uleb128 0x14
 2286 066b 5D060000 		.4byte	0x65d
 2287 066f 00000000 		.4byte	.LFB27
 2288 0673 0C000000 		.4byte	.LFE27-.LFB27
 2289 0677 01       		.uleb128 0x1
 2290 0678 9C       		.byte	0x9c
 2291 0679 0E       		.uleb128 0xe
 2292 067a A4050000 		.4byte	.LASF62
 2293 067e 01       		.byte	0x1
 2294 067f 4604     		.2byte	0x446
 2295 0681 00000000 		.4byte	.LFB28
 2296 0685 24000000 		.4byte	.LFE28-.LFB28
 2297 0689 01       		.uleb128 0x1
 2298 068a 9C       		.byte	0x9c
 2299 068b C2060000 		.4byte	0x6c2
 2300 068f 10       		.uleb128 0x10
 2301 0690 2F010000 		.4byte	.LASF63
 2302 0694 01       		.byte	0x1
 2303 0695 4604     		.2byte	0x446
 2304 0697 77000000 		.4byte	0x77
 2305 069b DE030000 		.4byte	.LLST33
 2306 069f 0F       		.uleb128 0xf
 2307 06a0 D5040000 		.4byte	.LASF27
 2308 06a4 01       		.byte	0x1
 2309 06a5 4804     		.2byte	0x448
 2310 06a7 6B000000 		.4byte	0x6b
 2311 06ab 0A040000 		.4byte	.LLST34
 2312 06af 0D       		.uleb128 0xd
 2313 06b0 08000000 		.4byte	.LVL67
 2314 06b4 F7080000 		.4byte	0x8f7
 2315 06b8 0D       		.uleb128 0xd
 2316 06b9 1C000000 		.4byte	.LVL69
 2317 06bd 02090000 		.4byte	0x902
 2318 06c1 00       		.byte	0
 2319 06c2 0E       		.uleb128 0xe
 2320 06c3 0A020000 		.4byte	.LASF64
 2321 06c7 01       		.byte	0x1
 2322 06c8 6704     		.2byte	0x467
 2323 06ca 00000000 		.4byte	.LFB29
 2324 06ce 24000000 		.4byte	.LFE29-.LFB29
 2325 06d2 01       		.uleb128 0x1
 2326 06d3 9C       		.byte	0x9c
 2327 06d4 0B070000 		.4byte	0x70b
 2328 06d8 10       		.uleb128 0x10
 2329 06d9 2F010000 		.4byte	.LASF63
 2330 06dd 01       		.byte	0x1
 2331 06de 6704     		.2byte	0x467
 2332 06e0 77000000 		.4byte	0x77
 2333 06e4 1D040000 		.4byte	.LLST35
 2334 06e8 0F       		.uleb128 0xf
ARM GAS  C:\Users\Ala\AppData\Local\Temp\cc5WTHKW.s 			page 71


 2335 06e9 D5040000 		.4byte	.LASF27
 2336 06ed 01       		.byte	0x1
 2337 06ee 6904     		.2byte	0x469
 2338 06f0 6B000000 		.4byte	0x6b
 2339 06f4 49040000 		.4byte	.LLST36
 2340 06f8 0D       		.uleb128 0xd
 2341 06f9 08000000 		.4byte	.LVL71
 2342 06fd F7080000 		.4byte	0x8f7
 2343 0701 0D       		.uleb128 0xd
 2344 0702 1E000000 		.4byte	.LVL72
 2345 0706 02090000 		.4byte	0x902
 2346 070a 00       		.byte	0
 2347 070b 0E       		.uleb128 0xe
 2348 070c FD000000 		.4byte	.LASF65
 2349 0710 01       		.byte	0x1
 2350 0711 8804     		.2byte	0x488
 2351 0713 00000000 		.4byte	.LFB30
 2352 0717 28000000 		.4byte	.LFE30-.LFB30
 2353 071b 01       		.uleb128 0x1
 2354 071c 9C       		.byte	0x9c
 2355 071d 54070000 		.4byte	0x754
 2356 0721 10       		.uleb128 0x10
 2357 0722 2F010000 		.4byte	.LASF63
 2358 0726 01       		.byte	0x1
 2359 0727 8804     		.2byte	0x488
 2360 0729 77000000 		.4byte	0x77
 2361 072d 5C040000 		.4byte	.LLST37
 2362 0731 0F       		.uleb128 0xf
 2363 0732 D5040000 		.4byte	.LASF27
 2364 0736 01       		.byte	0x1
 2365 0737 8A04     		.2byte	0x48a
 2366 0739 6B000000 		.4byte	0x6b
 2367 073d 88040000 		.4byte	.LLST38
 2368 0741 0D       		.uleb128 0xd
 2369 0742 08000000 		.4byte	.LVL75
 2370 0746 F7080000 		.4byte	0x8f7
 2371 074a 0D       		.uleb128 0xd
 2372 074b 1E000000 		.4byte	.LVL76
 2373 074f 02090000 		.4byte	0x902
 2374 0753 00       		.byte	0
 2375 0754 0E       		.uleb128 0xe
 2376 0755 40010000 		.4byte	.LASF66
 2377 0759 01       		.byte	0x1
 2378 075a A804     		.2byte	0x4a8
 2379 075c 00000000 		.4byte	.LFB31
 2380 0760 24000000 		.4byte	.LFE31-.LFB31
 2381 0764 01       		.uleb128 0x1
 2382 0765 9C       		.byte	0x9c
 2383 0766 9D070000 		.4byte	0x79d
 2384 076a 10       		.uleb128 0x10
 2385 076b 2F010000 		.4byte	.LASF63
 2386 076f 01       		.byte	0x1
 2387 0770 A804     		.2byte	0x4a8
 2388 0772 77000000 		.4byte	0x77
 2389 0776 9B040000 		.4byte	.LLST39
 2390 077a 0F       		.uleb128 0xf
 2391 077b D5040000 		.4byte	.LASF27
ARM GAS  C:\Users\Ala\AppData\Local\Temp\cc5WTHKW.s 			page 72


 2392 077f 01       		.byte	0x1
 2393 0780 AA04     		.2byte	0x4aa
 2394 0782 6B000000 		.4byte	0x6b
 2395 0786 C7040000 		.4byte	.LLST40
 2396 078a 0D       		.uleb128 0xd
 2397 078b 08000000 		.4byte	.LVL79
 2398 078f F7080000 		.4byte	0x8f7
 2399 0793 0D       		.uleb128 0xd
 2400 0794 1E000000 		.4byte	.LVL80
 2401 0798 02090000 		.4byte	0x902
 2402 079c 00       		.byte	0
 2403 079d 0E       		.uleb128 0xe
 2404 079e E6040000 		.4byte	.LASF67
 2405 07a2 01       		.byte	0x1
 2406 07a3 C904     		.2byte	0x4c9
 2407 07a5 00000000 		.4byte	.LFB32
 2408 07a9 24000000 		.4byte	.LFE32-.LFB32
 2409 07ad 01       		.uleb128 0x1
 2410 07ae 9C       		.byte	0x9c
 2411 07af E6070000 		.4byte	0x7e6
 2412 07b3 10       		.uleb128 0x10
 2413 07b4 2F010000 		.4byte	.LASF63
 2414 07b8 01       		.byte	0x1
 2415 07b9 C904     		.2byte	0x4c9
 2416 07bb 77000000 		.4byte	0x77
 2417 07bf DA040000 		.4byte	.LLST41
 2418 07c3 0F       		.uleb128 0xf
 2419 07c4 D5040000 		.4byte	.LASF27
 2420 07c8 01       		.byte	0x1
 2421 07c9 CB04     		.2byte	0x4cb
 2422 07cb 6B000000 		.4byte	0x6b
 2423 07cf 06050000 		.4byte	.LLST42
 2424 07d3 0D       		.uleb128 0xd
 2425 07d4 08000000 		.4byte	.LVL83
 2426 07d8 F7080000 		.4byte	0x8f7
 2427 07dc 0D       		.uleb128 0xd
 2428 07dd 1E000000 		.4byte	.LVL84
 2429 07e1 02090000 		.4byte	0x902
 2430 07e5 00       		.byte	0
 2431 07e6 0E       		.uleb128 0xe
 2432 07e7 5D010000 		.4byte	.LASF68
 2433 07eb 01       		.byte	0x1
 2434 07ec F104     		.2byte	0x4f1
 2435 07ee 00000000 		.4byte	.LFB33
 2436 07f2 1C000000 		.4byte	.LFE33-.LFB33
 2437 07f6 01       		.uleb128 0x1
 2438 07f7 9C       		.byte	0x9c
 2439 07f8 3F080000 		.4byte	0x83f
 2440 07fc 10       		.uleb128 0x10
 2441 07fd 3B010000 		.4byte	.LASF45
 2442 0801 01       		.byte	0x1
 2443 0802 F104     		.2byte	0x4f1
 2444 0804 77000000 		.4byte	0x77
 2445 0808 19050000 		.4byte	.LLST43
 2446 080c 10       		.uleb128 0x10
 2447 080d BD010000 		.4byte	.LASF69
 2448 0811 01       		.byte	0x1
ARM GAS  C:\Users\Ala\AppData\Local\Temp\cc5WTHKW.s 			page 73


 2449 0812 F104     		.2byte	0x4f1
 2450 0814 77000000 		.4byte	0x77
 2451 0818 3A050000 		.4byte	.LLST44
 2452 081c 0F       		.uleb128 0xf
 2453 081d D5040000 		.4byte	.LASF27
 2454 0821 01       		.byte	0x1
 2455 0822 F304     		.2byte	0x4f3
 2456 0824 6B000000 		.4byte	0x6b
 2457 0828 66050000 		.4byte	.LLST45
 2458 082c 0D       		.uleb128 0xd
 2459 082d 0C000000 		.4byte	.LVL87
 2460 0831 F7080000 		.4byte	0x8f7
 2461 0835 0D       		.uleb128 0xd
 2462 0836 14000000 		.4byte	.LVL88
 2463 083a 02090000 		.4byte	0x902
 2464 083e 00       		.byte	0
 2465 083f 12       		.uleb128 0x12
 2466 0840 A0040000 		.4byte	.LASF70
 2467 0844 01       		.byte	0x1
 2468 0845 0E05     		.2byte	0x50e
 2469 0847 77000000 		.4byte	0x77
 2470 084b 00000000 		.4byte	.LFB34
 2471 084f 14000000 		.4byte	.LFE34-.LFB34
 2472 0853 01       		.uleb128 0x1
 2473 0854 9C       		.byte	0x9c
 2474 0855 11       		.uleb128 0x11
 2475 0856 EB000000 		.4byte	0xeb
 2476 085a 00000000 		.4byte	.LFB35
 2477 085e 0C000000 		.4byte	.LFE35-.LFB35
 2478 0862 01       		.uleb128 0x1
 2479 0863 9C       		.byte	0x9c
 2480 0864 70080000 		.4byte	0x870
 2481 0868 15       		.uleb128 0x15
 2482 0869 F8000000 		.4byte	0xf8
 2483 086d 01       		.uleb128 0x1
 2484 086e 50       		.byte	0x50
 2485 086f 00       		.byte	0
 2486 0870 12       		.uleb128 0x12
 2487 0871 B7030000 		.4byte	.LASF71
 2488 0875 01       		.byte	0x1
 2489 0876 3E05     		.2byte	0x53e
 2490 0878 77000000 		.4byte	0x77
 2491 087c 00000000 		.4byte	.LFB36
 2492 0880 0C000000 		.4byte	.LFE36-.LFB36
 2493 0884 01       		.uleb128 0x1
 2494 0885 9C       		.byte	0x9c
 2495 0886 12       		.uleb128 0x12
 2496 0887 3F040000 		.4byte	.LASF72
 2497 088b 01       		.byte	0x1
 2498 088c 5505     		.2byte	0x555
 2499 088e 77000000 		.4byte	0x77
 2500 0892 00000000 		.4byte	.LFB37
 2501 0896 0C000000 		.4byte	.LFE37-.LFB37
 2502 089a 01       		.uleb128 0x1
 2503 089b 9C       		.byte	0x9c
 2504 089c 0E       		.uleb128 0xe
 2505 089d A6010000 		.4byte	.LASF73
ARM GAS  C:\Users\Ala\AppData\Local\Temp\cc5WTHKW.s 			page 74


 2506 08a1 01       		.byte	0x1
 2507 08a2 6C05     		.2byte	0x56c
 2508 08a4 00000000 		.4byte	.LFB38
 2509 08a8 0C000000 		.4byte	.LFE38-.LFB38
 2510 08ac 01       		.uleb128 0x1
 2511 08ad 9C       		.byte	0x9c
 2512 08ae C1080000 		.4byte	0x8c1
 2513 08b2 16       		.uleb128 0x16
 2514 08b3 01040000 		.4byte	.LASF22
 2515 08b7 01       		.byte	0x1
 2516 08b8 6C05     		.2byte	0x56c
 2517 08ba 77000000 		.4byte	0x77
 2518 08be 01       		.uleb128 0x1
 2519 08bf 50       		.byte	0x50
 2520 08c0 00       		.byte	0
 2521 08c1 0E       		.uleb128 0xe
 2522 08c2 5A040000 		.4byte	.LASF74
 2523 08c6 01       		.byte	0x1
 2524 08c7 8305     		.2byte	0x583
 2525 08c9 00000000 		.4byte	.LFB39
 2526 08cd 0C000000 		.4byte	.LFE39-.LFB39
 2527 08d1 01       		.uleb128 0x1
 2528 08d2 9C       		.byte	0x9c
 2529 08d3 E6080000 		.4byte	0x8e6
 2530 08d7 16       		.uleb128 0x16
 2531 08d8 01040000 		.4byte	.LASF22
 2532 08dc 01       		.byte	0x1
 2533 08dd 8305     		.2byte	0x583
 2534 08df 77000000 		.4byte	0x77
 2535 08e3 01       		.uleb128 0x1
 2536 08e4 50       		.byte	0x50
 2537 08e5 00       		.byte	0
 2538 08e6 17       		.uleb128 0x17
 2539 08e7 42020000 		.4byte	.LASF80
 2540 08eb 01       		.byte	0x1
 2541 08ec 15       		.byte	0x15
 2542 08ed 6B000000 		.4byte	0x6b
 2543 08f1 05       		.uleb128 0x5
 2544 08f2 03       		.byte	0x3
 2545 08f3 00000000 		.4byte	Timer_2_initVar
 2546 08f7 18       		.uleb128 0x18
 2547 08f8 E0010000 		.4byte	.LASF75
 2548 08fc E0010000 		.4byte	.LASF75
 2549 0900 03       		.byte	0x3
 2550 0901 F8       		.byte	0xf8
 2551 0902 18       		.uleb128 0x18
 2552 0903 06000000 		.4byte	.LASF76
 2553 0907 06000000 		.4byte	.LASF76
 2554 090b 03       		.byte	0x3
 2555 090c F9       		.byte	0xf9
 2556 090d 00       		.byte	0
 2557              		.section	.debug_abbrev,"",%progbits
 2558              	.Ldebug_abbrev0:
 2559 0000 01       		.uleb128 0x1
 2560 0001 11       		.uleb128 0x11
 2561 0002 01       		.byte	0x1
 2562 0003 25       		.uleb128 0x25
ARM GAS  C:\Users\Ala\AppData\Local\Temp\cc5WTHKW.s 			page 75


 2563 0004 0E       		.uleb128 0xe
 2564 0005 13       		.uleb128 0x13
 2565 0006 0B       		.uleb128 0xb
 2566 0007 03       		.uleb128 0x3
 2567 0008 0E       		.uleb128 0xe
 2568 0009 1B       		.uleb128 0x1b
 2569 000a 0E       		.uleb128 0xe
 2570 000b 55       		.uleb128 0x55
 2571 000c 17       		.uleb128 0x17
 2572 000d 11       		.uleb128 0x11
 2573 000e 01       		.uleb128 0x1
 2574 000f 10       		.uleb128 0x10
 2575 0010 17       		.uleb128 0x17
 2576 0011 00       		.byte	0
 2577 0012 00       		.byte	0
 2578 0013 02       		.uleb128 0x2
 2579 0014 24       		.uleb128 0x24
 2580 0015 00       		.byte	0
 2581 0016 0B       		.uleb128 0xb
 2582 0017 0B       		.uleb128 0xb
 2583 0018 3E       		.uleb128 0x3e
 2584 0019 0B       		.uleb128 0xb
 2585 001a 03       		.uleb128 0x3
 2586 001b 0E       		.uleb128 0xe
 2587 001c 00       		.byte	0
 2588 001d 00       		.byte	0
 2589 001e 03       		.uleb128 0x3
 2590 001f 24       		.uleb128 0x24
 2591 0020 00       		.byte	0
 2592 0021 0B       		.uleb128 0xb
 2593 0022 0B       		.uleb128 0xb
 2594 0023 3E       		.uleb128 0x3e
 2595 0024 0B       		.uleb128 0xb
 2596 0025 03       		.uleb128 0x3
 2597 0026 08       		.uleb128 0x8
 2598 0027 00       		.byte	0
 2599 0028 00       		.byte	0
 2600 0029 04       		.uleb128 0x4
 2601 002a 16       		.uleb128 0x16
 2602 002b 00       		.byte	0
 2603 002c 03       		.uleb128 0x3
 2604 002d 0E       		.uleb128 0xe
 2605 002e 3A       		.uleb128 0x3a
 2606 002f 0B       		.uleb128 0xb
 2607 0030 3B       		.uleb128 0x3b
 2608 0031 05       		.uleb128 0x5
 2609 0032 49       		.uleb128 0x49
 2610 0033 13       		.uleb128 0x13
 2611 0034 00       		.byte	0
 2612 0035 00       		.byte	0
 2613 0036 05       		.uleb128 0x5
 2614 0037 35       		.uleb128 0x35
 2615 0038 00       		.byte	0
 2616 0039 49       		.uleb128 0x49
 2617 003a 13       		.uleb128 0x13
 2618 003b 00       		.byte	0
 2619 003c 00       		.byte	0
ARM GAS  C:\Users\Ala\AppData\Local\Temp\cc5WTHKW.s 			page 76


 2620 003d 06       		.uleb128 0x6
 2621 003e 2E       		.uleb128 0x2e
 2622 003f 01       		.byte	0x1
 2623 0040 3F       		.uleb128 0x3f
 2624 0041 19       		.uleb128 0x19
 2625 0042 03       		.uleb128 0x3
 2626 0043 0E       		.uleb128 0xe
 2627 0044 3A       		.uleb128 0x3a
 2628 0045 0B       		.uleb128 0xb
 2629 0046 3B       		.uleb128 0x3b
 2630 0047 05       		.uleb128 0x5
 2631 0048 27       		.uleb128 0x27
 2632 0049 19       		.uleb128 0x19
 2633 004a 20       		.uleb128 0x20
 2634 004b 0B       		.uleb128 0xb
 2635 004c 01       		.uleb128 0x1
 2636 004d 13       		.uleb128 0x13
 2637 004e 00       		.byte	0
 2638 004f 00       		.byte	0
 2639 0050 07       		.uleb128 0x7
 2640 0051 05       		.uleb128 0x5
 2641 0052 00       		.byte	0
 2642 0053 03       		.uleb128 0x3
 2643 0054 0E       		.uleb128 0xe
 2644 0055 3A       		.uleb128 0x3a
 2645 0056 0B       		.uleb128 0xb
 2646 0057 3B       		.uleb128 0x3b
 2647 0058 05       		.uleb128 0x5
 2648 0059 49       		.uleb128 0x49
 2649 005a 13       		.uleb128 0x13
 2650 005b 00       		.byte	0
 2651 005c 00       		.byte	0
 2652 005d 08       		.uleb128 0x8
 2653 005e 2E       		.uleb128 0x2e
 2654 005f 01       		.byte	0x1
 2655 0060 3F       		.uleb128 0x3f
 2656 0061 19       		.uleb128 0x19
 2657 0062 03       		.uleb128 0x3
 2658 0063 0E       		.uleb128 0xe
 2659 0064 3A       		.uleb128 0x3a
 2660 0065 0B       		.uleb128 0xb
 2661 0066 3B       		.uleb128 0x3b
 2662 0067 0B       		.uleb128 0xb
 2663 0068 27       		.uleb128 0x27
 2664 0069 19       		.uleb128 0x19
 2665 006a 11       		.uleb128 0x11
 2666 006b 01       		.uleb128 0x1
 2667 006c 12       		.uleb128 0x12
 2668 006d 06       		.uleb128 0x6
 2669 006e 40       		.uleb128 0x40
 2670 006f 18       		.uleb128 0x18
 2671 0070 9742     		.uleb128 0x2117
 2672 0072 19       		.uleb128 0x19
 2673 0073 01       		.uleb128 0x1
 2674 0074 13       		.uleb128 0x13
 2675 0075 00       		.byte	0
 2676 0076 00       		.byte	0
ARM GAS  C:\Users\Ala\AppData\Local\Temp\cc5WTHKW.s 			page 77


 2677 0077 09       		.uleb128 0x9
 2678 0078 1D       		.uleb128 0x1d
 2679 0079 01       		.byte	0x1
 2680 007a 31       		.uleb128 0x31
 2681 007b 13       		.uleb128 0x13
 2682 007c 11       		.uleb128 0x11
 2683 007d 01       		.uleb128 0x1
 2684 007e 12       		.uleb128 0x12
 2685 007f 06       		.uleb128 0x6
 2686 0080 58       		.uleb128 0x58
 2687 0081 0B       		.uleb128 0xb
 2688 0082 59       		.uleb128 0x59
 2689 0083 0B       		.uleb128 0xb
 2690 0084 01       		.uleb128 0x1
 2691 0085 13       		.uleb128 0x13
 2692 0086 00       		.byte	0
 2693 0087 00       		.byte	0
 2694 0088 0A       		.uleb128 0xa
 2695 0089 05       		.uleb128 0x5
 2696 008a 00       		.byte	0
 2697 008b 31       		.uleb128 0x31
 2698 008c 13       		.uleb128 0x13
 2699 008d 02       		.uleb128 0x2
 2700 008e 17       		.uleb128 0x17
 2701 008f 00       		.byte	0
 2702 0090 00       		.byte	0
 2703 0091 0B       		.uleb128 0xb
 2704 0092 1D       		.uleb128 0x1d
 2705 0093 01       		.byte	0x1
 2706 0094 31       		.uleb128 0x31
 2707 0095 13       		.uleb128 0x13
 2708 0096 52       		.uleb128 0x52
 2709 0097 01       		.uleb128 0x1
 2710 0098 55       		.uleb128 0x55
 2711 0099 17       		.uleb128 0x17
 2712 009a 58       		.uleb128 0x58
 2713 009b 0B       		.uleb128 0xb
 2714 009c 59       		.uleb128 0x59
 2715 009d 0B       		.uleb128 0xb
 2716 009e 00       		.byte	0
 2717 009f 00       		.byte	0
 2718 00a0 0C       		.uleb128 0xc
 2719 00a1 34       		.uleb128 0x34
 2720 00a2 00       		.byte	0
 2721 00a3 03       		.uleb128 0x3
 2722 00a4 0E       		.uleb128 0xe
 2723 00a5 3A       		.uleb128 0x3a
 2724 00a6 0B       		.uleb128 0xb
 2725 00a7 3B       		.uleb128 0x3b
 2726 00a8 0B       		.uleb128 0xb
 2727 00a9 49       		.uleb128 0x49
 2728 00aa 13       		.uleb128 0x13
 2729 00ab 02       		.uleb128 0x2
 2730 00ac 17       		.uleb128 0x17
 2731 00ad 00       		.byte	0
 2732 00ae 00       		.byte	0
 2733 00af 0D       		.uleb128 0xd
ARM GAS  C:\Users\Ala\AppData\Local\Temp\cc5WTHKW.s 			page 78


 2734 00b0 898201   		.uleb128 0x4109
 2735 00b3 00       		.byte	0
 2736 00b4 11       		.uleb128 0x11
 2737 00b5 01       		.uleb128 0x1
 2738 00b6 31       		.uleb128 0x31
 2739 00b7 13       		.uleb128 0x13
 2740 00b8 00       		.byte	0
 2741 00b9 00       		.byte	0
 2742 00ba 0E       		.uleb128 0xe
 2743 00bb 2E       		.uleb128 0x2e
 2744 00bc 01       		.byte	0x1
 2745 00bd 3F       		.uleb128 0x3f
 2746 00be 19       		.uleb128 0x19
 2747 00bf 03       		.uleb128 0x3
 2748 00c0 0E       		.uleb128 0xe
 2749 00c1 3A       		.uleb128 0x3a
 2750 00c2 0B       		.uleb128 0xb
 2751 00c3 3B       		.uleb128 0x3b
 2752 00c4 05       		.uleb128 0x5
 2753 00c5 27       		.uleb128 0x27
 2754 00c6 19       		.uleb128 0x19
 2755 00c7 11       		.uleb128 0x11
 2756 00c8 01       		.uleb128 0x1
 2757 00c9 12       		.uleb128 0x12
 2758 00ca 06       		.uleb128 0x6
 2759 00cb 40       		.uleb128 0x40
 2760 00cc 18       		.uleb128 0x18
 2761 00cd 9742     		.uleb128 0x2117
 2762 00cf 19       		.uleb128 0x19
 2763 00d0 01       		.uleb128 0x1
 2764 00d1 13       		.uleb128 0x13
 2765 00d2 00       		.byte	0
 2766 00d3 00       		.byte	0
 2767 00d4 0F       		.uleb128 0xf
 2768 00d5 34       		.uleb128 0x34
 2769 00d6 00       		.byte	0
 2770 00d7 03       		.uleb128 0x3
 2771 00d8 0E       		.uleb128 0xe
 2772 00d9 3A       		.uleb128 0x3a
 2773 00da 0B       		.uleb128 0xb
 2774 00db 3B       		.uleb128 0x3b
 2775 00dc 05       		.uleb128 0x5
 2776 00dd 49       		.uleb128 0x49
 2777 00de 13       		.uleb128 0x13
 2778 00df 02       		.uleb128 0x2
 2779 00e0 17       		.uleb128 0x17
 2780 00e1 00       		.byte	0
 2781 00e2 00       		.byte	0
 2782 00e3 10       		.uleb128 0x10
 2783 00e4 05       		.uleb128 0x5
 2784 00e5 00       		.byte	0
 2785 00e6 03       		.uleb128 0x3
 2786 00e7 0E       		.uleb128 0xe
 2787 00e8 3A       		.uleb128 0x3a
 2788 00e9 0B       		.uleb128 0xb
 2789 00ea 3B       		.uleb128 0x3b
 2790 00eb 05       		.uleb128 0x5
ARM GAS  C:\Users\Ala\AppData\Local\Temp\cc5WTHKW.s 			page 79


 2791 00ec 49       		.uleb128 0x49
 2792 00ed 13       		.uleb128 0x13
 2793 00ee 02       		.uleb128 0x2
 2794 00ef 17       		.uleb128 0x17
 2795 00f0 00       		.byte	0
 2796 00f1 00       		.byte	0
 2797 00f2 11       		.uleb128 0x11
 2798 00f3 2E       		.uleb128 0x2e
 2799 00f4 01       		.byte	0x1
 2800 00f5 31       		.uleb128 0x31
 2801 00f6 13       		.uleb128 0x13
 2802 00f7 11       		.uleb128 0x11
 2803 00f8 01       		.uleb128 0x1
 2804 00f9 12       		.uleb128 0x12
 2805 00fa 06       		.uleb128 0x6
 2806 00fb 40       		.uleb128 0x40
 2807 00fc 18       		.uleb128 0x18
 2808 00fd 9742     		.uleb128 0x2117
 2809 00ff 19       		.uleb128 0x19
 2810 0100 01       		.uleb128 0x1
 2811 0101 13       		.uleb128 0x13
 2812 0102 00       		.byte	0
 2813 0103 00       		.byte	0
 2814 0104 12       		.uleb128 0x12
 2815 0105 2E       		.uleb128 0x2e
 2816 0106 00       		.byte	0
 2817 0107 3F       		.uleb128 0x3f
 2818 0108 19       		.uleb128 0x19
 2819 0109 03       		.uleb128 0x3
 2820 010a 0E       		.uleb128 0xe
 2821 010b 3A       		.uleb128 0x3a
 2822 010c 0B       		.uleb128 0xb
 2823 010d 3B       		.uleb128 0x3b
 2824 010e 05       		.uleb128 0x5
 2825 010f 27       		.uleb128 0x27
 2826 0110 19       		.uleb128 0x19
 2827 0111 49       		.uleb128 0x49
 2828 0112 13       		.uleb128 0x13
 2829 0113 11       		.uleb128 0x11
 2830 0114 01       		.uleb128 0x1
 2831 0115 12       		.uleb128 0x12
 2832 0116 06       		.uleb128 0x6
 2833 0117 40       		.uleb128 0x40
 2834 0118 18       		.uleb128 0x18
 2835 0119 9742     		.uleb128 0x2117
 2836 011b 19       		.uleb128 0x19
 2837 011c 00       		.byte	0
 2838 011d 00       		.byte	0
 2839 011e 13       		.uleb128 0x13
 2840 011f 2E       		.uleb128 0x2e
 2841 0120 00       		.byte	0
 2842 0121 3F       		.uleb128 0x3f
 2843 0122 19       		.uleb128 0x19
 2844 0123 03       		.uleb128 0x3
 2845 0124 0E       		.uleb128 0xe
 2846 0125 3A       		.uleb128 0x3a
 2847 0126 0B       		.uleb128 0xb
ARM GAS  C:\Users\Ala\AppData\Local\Temp\cc5WTHKW.s 			page 80


 2848 0127 3B       		.uleb128 0x3b
 2849 0128 05       		.uleb128 0x5
 2850 0129 27       		.uleb128 0x27
 2851 012a 19       		.uleb128 0x19
 2852 012b 49       		.uleb128 0x49
 2853 012c 13       		.uleb128 0x13
 2854 012d 20       		.uleb128 0x20
 2855 012e 0B       		.uleb128 0xb
 2856 012f 00       		.byte	0
 2857 0130 00       		.byte	0
 2858 0131 14       		.uleb128 0x14
 2859 0132 2E       		.uleb128 0x2e
 2860 0133 00       		.byte	0
 2861 0134 31       		.uleb128 0x31
 2862 0135 13       		.uleb128 0x13
 2863 0136 11       		.uleb128 0x11
 2864 0137 01       		.uleb128 0x1
 2865 0138 12       		.uleb128 0x12
 2866 0139 06       		.uleb128 0x6
 2867 013a 40       		.uleb128 0x40
 2868 013b 18       		.uleb128 0x18
 2869 013c 9742     		.uleb128 0x2117
 2870 013e 19       		.uleb128 0x19
 2871 013f 00       		.byte	0
 2872 0140 00       		.byte	0
 2873 0141 15       		.uleb128 0x15
 2874 0142 05       		.uleb128 0x5
 2875 0143 00       		.byte	0
 2876 0144 31       		.uleb128 0x31
 2877 0145 13       		.uleb128 0x13
 2878 0146 02       		.uleb128 0x2
 2879 0147 18       		.uleb128 0x18
 2880 0148 00       		.byte	0
 2881 0149 00       		.byte	0
 2882 014a 16       		.uleb128 0x16
 2883 014b 05       		.uleb128 0x5
 2884 014c 00       		.byte	0
 2885 014d 03       		.uleb128 0x3
 2886 014e 0E       		.uleb128 0xe
 2887 014f 3A       		.uleb128 0x3a
 2888 0150 0B       		.uleb128 0xb
 2889 0151 3B       		.uleb128 0x3b
 2890 0152 05       		.uleb128 0x5
 2891 0153 49       		.uleb128 0x49
 2892 0154 13       		.uleb128 0x13
 2893 0155 02       		.uleb128 0x2
 2894 0156 18       		.uleb128 0x18
 2895 0157 00       		.byte	0
 2896 0158 00       		.byte	0
 2897 0159 17       		.uleb128 0x17
 2898 015a 34       		.uleb128 0x34
 2899 015b 00       		.byte	0
 2900 015c 03       		.uleb128 0x3
 2901 015d 0E       		.uleb128 0xe
 2902 015e 3A       		.uleb128 0x3a
 2903 015f 0B       		.uleb128 0xb
 2904 0160 3B       		.uleb128 0x3b
ARM GAS  C:\Users\Ala\AppData\Local\Temp\cc5WTHKW.s 			page 81


 2905 0161 0B       		.uleb128 0xb
 2906 0162 49       		.uleb128 0x49
 2907 0163 13       		.uleb128 0x13
 2908 0164 3F       		.uleb128 0x3f
 2909 0165 19       		.uleb128 0x19
 2910 0166 02       		.uleb128 0x2
 2911 0167 18       		.uleb128 0x18
 2912 0168 00       		.byte	0
 2913 0169 00       		.byte	0
 2914 016a 18       		.uleb128 0x18
 2915 016b 2E       		.uleb128 0x2e
 2916 016c 00       		.byte	0
 2917 016d 3F       		.uleb128 0x3f
 2918 016e 19       		.uleb128 0x19
 2919 016f 3C       		.uleb128 0x3c
 2920 0170 19       		.uleb128 0x19
 2921 0171 6E       		.uleb128 0x6e
 2922 0172 0E       		.uleb128 0xe
 2923 0173 03       		.uleb128 0x3
 2924 0174 0E       		.uleb128 0xe
 2925 0175 3A       		.uleb128 0x3a
 2926 0176 0B       		.uleb128 0xb
 2927 0177 3B       		.uleb128 0x3b
 2928 0178 0B       		.uleb128 0xb
 2929 0179 00       		.byte	0
 2930 017a 00       		.byte	0
 2931 017b 00       		.byte	0
 2932              		.section	.debug_loc,"",%progbits
 2933              	.Ldebug_loc0:
 2934              	.LLST0:
 2935 0000 10000000 		.4byte	.LVL0
 2936 0004 18000000 		.4byte	.LVL1
 2937 0008 0200     		.2byte	0x2
 2938 000a 31       		.byte	0x31
 2939 000b 9F       		.byte	0x9f
 2940 000c 00000000 		.4byte	0
 2941 0010 00000000 		.4byte	0
 2942              	.LLST1:
 2943 0014 18000000 		.4byte	.LVL1
 2944 0018 1E000000 		.4byte	.LVL2
 2945 001c 0300     		.2byte	0x3
 2946 001e 08       		.byte	0x8
 2947 001f C8       		.byte	0xc8
 2948 0020 9F       		.byte	0x9f
 2949 0021 00000000 		.4byte	0
 2950 0025 00000000 		.4byte	0
 2951              	.LLST2:
 2952 0029 1E000000 		.4byte	.LVL2
 2953 002d 24000000 		.4byte	.LVL3
 2954 0031 0200     		.2byte	0x2
 2955 0033 30       		.byte	0x30
 2956 0034 9F       		.byte	0x9f
 2957 0035 00000000 		.4byte	0
 2958 0039 00000000 		.4byte	0
 2959              	.LLST3:
 2960 003d 06000000 		.4byte	.LVL4
 2961 0041 13000000 		.4byte	.LVL5-1
ARM GAS  C:\Users\Ala\AppData\Local\Temp\cc5WTHKW.s 			page 82


 2962 0045 0100     		.2byte	0x1
 2963 0047 50       		.byte	0x50
 2964 0048 00000000 		.4byte	0
 2965 004c 00000000 		.4byte	0
 2966              	.LLST4:
 2967 0050 06000000 		.4byte	.LVL8
 2968 0054 13000000 		.4byte	.LVL9-1
 2969 0058 0100     		.2byte	0x1
 2970 005a 50       		.byte	0x50
 2971 005b 00000000 		.4byte	0
 2972 005f 00000000 		.4byte	0
 2973              	.LLST5:
 2974 0063 00000000 		.4byte	.LVL10
 2975 0067 07000000 		.4byte	.LVL11-1
 2976 006b 0100     		.2byte	0x1
 2977 006d 50       		.byte	0x50
 2978 006e 07000000 		.4byte	.LVL11-1
 2979 0072 16000000 		.4byte	.LVL12
 2980 0076 0100     		.2byte	0x1
 2981 0078 54       		.byte	0x54
 2982 0079 16000000 		.4byte	.LVL12
 2983 007d 28000000 		.4byte	.LFE4
 2984 0081 0400     		.2byte	0x4
 2985 0083 F3       		.byte	0xf3
 2986 0084 01       		.uleb128 0x1
 2987 0085 50       		.byte	0x50
 2988 0086 9F       		.byte	0x9f
 2989 0087 00000000 		.4byte	0
 2990 008b 00000000 		.4byte	0
 2991              	.LLST6:
 2992 008f 08000000 		.4byte	.LVL11
 2993 0093 1B000000 		.4byte	.LVL13-1
 2994 0097 0100     		.2byte	0x1
 2995 0099 50       		.byte	0x50
 2996 009a 00000000 		.4byte	0
 2997 009e 00000000 		.4byte	0
 2998              	.LLST7:
 2999 00a2 00000000 		.4byte	.LVL14
 3000 00a6 07000000 		.4byte	.LVL15-1
 3001 00aa 0100     		.2byte	0x1
 3002 00ac 50       		.byte	0x50
 3003 00ad 07000000 		.4byte	.LVL15-1
 3004 00b1 16000000 		.4byte	.LVL16
 3005 00b5 0100     		.2byte	0x1
 3006 00b7 54       		.byte	0x54
 3007 00b8 16000000 		.4byte	.LVL16
 3008 00bc 28000000 		.4byte	.LFE5
 3009 00c0 0400     		.2byte	0x4
 3010 00c2 F3       		.byte	0xf3
 3011 00c3 01       		.uleb128 0x1
 3012 00c4 50       		.byte	0x50
 3013 00c5 9F       		.byte	0x9f
 3014 00c6 00000000 		.4byte	0
 3015 00ca 00000000 		.4byte	0
 3016              	.LLST8:
 3017 00ce 08000000 		.4byte	.LVL15
 3018 00d2 1B000000 		.4byte	.LVL17-1
ARM GAS  C:\Users\Ala\AppData\Local\Temp\cc5WTHKW.s 			page 83


 3019 00d6 0100     		.2byte	0x1
 3020 00d8 50       		.byte	0x50
 3021 00d9 00000000 		.4byte	0
 3022 00dd 00000000 		.4byte	0
 3023              	.LLST9:
 3024 00e1 00000000 		.4byte	.LVL18
 3025 00e5 07000000 		.4byte	.LVL19-1
 3026 00e9 0100     		.2byte	0x1
 3027 00eb 50       		.byte	0x50
 3028 00ec 07000000 		.4byte	.LVL19-1
 3029 00f0 16000000 		.4byte	.LVL20
 3030 00f4 0100     		.2byte	0x1
 3031 00f6 54       		.byte	0x54
 3032 00f7 16000000 		.4byte	.LVL20
 3033 00fb 28000000 		.4byte	.LFE6
 3034 00ff 0400     		.2byte	0x4
 3035 0101 F3       		.byte	0xf3
 3036 0102 01       		.uleb128 0x1
 3037 0103 50       		.byte	0x50
 3038 0104 9F       		.byte	0x9f
 3039 0105 00000000 		.4byte	0
 3040 0109 00000000 		.4byte	0
 3041              	.LLST10:
 3042 010d 08000000 		.4byte	.LVL19
 3043 0111 1B000000 		.4byte	.LVL21-1
 3044 0115 0100     		.2byte	0x1
 3045 0117 50       		.byte	0x50
 3046 0118 00000000 		.4byte	0
 3047 011c 00000000 		.4byte	0
 3048              	.LLST11:
 3049 0120 00000000 		.4byte	.LVL22
 3050 0124 07000000 		.4byte	.LVL23-1
 3051 0128 0100     		.2byte	0x1
 3052 012a 50       		.byte	0x50
 3053 012b 07000000 		.4byte	.LVL23-1
 3054 012f 16000000 		.4byte	.LVL24
 3055 0133 0100     		.2byte	0x1
 3056 0135 54       		.byte	0x54
 3057 0136 16000000 		.4byte	.LVL24
 3058 013a 30000000 		.4byte	.LFE7
 3059 013e 0400     		.2byte	0x4
 3060 0140 F3       		.byte	0xf3
 3061 0141 01       		.uleb128 0x1
 3062 0142 50       		.byte	0x50
 3063 0143 9F       		.byte	0x9f
 3064 0144 00000000 		.4byte	0
 3065 0148 00000000 		.4byte	0
 3066              	.LLST12:
 3067 014c 08000000 		.4byte	.LVL23
 3068 0150 23000000 		.4byte	.LVL25-1
 3069 0154 0100     		.2byte	0x1
 3070 0156 50       		.byte	0x50
 3071 0157 00000000 		.4byte	0
 3072 015b 00000000 		.4byte	0
 3073              	.LLST13:
 3074 015f 00000000 		.4byte	.LVL26
 3075 0163 04000000 		.4byte	.LVL27
ARM GAS  C:\Users\Ala\AppData\Local\Temp\cc5WTHKW.s 			page 84


 3076 0167 0100     		.2byte	0x1
 3077 0169 50       		.byte	0x50
 3078 016a 04000000 		.4byte	.LVL27
 3079 016e 10000000 		.4byte	.LFE8
 3080 0172 0400     		.2byte	0x4
 3081 0174 F3       		.byte	0xf3
 3082 0175 01       		.uleb128 0x1
 3083 0176 50       		.byte	0x50
 3084 0177 9F       		.byte	0x9f
 3085 0178 00000000 		.4byte	0
 3086 017c 00000000 		.4byte	0
 3087              	.LLST14:
 3088 0180 00000000 		.4byte	.LVL28
 3089 0184 07000000 		.4byte	.LVL29-1
 3090 0188 0100     		.2byte	0x1
 3091 018a 50       		.byte	0x50
 3092 018b 07000000 		.4byte	.LVL29-1
 3093 018f 0E000000 		.4byte	.LVL30
 3094 0193 0100     		.2byte	0x1
 3095 0195 54       		.byte	0x54
 3096 0196 0E000000 		.4byte	.LVL30
 3097 019a 28000000 		.4byte	.LFE9
 3098 019e 0400     		.2byte	0x4
 3099 01a0 F3       		.byte	0xf3
 3100 01a1 01       		.uleb128 0x1
 3101 01a2 50       		.byte	0x50
 3102 01a3 9F       		.byte	0x9f
 3103 01a4 00000000 		.4byte	0
 3104 01a8 00000000 		.4byte	0
 3105              	.LLST15:
 3106 01ac 08000000 		.4byte	.LVL29
 3107 01b0 1F000000 		.4byte	.LVL31-1
 3108 01b4 0100     		.2byte	0x1
 3109 01b6 50       		.byte	0x50
 3110 01b7 00000000 		.4byte	0
 3111 01bb 00000000 		.4byte	0
 3112              	.LLST16:
 3113 01bf 00000000 		.4byte	.LVL32
 3114 01c3 07000000 		.4byte	.LVL33-1
 3115 01c7 0100     		.2byte	0x1
 3116 01c9 50       		.byte	0x50
 3117 01ca 07000000 		.4byte	.LVL33-1
 3118 01ce 0E000000 		.4byte	.LVL34
 3119 01d2 0100     		.2byte	0x1
 3120 01d4 54       		.byte	0x54
 3121 01d5 0E000000 		.4byte	.LVL34
 3122 01d9 28000000 		.4byte	.LFE10
 3123 01dd 0400     		.2byte	0x4
 3124 01df F3       		.byte	0xf3
 3125 01e0 01       		.uleb128 0x1
 3126 01e1 50       		.byte	0x50
 3127 01e2 9F       		.byte	0x9f
 3128 01e3 00000000 		.4byte	0
 3129 01e7 00000000 		.4byte	0
 3130              	.LLST17:
 3131 01eb 08000000 		.4byte	.LVL33
 3132 01ef 1F000000 		.4byte	.LVL35-1
ARM GAS  C:\Users\Ala\AppData\Local\Temp\cc5WTHKW.s 			page 85


 3133 01f3 0100     		.2byte	0x1
 3134 01f5 50       		.byte	0x50
 3135 01f6 00000000 		.4byte	0
 3136 01fa 00000000 		.4byte	0
 3137              	.LLST18:
 3138 01fe 00000000 		.4byte	.LVL36
 3139 0202 07000000 		.4byte	.LVL37-1
 3140 0206 0100     		.2byte	0x1
 3141 0208 50       		.byte	0x50
 3142 0209 07000000 		.4byte	.LVL37-1
 3143 020d 10000000 		.4byte	.LVL38
 3144 0211 0100     		.2byte	0x1
 3145 0213 54       		.byte	0x54
 3146 0214 10000000 		.4byte	.LVL38
 3147 0218 2C000000 		.4byte	.LFE11
 3148 021c 0400     		.2byte	0x4
 3149 021e F3       		.byte	0xf3
 3150 021f 01       		.uleb128 0x1
 3151 0220 50       		.byte	0x50
 3152 0221 9F       		.byte	0x9f
 3153 0222 00000000 		.4byte	0
 3154 0226 00000000 		.4byte	0
 3155              	.LLST19:
 3156 022a 08000000 		.4byte	.LVL37
 3157 022e 1F000000 		.4byte	.LVL39-1
 3158 0232 0100     		.2byte	0x1
 3159 0234 50       		.byte	0x50
 3160 0235 00000000 		.4byte	0
 3161 0239 00000000 		.4byte	0
 3162              	.LLST20:
 3163 023d 00000000 		.4byte	.LVL40
 3164 0241 07000000 		.4byte	.LVL41-1
 3165 0245 0100     		.2byte	0x1
 3166 0247 50       		.byte	0x50
 3167 0248 07000000 		.4byte	.LVL41-1
 3168 024c 16000000 		.4byte	.LVL42
 3169 0250 0100     		.2byte	0x1
 3170 0252 54       		.byte	0x54
 3171 0253 16000000 		.4byte	.LVL42
 3172 0257 28000000 		.4byte	.LFE12
 3173 025b 0400     		.2byte	0x4
 3174 025d F3       		.byte	0xf3
 3175 025e 01       		.uleb128 0x1
 3176 025f 50       		.byte	0x50
 3177 0260 9F       		.byte	0x9f
 3178 0261 00000000 		.4byte	0
 3179 0265 00000000 		.4byte	0
 3180              	.LLST21:
 3181 0269 08000000 		.4byte	.LVL41
 3182 026d 1B000000 		.4byte	.LVL43-1
 3183 0271 0100     		.2byte	0x1
 3184 0273 50       		.byte	0x50
 3185 0274 00000000 		.4byte	0
 3186 0278 00000000 		.4byte	0
 3187              	.LLST22:
 3188 027c 00000000 		.4byte	.LVL44
 3189 0280 04000000 		.4byte	.LVL45
ARM GAS  C:\Users\Ala\AppData\Local\Temp\cc5WTHKW.s 			page 86


 3190 0284 0100     		.2byte	0x1
 3191 0286 50       		.byte	0x50
 3192 0287 04000000 		.4byte	.LVL45
 3193 028b 0C000000 		.4byte	.LFE13
 3194 028f 0400     		.2byte	0x4
 3195 0291 F3       		.byte	0xf3
 3196 0292 01       		.uleb128 0x1
 3197 0293 50       		.byte	0x50
 3198 0294 9F       		.byte	0x9f
 3199 0295 00000000 		.4byte	0
 3200 0299 00000000 		.4byte	0
 3201              	.LLST23:
 3202 029d 00000000 		.4byte	.LVL46
 3203 02a1 07000000 		.4byte	.LVL47-1
 3204 02a5 0100     		.2byte	0x1
 3205 02a7 50       		.byte	0x50
 3206 02a8 07000000 		.4byte	.LVL47-1
 3207 02ac 16000000 		.4byte	.LVL48
 3208 02b0 0100     		.2byte	0x1
 3209 02b2 54       		.byte	0x54
 3210 02b3 16000000 		.4byte	.LVL48
 3211 02b7 28000000 		.4byte	.LFE15
 3212 02bb 0400     		.2byte	0x4
 3213 02bd F3       		.byte	0xf3
 3214 02be 01       		.uleb128 0x1
 3215 02bf 50       		.byte	0x50
 3216 02c0 9F       		.byte	0x9f
 3217 02c1 00000000 		.4byte	0
 3218 02c5 00000000 		.4byte	0
 3219              	.LLST24:
 3220 02c9 08000000 		.4byte	.LVL47
 3221 02cd 1B000000 		.4byte	.LVL49-1
 3222 02d1 0100     		.2byte	0x1
 3223 02d3 50       		.byte	0x50
 3224 02d4 00000000 		.4byte	0
 3225 02d8 00000000 		.4byte	0
 3226              	.LLST25:
 3227 02dc 00000000 		.4byte	.LVL50
 3228 02e0 04000000 		.4byte	.LVL51
 3229 02e4 0100     		.2byte	0x1
 3230 02e6 50       		.byte	0x50
 3231 02e7 04000000 		.4byte	.LVL51
 3232 02eb 0C000000 		.4byte	.LFE16
 3233 02ef 0400     		.2byte	0x4
 3234 02f1 F3       		.byte	0xf3
 3235 02f2 01       		.uleb128 0x1
 3236 02f3 50       		.byte	0x50
 3237 02f4 9F       		.byte	0x9f
 3238 02f5 00000000 		.4byte	0
 3239 02f9 00000000 		.4byte	0
 3240              	.LLST26:
 3241 02fd 00000000 		.4byte	.LVL52
 3242 0301 07000000 		.4byte	.LVL53-1
 3243 0305 0100     		.2byte	0x1
 3244 0307 50       		.byte	0x50
 3245 0308 07000000 		.4byte	.LVL53-1
 3246 030c 1E000000 		.4byte	.LVL55
ARM GAS  C:\Users\Ala\AppData\Local\Temp\cc5WTHKW.s 			page 87


 3247 0310 0100     		.2byte	0x1
 3248 0312 54       		.byte	0x54
 3249 0313 1E000000 		.4byte	.LVL55
 3250 0317 24000000 		.4byte	.LFE18
 3251 031b 0400     		.2byte	0x4
 3252 031d F3       		.byte	0xf3
 3253 031e 01       		.uleb128 0x1
 3254 031f 50       		.byte	0x50
 3255 0320 9F       		.byte	0x9f
 3256 0321 00000000 		.4byte	0
 3257 0325 00000000 		.4byte	0
 3258              	.LLST27:
 3259 0329 08000000 		.4byte	.LVL53
 3260 032d 1D000000 		.4byte	.LVL54-1
 3261 0331 0100     		.2byte	0x1
 3262 0333 50       		.byte	0x50
 3263 0334 00000000 		.4byte	0
 3264 0338 00000000 		.4byte	0
 3265              	.LLST28:
 3266 033c 00000000 		.4byte	.LVL56
 3267 0340 04000000 		.4byte	.LVL57
 3268 0344 0100     		.2byte	0x1
 3269 0346 50       		.byte	0x50
 3270 0347 04000000 		.4byte	.LVL57
 3271 034b 0C000000 		.4byte	.LFE19
 3272 034f 0400     		.2byte	0x4
 3273 0351 F3       		.byte	0xf3
 3274 0352 01       		.uleb128 0x1
 3275 0353 50       		.byte	0x50
 3276 0354 9F       		.byte	0x9f
 3277 0355 00000000 		.4byte	0
 3278 0359 00000000 		.4byte	0
 3279              	.LLST29:
 3280 035d 00000000 		.4byte	.LVL58
 3281 0361 07000000 		.4byte	.LVL59-1
 3282 0365 0100     		.2byte	0x1
 3283 0367 50       		.byte	0x50
 3284 0368 07000000 		.4byte	.LVL59-1
 3285 036c 0E000000 		.4byte	.LVL60
 3286 0370 0100     		.2byte	0x1
 3287 0372 54       		.byte	0x54
 3288 0373 0E000000 		.4byte	.LVL60
 3289 0377 28000000 		.4byte	.LFE21
 3290 037b 0400     		.2byte	0x4
 3291 037d F3       		.byte	0xf3
 3292 037e 01       		.uleb128 0x1
 3293 037f 50       		.byte	0x50
 3294 0380 9F       		.byte	0x9f
 3295 0381 00000000 		.4byte	0
 3296 0385 00000000 		.4byte	0
 3297              	.LLST30:
 3298 0389 08000000 		.4byte	.LVL59
 3299 038d 1F000000 		.4byte	.LVL61-1
 3300 0391 0100     		.2byte	0x1
 3301 0393 50       		.byte	0x50
 3302 0394 00000000 		.4byte	0
 3303 0398 00000000 		.4byte	0
ARM GAS  C:\Users\Ala\AppData\Local\Temp\cc5WTHKW.s 			page 88


 3304              	.LLST31:
 3305 039c 00000000 		.4byte	.LVL62
 3306 03a0 04000000 		.4byte	.LVL63
 3307 03a4 0100     		.2byte	0x1
 3308 03a6 50       		.byte	0x50
 3309 03a7 04000000 		.4byte	.LVL63
 3310 03ab 0C000000 		.4byte	.LFE22
 3311 03af 0400     		.2byte	0x4
 3312 03b1 F3       		.byte	0xf3
 3313 03b2 01       		.uleb128 0x1
 3314 03b3 50       		.byte	0x50
 3315 03b4 9F       		.byte	0x9f
 3316 03b5 00000000 		.4byte	0
 3317 03b9 00000000 		.4byte	0
 3318              	.LLST32:
 3319 03bd 00000000 		.4byte	.LVL64
 3320 03c1 04000000 		.4byte	.LVL65
 3321 03c5 0100     		.2byte	0x1
 3322 03c7 50       		.byte	0x50
 3323 03c8 04000000 		.4byte	.LVL65
 3324 03cc 0C000000 		.4byte	.LFE24
 3325 03d0 0400     		.2byte	0x4
 3326 03d2 F3       		.byte	0xf3
 3327 03d3 01       		.uleb128 0x1
 3328 03d4 50       		.byte	0x50
 3329 03d5 9F       		.byte	0x9f
 3330 03d6 00000000 		.4byte	0
 3331 03da 00000000 		.4byte	0
 3332              	.LLST33:
 3333 03de 00000000 		.4byte	.LVL66
 3334 03e2 07000000 		.4byte	.LVL67-1
 3335 03e6 0100     		.2byte	0x1
 3336 03e8 50       		.byte	0x50
 3337 03e9 07000000 		.4byte	.LVL67-1
 3338 03ed 16000000 		.4byte	.LVL68
 3339 03f1 0100     		.2byte	0x1
 3340 03f3 54       		.byte	0x54
 3341 03f4 16000000 		.4byte	.LVL68
 3342 03f8 24000000 		.4byte	.LFE28
 3343 03fc 0400     		.2byte	0x4
 3344 03fe F3       		.byte	0xf3
 3345 03ff 01       		.uleb128 0x1
 3346 0400 50       		.byte	0x50
 3347 0401 9F       		.byte	0x9f
 3348 0402 00000000 		.4byte	0
 3349 0406 00000000 		.4byte	0
 3350              	.LLST34:
 3351 040a 08000000 		.4byte	.LVL67
 3352 040e 1B000000 		.4byte	.LVL69-1
 3353 0412 0100     		.2byte	0x1
 3354 0414 50       		.byte	0x50
 3355 0415 00000000 		.4byte	0
 3356 0419 00000000 		.4byte	0
 3357              	.LLST35:
 3358 041d 00000000 		.4byte	.LVL70
 3359 0421 07000000 		.4byte	.LVL71-1
 3360 0425 0100     		.2byte	0x1
ARM GAS  C:\Users\Ala\AppData\Local\Temp\cc5WTHKW.s 			page 89


 3361 0427 50       		.byte	0x50
 3362 0428 07000000 		.4byte	.LVL71-1
 3363 042c 1E000000 		.4byte	.LVL73
 3364 0430 0100     		.2byte	0x1
 3365 0432 54       		.byte	0x54
 3366 0433 1E000000 		.4byte	.LVL73
 3367 0437 24000000 		.4byte	.LFE29
 3368 043b 0400     		.2byte	0x4
 3369 043d F3       		.byte	0xf3
 3370 043e 01       		.uleb128 0x1
 3371 043f 50       		.byte	0x50
 3372 0440 9F       		.byte	0x9f
 3373 0441 00000000 		.4byte	0
 3374 0445 00000000 		.4byte	0
 3375              	.LLST36:
 3376 0449 08000000 		.4byte	.LVL71
 3377 044d 1D000000 		.4byte	.LVL72-1
 3378 0451 0100     		.2byte	0x1
 3379 0453 50       		.byte	0x50
 3380 0454 00000000 		.4byte	0
 3381 0458 00000000 		.4byte	0
 3382              	.LLST37:
 3383 045c 00000000 		.4byte	.LVL74
 3384 0460 07000000 		.4byte	.LVL75-1
 3385 0464 0100     		.2byte	0x1
 3386 0466 50       		.byte	0x50
 3387 0467 07000000 		.4byte	.LVL75-1
 3388 046b 1E000000 		.4byte	.LVL77
 3389 046f 0100     		.2byte	0x1
 3390 0471 54       		.byte	0x54
 3391 0472 1E000000 		.4byte	.LVL77
 3392 0476 28000000 		.4byte	.LFE30
 3393 047a 0400     		.2byte	0x4
 3394 047c F3       		.byte	0xf3
 3395 047d 01       		.uleb128 0x1
 3396 047e 50       		.byte	0x50
 3397 047f 9F       		.byte	0x9f
 3398 0480 00000000 		.4byte	0
 3399 0484 00000000 		.4byte	0
 3400              	.LLST38:
 3401 0488 08000000 		.4byte	.LVL75
 3402 048c 1D000000 		.4byte	.LVL76-1
 3403 0490 0100     		.2byte	0x1
 3404 0492 50       		.byte	0x50
 3405 0493 00000000 		.4byte	0
 3406 0497 00000000 		.4byte	0
 3407              	.LLST39:
 3408 049b 00000000 		.4byte	.LVL78
 3409 049f 07000000 		.4byte	.LVL79-1
 3410 04a3 0100     		.2byte	0x1
 3411 04a5 50       		.byte	0x50
 3412 04a6 07000000 		.4byte	.LVL79-1
 3413 04aa 1E000000 		.4byte	.LVL81
 3414 04ae 0100     		.2byte	0x1
 3415 04b0 54       		.byte	0x54
 3416 04b1 1E000000 		.4byte	.LVL81
 3417 04b5 24000000 		.4byte	.LFE31
ARM GAS  C:\Users\Ala\AppData\Local\Temp\cc5WTHKW.s 			page 90


 3418 04b9 0400     		.2byte	0x4
 3419 04bb F3       		.byte	0xf3
 3420 04bc 01       		.uleb128 0x1
 3421 04bd 50       		.byte	0x50
 3422 04be 9F       		.byte	0x9f
 3423 04bf 00000000 		.4byte	0
 3424 04c3 00000000 		.4byte	0
 3425              	.LLST40:
 3426 04c7 08000000 		.4byte	.LVL79
 3427 04cb 1D000000 		.4byte	.LVL80-1
 3428 04cf 0100     		.2byte	0x1
 3429 04d1 50       		.byte	0x50
 3430 04d2 00000000 		.4byte	0
 3431 04d6 00000000 		.4byte	0
 3432              	.LLST41:
 3433 04da 00000000 		.4byte	.LVL82
 3434 04de 07000000 		.4byte	.LVL83-1
 3435 04e2 0100     		.2byte	0x1
 3436 04e4 50       		.byte	0x50
 3437 04e5 07000000 		.4byte	.LVL83-1
 3438 04e9 1E000000 		.4byte	.LVL85
 3439 04ed 0100     		.2byte	0x1
 3440 04ef 54       		.byte	0x54
 3441 04f0 1E000000 		.4byte	.LVL85
 3442 04f4 24000000 		.4byte	.LFE32
 3443 04f8 0400     		.2byte	0x4
 3444 04fa F3       		.byte	0xf3
 3445 04fb 01       		.uleb128 0x1
 3446 04fc 50       		.byte	0x50
 3447 04fd 9F       		.byte	0x9f
 3448 04fe 00000000 		.4byte	0
 3449 0502 00000000 		.4byte	0
 3450              	.LLST42:
 3451 0506 08000000 		.4byte	.LVL83
 3452 050a 1D000000 		.4byte	.LVL84-1
 3453 050e 0100     		.2byte	0x1
 3454 0510 50       		.byte	0x50
 3455 0511 00000000 		.4byte	0
 3456 0515 00000000 		.4byte	0
 3457              	.LLST43:
 3458 0519 00000000 		.4byte	.LVL86
 3459 051d 0B000000 		.4byte	.LVL87-1
 3460 0521 0100     		.2byte	0x1
 3461 0523 50       		.byte	0x50
 3462 0524 0B000000 		.4byte	.LVL87-1
 3463 0528 1C000000 		.4byte	.LFE33
 3464 052c 0400     		.2byte	0x4
 3465 052e F3       		.byte	0xf3
 3466 052f 01       		.uleb128 0x1
 3467 0530 50       		.byte	0x50
 3468 0531 9F       		.byte	0x9f
 3469 0532 00000000 		.4byte	0
 3470 0536 00000000 		.4byte	0
 3471              	.LLST44:
 3472 053a 00000000 		.4byte	.LVL86
 3473 053e 0B000000 		.4byte	.LVL87-1
 3474 0542 0100     		.2byte	0x1
ARM GAS  C:\Users\Ala\AppData\Local\Temp\cc5WTHKW.s 			page 91


 3475 0544 51       		.byte	0x51
 3476 0545 0B000000 		.4byte	.LVL87-1
 3477 0549 14000000 		.4byte	.LVL89
 3478 054d 0100     		.2byte	0x1
 3479 054f 55       		.byte	0x55
 3480 0550 14000000 		.4byte	.LVL89
 3481 0554 1C000000 		.4byte	.LFE33
 3482 0558 0400     		.2byte	0x4
 3483 055a F3       		.byte	0xf3
 3484 055b 01       		.uleb128 0x1
 3485 055c 51       		.byte	0x51
 3486 055d 9F       		.byte	0x9f
 3487 055e 00000000 		.4byte	0
 3488 0562 00000000 		.4byte	0
 3489              	.LLST45:
 3490 0566 0C000000 		.4byte	.LVL87
 3491 056a 13000000 		.4byte	.LVL88-1
 3492 056e 0100     		.2byte	0x1
 3493 0570 50       		.byte	0x50
 3494 0571 00000000 		.4byte	0
 3495 0575 00000000 		.4byte	0
 3496              		.section	.debug_aranges,"",%progbits
 3497 0000 44010000 		.4byte	0x144
 3498 0004 0200     		.2byte	0x2
 3499 0006 00000000 		.4byte	.Ldebug_info0
 3500 000a 04       		.byte	0x4
 3501 000b 00       		.byte	0
 3502 000c 0000     		.2byte	0
 3503 000e 0000     		.2byte	0
 3504 0010 00000000 		.4byte	.LFB0
 3505 0014 3C000000 		.4byte	.LFE0-.LFB0
 3506 0018 00000000 		.4byte	.LFB1
 3507 001c 1C000000 		.4byte	.LFE1-.LFB1
 3508 0020 00000000 		.4byte	.LFB2
 3509 0024 1C000000 		.4byte	.LFE2-.LFB2
 3510 0028 00000000 		.4byte	.LFB3
 3511 002c 1C000000 		.4byte	.LFE3-.LFB3
 3512 0030 00000000 		.4byte	.LFB4
 3513 0034 28000000 		.4byte	.LFE4-.LFB4
 3514 0038 00000000 		.4byte	.LFB5
 3515 003c 28000000 		.4byte	.LFE5-.LFB5
 3516 0040 00000000 		.4byte	.LFB6
 3517 0044 28000000 		.4byte	.LFE6-.LFB6
 3518 0048 00000000 		.4byte	.LFB7
 3519 004c 30000000 		.4byte	.LFE7-.LFB7
 3520 0050 00000000 		.4byte	.LFB8
 3521 0054 10000000 		.4byte	.LFE8-.LFB8
 3522 0058 00000000 		.4byte	.LFB9
 3523 005c 28000000 		.4byte	.LFE9-.LFB9
 3524 0060 00000000 		.4byte	.LFB10
 3525 0064 28000000 		.4byte	.LFE10-.LFB10
 3526 0068 00000000 		.4byte	.LFB11
 3527 006c 2C000000 		.4byte	.LFE11-.LFB11
 3528 0070 00000000 		.4byte	.LFB12
 3529 0074 28000000 		.4byte	.LFE12-.LFB12
 3530 0078 00000000 		.4byte	.LFB13
 3531 007c 0C000000 		.4byte	.LFE13-.LFB13
ARM GAS  C:\Users\Ala\AppData\Local\Temp\cc5WTHKW.s 			page 92


 3532 0080 00000000 		.4byte	.LFB14
 3533 0084 0C000000 		.4byte	.LFE14-.LFB14
 3534 0088 00000000 		.4byte	.LFB15
 3535 008c 28000000 		.4byte	.LFE15-.LFB15
 3536 0090 00000000 		.4byte	.LFB16
 3537 0094 0C000000 		.4byte	.LFE16-.LFB16
 3538 0098 00000000 		.4byte	.LFB17
 3539 009c 0C000000 		.4byte	.LFE17-.LFB17
 3540 00a0 00000000 		.4byte	.LFB18
 3541 00a4 24000000 		.4byte	.LFE18-.LFB18
 3542 00a8 00000000 		.4byte	.LFB19
 3543 00ac 0C000000 		.4byte	.LFE19-.LFB19
 3544 00b0 00000000 		.4byte	.LFB20
 3545 00b4 0C000000 		.4byte	.LFE20-.LFB20
 3546 00b8 00000000 		.4byte	.LFB21
 3547 00bc 28000000 		.4byte	.LFE21-.LFB21
 3548 00c0 00000000 		.4byte	.LFB22
 3549 00c4 0C000000 		.4byte	.LFE22-.LFB22
 3550 00c8 00000000 		.4byte	.LFB24
 3551 00cc 0C000000 		.4byte	.LFE24-.LFB24
 3552 00d0 00000000 		.4byte	.LFB26
 3553 00d4 0C000000 		.4byte	.LFE26-.LFB26
 3554 00d8 00000000 		.4byte	.LFB27
 3555 00dc 0C000000 		.4byte	.LFE27-.LFB27
 3556 00e0 00000000 		.4byte	.LFB28
 3557 00e4 24000000 		.4byte	.LFE28-.LFB28
 3558 00e8 00000000 		.4byte	.LFB29
 3559 00ec 24000000 		.4byte	.LFE29-.LFB29
 3560 00f0 00000000 		.4byte	.LFB30
 3561 00f4 28000000 		.4byte	.LFE30-.LFB30
 3562 00f8 00000000 		.4byte	.LFB31
 3563 00fc 24000000 		.4byte	.LFE31-.LFB31
 3564 0100 00000000 		.4byte	.LFB32
 3565 0104 24000000 		.4byte	.LFE32-.LFB32
 3566 0108 00000000 		.4byte	.LFB33
 3567 010c 1C000000 		.4byte	.LFE33-.LFB33
 3568 0110 00000000 		.4byte	.LFB34
 3569 0114 14000000 		.4byte	.LFE34-.LFB34
 3570 0118 00000000 		.4byte	.LFB35
 3571 011c 0C000000 		.4byte	.LFE35-.LFB35
 3572 0120 00000000 		.4byte	.LFB36
 3573 0124 0C000000 		.4byte	.LFE36-.LFB36
 3574 0128 00000000 		.4byte	.LFB37
 3575 012c 0C000000 		.4byte	.LFE37-.LFB37
 3576 0130 00000000 		.4byte	.LFB38
 3577 0134 0C000000 		.4byte	.LFE38-.LFB38
 3578 0138 00000000 		.4byte	.LFB39
 3579 013c 0C000000 		.4byte	.LFE39-.LFB39
 3580 0140 00000000 		.4byte	0
 3581 0144 00000000 		.4byte	0
 3582              		.section	.debug_ranges,"",%progbits
 3583              	.Ldebug_ranges0:
 3584 0000 1E000000 		.4byte	.LBB12
 3585 0004 22000000 		.4byte	.LBE12
 3586 0008 22000000 		.4byte	.LBB15
 3587 000c 24000000 		.4byte	.LBE15
 3588 0010 00000000 		.4byte	0
ARM GAS  C:\Users\Ala\AppData\Local\Temp\cc5WTHKW.s 			page 93


 3589 0014 00000000 		.4byte	0
 3590 0018 00000000 		.4byte	.LFB0
 3591 001c 3C000000 		.4byte	.LFE0
 3592 0020 00000000 		.4byte	.LFB1
 3593 0024 1C000000 		.4byte	.LFE1
 3594 0028 00000000 		.4byte	.LFB2
 3595 002c 1C000000 		.4byte	.LFE2
 3596 0030 00000000 		.4byte	.LFB3
 3597 0034 1C000000 		.4byte	.LFE3
 3598 0038 00000000 		.4byte	.LFB4
 3599 003c 28000000 		.4byte	.LFE4
 3600 0040 00000000 		.4byte	.LFB5
 3601 0044 28000000 		.4byte	.LFE5
 3602 0048 00000000 		.4byte	.LFB6
 3603 004c 28000000 		.4byte	.LFE6
 3604 0050 00000000 		.4byte	.LFB7
 3605 0054 30000000 		.4byte	.LFE7
 3606 0058 00000000 		.4byte	.LFB8
 3607 005c 10000000 		.4byte	.LFE8
 3608 0060 00000000 		.4byte	.LFB9
 3609 0064 28000000 		.4byte	.LFE9
 3610 0068 00000000 		.4byte	.LFB10
 3611 006c 28000000 		.4byte	.LFE10
 3612 0070 00000000 		.4byte	.LFB11
 3613 0074 2C000000 		.4byte	.LFE11
 3614 0078 00000000 		.4byte	.LFB12
 3615 007c 28000000 		.4byte	.LFE12
 3616 0080 00000000 		.4byte	.LFB13
 3617 0084 0C000000 		.4byte	.LFE13
 3618 0088 00000000 		.4byte	.LFB14
 3619 008c 0C000000 		.4byte	.LFE14
 3620 0090 00000000 		.4byte	.LFB15
 3621 0094 28000000 		.4byte	.LFE15
 3622 0098 00000000 		.4byte	.LFB16
 3623 009c 0C000000 		.4byte	.LFE16
 3624 00a0 00000000 		.4byte	.LFB17
 3625 00a4 0C000000 		.4byte	.LFE17
 3626 00a8 00000000 		.4byte	.LFB18
 3627 00ac 24000000 		.4byte	.LFE18
 3628 00b0 00000000 		.4byte	.LFB19
 3629 00b4 0C000000 		.4byte	.LFE19
 3630 00b8 00000000 		.4byte	.LFB20
 3631 00bc 0C000000 		.4byte	.LFE20
 3632 00c0 00000000 		.4byte	.LFB21
 3633 00c4 28000000 		.4byte	.LFE21
 3634 00c8 00000000 		.4byte	.LFB22
 3635 00cc 0C000000 		.4byte	.LFE22
 3636 00d0 00000000 		.4byte	.LFB24
 3637 00d4 0C000000 		.4byte	.LFE24
 3638 00d8 00000000 		.4byte	.LFB26
 3639 00dc 0C000000 		.4byte	.LFE26
 3640 00e0 00000000 		.4byte	.LFB27
 3641 00e4 0C000000 		.4byte	.LFE27
 3642 00e8 00000000 		.4byte	.LFB28
 3643 00ec 24000000 		.4byte	.LFE28
 3644 00f0 00000000 		.4byte	.LFB29
 3645 00f4 24000000 		.4byte	.LFE29
ARM GAS  C:\Users\Ala\AppData\Local\Temp\cc5WTHKW.s 			page 94


 3646 00f8 00000000 		.4byte	.LFB30
 3647 00fc 28000000 		.4byte	.LFE30
 3648 0100 00000000 		.4byte	.LFB31
 3649 0104 24000000 		.4byte	.LFE31
 3650 0108 00000000 		.4byte	.LFB32
 3651 010c 24000000 		.4byte	.LFE32
 3652 0110 00000000 		.4byte	.LFB33
 3653 0114 1C000000 		.4byte	.LFE33
 3654 0118 00000000 		.4byte	.LFB34
 3655 011c 14000000 		.4byte	.LFE34
 3656 0120 00000000 		.4byte	.LFB35
 3657 0124 0C000000 		.4byte	.LFE35
 3658 0128 00000000 		.4byte	.LFB36
 3659 012c 0C000000 		.4byte	.LFE36
 3660 0130 00000000 		.4byte	.LFB37
 3661 0134 0C000000 		.4byte	.LFE37
 3662 0138 00000000 		.4byte	.LFB38
 3663 013c 0C000000 		.4byte	.LFE38
 3664 0140 00000000 		.4byte	.LFB39
 3665 0144 0C000000 		.4byte	.LFE39
 3666 0148 00000000 		.4byte	0
 3667 014c 00000000 		.4byte	0
 3668              		.section	.debug_line,"",%progbits
 3669              	.Ldebug_line0:
 3670 0000 B5030000 		.section	.debug_str,"MS",%progbits,1
 3670      02004F00 
 3670      00000201 
 3670      FB0E0D00 
 3670      01010101 
 3671              	.LASF19:
 3672 0000 636F756E 		.ascii	"count\000"
 3672      7400
 3673              	.LASF76:
 3674 0006 43794578 		.ascii	"CyExitCriticalSection\000"
 3674      69744372 
 3674      69746963 
 3674      616C5365 
 3674      6374696F 
 3675              	.LASF49:
 3676 001c 54696D65 		.ascii	"Timer_2_ReadPeriod\000"
 3676      725F325F 
 3676      52656164 
 3676      50657269 
 3676      6F6400
 3677              	.LASF20:
 3678 002f 70657269 		.ascii	"period\000"
 3678      6F6400
 3679              	.LASF17:
 3680 0036 54696D65 		.ascii	"Timer_2_WriteCounter\000"
 3680      725F325F 
 3680      57726974 
 3680      65436F75 
 3680      6E746572 
 3681              	.LASF7:
 3682 004b 6C6F6E67 		.ascii	"long long unsigned int\000"
 3682      206C6F6E 
 3682      6720756E 
ARM GAS  C:\Users\Ala\AppData\Local\Temp\cc5WTHKW.s 			page 95


 3682      7369676E 
 3682      65642069 
 3683              	.LASF31:
 3684 0062 71644D6F 		.ascii	"qdMode\000"
 3684      646500
 3685              	.LASF50:
 3686 0069 54696D65 		.ascii	"Timer_2_SetCompareSwap\000"
 3686      725F325F 
 3686      53657443 
 3686      6F6D7061 
 3686      72655377 
 3687              	.LASF6:
 3688 0080 6C6F6E67 		.ascii	"long long int\000"
 3688      206C6F6E 
 3688      6720696E 
 3688      7400
 3689              	.LASF0:
 3690 008e 7369676E 		.ascii	"signed char\000"
 3690      65642063 
 3690      68617200 
 3691              	.LASF78:
 3692 009a 47656E65 		.ascii	"Generated_Source\\PSoC4\\Timer_2.c\000"
 3692      72617465 
 3692      645F536F 
 3692      75726365 
 3692      5C50536F 
 3693              	.LASF4:
 3694 00bb 6C6F6E67 		.ascii	"long int\000"
 3694      20696E74 
 3694      00
 3695              	.LASF38:
 3696 00c4 54696D65 		.ascii	"Timer_2_SetPWMSyncKill\000"
 3696      725F325F 
 3696      53657450 
 3696      574D5379 
 3696      6E634B69 
 3697              	.LASF9:
 3698 00db 75696E74 		.ascii	"uint8\000"
 3698      3800
 3699              	.LASF44:
 3700 00e1 54696D65 		.ascii	"Timer_2_SetPWMInvert\000"
 3700      725F325F 
 3700      53657450 
 3700      574D496E 
 3700      76657274 
 3701              	.LASF12:
 3702 00f6 646F7562 		.ascii	"double\000"
 3702      6C6500
 3703              	.LASF65:
 3704 00fd 54696D65 		.ascii	"Timer_2_SetStartMode\000"
 3704      725F325F 
 3704      53657453 
 3704      74617274 
 3704      4D6F6465 
 3705              	.LASF54:
 3706 0112 54696D65 		.ascii	"Timer_2_ReadPeriodBuf\000"
 3706      725F325F 
ARM GAS  C:\Users\Ala\AppData\Local\Temp\cc5WTHKW.s 			page 96


 3706      52656164 
 3706      50657269 
 3706      6F644275 
 3707              	.LASF10:
 3708 0128 75696E74 		.ascii	"uint32\000"
 3708      333200
 3709              	.LASF63:
 3710 012f 74726967 		.ascii	"triggerMode\000"
 3710      6765724D 
 3710      6F646500 
 3711              	.LASF45:
 3712 013b 6D61736B 		.ascii	"mask\000"
 3712      00
 3713              	.LASF66:
 3714 0140 54696D65 		.ascii	"Timer_2_SetStopMode\000"
 3714      725F325F 
 3714      53657453 
 3714      746F704D 
 3714      6F646500 
 3715              	.LASF43:
 3716 0154 64656164 		.ascii	"deadTime\000"
 3716      54696D65 
 3716      00
 3717              	.LASF68:
 3718 015d 54696D65 		.ascii	"Timer_2_TriggerCommand\000"
 3718      725F325F 
 3718      54726967 
 3718      67657243 
 3718      6F6D6D61 
 3719              	.LASF24:
 3720 0174 54696D65 		.ascii	"Timer_2_Enable\000"
 3720      725F325F 
 3720      456E6162 
 3720      6C6500
 3721              	.LASF8:
 3722 0183 756E7369 		.ascii	"unsigned int\000"
 3722      676E6564 
 3722      20696E74 
 3722      00
 3723              	.LASF55:
 3724 0190 54696D65 		.ascii	"Timer_2_SetPeriodSwap\000"
 3724      725F325F 
 3724      53657450 
 3724      6572696F 
 3724      64537761 
 3725              	.LASF73:
 3726 01a6 54696D65 		.ascii	"Timer_2_ClearInterrupt\000"
 3726      725F325F 
 3726      436C6561 
 3726      72496E74 
 3726      65727275 
 3727              	.LASF69:
 3728 01bd 636F6D6D 		.ascii	"command\000"
 3728      616E6400 
 3729              	.LASF5:
 3730 01c5 6C6F6E67 		.ascii	"long unsigned int\000"
 3730      20756E73 
ARM GAS  C:\Users\Ala\AppData\Local\Temp\cc5WTHKW.s 			page 97


 3730      69676E65 
 3730      6420696E 
 3730      7400
 3731              	.LASF37:
 3732 01d7 6D6F6465 		.ascii	"modeMask\000"
 3732      4D61736B 
 3732      00
 3733              	.LASF75:
 3734 01e0 4379456E 		.ascii	"CyEnterCriticalSection\000"
 3734      74657243 
 3734      72697469 
 3734      63616C53 
 3734      65637469 
 3735              	.LASF3:
 3736 01f7 73686F72 		.ascii	"short unsigned int\000"
 3736      7420756E 
 3736      7369676E 
 3736      65642069 
 3736      6E7400
 3737              	.LASF64:
 3738 020a 54696D65 		.ascii	"Timer_2_SetReloadMode\000"
 3738      725F325F 
 3738      53657452 
 3738      656C6F61 
 3738      644D6F64 
 3739              	.LASF35:
 3740 0220 6F6E6553 		.ascii	"oneShotEnable\000"
 3740      686F7445 
 3740      6E61626C 
 3740      6500
 3741              	.LASF18:
 3742 022e 54696D65 		.ascii	"Timer_2_WritePeriod\000"
 3742      725F325F 
 3742      57726974 
 3742      65506572 
 3742      696F6400 
 3743              	.LASF80:
 3744 0242 54696D65 		.ascii	"Timer_2_initVar\000"
 3744      725F325F 
 3744      696E6974 
 3744      56617200 
 3745              	.LASF14:
 3746 0252 72656733 		.ascii	"reg32\000"
 3746      3200
 3747              	.LASF47:
 3748 0258 636F756E 		.ascii	"counterMode\000"
 3748      7465724D 
 3748      6F646500 
 3749              	.LASF26:
 3750 0264 54696D65 		.ascii	"Timer_2_Stop\000"
 3750      725F325F 
 3750      53746F70 
 3750      00
 3751              	.LASF16:
 3752 0271 73697A65 		.ascii	"sizetype\000"
 3752      74797065 
 3752      00
ARM GAS  C:\Users\Ala\AppData\Local\Temp\cc5WTHKW.s 			page 98


 3753              	.LASF42:
 3754 027a 54696D65 		.ascii	"Timer_2_SetPWMDeadTime\000"
 3754      725F325F 
 3754      53657450 
 3754      574D4465 
 3754      61645469 
 3755              	.LASF15:
 3756 0291 6C6F6E67 		.ascii	"long double\000"
 3756      20646F75 
 3756      626C6500 
 3757              	.LASF25:
 3758 029d 54696D65 		.ascii	"Timer_2_Start\000"
 3758      725F325F 
 3758      53746172 
 3758      7400
 3759              	.LASF77:
 3760 02ab 474E5520 		.ascii	"GNU C11 5.4.1 20160609 (release) [ARM/embedded-5-br"
 3760      43313120 
 3760      352E342E 
 3760      31203230 
 3760      31363036 
 3761 02de 616E6368 		.ascii	"anch revision 237715] -mcpu=cortex-m0 -mthumb -g -O"
 3761      20726576 
 3761      6973696F 
 3761      6E203233 
 3761      37373135 
 3762 0311 73202D66 		.ascii	"s -ffunction-sections -ffat-lto-objects\000"
 3762      66756E63 
 3762      74696F6E 
 3762      2D736563 
 3762      74696F6E 
 3763              	.LASF57:
 3764 0339 636F6D70 		.ascii	"compare\000"
 3764      61726500 
 3765              	.LASF36:
 3766 0341 54696D65 		.ascii	"Timer_2_SetPWMMode\000"
 3766      725F325F 
 3766      53657450 
 3766      574D4D6F 
 3766      646500
 3767              	.LASF58:
 3768 0354 54696D65 		.ascii	"Timer_2_WriteCompareBuf\000"
 3768      725F325F 
 3768      57726974 
 3768      65436F6D 
 3768      70617265 
 3769              	.LASF28:
 3770 036c 54696D65 		.ascii	"Timer_2_SetMode\000"
 3770      725F325F 
 3770      5365744D 
 3770      6F646500 
 3771              	.LASF60:
 3772 037c 54696D65 		.ascii	"Timer_2_ReadCapture\000"
 3772      725F325F 
 3772      52656164 
 3772      43617074 
 3772      75726500 
ARM GAS  C:\Users\Ala\AppData\Local\Temp\cc5WTHKW.s 			page 99


 3773              	.LASF11:
 3774 0390 666C6F61 		.ascii	"float\000"
 3774      7400
 3775              	.LASF33:
 3776 0396 70726573 		.ascii	"prescaler\000"
 3776      63616C65 
 3776      7200
 3777              	.LASF52:
 3778 03a0 54696D65 		.ascii	"Timer_2_WritePeriodBuf\000"
 3778      725F325F 
 3778      57726974 
 3778      65506572 
 3778      696F6442 
 3779              	.LASF71:
 3780 03b7 54696D65 		.ascii	"Timer_2_GetInterruptSourceMasked\000"
 3780      725F325F 
 3780      47657449 
 3780      6E746572 
 3780      72757074 
 3781              	.LASF1:
 3782 03d8 756E7369 		.ascii	"unsigned char\000"
 3782      676E6564 
 3782      20636861 
 3782      7200
 3783              	.LASF41:
 3784 03e6 73746F70 		.ascii	"stopOnKillEnable\000"
 3784      4F6E4B69 
 3784      6C6C456E 
 3784      61626C65 
 3784      00
 3785              	.LASF2:
 3786 03f7 73686F72 		.ascii	"short int\000"
 3786      7420696E 
 3786      7400
 3787              	.LASF22:
 3788 0401 696E7465 		.ascii	"interruptMask\000"
 3788      72727570 
 3788      744D6173 
 3788      6B00
 3789              	.LASF40:
 3790 040f 54696D65 		.ascii	"Timer_2_SetPWMStopOnKill\000"
 3790      725F325F 
 3790      53657450 
 3790      574D5374 
 3790      6F704F6E 
 3791              	.LASF61:
 3792 0428 54696D65 		.ascii	"Timer_2_ReadCaptureBuf\000"
 3792      725F325F 
 3792      52656164 
 3792      43617074 
 3792      75726542 
 3793              	.LASF72:
 3794 043f 54696D65 		.ascii	"Timer_2_GetInterruptSource\000"
 3794      725F325F 
 3794      47657449 
 3794      6E746572 
 3794      72757074 
ARM GAS  C:\Users\Ala\AppData\Local\Temp\cc5WTHKW.s 			page 100


 3795              	.LASF74:
 3796 045a 54696D65 		.ascii	"Timer_2_SetInterrupt\000"
 3796      725F325F 
 3796      53657449 
 3796      6E746572 
 3796      72757074 
 3797              	.LASF13:
 3798 046f 63686172 		.ascii	"char\000"
 3798      00
 3799              	.LASF30:
 3800 0474 6D6F6465 		.ascii	"mode\000"
 3800      00
 3801              	.LASF34:
 3802 0479 54696D65 		.ascii	"Timer_2_SetOneShot\000"
 3802      725F325F 
 3802      5365744F 
 3802      6E655368 
 3802      6F7400
 3803              	.LASF48:
 3804 048c 54696D65 		.ascii	"Timer_2_ReadCounter\000"
 3804      725F325F 
 3804      52656164 
 3804      436F756E 
 3804      74657200 
 3805              	.LASF70:
 3806 04a0 54696D65 		.ascii	"Timer_2_ReadStatus\000"
 3806      725F325F 
 3806      52656164 
 3806      53746174 
 3806      757300
 3807              	.LASF59:
 3808 04b3 636F6D70 		.ascii	"compareBuf\000"
 3808      61726542 
 3808      756600
 3809              	.LASF46:
 3810 04be 54696D65 		.ascii	"Timer_2_SetCounterMode\000"
 3810      725F325F 
 3810      53657443 
 3810      6F756E74 
 3810      65724D6F 
 3811              	.LASF27:
 3812 04d5 656E6162 		.ascii	"enableInterrupts\000"
 3812      6C65496E 
 3812      74657272 
 3812      75707473 
 3812      00
 3813              	.LASF67:
 3814 04e6 54696D65 		.ascii	"Timer_2_SetCountMode\000"
 3814      725F325F 
 3814      53657443 
 3814      6F756E74 
 3814      4D6F6465 
 3815              	.LASF32:
 3816 04fb 54696D65 		.ascii	"Timer_2_SetPrescaler\000"
 3816      725F325F 
 3816      53657450 
 3816      72657363 
ARM GAS  C:\Users\Ala\AppData\Local\Temp\cc5WTHKW.s 			page 101


 3816      616C6572 
 3817              	.LASF79:
 3818 0510 433A5C55 		.ascii	"C:\\Users\\Ala\\Desktop\\Cypress\\BeoM_main.cydsn\000"
 3818      73657273 
 3818      5C416C61 
 3818      5C446573 
 3818      6B746F70 
 3819              	.LASF23:
 3820 053d 54696D65 		.ascii	"Timer_2_Init\000"
 3820      725F325F 
 3820      496E6974 
 3820      00
 3821              	.LASF39:
 3822 054a 73796E63 		.ascii	"syncKillEnable\000"
 3822      4B696C6C 
 3822      456E6162 
 3822      6C6500
 3823              	.LASF51:
 3824 0559 73776170 		.ascii	"swapEnable\000"
 3824      456E6162 
 3824      6C6500
 3825              	.LASF21:
 3826 0564 54696D65 		.ascii	"Timer_2_SetInterruptMode\000"
 3826      725F325F 
 3826      53657449 
 3826      6E746572 
 3826      72757074 
 3827              	.LASF56:
 3828 057d 54696D65 		.ascii	"Timer_2_WriteCompare\000"
 3828      725F325F 
 3828      57726974 
 3828      65436F6D 
 3828      70617265 
 3829              	.LASF29:
 3830 0592 54696D65 		.ascii	"Timer_2_SetQDMode\000"
 3830      725F325F 
 3830      53657451 
 3830      444D6F64 
 3830      6500
 3831              	.LASF62:
 3832 05a4 54696D65 		.ascii	"Timer_2_SetCaptureMode\000"
 3832      725F325F 
 3832      53657443 
 3832      61707475 
 3832      72654D6F 
 3833              	.LASF53:
 3834 05bb 70657269 		.ascii	"periodBuf\000"
 3834      6F644275 
 3834      6600
 3835              		.ident	"GCC: (GNU Tools for ARM Embedded Processors) 5.4.1 20160609 (release) [ARM/embedded-5-bran
