ARM GAS  C:\Users\Ala\AppData\Local\Temp\ccbnHDaA.s 			page 1


   1              		.syntax unified
   2              		.cpu cortex-m0
   3              		.fpu softvfp
   4              		.eabi_attribute 20, 1
   5              		.eabi_attribute 21, 1
   6              		.eabi_attribute 23, 3
   7              		.eabi_attribute 24, 1
   8              		.eabi_attribute 25, 1
   9              		.eabi_attribute 26, 1
  10              		.eabi_attribute 30, 4
  11              		.eabi_attribute 34, 0
  12              		.eabi_attribute 18, 4
  13              		.thumb
  14              		.syntax unified
  15              		.file	"UART_SCBCLK.c"
  16              		.text
  17              	.Ltext0:
  18              		.cfi_sections	.debug_frame
  19              		.section	.text.UART_SCBCLK_Start,"ax",%progbits
  20              		.align	1
  21              		.global	UART_SCBCLK_Start
  22              		.code	16
  23              		.thumb_func
  24              		.type	UART_SCBCLK_Start, %function
  25              	UART_SCBCLK_Start:
  26              	.LFB0:
  27              		.file 1 "Generated_Source\\PSoC4\\UART_SCBCLK.c"
   1:Generated_Source\PSoC4/UART_SCBCLK.c **** /*******************************************************************************
   2:Generated_Source\PSoC4/UART_SCBCLK.c **** * File Name: UART_SCBCLK.c
   3:Generated_Source\PSoC4/UART_SCBCLK.c **** * Version 2.20
   4:Generated_Source\PSoC4/UART_SCBCLK.c **** *
   5:Generated_Source\PSoC4/UART_SCBCLK.c **** *  Description:
   6:Generated_Source\PSoC4/UART_SCBCLK.c **** *   Provides system API for the clocking, interrupts and watchdog timer.
   7:Generated_Source\PSoC4/UART_SCBCLK.c **** *
   8:Generated_Source\PSoC4/UART_SCBCLK.c **** *  Note:
   9:Generated_Source\PSoC4/UART_SCBCLK.c **** *   Documentation of the API's in this file is located in the
  10:Generated_Source\PSoC4/UART_SCBCLK.c **** *   System Reference Guide provided with PSoC Creator.
  11:Generated_Source\PSoC4/UART_SCBCLK.c **** *
  12:Generated_Source\PSoC4/UART_SCBCLK.c **** ********************************************************************************
  13:Generated_Source\PSoC4/UART_SCBCLK.c **** * Copyright 2008-2012, Cypress Semiconductor Corporation.  All rights reserved.
  14:Generated_Source\PSoC4/UART_SCBCLK.c **** * You may use this file only in accordance with the license, terms, conditions,
  15:Generated_Source\PSoC4/UART_SCBCLK.c **** * disclaimers, and limitations in the end user license agreement accompanying
  16:Generated_Source\PSoC4/UART_SCBCLK.c **** * the software package with which this file was provided.
  17:Generated_Source\PSoC4/UART_SCBCLK.c **** *******************************************************************************/
  18:Generated_Source\PSoC4/UART_SCBCLK.c **** 
  19:Generated_Source\PSoC4/UART_SCBCLK.c **** #include <cydevice_trm.h>
  20:Generated_Source\PSoC4/UART_SCBCLK.c **** #include "UART_SCBCLK.h"
  21:Generated_Source\PSoC4/UART_SCBCLK.c **** 
  22:Generated_Source\PSoC4/UART_SCBCLK.c **** #if defined CYREG_PERI_DIV_CMD
  23:Generated_Source\PSoC4/UART_SCBCLK.c **** 
  24:Generated_Source\PSoC4/UART_SCBCLK.c **** /*******************************************************************************
  25:Generated_Source\PSoC4/UART_SCBCLK.c **** * Function Name: UART_SCBCLK_StartEx
  26:Generated_Source\PSoC4/UART_SCBCLK.c **** ********************************************************************************
  27:Generated_Source\PSoC4/UART_SCBCLK.c **** *
  28:Generated_Source\PSoC4/UART_SCBCLK.c **** * Summary:
  29:Generated_Source\PSoC4/UART_SCBCLK.c **** *  Starts the clock, aligned to the specified running clock.
  30:Generated_Source\PSoC4/UART_SCBCLK.c **** *
ARM GAS  C:\Users\Ala\AppData\Local\Temp\ccbnHDaA.s 			page 2


  31:Generated_Source\PSoC4/UART_SCBCLK.c **** * Parameters:
  32:Generated_Source\PSoC4/UART_SCBCLK.c **** *  alignClkDiv:  The divider to which phase alignment is performed when the
  33:Generated_Source\PSoC4/UART_SCBCLK.c **** *    clock is started.
  34:Generated_Source\PSoC4/UART_SCBCLK.c **** *
  35:Generated_Source\PSoC4/UART_SCBCLK.c **** * Returns:
  36:Generated_Source\PSoC4/UART_SCBCLK.c **** *  None
  37:Generated_Source\PSoC4/UART_SCBCLK.c **** *
  38:Generated_Source\PSoC4/UART_SCBCLK.c **** *******************************************************************************/
  39:Generated_Source\PSoC4/UART_SCBCLK.c **** void UART_SCBCLK_StartEx(uint32 alignClkDiv)
  40:Generated_Source\PSoC4/UART_SCBCLK.c **** {
  41:Generated_Source\PSoC4/UART_SCBCLK.c ****     /* Make sure any previous start command has finished. */
  42:Generated_Source\PSoC4/UART_SCBCLK.c ****     while((UART_SCBCLK_CMD_REG & UART_SCBCLK_CMD_ENABLE_MASK) != 0u)
  43:Generated_Source\PSoC4/UART_SCBCLK.c ****     {
  44:Generated_Source\PSoC4/UART_SCBCLK.c ****     }
  45:Generated_Source\PSoC4/UART_SCBCLK.c ****     
  46:Generated_Source\PSoC4/UART_SCBCLK.c ****     /* Specify the target divider and it's alignment divider, and enable. */
  47:Generated_Source\PSoC4/UART_SCBCLK.c ****     UART_SCBCLK_CMD_REG =
  48:Generated_Source\PSoC4/UART_SCBCLK.c ****         ((uint32)UART_SCBCLK__DIV_ID << UART_SCBCLK_CMD_DIV_SHIFT)|
  49:Generated_Source\PSoC4/UART_SCBCLK.c ****         (alignClkDiv << UART_SCBCLK_CMD_PA_DIV_SHIFT) |
  50:Generated_Source\PSoC4/UART_SCBCLK.c ****         (uint32)UART_SCBCLK_CMD_ENABLE_MASK;
  51:Generated_Source\PSoC4/UART_SCBCLK.c **** }
  52:Generated_Source\PSoC4/UART_SCBCLK.c **** 
  53:Generated_Source\PSoC4/UART_SCBCLK.c **** #else
  54:Generated_Source\PSoC4/UART_SCBCLK.c **** 
  55:Generated_Source\PSoC4/UART_SCBCLK.c **** /*******************************************************************************
  56:Generated_Source\PSoC4/UART_SCBCLK.c **** * Function Name: UART_SCBCLK_Start
  57:Generated_Source\PSoC4/UART_SCBCLK.c **** ********************************************************************************
  58:Generated_Source\PSoC4/UART_SCBCLK.c **** *
  59:Generated_Source\PSoC4/UART_SCBCLK.c **** * Summary:
  60:Generated_Source\PSoC4/UART_SCBCLK.c **** *  Starts the clock.
  61:Generated_Source\PSoC4/UART_SCBCLK.c **** *
  62:Generated_Source\PSoC4/UART_SCBCLK.c **** * Parameters:
  63:Generated_Source\PSoC4/UART_SCBCLK.c **** *  None
  64:Generated_Source\PSoC4/UART_SCBCLK.c **** *
  65:Generated_Source\PSoC4/UART_SCBCLK.c **** * Returns:
  66:Generated_Source\PSoC4/UART_SCBCLK.c **** *  None
  67:Generated_Source\PSoC4/UART_SCBCLK.c **** *
  68:Generated_Source\PSoC4/UART_SCBCLK.c **** *******************************************************************************/
  69:Generated_Source\PSoC4/UART_SCBCLK.c **** 
  70:Generated_Source\PSoC4/UART_SCBCLK.c **** void UART_SCBCLK_Start(void)
  71:Generated_Source\PSoC4/UART_SCBCLK.c **** {
  28              		.loc 1 71 0
  29              		.cfi_startproc
  30              		@ args = 0, pretend = 0, frame = 0
  31              		@ frame_needed = 0, uses_anonymous_args = 0
  32              		@ link register save eliminated.
  72:Generated_Source\PSoC4/UART_SCBCLK.c ****     /* Set the bit to enable the clock. */
  73:Generated_Source\PSoC4/UART_SCBCLK.c ****     UART_SCBCLK_ENABLE_REG |= UART_SCBCLK__ENABLE_MASK;
  33              		.loc 1 73 0
  34 0000 8021     		movs	r1, #128
  35 0002 034A     		ldr	r2, .L2
  36 0004 0906     		lsls	r1, r1, #24
  37 0006 1368     		ldr	r3, [r2]
  74:Generated_Source\PSoC4/UART_SCBCLK.c **** }
  38              		.loc 1 74 0
  39              		@ sp needed
  73:Generated_Source\PSoC4/UART_SCBCLK.c **** }
ARM GAS  C:\Users\Ala\AppData\Local\Temp\ccbnHDaA.s 			page 3


  40              		.loc 1 73 0
  41 0008 0B43     		orrs	r3, r1
  42 000a 1360     		str	r3, [r2]
  43              		.loc 1 74 0
  44 000c 7047     		bx	lr
  45              	.L3:
  46 000e C046     		.align	2
  47              	.L2:
  48 0010 40000240 		.word	1073872960
  49              		.cfi_endproc
  50              	.LFE0:
  51              		.size	UART_SCBCLK_Start, .-UART_SCBCLK_Start
  52              		.section	.text.UART_SCBCLK_Stop,"ax",%progbits
  53              		.align	1
  54              		.global	UART_SCBCLK_Stop
  55              		.code	16
  56              		.thumb_func
  57              		.type	UART_SCBCLK_Stop, %function
  58              	UART_SCBCLK_Stop:
  59              	.LFB1:
  75:Generated_Source\PSoC4/UART_SCBCLK.c **** 
  76:Generated_Source\PSoC4/UART_SCBCLK.c **** #endif /* CYREG_PERI_DIV_CMD */
  77:Generated_Source\PSoC4/UART_SCBCLK.c **** 
  78:Generated_Source\PSoC4/UART_SCBCLK.c **** 
  79:Generated_Source\PSoC4/UART_SCBCLK.c **** /*******************************************************************************
  80:Generated_Source\PSoC4/UART_SCBCLK.c **** * Function Name: UART_SCBCLK_Stop
  81:Generated_Source\PSoC4/UART_SCBCLK.c **** ********************************************************************************
  82:Generated_Source\PSoC4/UART_SCBCLK.c **** *
  83:Generated_Source\PSoC4/UART_SCBCLK.c **** * Summary:
  84:Generated_Source\PSoC4/UART_SCBCLK.c **** *  Stops the clock and returns immediately. This API does not require the
  85:Generated_Source\PSoC4/UART_SCBCLK.c **** *  source clock to be running but may return before the hardware is actually
  86:Generated_Source\PSoC4/UART_SCBCLK.c **** *  disabled.
  87:Generated_Source\PSoC4/UART_SCBCLK.c **** *
  88:Generated_Source\PSoC4/UART_SCBCLK.c **** * Parameters:
  89:Generated_Source\PSoC4/UART_SCBCLK.c **** *  None
  90:Generated_Source\PSoC4/UART_SCBCLK.c **** *
  91:Generated_Source\PSoC4/UART_SCBCLK.c **** * Returns:
  92:Generated_Source\PSoC4/UART_SCBCLK.c **** *  None
  93:Generated_Source\PSoC4/UART_SCBCLK.c **** *
  94:Generated_Source\PSoC4/UART_SCBCLK.c **** *******************************************************************************/
  95:Generated_Source\PSoC4/UART_SCBCLK.c **** void UART_SCBCLK_Stop(void)
  96:Generated_Source\PSoC4/UART_SCBCLK.c **** {
  60              		.loc 1 96 0
  61              		.cfi_startproc
  62              		@ args = 0, pretend = 0, frame = 0
  63              		@ frame_needed = 0, uses_anonymous_args = 0
  64              		@ link register save eliminated.
  97:Generated_Source\PSoC4/UART_SCBCLK.c **** #if defined CYREG_PERI_DIV_CMD
  98:Generated_Source\PSoC4/UART_SCBCLK.c **** 
  99:Generated_Source\PSoC4/UART_SCBCLK.c ****     /* Make sure any previous start command has finished. */
 100:Generated_Source\PSoC4/UART_SCBCLK.c ****     while((UART_SCBCLK_CMD_REG & UART_SCBCLK_CMD_ENABLE_MASK) != 0u)
 101:Generated_Source\PSoC4/UART_SCBCLK.c ****     {
 102:Generated_Source\PSoC4/UART_SCBCLK.c ****     }
 103:Generated_Source\PSoC4/UART_SCBCLK.c ****     
 104:Generated_Source\PSoC4/UART_SCBCLK.c ****     /* Specify the target divider and it's alignment divider, and disable. */
 105:Generated_Source\PSoC4/UART_SCBCLK.c ****     UART_SCBCLK_CMD_REG =
 106:Generated_Source\PSoC4/UART_SCBCLK.c ****         ((uint32)UART_SCBCLK__DIV_ID << UART_SCBCLK_CMD_DIV_SHIFT)|
ARM GAS  C:\Users\Ala\AppData\Local\Temp\ccbnHDaA.s 			page 4


 107:Generated_Source\PSoC4/UART_SCBCLK.c ****         ((uint32)UART_SCBCLK_CMD_DISABLE_MASK);
 108:Generated_Source\PSoC4/UART_SCBCLK.c **** 
 109:Generated_Source\PSoC4/UART_SCBCLK.c **** #else
 110:Generated_Source\PSoC4/UART_SCBCLK.c **** 
 111:Generated_Source\PSoC4/UART_SCBCLK.c ****     /* Clear the bit to disable the clock. */
 112:Generated_Source\PSoC4/UART_SCBCLK.c ****     UART_SCBCLK_ENABLE_REG &= (uint32)(~UART_SCBCLK__ENABLE_MASK);
  65              		.loc 1 112 0
  66 0000 024A     		ldr	r2, .L5
 113:Generated_Source\PSoC4/UART_SCBCLK.c ****     
 114:Generated_Source\PSoC4/UART_SCBCLK.c **** #endif /* CYREG_PERI_DIV_CMD */
 115:Generated_Source\PSoC4/UART_SCBCLK.c **** }
  67              		.loc 1 115 0
  68              		@ sp needed
 112:Generated_Source\PSoC4/UART_SCBCLK.c ****     
  69              		.loc 1 112 0
  70 0002 1368     		ldr	r3, [r2]
  71 0004 5B00     		lsls	r3, r3, #1
  72 0006 5B08     		lsrs	r3, r3, #1
  73 0008 1360     		str	r3, [r2]
  74              		.loc 1 115 0
  75 000a 7047     		bx	lr
  76              	.L6:
  77              		.align	2
  78              	.L5:
  79 000c 40000240 		.word	1073872960
  80              		.cfi_endproc
  81              	.LFE1:
  82              		.size	UART_SCBCLK_Stop, .-UART_SCBCLK_Stop
  83              		.section	.text.UART_SCBCLK_SetFractionalDividerRegister,"ax",%progbits
  84              		.align	1
  85              		.global	UART_SCBCLK_SetFractionalDividerRegister
  86              		.code	16
  87              		.thumb_func
  88              		.type	UART_SCBCLK_SetFractionalDividerRegister, %function
  89              	UART_SCBCLK_SetFractionalDividerRegister:
  90              	.LFB2:
 116:Generated_Source\PSoC4/UART_SCBCLK.c **** 
 117:Generated_Source\PSoC4/UART_SCBCLK.c **** 
 118:Generated_Source\PSoC4/UART_SCBCLK.c **** /*******************************************************************************
 119:Generated_Source\PSoC4/UART_SCBCLK.c **** * Function Name: UART_SCBCLK_SetFractionalDividerRegister
 120:Generated_Source\PSoC4/UART_SCBCLK.c **** ********************************************************************************
 121:Generated_Source\PSoC4/UART_SCBCLK.c **** *
 122:Generated_Source\PSoC4/UART_SCBCLK.c **** * Summary:
 123:Generated_Source\PSoC4/UART_SCBCLK.c **** *  Modifies the clock divider and the fractional divider.
 124:Generated_Source\PSoC4/UART_SCBCLK.c **** *
 125:Generated_Source\PSoC4/UART_SCBCLK.c **** * Parameters:
 126:Generated_Source\PSoC4/UART_SCBCLK.c **** *  clkDivider:  Divider register value (0-65535). This value is NOT the
 127:Generated_Source\PSoC4/UART_SCBCLK.c **** *    divider; the clock hardware divides by clkDivider plus one. For example,
 128:Generated_Source\PSoC4/UART_SCBCLK.c **** *    to divide the clock by 2, this parameter should be set to 1.
 129:Generated_Source\PSoC4/UART_SCBCLK.c **** *  fracDivider:  Fractional Divider register value (0-31).
 130:Generated_Source\PSoC4/UART_SCBCLK.c **** * Returns:
 131:Generated_Source\PSoC4/UART_SCBCLK.c **** *  None
 132:Generated_Source\PSoC4/UART_SCBCLK.c **** *
 133:Generated_Source\PSoC4/UART_SCBCLK.c **** *******************************************************************************/
 134:Generated_Source\PSoC4/UART_SCBCLK.c **** void UART_SCBCLK_SetFractionalDividerRegister(uint16 clkDivider, uint8 clkFractional)
 135:Generated_Source\PSoC4/UART_SCBCLK.c **** {
  91              		.loc 1 135 0
ARM GAS  C:\Users\Ala\AppData\Local\Temp\ccbnHDaA.s 			page 5


  92              		.cfi_startproc
  93              		@ args = 0, pretend = 0, frame = 0
  94              		@ frame_needed = 0, uses_anonymous_args = 0
  95              		@ link register save eliminated.
  96              	.LVL0:
 136:Generated_Source\PSoC4/UART_SCBCLK.c ****     uint32 maskVal;
 137:Generated_Source\PSoC4/UART_SCBCLK.c ****     uint32 regVal;
 138:Generated_Source\PSoC4/UART_SCBCLK.c ****     
 139:Generated_Source\PSoC4/UART_SCBCLK.c **** #if defined (UART_SCBCLK__FRAC_MASK) || defined (CYREG_PERI_DIV_CMD)
 140:Generated_Source\PSoC4/UART_SCBCLK.c ****     
 141:Generated_Source\PSoC4/UART_SCBCLK.c **** 	/* get all but divider bits */
 142:Generated_Source\PSoC4/UART_SCBCLK.c ****     maskVal = UART_SCBCLK_DIV_REG & 
 143:Generated_Source\PSoC4/UART_SCBCLK.c ****                     (uint32)(~(uint32)(UART_SCBCLK_DIV_INT_MASK | UART_SCBCLK_DIV_FRAC_MASK)); 
 144:Generated_Source\PSoC4/UART_SCBCLK.c **** 	/* combine mask and new divider vals into 32-bit value */
 145:Generated_Source\PSoC4/UART_SCBCLK.c ****     regVal = maskVal |
 146:Generated_Source\PSoC4/UART_SCBCLK.c ****         ((uint32)((uint32)clkDivider <<  UART_SCBCLK_DIV_INT_SHIFT) & UART_SCBCLK_DIV_INT_MASK) |
 147:Generated_Source\PSoC4/UART_SCBCLK.c ****         ((uint32)((uint32)clkFractional << UART_SCBCLK_DIV_FRAC_SHIFT) & UART_SCBCLK_DIV_FRAC_MASK)
 148:Generated_Source\PSoC4/UART_SCBCLK.c ****     
 149:Generated_Source\PSoC4/UART_SCBCLK.c **** #else
 150:Generated_Source\PSoC4/UART_SCBCLK.c ****     /* get all but integer divider bits */
 151:Generated_Source\PSoC4/UART_SCBCLK.c ****     maskVal = UART_SCBCLK_DIV_REG & (uint32)(~(uint32)UART_SCBCLK__DIVIDER_MASK);
  97              		.loc 1 151 0
  98 0000 034A     		ldr	r2, .L8
 152:Generated_Source\PSoC4/UART_SCBCLK.c ****     /* combine mask and new divider val into 32-bit value */
 153:Generated_Source\PSoC4/UART_SCBCLK.c ****     regVal = clkDivider | maskVal;
 154:Generated_Source\PSoC4/UART_SCBCLK.c ****     
 155:Generated_Source\PSoC4/UART_SCBCLK.c **** #endif /* UART_SCBCLK__FRAC_MASK || CYREG_PERI_DIV_CMD */
 156:Generated_Source\PSoC4/UART_SCBCLK.c **** 
 157:Generated_Source\PSoC4/UART_SCBCLK.c ****     UART_SCBCLK_DIV_REG = regVal;
 158:Generated_Source\PSoC4/UART_SCBCLK.c **** }
  99              		.loc 1 158 0
 100              		@ sp needed
 151:Generated_Source\PSoC4/UART_SCBCLK.c ****     /* combine mask and new divider val into 32-bit value */
 101              		.loc 1 151 0
 102 0002 1368     		ldr	r3, [r2]
 103              	.LVL1:
 153:Generated_Source\PSoC4/UART_SCBCLK.c ****     
 104              		.loc 1 153 0
 105 0004 1B0C     		lsrs	r3, r3, #16
 106              	.LVL2:
 107 0006 1B04     		lsls	r3, r3, #16
 108 0008 0343     		orrs	r3, r0
 109              	.LVL3:
 157:Generated_Source\PSoC4/UART_SCBCLK.c **** }
 110              		.loc 1 157 0
 111 000a 1360     		str	r3, [r2]
 112              		.loc 1 158 0
 113 000c 7047     		bx	lr
 114              	.L9:
 115 000e C046     		.align	2
 116              	.L8:
 117 0010 40000240 		.word	1073872960
 118              		.cfi_endproc
 119              	.LFE2:
 120              		.size	UART_SCBCLK_SetFractionalDividerRegister, .-UART_SCBCLK_SetFractionalDividerRegister
 121              		.section	.text.UART_SCBCLK_GetDividerRegister,"ax",%progbits
 122              		.align	1
ARM GAS  C:\Users\Ala\AppData\Local\Temp\ccbnHDaA.s 			page 6


 123              		.global	UART_SCBCLK_GetDividerRegister
 124              		.code	16
 125              		.thumb_func
 126              		.type	UART_SCBCLK_GetDividerRegister, %function
 127              	UART_SCBCLK_GetDividerRegister:
 128              	.LFB3:
 159:Generated_Source\PSoC4/UART_SCBCLK.c **** 
 160:Generated_Source\PSoC4/UART_SCBCLK.c **** 
 161:Generated_Source\PSoC4/UART_SCBCLK.c **** /*******************************************************************************
 162:Generated_Source\PSoC4/UART_SCBCLK.c **** * Function Name: UART_SCBCLK_GetDividerRegister
 163:Generated_Source\PSoC4/UART_SCBCLK.c **** ********************************************************************************
 164:Generated_Source\PSoC4/UART_SCBCLK.c **** *
 165:Generated_Source\PSoC4/UART_SCBCLK.c **** * Summary:
 166:Generated_Source\PSoC4/UART_SCBCLK.c **** *  Gets the clock divider register value.
 167:Generated_Source\PSoC4/UART_SCBCLK.c **** *
 168:Generated_Source\PSoC4/UART_SCBCLK.c **** * Parameters:
 169:Generated_Source\PSoC4/UART_SCBCLK.c **** *  None
 170:Generated_Source\PSoC4/UART_SCBCLK.c **** *
 171:Generated_Source\PSoC4/UART_SCBCLK.c **** * Returns:
 172:Generated_Source\PSoC4/UART_SCBCLK.c **** *  Divide value of the clock minus 1. For example, if the clock is set to
 173:Generated_Source\PSoC4/UART_SCBCLK.c **** *  divide by 2, the return value will be 1.
 174:Generated_Source\PSoC4/UART_SCBCLK.c **** *
 175:Generated_Source\PSoC4/UART_SCBCLK.c **** *******************************************************************************/
 176:Generated_Source\PSoC4/UART_SCBCLK.c **** uint16 UART_SCBCLK_GetDividerRegister(void)
 177:Generated_Source\PSoC4/UART_SCBCLK.c **** {
 129              		.loc 1 177 0
 130              		.cfi_startproc
 131              		@ args = 0, pretend = 0, frame = 0
 132              		@ frame_needed = 0, uses_anonymous_args = 0
 133              		@ link register save eliminated.
 178:Generated_Source\PSoC4/UART_SCBCLK.c ****     return (uint16)((UART_SCBCLK_DIV_REG & UART_SCBCLK_DIV_INT_MASK)
 134              		.loc 1 178 0
 135 0000 014B     		ldr	r3, .L11
 179:Generated_Source\PSoC4/UART_SCBCLK.c ****         >> UART_SCBCLK_DIV_INT_SHIFT);
 180:Generated_Source\PSoC4/UART_SCBCLK.c **** }
 136              		.loc 1 180 0
 137              		@ sp needed
 178:Generated_Source\PSoC4/UART_SCBCLK.c ****     return (uint16)((UART_SCBCLK_DIV_REG & UART_SCBCLK_DIV_INT_MASK)
 138              		.loc 1 178 0
 139 0002 1868     		ldr	r0, [r3]
 140 0004 80B2     		uxth	r0, r0
 141              		.loc 1 180 0
 142 0006 7047     		bx	lr
 143              	.L12:
 144              		.align	2
 145              	.L11:
 146 0008 40000240 		.word	1073872960
 147              		.cfi_endproc
 148              	.LFE3:
 149              		.size	UART_SCBCLK_GetDividerRegister, .-UART_SCBCLK_GetDividerRegister
 150              		.section	.text.UART_SCBCLK_GetFractionalDividerRegister,"ax",%progbits
 151              		.align	1
 152              		.global	UART_SCBCLK_GetFractionalDividerRegister
 153              		.code	16
 154              		.thumb_func
 155              		.type	UART_SCBCLK_GetFractionalDividerRegister, %function
 156              	UART_SCBCLK_GetFractionalDividerRegister:
ARM GAS  C:\Users\Ala\AppData\Local\Temp\ccbnHDaA.s 			page 7


 157              	.LFB4:
 181:Generated_Source\PSoC4/UART_SCBCLK.c **** 
 182:Generated_Source\PSoC4/UART_SCBCLK.c **** 
 183:Generated_Source\PSoC4/UART_SCBCLK.c **** /*******************************************************************************
 184:Generated_Source\PSoC4/UART_SCBCLK.c **** * Function Name: UART_SCBCLK_GetFractionalDividerRegister
 185:Generated_Source\PSoC4/UART_SCBCLK.c **** ********************************************************************************
 186:Generated_Source\PSoC4/UART_SCBCLK.c **** *
 187:Generated_Source\PSoC4/UART_SCBCLK.c **** * Summary:
 188:Generated_Source\PSoC4/UART_SCBCLK.c **** *  Gets the clock fractional divider register value.
 189:Generated_Source\PSoC4/UART_SCBCLK.c **** *
 190:Generated_Source\PSoC4/UART_SCBCLK.c **** * Parameters:
 191:Generated_Source\PSoC4/UART_SCBCLK.c **** *  None
 192:Generated_Source\PSoC4/UART_SCBCLK.c **** *
 193:Generated_Source\PSoC4/UART_SCBCLK.c **** * Returns:
 194:Generated_Source\PSoC4/UART_SCBCLK.c **** *  Fractional Divide value of the clock
 195:Generated_Source\PSoC4/UART_SCBCLK.c **** *  0 if the fractional divider is not in use.
 196:Generated_Source\PSoC4/UART_SCBCLK.c **** *
 197:Generated_Source\PSoC4/UART_SCBCLK.c **** *******************************************************************************/
 198:Generated_Source\PSoC4/UART_SCBCLK.c **** uint8 UART_SCBCLK_GetFractionalDividerRegister(void)
 199:Generated_Source\PSoC4/UART_SCBCLK.c **** {
 158              		.loc 1 199 0
 159              		.cfi_startproc
 160              		@ args = 0, pretend = 0, frame = 0
 161              		@ frame_needed = 0, uses_anonymous_args = 0
 162              		@ link register save eliminated.
 200:Generated_Source\PSoC4/UART_SCBCLK.c **** #if defined (UART_SCBCLK__FRAC_MASK)
 201:Generated_Source\PSoC4/UART_SCBCLK.c ****     /* return fractional divider bits */
 202:Generated_Source\PSoC4/UART_SCBCLK.c ****     return (uint8)((UART_SCBCLK_DIV_REG & UART_SCBCLK_DIV_FRAC_MASK)
 203:Generated_Source\PSoC4/UART_SCBCLK.c ****         >> UART_SCBCLK_DIV_FRAC_SHIFT);
 204:Generated_Source\PSoC4/UART_SCBCLK.c **** #else
 205:Generated_Source\PSoC4/UART_SCBCLK.c ****     return 0u;
 206:Generated_Source\PSoC4/UART_SCBCLK.c **** #endif /* UART_SCBCLK__FRAC_MASK */
 207:Generated_Source\PSoC4/UART_SCBCLK.c **** }
 163              		.loc 1 207 0
 164 0000 0020     		movs	r0, #0
 165              		@ sp needed
 166 0002 7047     		bx	lr
 167              		.cfi_endproc
 168              	.LFE4:
 169              		.size	UART_SCBCLK_GetFractionalDividerRegister, .-UART_SCBCLK_GetFractionalDividerRegister
 170              		.text
 171              	.Letext0:
 172              		.file 2 "Generated_Source\\PSoC4/cytypes.h"