ARM GAS  C:\Users\Ala\AppData\Local\Temp\ccR90kW6.s 			page 1


   1              		.syntax unified
   2              		.cpu cortex-m0
   3              		.fpu softvfp
   4              		.eabi_attribute 20, 1
   5              		.eabi_attribute 21, 1
   6              		.eabi_attribute 23, 3
   7              		.eabi_attribute 24, 1
   8              		.eabi_attribute 25, 1
   9              		.eabi_attribute 26, 1
  10              		.eabi_attribute 30, 6
  11              		.eabi_attribute 34, 0
  12              		.eabi_attribute 18, 4
  13              		.thumb
  14              		.syntax unified
  15              		.file	"UART_1_UART_BOOT.c"
  16              		.text
  17              	.Ltext0:
  18              		.cfi_sections	.debug_frame
  19              		.section	.text.UART_1_UartCyBtldrCommStart,"ax",%progbits
  20              		.align	2
  21              		.global	UART_1_UartCyBtldrCommStart
  22              		.code	16
  23              		.thumb_func
  24              		.type	UART_1_UartCyBtldrCommStart, %function
  25              	UART_1_UartCyBtldrCommStart:
  26              	.LFB0:
  27              		.file 1 "Generated_Source\\PSoC4\\UART_1_UART_BOOT.c"
   1:Generated_Source\PSoC4/UART_1_UART_BOOT.c **** /***************************************************************************//**
   2:Generated_Source\PSoC4/UART_1_UART_BOOT.c **** * \file UART_1_UART_BOOT.c
   3:Generated_Source\PSoC4/UART_1_UART_BOOT.c **** * \version 4.0
   4:Generated_Source\PSoC4/UART_1_UART_BOOT.c **** *
   5:Generated_Source\PSoC4/UART_1_UART_BOOT.c **** * \brief
   6:Generated_Source\PSoC4/UART_1_UART_BOOT.c **** *  This file provides the source code of the bootloader communication APIs
   7:Generated_Source\PSoC4/UART_1_UART_BOOT.c **** *  for the SCB Component UART mode.
   8:Generated_Source\PSoC4/UART_1_UART_BOOT.c **** *
   9:Generated_Source\PSoC4/UART_1_UART_BOOT.c **** * Note:
  10:Generated_Source\PSoC4/UART_1_UART_BOOT.c **** *
  11:Generated_Source\PSoC4/UART_1_UART_BOOT.c **** ********************************************************************************
  12:Generated_Source\PSoC4/UART_1_UART_BOOT.c **** * \copyright
  13:Generated_Source\PSoC4/UART_1_UART_BOOT.c **** * Copyright 2013-2017, Cypress Semiconductor Corporation.  All rights reserved.
  14:Generated_Source\PSoC4/UART_1_UART_BOOT.c **** * You may use this file only in accordance with the license, terms, conditions,
  15:Generated_Source\PSoC4/UART_1_UART_BOOT.c **** * disclaimers, and limitations in the end user license agreement accompanying
  16:Generated_Source\PSoC4/UART_1_UART_BOOT.c **** * the software package with which this file was provided.
  17:Generated_Source\PSoC4/UART_1_UART_BOOT.c **** *******************************************************************************/
  18:Generated_Source\PSoC4/UART_1_UART_BOOT.c **** 
  19:Generated_Source\PSoC4/UART_1_UART_BOOT.c **** #include "UART_1_BOOT.h"
  20:Generated_Source\PSoC4/UART_1_UART_BOOT.c **** #include "UART_1_SPI_UART.h"
  21:Generated_Source\PSoC4/UART_1_UART_BOOT.c **** 
  22:Generated_Source\PSoC4/UART_1_UART_BOOT.c **** #if defined(CYDEV_BOOTLOADER_IO_COMP) && (UART_1_UART_BTLDR_COMM_ENABLED)
  23:Generated_Source\PSoC4/UART_1_UART_BOOT.c **** 
  24:Generated_Source\PSoC4/UART_1_UART_BOOT.c **** /*******************************************************************************
  25:Generated_Source\PSoC4/UART_1_UART_BOOT.c **** * Function Name: UART_1_UartCyBtldrCommStart
  26:Generated_Source\PSoC4/UART_1_UART_BOOT.c **** ****************************************************************************//**
  27:Generated_Source\PSoC4/UART_1_UART_BOOT.c **** *
  28:Generated_Source\PSoC4/UART_1_UART_BOOT.c **** *  Starts the UART component.
  29:Generated_Source\PSoC4/UART_1_UART_BOOT.c **** *
  30:Generated_Source\PSoC4/UART_1_UART_BOOT.c **** *******************************************************************************/
ARM GAS  C:\Users\Ala\AppData\Local\Temp\ccR90kW6.s 			page 2


  31:Generated_Source\PSoC4/UART_1_UART_BOOT.c **** void UART_1_UartCyBtldrCommStart(void)
  32:Generated_Source\PSoC4/UART_1_UART_BOOT.c **** {
  28              		.loc 1 32 0
  29              		.cfi_startproc
  30              		@ args = 0, pretend = 0, frame = 0
  31              		@ frame_needed = 1, uses_anonymous_args = 0
  32 0000 80B5     		push	{r7, lr}
  33              		.cfi_def_cfa_offset 8
  34              		.cfi_offset 7, -8
  35              		.cfi_offset 14, -4
  36 0002 00AF     		add	r7, sp, #0
  37              		.cfi_def_cfa_register 7
  33:Generated_Source\PSoC4/UART_1_UART_BOOT.c ****     UART_1_Start();
  38              		.loc 1 33 0
  39 0004 FFF7FEFF 		bl	UART_1_Start
  34:Generated_Source\PSoC4/UART_1_UART_BOOT.c **** }
  40              		.loc 1 34 0
  41 0008 C046     		nop
  42 000a BD46     		mov	sp, r7
  43              		@ sp needed
  44 000c 80BD     		pop	{r7, pc}
  45              		.cfi_endproc
  46              	.LFE0:
  47              		.size	UART_1_UartCyBtldrCommStart, .-UART_1_UartCyBtldrCommStart
  48 000e C046     		.section	.text.UART_1_UartCyBtldrCommStop,"ax",%progbits
  49              		.align	2
  50              		.global	UART_1_UartCyBtldrCommStop
  51              		.code	16
  52              		.thumb_func
  53              		.type	UART_1_UartCyBtldrCommStop, %function
  54              	UART_1_UartCyBtldrCommStop:
  55              	.LFB1:
  35:Generated_Source\PSoC4/UART_1_UART_BOOT.c **** 
  36:Generated_Source\PSoC4/UART_1_UART_BOOT.c **** 
  37:Generated_Source\PSoC4/UART_1_UART_BOOT.c **** /*******************************************************************************
  38:Generated_Source\PSoC4/UART_1_UART_BOOT.c **** * Function Name: UART_1_UartCyBtldrCommStop
  39:Generated_Source\PSoC4/UART_1_UART_BOOT.c **** ****************************************************************************//**
  40:Generated_Source\PSoC4/UART_1_UART_BOOT.c **** *
  41:Generated_Source\PSoC4/UART_1_UART_BOOT.c **** *  Disables the UART component.
  42:Generated_Source\PSoC4/UART_1_UART_BOOT.c **** *
  43:Generated_Source\PSoC4/UART_1_UART_BOOT.c **** *******************************************************************************/
  44:Generated_Source\PSoC4/UART_1_UART_BOOT.c **** void UART_1_UartCyBtldrCommStop(void)
  45:Generated_Source\PSoC4/UART_1_UART_BOOT.c **** {
  56              		.loc 1 45 0
  57              		.cfi_startproc
  58              		@ args = 0, pretend = 0, frame = 0
  59              		@ frame_needed = 1, uses_anonymous_args = 0
  60 0000 80B5     		push	{r7, lr}
  61              		.cfi_def_cfa_offset 8
  62              		.cfi_offset 7, -8
  63              		.cfi_offset 14, -4
  64 0002 00AF     		add	r7, sp, #0
  65              		.cfi_def_cfa_register 7
  46:Generated_Source\PSoC4/UART_1_UART_BOOT.c ****     UART_1_Stop();
  66              		.loc 1 46 0
  67 0004 FFF7FEFF 		bl	UART_1_Stop
  47:Generated_Source\PSoC4/UART_1_UART_BOOT.c **** }
ARM GAS  C:\Users\Ala\AppData\Local\Temp\ccR90kW6.s 			page 3


  68              		.loc 1 47 0
  69 0008 C046     		nop
  70 000a BD46     		mov	sp, r7
  71              		@ sp needed
  72 000c 80BD     		pop	{r7, pc}
  73              		.cfi_endproc
  74              	.LFE1:
  75              		.size	UART_1_UartCyBtldrCommStop, .-UART_1_UartCyBtldrCommStop
  76 000e C046     		.section	.text.UART_1_UartCyBtldrCommReset,"ax",%progbits
  77              		.align	2
  78              		.global	UART_1_UartCyBtldrCommReset
  79              		.code	16
  80              		.thumb_func
  81              		.type	UART_1_UartCyBtldrCommReset, %function
  82              	UART_1_UartCyBtldrCommReset:
  83              	.LFB2:
  48:Generated_Source\PSoC4/UART_1_UART_BOOT.c **** 
  49:Generated_Source\PSoC4/UART_1_UART_BOOT.c **** 
  50:Generated_Source\PSoC4/UART_1_UART_BOOT.c **** /*******************************************************************************
  51:Generated_Source\PSoC4/UART_1_UART_BOOT.c **** * Function Name: UART_1_UartCyBtldrCommReset
  52:Generated_Source\PSoC4/UART_1_UART_BOOT.c **** ****************************************************************************//**
  53:Generated_Source\PSoC4/UART_1_UART_BOOT.c **** *
  54:Generated_Source\PSoC4/UART_1_UART_BOOT.c **** *  Resets the receive and transmit communication buffers.
  55:Generated_Source\PSoC4/UART_1_UART_BOOT.c **** *
  56:Generated_Source\PSoC4/UART_1_UART_BOOT.c **** *******************************************************************************/
  57:Generated_Source\PSoC4/UART_1_UART_BOOT.c **** void UART_1_UartCyBtldrCommReset(void)
  58:Generated_Source\PSoC4/UART_1_UART_BOOT.c **** {
  84              		.loc 1 58 0
  85              		.cfi_startproc
  86              		@ args = 0, pretend = 0, frame = 0
  87              		@ frame_needed = 1, uses_anonymous_args = 0
  88 0000 80B5     		push	{r7, lr}
  89              		.cfi_def_cfa_offset 8
  90              		.cfi_offset 7, -8
  91              		.cfi_offset 14, -4
  92 0002 00AF     		add	r7, sp, #0
  93              		.cfi_def_cfa_register 7
  59:Generated_Source\PSoC4/UART_1_UART_BOOT.c ****     /* Clear RX and TX buffers */
  60:Generated_Source\PSoC4/UART_1_UART_BOOT.c ****     UART_1_SpiUartClearRxBuffer();
  94              		.loc 1 60 0
  95 0004 FFF7FEFF 		bl	UART_1_SpiUartClearRxBuffer
  61:Generated_Source\PSoC4/UART_1_UART_BOOT.c ****     UART_1_SpiUartClearTxBuffer();
  96              		.loc 1 61 0
  97 0008 FFF7FEFF 		bl	UART_1_SpiUartClearTxBuffer
  62:Generated_Source\PSoC4/UART_1_UART_BOOT.c **** }
  98              		.loc 1 62 0
  99 000c C046     		nop
 100 000e BD46     		mov	sp, r7
 101              		@ sp needed
 102 0010 80BD     		pop	{r7, pc}
 103              		.cfi_endproc
 104              	.LFE2:
 105              		.size	UART_1_UartCyBtldrCommReset, .-UART_1_UartCyBtldrCommReset
 106 0012 C046     		.section	.text.UART_1_UartCyBtldrCommRead,"ax",%progbits
 107              		.align	2
 108              		.global	UART_1_UartCyBtldrCommRead
 109              		.code	16
ARM GAS  C:\Users\Ala\AppData\Local\Temp\ccR90kW6.s 			page 4


 110              		.thumb_func
 111              		.type	UART_1_UartCyBtldrCommRead, %function
 112              	UART_1_UartCyBtldrCommRead:
 113              	.LFB3:
  63:Generated_Source\PSoC4/UART_1_UART_BOOT.c **** 
  64:Generated_Source\PSoC4/UART_1_UART_BOOT.c **** 
  65:Generated_Source\PSoC4/UART_1_UART_BOOT.c **** /*******************************************************************************
  66:Generated_Source\PSoC4/UART_1_UART_BOOT.c **** * Function Name: UART_1_UartCyBtldrCommRead
  67:Generated_Source\PSoC4/UART_1_UART_BOOT.c **** ****************************************************************************//**
  68:Generated_Source\PSoC4/UART_1_UART_BOOT.c **** *
  69:Generated_Source\PSoC4/UART_1_UART_BOOT.c **** *  Allows the caller to read data from the bootloader host (the host writes the
  70:Generated_Source\PSoC4/UART_1_UART_BOOT.c **** *  data). The function handles polling to allow a block of data to be completely
  71:Generated_Source\PSoC4/UART_1_UART_BOOT.c **** *  received from the host device.
  72:Generated_Source\PSoC4/UART_1_UART_BOOT.c **** *
  73:Generated_Source\PSoC4/UART_1_UART_BOOT.c **** *  \param pData: Pointer to storage for the block of data to be read from the
  74:Generated_Source\PSoC4/UART_1_UART_BOOT.c **** *   bootloader host
  75:Generated_Source\PSoC4/UART_1_UART_BOOT.c **** *  \param size: Number of bytes to be read.
  76:Generated_Source\PSoC4/UART_1_UART_BOOT.c **** *  \param count: Pointer to the variable to write the number of bytes actually
  77:Generated_Source\PSoC4/UART_1_UART_BOOT.c **** *   read.
  78:Generated_Source\PSoC4/UART_1_UART_BOOT.c **** *  \param timeOut Number of units in 10 ms to wait before returning
  79:Generated_Source\PSoC4/UART_1_UART_BOOT.c **** *   because of a timeout.
  80:Generated_Source\PSoC4/UART_1_UART_BOOT.c **** *
  81:Generated_Source\PSoC4/UART_1_UART_BOOT.c **** *  \return
  82:Generated_Source\PSoC4/UART_1_UART_BOOT.c **** *   Returns CYRET_SUCCESS if no problem was encountered or returns the value
  83:Generated_Source\PSoC4/UART_1_UART_BOOT.c **** *   that best describes the problem. For more information refer to the
  84:Generated_Source\PSoC4/UART_1_UART_BOOT.c **** *   "Return Codes" section of the System Reference Guide.
  85:Generated_Source\PSoC4/UART_1_UART_BOOT.c **** *
  86:Generated_Source\PSoC4/UART_1_UART_BOOT.c **** *******************************************************************************/
  87:Generated_Source\PSoC4/UART_1_UART_BOOT.c **** cystatus UART_1_UartCyBtldrCommRead(uint8 pData[], uint16 size, uint16 * count, uint8 timeOut)
  88:Generated_Source\PSoC4/UART_1_UART_BOOT.c **** {
 114              		.loc 1 88 0
 115              		.cfi_startproc
 116              		@ args = 0, pretend = 0, frame = 32
 117              		@ frame_needed = 1, uses_anonymous_args = 0
 118 0000 90B5     		push	{r4, r7, lr}
 119              		.cfi_def_cfa_offset 12
 120              		.cfi_offset 4, -12
 121              		.cfi_offset 7, -8
 122              		.cfi_offset 14, -4
 123 0002 89B0     		sub	sp, sp, #36
 124              		.cfi_def_cfa_offset 48
 125 0004 00AF     		add	r7, sp, #0
 126              		.cfi_def_cfa_register 7
 127 0006 F860     		str	r0, [r7, #12]
 128 0008 0800     		movs	r0, r1
 129 000a 7A60     		str	r2, [r7, #4]
 130 000c 1900     		movs	r1, r3
 131 000e 0A23     		movs	r3, #10
 132 0010 FB18     		adds	r3, r7, r3
 133 0012 021C     		adds	r2, r0, #0
 134 0014 1A80     		strh	r2, [r3]
 135 0016 0923     		movs	r3, #9
 136 0018 FB18     		adds	r3, r7, r3
 137 001a 0A1C     		adds	r2, r1, #0
 138 001c 1A70     		strb	r2, [r3]
  89:Generated_Source\PSoC4/UART_1_UART_BOOT.c ****     cystatus status;
  90:Generated_Source\PSoC4/UART_1_UART_BOOT.c ****     uint32 byteCount;
ARM GAS  C:\Users\Ala\AppData\Local\Temp\ccR90kW6.s 			page 5


  91:Generated_Source\PSoC4/UART_1_UART_BOOT.c ****     uint32 timeoutMs;
  92:Generated_Source\PSoC4/UART_1_UART_BOOT.c ****     uint32 i;
  93:Generated_Source\PSoC4/UART_1_UART_BOOT.c **** 
  94:Generated_Source\PSoC4/UART_1_UART_BOOT.c ****     status = CYRET_BAD_PARAM;
 139              		.loc 1 94 0
 140 001e 0123     		movs	r3, #1
 141 0020 FB61     		str	r3, [r7, #28]
  95:Generated_Source\PSoC4/UART_1_UART_BOOT.c **** 
  96:Generated_Source\PSoC4/UART_1_UART_BOOT.c ****     if ((NULL != pData) && (size > 0u))
 142              		.loc 1 96 0
 143 0022 FB68     		ldr	r3, [r7, #12]
 144 0024 002B     		cmp	r3, #0
 145 0026 4BD0     		beq	.L5
 146              		.loc 1 96 0 is_stmt 0 discriminator 1
 147 0028 0A23     		movs	r3, #10
 148 002a FB18     		adds	r3, r7, r3
 149 002c 1B88     		ldrh	r3, [r3]
 150 002e 002B     		cmp	r3, #0
 151 0030 46D0     		beq	.L5
  97:Generated_Source\PSoC4/UART_1_UART_BOOT.c ****     {
  98:Generated_Source\PSoC4/UART_1_UART_BOOT.c ****         status = CYRET_TIMEOUT;
 152              		.loc 1 98 0 is_stmt 1
 153 0032 1023     		movs	r3, #16
 154 0034 FB61     		str	r3, [r7, #28]
  99:Generated_Source\PSoC4/UART_1_UART_BOOT.c ****         timeoutMs = ((uint32) 10u * timeOut); /* Convert from 10mS check to 1mS checks */
 155              		.loc 1 99 0
 156 0036 0923     		movs	r3, #9
 157 0038 FB18     		adds	r3, r7, r3
 158 003a 1A78     		ldrb	r2, [r3]
 159 003c 1300     		movs	r3, r2
 160 003e 9B00     		lsls	r3, r3, #2
 161 0040 9B18     		adds	r3, r3, r2
 162 0042 5B00     		lsls	r3, r3, #1
 163 0044 7B61     		str	r3, [r7, #20]
 100:Generated_Source\PSoC4/UART_1_UART_BOOT.c **** 
 101:Generated_Source\PSoC4/UART_1_UART_BOOT.c ****         /* Wait with timeout 1mS for packet end */
 102:Generated_Source\PSoC4/UART_1_UART_BOOT.c ****         byteCount = 0u;
 164              		.loc 1 102 0
 165 0046 0023     		movs	r3, #0
 166 0048 BB61     		str	r3, [r7, #24]
 167              	.L10:
 103:Generated_Source\PSoC4/UART_1_UART_BOOT.c ****         do
 104:Generated_Source\PSoC4/UART_1_UART_BOOT.c ****         {
 105:Generated_Source\PSoC4/UART_1_UART_BOOT.c ****             /* Check packet start */
 106:Generated_Source\PSoC4/UART_1_UART_BOOT.c ****             if (0u != UART_1_SpiUartGetRxBufferSize())
 168              		.loc 1 106 0
 169 004a FFF7FEFF 		bl	UART_1_SpiUartGetRxBufferSize
 170 004e 031E     		subs	r3, r0, #0
 171 0050 1BD0     		beq	.L6
 172              	.L7:
 107:Generated_Source\PSoC4/UART_1_UART_BOOT.c ****             {
 108:Generated_Source\PSoC4/UART_1_UART_BOOT.c ****                 /* Wait for end of packet */
 109:Generated_Source\PSoC4/UART_1_UART_BOOT.c ****                 do
 110:Generated_Source\PSoC4/UART_1_UART_BOOT.c ****                 {
 111:Generated_Source\PSoC4/UART_1_UART_BOOT.c ****                     byteCount = UART_1_SpiUartGetRxBufferSize();
 173              		.loc 1 111 0 discriminator 1
 174 0052 FFF7FEFF 		bl	UART_1_SpiUartGetRxBufferSize
ARM GAS  C:\Users\Ala\AppData\Local\Temp\ccR90kW6.s 			page 6


 175 0056 0300     		movs	r3, r0
 176 0058 BB61     		str	r3, [r7, #24]
 112:Generated_Source\PSoC4/UART_1_UART_BOOT.c ****                     CyDelayUs(UART_1_UART_BYTE_TO_BYTE);
 177              		.loc 1 112 0 discriminator 1
 178 005a AB20     		movs	r0, #171
 179 005c FFF7FEFF 		bl	CyDelayUs
 113:Generated_Source\PSoC4/UART_1_UART_BOOT.c ****                 }
 114:Generated_Source\PSoC4/UART_1_UART_BOOT.c ****                 while (byteCount != UART_1_SpiUartGetRxBufferSize());
 180              		.loc 1 114 0 discriminator 1
 181 0060 FFF7FEFF 		bl	UART_1_SpiUartGetRxBufferSize
 182 0064 0200     		movs	r2, r0
 183 0066 BB69     		ldr	r3, [r7, #24]
 184 0068 9A42     		cmp	r2, r3
 185 006a F2D1     		bne	.L7
 115:Generated_Source\PSoC4/UART_1_UART_BOOT.c **** 
 116:Generated_Source\PSoC4/UART_1_UART_BOOT.c ****                 byteCount = UART_1_BYTES_TO_COPY(byteCount, size);
 186              		.loc 1 116 0
 187 006c 0A23     		movs	r3, #10
 188 006e FB18     		adds	r3, r7, r3
 189 0070 1B88     		ldrh	r3, [r3]
 190 0072 BA69     		ldr	r2, [r7, #24]
 191 0074 9342     		cmp	r3, r2
 192 0076 00D9     		bls	.L8
 193 0078 1300     		movs	r3, r2
 194              	.L8:
 195 007a BB61     		str	r3, [r7, #24]
 117:Generated_Source\PSoC4/UART_1_UART_BOOT.c ****                 *count = (uint16) byteCount;
 196              		.loc 1 117 0
 197 007c BB69     		ldr	r3, [r7, #24]
 198 007e 9AB2     		uxth	r2, r3
 199 0080 7B68     		ldr	r3, [r7, #4]
 200 0082 1A80     		strh	r2, [r3]
 118:Generated_Source\PSoC4/UART_1_UART_BOOT.c ****                 status = CYRET_SUCCESS;
 201              		.loc 1 118 0
 202 0084 0023     		movs	r3, #0
 203 0086 FB61     		str	r3, [r7, #28]
 119:Generated_Source\PSoC4/UART_1_UART_BOOT.c **** 
 120:Generated_Source\PSoC4/UART_1_UART_BOOT.c ****                 break;
 204              		.loc 1 120 0
 205 0088 08E0     		b	.L9
 206              	.L6:
 121:Generated_Source\PSoC4/UART_1_UART_BOOT.c ****             }
 122:Generated_Source\PSoC4/UART_1_UART_BOOT.c **** 
 123:Generated_Source\PSoC4/UART_1_UART_BOOT.c ****             CyDelay(UART_1_WAIT_1_MS);
 207              		.loc 1 123 0
 208 008a 0120     		movs	r0, #1
 209 008c FFF7FEFF 		bl	CyDelay
 124:Generated_Source\PSoC4/UART_1_UART_BOOT.c ****             --timeoutMs;
 210              		.loc 1 124 0
 211 0090 7B69     		ldr	r3, [r7, #20]
 212 0092 013B     		subs	r3, r3, #1
 213 0094 7B61     		str	r3, [r7, #20]
 125:Generated_Source\PSoC4/UART_1_UART_BOOT.c ****         }
 126:Generated_Source\PSoC4/UART_1_UART_BOOT.c ****         while (0u != timeoutMs);
 214              		.loc 1 126 0
 215 0096 7B69     		ldr	r3, [r7, #20]
 216 0098 002B     		cmp	r3, #0
ARM GAS  C:\Users\Ala\AppData\Local\Temp\ccR90kW6.s 			page 7


 217 009a D6D1     		bne	.L10
 218              	.L9:
 127:Generated_Source\PSoC4/UART_1_UART_BOOT.c **** 
 128:Generated_Source\PSoC4/UART_1_UART_BOOT.c ****         /* Get data from RX buffer into bootloader buffer */
 129:Generated_Source\PSoC4/UART_1_UART_BOOT.c ****         for (i = 0u; i < byteCount; ++i)
 219              		.loc 1 129 0
 220 009c 0023     		movs	r3, #0
 221 009e 3B61     		str	r3, [r7, #16]
 222 00a0 0AE0     		b	.L11
 223              	.L12:
 130:Generated_Source\PSoC4/UART_1_UART_BOOT.c ****         {
 131:Generated_Source\PSoC4/UART_1_UART_BOOT.c ****             pData[i] = (uint8) UART_1_SpiUartReadRxData();
 224              		.loc 1 131 0 discriminator 3
 225 00a2 FA68     		ldr	r2, [r7, #12]
 226 00a4 3B69     		ldr	r3, [r7, #16]
 227 00a6 D418     		adds	r4, r2, r3
 228 00a8 FFF7FEFF 		bl	UART_1_SpiUartReadRxData
 229 00ac 0300     		movs	r3, r0
 230 00ae DBB2     		uxtb	r3, r3
 231 00b0 2370     		strb	r3, [r4]
 129:Generated_Source\PSoC4/UART_1_UART_BOOT.c ****         {
 232              		.loc 1 129 0 discriminator 3
 233 00b2 3B69     		ldr	r3, [r7, #16]
 234 00b4 0133     		adds	r3, r3, #1
 235 00b6 3B61     		str	r3, [r7, #16]
 236              	.L11:
 129:Generated_Source\PSoC4/UART_1_UART_BOOT.c ****         {
 237              		.loc 1 129 0 is_stmt 0 discriminator 1
 238 00b8 3A69     		ldr	r2, [r7, #16]
 239 00ba BB69     		ldr	r3, [r7, #24]
 240 00bc 9A42     		cmp	r2, r3
 241 00be F0D3     		bcc	.L12
 242              	.L5:
 132:Generated_Source\PSoC4/UART_1_UART_BOOT.c ****         }
 133:Generated_Source\PSoC4/UART_1_UART_BOOT.c ****     }
 134:Generated_Source\PSoC4/UART_1_UART_BOOT.c **** 
 135:Generated_Source\PSoC4/UART_1_UART_BOOT.c ****     return (status);
 243              		.loc 1 135 0 is_stmt 1
 244 00c0 FB69     		ldr	r3, [r7, #28]
 136:Generated_Source\PSoC4/UART_1_UART_BOOT.c **** }
 245              		.loc 1 136 0
 246 00c2 1800     		movs	r0, r3
 247 00c4 BD46     		mov	sp, r7
 248 00c6 09B0     		add	sp, sp, #36
 249              		@ sp needed
 250 00c8 90BD     		pop	{r4, r7, pc}
 251              		.cfi_endproc
 252              	.LFE3:
 253              		.size	UART_1_UartCyBtldrCommRead, .-UART_1_UartCyBtldrCommRead
 254 00ca C046     		.section	.text.UART_1_UartCyBtldrCommWrite,"ax",%progbits
 255              		.align	2
 256              		.global	UART_1_UartCyBtldrCommWrite
 257              		.code	16
 258              		.thumb_func
 259              		.type	UART_1_UartCyBtldrCommWrite, %function
 260              	UART_1_UartCyBtldrCommWrite:
 261              	.LFB4:
ARM GAS  C:\Users\Ala\AppData\Local\Temp\ccR90kW6.s 			page 8


 137:Generated_Source\PSoC4/UART_1_UART_BOOT.c **** 
 138:Generated_Source\PSoC4/UART_1_UART_BOOT.c **** 
 139:Generated_Source\PSoC4/UART_1_UART_BOOT.c **** /*******************************************************************************
 140:Generated_Source\PSoC4/UART_1_UART_BOOT.c **** * Function Name: UART_1_UartCyBtldrCommWrite
 141:Generated_Source\PSoC4/UART_1_UART_BOOT.c **** ****************************************************************************//**
 142:Generated_Source\PSoC4/UART_1_UART_BOOT.c **** *
 143:Generated_Source\PSoC4/UART_1_UART_BOOT.c **** *  Allows the caller to write data to the bootloader host (the host reads the
 144:Generated_Source\PSoC4/UART_1_UART_BOOT.c **** *  data). The function does not use timeout and returns after data has been
 145:Generated_Source\PSoC4/UART_1_UART_BOOT.c **** *  copied into the transmit buffer. The data transmission starts immediately
 146:Generated_Source\PSoC4/UART_1_UART_BOOT.c **** *  after the first data element is written into the buffer and lasts until all
 147:Generated_Source\PSoC4/UART_1_UART_BOOT.c **** *  data elements from the buffer are sent.
 148:Generated_Source\PSoC4/UART_1_UART_BOOT.c **** *
 149:Generated_Source\PSoC4/UART_1_UART_BOOT.c **** *  \param pData: Pointer to the block of data to be written to the bootloader
 150:Generated_Source\PSoC4/UART_1_UART_BOOT.c **** *   host.
 151:Generated_Source\PSoC4/UART_1_UART_BOOT.c **** *  \param size: Number of bytes to be written.
 152:Generated_Source\PSoC4/UART_1_UART_BOOT.c **** *  \param count: Pointer to the variable to write the number of bytes actually
 153:Generated_Source\PSoC4/UART_1_UART_BOOT.c **** *   written.
 154:Generated_Source\PSoC4/UART_1_UART_BOOT.c **** *  \param timeOut: The timeout is not used by this function.
 155:Generated_Source\PSoC4/UART_1_UART_BOOT.c **** *   The function returns as soon as data is copied into the transmit buffer.
 156:Generated_Source\PSoC4/UART_1_UART_BOOT.c **** *
 157:Generated_Source\PSoC4/UART_1_UART_BOOT.c **** *  \return
 158:Generated_Source\PSoC4/UART_1_UART_BOOT.c **** *   Returns CYRET_SUCCESS if no problem was encountered or returns the value
 159:Generated_Source\PSoC4/UART_1_UART_BOOT.c **** *   that best describes the problem. For more information refer to the
 160:Generated_Source\PSoC4/UART_1_UART_BOOT.c **** *   "Return Codes" section of the System Reference Guide.
 161:Generated_Source\PSoC4/UART_1_UART_BOOT.c **** *
 162:Generated_Source\PSoC4/UART_1_UART_BOOT.c **** *******************************************************************************/
 163:Generated_Source\PSoC4/UART_1_UART_BOOT.c **** cystatus UART_1_UartCyBtldrCommWrite(const uint8 pData[], uint16 size, uint16 * count, uint8 timeOu
 164:Generated_Source\PSoC4/UART_1_UART_BOOT.c **** {
 262              		.loc 1 164 0
 263              		.cfi_startproc
 264              		@ args = 0, pretend = 0, frame = 24
 265              		@ frame_needed = 1, uses_anonymous_args = 0
 266 0000 80B5     		push	{r7, lr}
 267              		.cfi_def_cfa_offset 8
 268              		.cfi_offset 7, -8
 269              		.cfi_offset 14, -4
 270 0002 86B0     		sub	sp, sp, #24
 271              		.cfi_def_cfa_offset 32
 272 0004 00AF     		add	r7, sp, #0
 273              		.cfi_def_cfa_register 7
 274 0006 F860     		str	r0, [r7, #12]
 275 0008 0800     		movs	r0, r1
 276 000a 7A60     		str	r2, [r7, #4]
 277 000c 1900     		movs	r1, r3
 278 000e 0A23     		movs	r3, #10
 279 0010 FB18     		adds	r3, r7, r3
 280 0012 021C     		adds	r2, r0, #0
 281 0014 1A80     		strh	r2, [r3]
 282 0016 0923     		movs	r3, #9
 283 0018 FB18     		adds	r3, r7, r3
 284 001a 0A1C     		adds	r2, r1, #0
 285 001c 1A70     		strb	r2, [r3]
 165:Generated_Source\PSoC4/UART_1_UART_BOOT.c ****     cystatus status;
 166:Generated_Source\PSoC4/UART_1_UART_BOOT.c **** 
 167:Generated_Source\PSoC4/UART_1_UART_BOOT.c ****     status = CYRET_BAD_PARAM;
 286              		.loc 1 167 0
 287 001e 0123     		movs	r3, #1
ARM GAS  C:\Users\Ala\AppData\Local\Temp\ccR90kW6.s 			page 9


 288 0020 7B61     		str	r3, [r7, #20]
 168:Generated_Source\PSoC4/UART_1_UART_BOOT.c **** 
 169:Generated_Source\PSoC4/UART_1_UART_BOOT.c ****     if ((NULL != pData) && (size > 0u))
 289              		.loc 1 169 0
 290 0022 FB68     		ldr	r3, [r7, #12]
 291 0024 002B     		cmp	r3, #0
 292 0026 13D0     		beq	.L15
 293              		.loc 1 169 0 is_stmt 0 discriminator 1
 294 0028 0A23     		movs	r3, #10
 295 002a FB18     		adds	r3, r7, r3
 296 002c 1B88     		ldrh	r3, [r3]
 297 002e 002B     		cmp	r3, #0
 298 0030 0ED0     		beq	.L15
 170:Generated_Source\PSoC4/UART_1_UART_BOOT.c ****     {
 171:Generated_Source\PSoC4/UART_1_UART_BOOT.c ****         /* Transmit data. This function does not wait until data is sent. */
 172:Generated_Source\PSoC4/UART_1_UART_BOOT.c ****         UART_1_SpiUartPutArray(pData, (uint32) size);
 299              		.loc 1 172 0 is_stmt 1
 300 0032 0A23     		movs	r3, #10
 301 0034 FB18     		adds	r3, r7, r3
 302 0036 1A88     		ldrh	r2, [r3]
 303 0038 FB68     		ldr	r3, [r7, #12]
 304 003a 1100     		movs	r1, r2
 305 003c 1800     		movs	r0, r3
 306 003e FFF7FEFF 		bl	UART_1_SpiUartPutArray
 173:Generated_Source\PSoC4/UART_1_UART_BOOT.c **** 
 174:Generated_Source\PSoC4/UART_1_UART_BOOT.c ****         *count = size;
 307              		.loc 1 174 0
 308 0042 7B68     		ldr	r3, [r7, #4]
 309 0044 0A22     		movs	r2, #10
 310 0046 BA18     		adds	r2, r7, r2
 311 0048 1288     		ldrh	r2, [r2]
 312 004a 1A80     		strh	r2, [r3]
 175:Generated_Source\PSoC4/UART_1_UART_BOOT.c ****         status = CYRET_SUCCESS;
 313              		.loc 1 175 0
 314 004c 0023     		movs	r3, #0
 315 004e 7B61     		str	r3, [r7, #20]
 316              	.L15:
 176:Generated_Source\PSoC4/UART_1_UART_BOOT.c **** 
 177:Generated_Source\PSoC4/UART_1_UART_BOOT.c ****         if (0u != timeOut)
 178:Generated_Source\PSoC4/UART_1_UART_BOOT.c ****         {
 179:Generated_Source\PSoC4/UART_1_UART_BOOT.c ****             /* Suppress compiler warning */
 180:Generated_Source\PSoC4/UART_1_UART_BOOT.c ****         }
 181:Generated_Source\PSoC4/UART_1_UART_BOOT.c ****     }
 182:Generated_Source\PSoC4/UART_1_UART_BOOT.c **** 
 183:Generated_Source\PSoC4/UART_1_UART_BOOT.c ****     return (status);
 317              		.loc 1 183 0
 318 0050 7B69     		ldr	r3, [r7, #20]
 184:Generated_Source\PSoC4/UART_1_UART_BOOT.c **** }
 319              		.loc 1 184 0
 320 0052 1800     		movs	r0, r3
 321 0054 BD46     		mov	sp, r7
 322 0056 06B0     		add	sp, sp, #24
 323              		@ sp needed
 324 0058 80BD     		pop	{r7, pc}
 325              		.cfi_endproc
 326              	.LFE4:
 327              		.size	UART_1_UartCyBtldrCommWrite, .-UART_1_UartCyBtldrCommWrite
ARM GAS  C:\Users\Ala\AppData\Local\Temp\ccR90kW6.s 			page 10


 328 005a C046     		.text
 329              	.Letext0:
 330              		.file 2 "Generated_Source\\PSoC4/cytypes.h"